
foo.exe:     file format pei-i386


Disassembly of section .text:

00401000 <__gnu_exception_handler@4>:
  401000:	53                   	push   %ebx
  401001:	83 ec 18             	sub    $0x18,%esp
  401004:	8b 44 24 20          	mov    0x20(%esp),%eax
  401008:	8b 00                	mov    (%eax),%eax
  40100a:	8b 00                	mov    (%eax),%eax
  40100c:	3d 91 00 00 c0       	cmp    $0xc0000091,%eax
  401011:	77 4d                	ja     401060 <__gnu_exception_handler@4+0x60>
  401013:	3d 8d 00 00 c0       	cmp    $0xc000008d,%eax
  401018:	73 5b                	jae    401075 <__gnu_exception_handler@4+0x75>
  40101a:	3d 05 00 00 c0       	cmp    $0xc0000005,%eax
  40101f:	0f 85 8e 00 00 00    	jne    4010b3 <__gnu_exception_handler@4+0xb3>
  401025:	c7 44 24 04 00 00 00 	movl   $0x0,0x4(%esp)
  40102c:	00 
  40102d:	c7 04 24 0b 00 00 00 	movl   $0xb,(%esp)
  401034:	e8 27 93 00 00       	call   40a360 <_signal>
  401039:	83 f8 01             	cmp    $0x1,%eax
  40103c:	0f 84 c1 00 00 00    	je     401103 <__gnu_exception_handler@4+0x103>
  401042:	85 c0                	test   %eax,%eax
  401044:	0f 85 a6 00 00 00    	jne    4010f0 <__gnu_exception_handler@4+0xf0>
  40104a:	8d b6 00 00 00 00    	lea    0x0(%esi),%esi
  401050:	31 c0                	xor    %eax,%eax
  401052:	83 c4 18             	add    $0x18,%esp
  401055:	5b                   	pop    %ebx
  401056:	c2 04 00             	ret    $0x4
  401059:	8d b4 26 00 00 00 00 	lea    0x0(%esi,%eiz,1),%esi
  401060:	3d 94 00 00 c0       	cmp    $0xc0000094,%eax
  401065:	74 19                	je     401080 <__gnu_exception_handler@4+0x80>
  401067:	3d 96 00 00 c0       	cmp    $0xc0000096,%eax
  40106c:	74 4c                	je     4010ba <__gnu_exception_handler@4+0xba>
  40106e:	3d 93 00 00 c0       	cmp    $0xc0000093,%eax
  401073:	75 db                	jne    401050 <__gnu_exception_handler@4+0x50>
  401075:	bb 01 00 00 00       	mov    $0x1,%ebx
  40107a:	eb 06                	jmp    401082 <__gnu_exception_handler@4+0x82>
  40107c:	8d 74 26 00          	lea    0x0(%esi,%eiz,1),%esi
  401080:	31 db                	xor    %ebx,%ebx
  401082:	c7 44 24 04 00 00 00 	movl   $0x0,0x4(%esp)
  401089:	00 
  40108a:	c7 04 24 08 00 00 00 	movl   $0x8,(%esp)
  401091:	e8 ca 92 00 00       	call   40a360 <_signal>
  401096:	83 f8 01             	cmp    $0x1,%eax
  401099:	0f 84 a1 00 00 00    	je     401140 <__gnu_exception_handler@4+0x140>
  40109f:	85 c0                	test   %eax,%eax
  4010a1:	74 ad                	je     401050 <__gnu_exception_handler@4+0x50>
  4010a3:	c7 04 24 08 00 00 00 	movl   $0x8,(%esp)
  4010aa:	ff d0                	call   *%eax
  4010ac:	b8 ff ff ff ff       	mov    $0xffffffff,%eax
  4010b1:	eb 9f                	jmp    401052 <__gnu_exception_handler@4+0x52>
  4010b3:	3d 1d 00 00 c0       	cmp    $0xc000001d,%eax
  4010b8:	75 96                	jne    401050 <__gnu_exception_handler@4+0x50>
  4010ba:	c7 44 24 04 00 00 00 	movl   $0x0,0x4(%esp)
  4010c1:	00 
  4010c2:	c7 04 24 04 00 00 00 	movl   $0x4,(%esp)
  4010c9:	e8 92 92 00 00       	call   40a360 <_signal>
  4010ce:	83 f8 01             	cmp    $0x1,%eax
  4010d1:	74 4c                	je     40111f <__gnu_exception_handler@4+0x11f>
  4010d3:	85 c0                	test   %eax,%eax
  4010d5:	0f 84 75 ff ff ff    	je     401050 <__gnu_exception_handler@4+0x50>
  4010db:	c7 04 24 04 00 00 00 	movl   $0x4,(%esp)
  4010e2:	ff d0                	call   *%eax
  4010e4:	b8 ff ff ff ff       	mov    $0xffffffff,%eax
  4010e9:	e9 64 ff ff ff       	jmp    401052 <__gnu_exception_handler@4+0x52>
  4010ee:	66 90                	xchg   %ax,%ax
  4010f0:	c7 04 24 0b 00 00 00 	movl   $0xb,(%esp)
  4010f7:	ff d0                	call   *%eax
  4010f9:	b8 ff ff ff ff       	mov    $0xffffffff,%eax
  4010fe:	e9 4f ff ff ff       	jmp    401052 <__gnu_exception_handler@4+0x52>
  401103:	c7 44 24 04 01 00 00 	movl   $0x1,0x4(%esp)
  40110a:	00 
  40110b:	c7 04 24 0b 00 00 00 	movl   $0xb,(%esp)
  401112:	e8 49 92 00 00       	call   40a360 <_signal>
  401117:	83 c8 ff             	or     $0xffffffff,%eax
  40111a:	e9 33 ff ff ff       	jmp    401052 <__gnu_exception_handler@4+0x52>
  40111f:	c7 44 24 04 01 00 00 	movl   $0x1,0x4(%esp)
  401126:	00 
  401127:	c7 04 24 04 00 00 00 	movl   $0x4,(%esp)
  40112e:	e8 2d 92 00 00       	call   40a360 <_signal>
  401133:	83 c8 ff             	or     $0xffffffff,%eax
  401136:	e9 17 ff ff ff       	jmp    401052 <__gnu_exception_handler@4+0x52>
  40113b:	90                   	nop
  40113c:	8d 74 26 00          	lea    0x0(%esi,%eiz,1),%esi
  401140:	c7 44 24 04 01 00 00 	movl   $0x1,0x4(%esp)
  401147:	00 
  401148:	c7 04 24 08 00 00 00 	movl   $0x8,(%esp)
  40114f:	e8 0c 92 00 00       	call   40a360 <_signal>
  401154:	85 db                	test   %ebx,%ebx
  401156:	b8 ff ff ff ff       	mov    $0xffffffff,%eax
  40115b:	0f 84 f1 fe ff ff    	je     401052 <__gnu_exception_handler@4+0x52>
  401161:	89 44 24 0c          	mov    %eax,0xc(%esp)
  401165:	e8 96 25 00 00       	call   403700 <__fpreset>
  40116a:	8b 44 24 0c          	mov    0xc(%esp),%eax
  40116e:	e9 df fe ff ff       	jmp    401052 <__gnu_exception_handler@4+0x52>
  401173:	8d b6 00 00 00 00    	lea    0x0(%esi),%esi
  401179:	8d bc 27 00 00 00 00 	lea    0x0(%edi,%eiz,1),%edi

00401180 <___mingw_CRTStartup>:
  401180:	55                   	push   %ebp
  401181:	89 e5                	mov    %esp,%ebp
  401183:	53                   	push   %ebx
  401184:	83 ec 14             	sub    $0x14,%esp
  401187:	a1 94 c0 40 00       	mov    0x40c094,%eax
  40118c:	85 c0                	test   %eax,%eax
  40118e:	74 1c                	je     4011ac <___mingw_CRTStartup+0x2c>
  401190:	c7 44 24 08 00 00 00 	movl   $0x0,0x8(%esp)
  401197:	00 
  401198:	c7 44 24 04 02 00 00 	movl   $0x2,0x4(%esp)
  40119f:	00 
  4011a0:	c7 04 24 00 00 00 00 	movl   $0x0,(%esp)
  4011a7:	ff d0                	call   *%eax
  4011a9:	83 ec 0c             	sub    $0xc,%esp
  4011ac:	c7 04 24 00 10 40 00 	movl   $0x401000,(%esp)
  4011b3:	e8 a8 92 00 00       	call   40a460 <_SetUnhandledExceptionFilter@4>
  4011b8:	83 ec 04             	sub    $0x4,%esp
  4011bb:	e8 50 25 00 00       	call   403710 <___cpu_features_init>
  4011c0:	e8 3b 25 00 00       	call   403700 <__fpreset>
  4011c5:	e8 26 26 00 00       	call   4037f0 <__setargv>
  4011ca:	a1 38 f0 40 00       	mov    0x40f038,%eax
  4011cf:	85 c0                	test   %eax,%eax
  4011d1:	74 42                	je     401215 <___mingw_CRTStartup+0x95>
  4011d3:	8b 1d d0 01 41 00    	mov    0x4101d0,%ebx
  4011d9:	a3 e0 b1 40 00       	mov    %eax,0x40b1e0
  4011de:	89 44 24 04          	mov    %eax,0x4(%esp)
  4011e2:	8b 43 10             	mov    0x10(%ebx),%eax
  4011e5:	89 04 24             	mov    %eax,(%esp)
  4011e8:	e8 7b 91 00 00       	call   40a368 <__setmode>
  4011ed:	a1 38 f0 40 00       	mov    0x40f038,%eax
  4011f2:	89 44 24 04          	mov    %eax,0x4(%esp)
  4011f6:	8b 43 30             	mov    0x30(%ebx),%eax
  4011f9:	89 04 24             	mov    %eax,(%esp)
  4011fc:	e8 67 91 00 00       	call   40a368 <__setmode>
  401201:	a1 38 f0 40 00       	mov    0x40f038,%eax
  401206:	89 44 24 04          	mov    %eax,0x4(%esp)
  40120a:	8b 43 50             	mov    0x50(%ebx),%eax
  40120d:	89 04 24             	mov    %eax,(%esp)
  401210:	e8 53 91 00 00       	call   40a368 <__setmode>
  401215:	e8 56 91 00 00       	call   40a370 <___p__fmode>
  40121a:	8b 15 e0 b1 40 00    	mov    0x40b1e0,%edx
  401220:	89 10                	mov    %edx,(%eax)
  401222:	e8 19 2a 00 00       	call   403c40 <__pei386_runtime_relocator>
  401227:	83 e4 f0             	and    $0xfffffff0,%esp
  40122a:	e8 71 2c 00 00       	call   403ea0 <___main>
  40122f:	e8 44 91 00 00       	call   40a378 <___p__environ>
  401234:	8b 00                	mov    (%eax),%eax
  401236:	89 44 24 08          	mov    %eax,0x8(%esp)
  40123a:	a1 00 f0 40 00       	mov    0x40f000,%eax
  40123f:	89 44 24 04          	mov    %eax,0x4(%esp)
  401243:	a1 04 f0 40 00       	mov    0x40f004,%eax
  401248:	89 04 24             	mov    %eax,(%esp)
  40124b:	e8 32 03 00 00       	call   401582 <_main>
  401250:	89 c3                	mov    %eax,%ebx
  401252:	e8 29 91 00 00       	call   40a380 <__cexit>
  401257:	89 1c 24             	mov    %ebx,(%esp)
  40125a:	e8 09 92 00 00       	call   40a468 <_ExitProcess@4>
  40125f:	90                   	nop

00401260 <__mingw32_init_mainargs>:
  401260:	83 ec 3c             	sub    $0x3c,%esp
  401263:	8d 44 24 2c          	lea    0x2c(%esp),%eax
  401267:	89 44 24 10          	mov    %eax,0x10(%esp)
  40126b:	a1 e4 b1 40 00       	mov    0x40b1e4,%eax
  401270:	c7 44 24 04 00 f0 40 	movl   $0x40f000,0x4(%esp)
  401277:	00 
  401278:	c7 04 24 04 f0 40 00 	movl   $0x40f004,(%esp)
  40127f:	c7 44 24 2c 00 00 00 	movl   $0x0,0x2c(%esp)
  401286:	00 
  401287:	83 e0 01             	and    $0x1,%eax
  40128a:	89 44 24 0c          	mov    %eax,0xc(%esp)
  40128e:	8d 44 24 28          	lea    0x28(%esp),%eax
  401292:	89 44 24 08          	mov    %eax,0x8(%esp)
  401296:	e8 ed 90 00 00       	call   40a388 <___getmainargs>
  40129b:	83 c4 3c             	add    $0x3c,%esp
  40129e:	c3                   	ret    
  40129f:	90                   	nop

004012a0 <_mainCRTStartup>:
  4012a0:	83 ec 1c             	sub    $0x1c,%esp
  4012a3:	c7 04 24 01 00 00 00 	movl   $0x1,(%esp)
  4012aa:	ff 15 c0 01 41 00    	call   *0x4101c0
  4012b0:	e8 cb fe ff ff       	call   401180 <___mingw_CRTStartup>
  4012b5:	8d 74 26 00          	lea    0x0(%esi,%eiz,1),%esi
  4012b9:	8d bc 27 00 00 00 00 	lea    0x0(%edi,%eiz,1),%edi

004012c0 <_WinMainCRTStartup>:
  4012c0:	83 ec 1c             	sub    $0x1c,%esp
  4012c3:	c7 04 24 02 00 00 00 	movl   $0x2,(%esp)
  4012ca:	ff 15 c0 01 41 00    	call   *0x4101c0
  4012d0:	e8 ab fe ff ff       	call   401180 <___mingw_CRTStartup>
  4012d5:	8d 74 26 00          	lea    0x0(%esi,%eiz,1),%esi
  4012d9:	8d bc 27 00 00 00 00 	lea    0x0(%edi,%eiz,1),%edi

004012e0 <_atexit>:
  4012e0:	a1 e0 01 41 00       	mov    0x4101e0,%eax
  4012e5:	ff e0                	jmp    *%eax
  4012e7:	89 f6                	mov    %esi,%esi
  4012e9:	8d bc 27 00 00 00 00 	lea    0x0(%edi,%eiz,1),%edi

004012f0 <__onexit>:
  4012f0:	a1 d4 01 41 00       	mov    0x4101d4,%eax
  4012f5:	ff e0                	jmp    *%eax
  4012f7:	90                   	nop
  4012f8:	90                   	nop
  4012f9:	90                   	nop
  4012fa:	90                   	nop
  4012fb:	90                   	nop
  4012fc:	90                   	nop
  4012fd:	90                   	nop
  4012fe:	90                   	nop
  4012ff:	90                   	nop

00401300 <___gcc_register_frame>:
  401300:	55                   	push   %ebp
  401301:	89 e5                	mov    %esp,%ebp
  401303:	83 ec 18             	sub    $0x18,%esp
  401306:	c7 04 24 00 c0 40 00 	movl   $0x40c000,(%esp)
  40130d:	e8 5e 91 00 00       	call   40a470 <_GetModuleHandleA@4>
  401312:	ba 00 00 00 00       	mov    $0x0,%edx
  401317:	83 ec 04             	sub    $0x4,%esp
  40131a:	85 c0                	test   %eax,%eax
  40131c:	74 15                	je     401333 <___gcc_register_frame+0x33>
  40131e:	c7 44 24 04 13 c0 40 	movl   $0x40c013,0x4(%esp)
  401325:	00 
  401326:	89 04 24             	mov    %eax,(%esp)
  401329:	e8 4a 91 00 00       	call   40a478 <_GetProcAddress@8>
  40132e:	83 ec 08             	sub    $0x8,%esp
  401331:	89 c2                	mov    %eax,%edx
  401333:	85 d2                	test   %edx,%edx
  401335:	74 11                	je     401348 <___gcc_register_frame+0x48>
  401337:	c7 44 24 04 08 f0 40 	movl   $0x40f008,0x4(%esp)
  40133e:	00 
  40133f:	c7 04 24 c0 d0 40 00 	movl   $0x40d0c0,(%esp)
  401346:	ff d2                	call   *%edx
  401348:	a1 04 b2 40 00       	mov    0x40b204,%eax
  40134d:	85 c0                	test   %eax,%eax
  40134f:	74 3a                	je     40138b <___gcc_register_frame+0x8b>
  401351:	c7 04 24 29 c0 40 00 	movl   $0x40c029,(%esp)
  401358:	e8 13 91 00 00       	call   40a470 <_GetModuleHandleA@4>
  40135d:	ba 00 00 00 00       	mov    $0x0,%edx
  401362:	83 ec 04             	sub    $0x4,%esp
  401365:	85 c0                	test   %eax,%eax
  401367:	74 15                	je     40137e <___gcc_register_frame+0x7e>
  401369:	c7 44 24 04 37 c0 40 	movl   $0x40c037,0x4(%esp)
  401370:	00 
  401371:	89 04 24             	mov    %eax,(%esp)
  401374:	e8 ff 90 00 00       	call   40a478 <_GetProcAddress@8>
  401379:	83 ec 08             	sub    $0x8,%esp
  40137c:	89 c2                	mov    %eax,%edx
  40137e:	85 d2                	test   %edx,%edx
  401380:	74 09                	je     40138b <___gcc_register_frame+0x8b>
  401382:	c7 04 24 04 b2 40 00 	movl   $0x40b204,(%esp)
  401389:	ff d2                	call   *%edx
  40138b:	c9                   	leave  
  40138c:	c3                   	ret    
  40138d:	8d 76 00             	lea    0x0(%esi),%esi

00401390 <___gcc_deregister_frame>:
  401390:	55                   	push   %ebp
  401391:	89 e5                	mov    %esp,%ebp
  401393:	83 ec 18             	sub    $0x18,%esp
  401396:	c7 04 24 00 c0 40 00 	movl   $0x40c000,(%esp)
  40139d:	e8 ce 90 00 00       	call   40a470 <_GetModuleHandleA@4>
  4013a2:	ba 00 00 00 00       	mov    $0x0,%edx
  4013a7:	83 ec 04             	sub    $0x4,%esp
  4013aa:	85 c0                	test   %eax,%eax
  4013ac:	74 15                	je     4013c3 <___gcc_deregister_frame+0x33>
  4013ae:	c7 44 24 04 4b c0 40 	movl   $0x40c04b,0x4(%esp)
  4013b5:	00 
  4013b6:	89 04 24             	mov    %eax,(%esp)
  4013b9:	e8 ba 90 00 00       	call   40a478 <_GetProcAddress@8>
  4013be:	83 ec 08             	sub    $0x8,%esp
  4013c1:	89 c2                	mov    %eax,%edx
  4013c3:	85 d2                	test   %edx,%edx
  4013c5:	74 09                	je     4013d0 <___gcc_deregister_frame+0x40>
  4013c7:	c7 04 24 c0 d0 40 00 	movl   $0x40d0c0,(%esp)
  4013ce:	ff d2                	call   *%edx
  4013d0:	c9                   	leave  
  4013d1:	c3                   	ret    
  4013d2:	90                   	nop
  4013d3:	90                   	nop
  4013d4:	90                   	nop
  4013d5:	90                   	nop
  4013d6:	90                   	nop
  4013d7:	90                   	nop
  4013d8:	90                   	nop
  4013d9:	90                   	nop
  4013da:	90                   	nop
  4013db:	90                   	nop
  4013dc:	90                   	nop
  4013dd:	90                   	nop
  4013de:	90                   	nop
  4013df:	90                   	nop

004013e0 <_foo>:
  4013e0:	55                   	push   %ebp
  4013e1:	89 e5                	mov    %esp,%ebp
  4013e3:	83 ec 28             	sub    $0x28,%esp
  4013e6:	83 7d 10 00          	cmpl   $0x0,0x10(%ebp)
  4013ea:	0f 84 90 01 00 00    	je     401580 <_foo+0x1a0>
  4013f0:	8b 45 08             	mov    0x8(%ebp),%eax
  4013f3:	8b 55 14             	mov    0x14(%ebp),%edx
  4013f6:	89 90 78 08 00 00    	mov    %edx,0x878(%eax)
  4013fc:	c7 45 ec 00 00 00 00 	movl   $0x0,-0x14(%ebp)
  401403:	8d 45 ec             	lea    -0x14(%ebp),%eax
  401406:	89 44 24 08          	mov    %eax,0x8(%esp)
  40140a:	8b 45 0c             	mov    0xc(%ebp),%eax
  40140d:	89 44 24 04          	mov    %eax,0x4(%esp)
  401411:	8b 45 08             	mov    0x8(%ebp),%eax
  401414:	89 04 24             	mov    %eax,(%esp)
  401417:	e8 25 04 00 00       	call   401841 <_getAllMoves>
  40141c:	89 45 f0             	mov    %eax,-0x10(%ebp)
  40141f:	c7 45 f4 00 00 00 00 	movl   $0x0,-0xc(%ebp)
  401426:	e9 3e 01 00 00       	jmp    401569 <_foo+0x189>
  40142b:	8b 55 f4             	mov    -0xc(%ebp),%edx
  40142e:	89 d0                	mov    %edx,%eax
  401430:	c1 e0 02             	shl    $0x2,%eax
  401433:	01 d0                	add    %edx,%eax
  401435:	c1 e0 02             	shl    $0x2,%eax
  401438:	89 c2                	mov    %eax,%edx
  40143a:	8b 45 f0             	mov    -0x10(%ebp),%eax
  40143d:	01 d0                	add    %edx,%eax
  40143f:	8b 00                	mov    (%eax),%eax
  401441:	8b 0c 85 b8 b1 40 00 	mov    0x40b1b8(,%eax,4),%ecx
  401448:	8b 55 f4             	mov    -0xc(%ebp),%edx
  40144b:	89 d0                	mov    %edx,%eax
  40144d:	c1 e0 02             	shl    $0x2,%eax
  401450:	01 d0                	add    %edx,%eax
  401452:	c1 e0 02             	shl    $0x2,%eax
  401455:	89 c2                	mov    %eax,%edx
  401457:	8b 45 f0             	mov    -0x10(%ebp),%eax
  40145a:	01 d0                	add    %edx,%eax
  40145c:	89 44 24 04          	mov    %eax,0x4(%esp)
  401460:	8b 45 08             	mov    0x8(%ebp),%eax
  401463:	89 04 24             	mov    %eax,(%esp)
  401466:	ff d1                	call   *%ecx
  401468:	a1 20 f0 40 00       	mov    0x40f020,%eax
  40146d:	8b 15 24 f0 40 00    	mov    0x40f024,%edx
  401473:	83 c0 01             	add    $0x1,%eax
  401476:	83 d2 00             	adc    $0x0,%edx
  401479:	a3 20 f0 40 00       	mov    %eax,0x40f020
  40147e:	89 15 24 f0 40 00    	mov    %edx,0x40f024
  401484:	a1 20 f0 40 00       	mov    0x40f020,%eax
  401489:	8b 15 24 f0 40 00    	mov    0x40f024,%edx
  40148f:	c7 44 24 08 80 96 98 	movl   $0x989680,0x8(%esp)
  401496:	00 
  401497:	c7 44 24 0c 00 00 00 	movl   $0x0,0xc(%esp)
  40149e:	00 
  40149f:	89 04 24             	mov    %eax,(%esp)
  4014a2:	89 54 24 04          	mov    %edx,0x4(%esp)
  4014a6:	e8 55 2c 00 00       	call   404100 <___umoddi3>
  4014ab:	09 d0                	or     %edx,%eax
  4014ad:	85 c0                	test   %eax,%eax
  4014af:	75 3b                	jne    4014ec <_foo+0x10c>
  4014b1:	a1 20 f0 40 00       	mov    0x40f020,%eax
  4014b6:	8b 15 24 f0 40 00    	mov    0x40f024,%edx
  4014bc:	c7 44 24 08 80 96 98 	movl   $0x989680,0x8(%esp)
  4014c3:	00 
  4014c4:	c7 44 24 0c 00 00 00 	movl   $0x0,0xc(%esp)
  4014cb:	00 
  4014cc:	89 04 24             	mov    %eax,(%esp)
  4014cf:	89 54 24 04          	mov    %edx,0x4(%esp)
  4014d3:	e8 78 2d 00 00       	call   404250 <___udivdi3>
  4014d8:	89 44 24 04          	mov    %eax,0x4(%esp)
  4014dc:	89 54 24 08          	mov    %edx,0x8(%esp)
  4014e0:	c7 04 24 64 c0 40 00 	movl   $0x40c064,(%esp)
  4014e7:	e8 a4 8e 00 00       	call   40a390 <_printf>
  4014ec:	8b 55 f4             	mov    -0xc(%ebp),%edx
  4014ef:	89 d0                	mov    %edx,%eax
  4014f1:	c1 e0 02             	shl    $0x2,%eax
  4014f4:	01 d0                	add    %edx,%eax
  4014f6:	c1 e0 02             	shl    $0x2,%eax
  4014f9:	89 c2                	mov    %eax,%edx
  4014fb:	8b 45 f0             	mov    -0x10(%ebp),%eax
  4014fe:	8d 0c 02             	lea    (%edx,%eax,1),%ecx
  401501:	8b 45 10             	mov    0x10(%ebp),%eax
  401504:	8d 50 ff             	lea    -0x1(%eax),%edx
  401507:	83 7d 0c 00          	cmpl   $0x0,0xc(%ebp)
  40150b:	0f 94 c0             	sete   %al
  40150e:	0f b6 c0             	movzbl %al,%eax
  401511:	89 4c 24 0c          	mov    %ecx,0xc(%esp)
  401515:	89 54 24 08          	mov    %edx,0x8(%esp)
  401519:	89 44 24 04          	mov    %eax,0x4(%esp)
  40151d:	8b 45 08             	mov    0x8(%ebp),%eax
  401520:	89 04 24             	mov    %eax,(%esp)
  401523:	e8 b8 fe ff ff       	call   4013e0 <_foo>
  401528:	8b 55 f4             	mov    -0xc(%ebp),%edx
  40152b:	89 d0                	mov    %edx,%eax
  40152d:	c1 e0 02             	shl    $0x2,%eax
  401530:	01 d0                	add    %edx,%eax
  401532:	c1 e0 02             	shl    $0x2,%eax
  401535:	89 c2                	mov    %eax,%edx
  401537:	8b 45 f0             	mov    -0x10(%ebp),%eax
  40153a:	01 d0                	add    %edx,%eax
  40153c:	8b 00                	mov    (%eax),%eax
  40153e:	8b 0c 85 cc b1 40 00 	mov    0x40b1cc(,%eax,4),%ecx
  401545:	8b 55 f4             	mov    -0xc(%ebp),%edx
  401548:	89 d0                	mov    %edx,%eax
  40154a:	c1 e0 02             	shl    $0x2,%eax
  40154d:	01 d0                	add    %edx,%eax
  40154f:	c1 e0 02             	shl    $0x2,%eax
  401552:	89 c2                	mov    %eax,%edx
  401554:	8b 45 f0             	mov    -0x10(%ebp),%eax
  401557:	01 d0                	add    %edx,%eax
  401559:	89 44 24 04          	mov    %eax,0x4(%esp)
  40155d:	8b 45 08             	mov    0x8(%ebp),%eax
  401560:	89 04 24             	mov    %eax,(%esp)
  401563:	ff d1                	call   *%ecx
  401565:	83 45 f4 01          	addl   $0x1,-0xc(%ebp)
  401569:	8b 45 ec             	mov    -0x14(%ebp),%eax
  40156c:	39 45 f4             	cmp    %eax,-0xc(%ebp)
  40156f:	0f 8c b6 fe ff ff    	jl     40142b <_foo+0x4b>
  401575:	8b 45 f0             	mov    -0x10(%ebp),%eax
  401578:	89 04 24             	mov    %eax,(%esp)
  40157b:	e8 18 8e 00 00       	call   40a398 <_free>
  401580:	c9                   	leave  
  401581:	c3                   	ret    

00401582 <_main>:
  401582:	55                   	push   %ebp
  401583:	89 e5                	mov    %esp,%ebp
  401585:	83 e4 f0             	and    $0xfffffff0,%esp
  401588:	83 ec 30             	sub    $0x30,%esp
  40158b:	e8 10 29 00 00       	call   403ea0 <___main>
  401590:	c7 04 24 40 b0 40 00 	movl   $0x40b040,(%esp)
  401597:	e8 af 00 00 00       	call   40164b <_createBoard>
  40159c:	89 44 24 2c          	mov    %eax,0x2c(%esp)
  4015a0:	c7 44 24 14 00 00 00 	movl   $0x0,0x14(%esp)
  4015a7:	00 
  4015a8:	c7 44 24 18 00 00 00 	movl   $0x0,0x18(%esp)
  4015af:	00 
  4015b0:	c7 44 24 1c 00 00 00 	movl   $0x0,0x1c(%esp)
  4015b7:	00 
  4015b8:	c7 44 24 20 00 00 00 	movl   $0x0,0x20(%esp)
  4015bf:	00 
  4015c0:	c7 44 24 24 00 00 00 	movl   $0x0,0x24(%esp)
  4015c7:	00 
  4015c8:	8b 44 24 2c          	mov    0x2c(%esp),%eax
  4015cc:	8d 54 24 14          	lea    0x14(%esp),%edx
  4015d0:	89 90 78 08 00 00    	mov    %edx,0x878(%eax)
  4015d6:	c7 04 24 00 00 00 00 	movl   $0x0,(%esp)
  4015dd:	e8 be 8d 00 00       	call   40a3a0 <_time>
  4015e2:	89 44 24 28          	mov    %eax,0x28(%esp)
  4015e6:	8d 44 24 14          	lea    0x14(%esp),%eax
  4015ea:	89 44 24 0c          	mov    %eax,0xc(%esp)
  4015ee:	c7 44 24 08 06 00 00 	movl   $0x6,0x8(%esp)
  4015f5:	00 
  4015f6:	c7 44 24 04 00 00 00 	movl   $0x0,0x4(%esp)
  4015fd:	00 
  4015fe:	8b 44 24 2c          	mov    0x2c(%esp),%eax
  401602:	89 04 24             	mov    %eax,(%esp)
  401605:	e8 d6 fd ff ff       	call   4013e0 <_foo>
  40160a:	a1 20 f0 40 00       	mov    0x40f020,%eax
  40160f:	8b 15 24 f0 40 00    	mov    0x40f024,%edx
  401615:	89 44 24 04          	mov    %eax,0x4(%esp)
  401619:	89 54 24 08          	mov    %edx,0x8(%esp)
  40161d:	c7 04 24 74 c0 40 00 	movl   $0x40c074,(%esp)
  401624:	e8 67 8d 00 00       	call   40a390 <_printf>
  401629:	c7 04 24 00 00 00 00 	movl   $0x0,(%esp)
  401630:	e8 6b 8d 00 00       	call   40a3a0 <_time>
  401635:	2b 44 24 28          	sub    0x28(%esp),%eax
  401639:	89 44 24 04          	mov    %eax,0x4(%esp)
  40163d:	c7 04 24 7c c0 40 00 	movl   $0x40c07c,(%esp)
  401644:	e8 47 8d 00 00       	call   40a390 <_printf>
  401649:	c9                   	leave  
  40164a:	c3                   	ret    

0040164b <_createBoard>:
  40164b:	55                   	push   %ebp
  40164c:	89 e5                	mov    %esp,%ebp
  40164e:	53                   	push   %ebx
  40164f:	83 ec 24             	sub    $0x24,%esp
  401652:	c7 04 24 7c 08 00 00 	movl   $0x87c,(%esp)
  401659:	e8 4a 8d 00 00       	call   40a3a8 <_malloc>
  40165e:	89 45 e8             	mov    %eax,-0x18(%ebp)
  401661:	c7 45 f4 00 00 00 00 	movl   $0x0,-0xc(%ebp)
  401668:	c7 45 ec 00 00 00 00 	movl   $0x0,-0x14(%ebp)
  40166f:	e9 c1 00 00 00       	jmp    401735 <_createBoard+0xea>
  401674:	c7 45 f0 00 00 00 00 	movl   $0x0,-0x10(%ebp)
  40167b:	e9 a7 00 00 00       	jmp    401727 <_createBoard+0xdc>
  401680:	8b 45 ec             	mov    -0x14(%ebp),%eax
  401683:	8d 50 01             	lea    0x1(%eax),%edx
  401686:	89 55 ec             	mov    %edx,-0x14(%ebp)
  401689:	89 c2                	mov    %eax,%edx
  40168b:	8b 45 08             	mov    0x8(%ebp),%eax
  40168e:	01 d0                	add    %edx,%eax
  401690:	0f b6 00             	movzbl (%eax),%eax
  401693:	83 e8 30             	sub    $0x30,%eax
  401696:	8b 55 e8             	mov    -0x18(%ebp),%edx
  401699:	8b 4d f4             	mov    -0xc(%ebp),%ecx
  40169c:	8d 1c cd 00 00 00 00 	lea    0x0(,%ecx,8),%ebx
  4016a3:	8b 4d f0             	mov    -0x10(%ebp),%ecx
  4016a6:	01 d9                	add    %ebx,%ecx
  4016a8:	01 ca                	add    %ecx,%edx
  4016aa:	88 02                	mov    %al,(%edx)
  4016ac:	8b 45 ec             	mov    -0x14(%ebp),%eax
  4016af:	8d 50 01             	lea    0x1(%eax),%edx
  4016b2:	89 55 ec             	mov    %edx,-0x14(%ebp)
  4016b5:	89 c2                	mov    %eax,%edx
  4016b7:	8b 45 08             	mov    0x8(%ebp),%eax
  4016ba:	01 d0                	add    %edx,%eax
  4016bc:	0f b6 00             	movzbl (%eax),%eax
  4016bf:	83 e8 30             	sub    $0x30,%eax
  4016c2:	8b 55 e8             	mov    -0x18(%ebp),%edx
  4016c5:	8b 4d f4             	mov    -0xc(%ebp),%ecx
  4016c8:	c1 e1 03             	shl    $0x3,%ecx
  4016cb:	01 d1                	add    %edx,%ecx
  4016cd:	8b 55 f0             	mov    -0x10(%ebp),%edx
  4016d0:	01 ca                	add    %ecx,%edx
  4016d2:	83 c2 40             	add    $0x40,%edx
  4016d5:	88 02                	mov    %al,(%edx)
  4016d7:	8b 45 e8             	mov    -0x18(%ebp),%eax
  4016da:	8b 55 f4             	mov    -0xc(%ebp),%edx
  4016dd:	8d 0c d5 00 00 00 00 	lea    0x0(,%edx,8),%ecx
  4016e4:	8b 55 f0             	mov    -0x10(%ebp),%edx
  4016e7:	01 ca                	add    %ecx,%edx
  4016e9:	01 d0                	add    %edx,%eax
  4016eb:	0f b6 00             	movzbl (%eax),%eax
  4016ee:	3c 05                	cmp    $0x5,%al
  4016f0:	75 31                	jne    401723 <_createBoard+0xd8>
  4016f2:	8b 45 e8             	mov    -0x18(%ebp),%eax
  4016f5:	8b 55 f4             	mov    -0xc(%ebp),%edx
  4016f8:	c1 e2 03             	shl    $0x3,%edx
  4016fb:	01 c2                	add    %eax,%edx
  4016fd:	8b 45 f0             	mov    -0x10(%ebp),%eax
  401700:	01 d0                	add    %edx,%eax
  401702:	83 c0 40             	add    $0x40,%eax
  401705:	0f b6 00             	movzbl (%eax),%eax
  401708:	0f be d0             	movsbl %al,%edx
  40170b:	8b 45 f4             	mov    -0xc(%ebp),%eax
  40170e:	8d 0c c5 00 00 00 00 	lea    0x0(,%eax,8),%ecx
  401715:	8b 45 f0             	mov    -0x10(%ebp),%eax
  401718:	01 c1                	add    %eax,%ecx
  40171a:	8b 45 e8             	mov    -0x18(%ebp),%eax
  40171d:	83 c2 20             	add    $0x20,%edx
  401720:	89 0c 90             	mov    %ecx,(%eax,%edx,4)
  401723:	83 45 f0 01          	addl   $0x1,-0x10(%ebp)
  401727:	83 7d f0 07          	cmpl   $0x7,-0x10(%ebp)
  40172b:	0f 8e 4f ff ff ff    	jle    401680 <_createBoard+0x35>
  401731:	83 45 f4 01          	addl   $0x1,-0xc(%ebp)
  401735:	83 7d f4 07          	cmpl   $0x7,-0xc(%ebp)
  401739:	0f 8e 35 ff ff ff    	jle    401674 <_createBoard+0x29>
  40173f:	8b 45 ec             	mov    -0x14(%ebp),%eax
  401742:	8d 50 01             	lea    0x1(%eax),%edx
  401745:	89 55 ec             	mov    %edx,-0x14(%ebp)
  401748:	89 c2                	mov    %eax,%edx
  40174a:	8b 45 08             	mov    0x8(%ebp),%eax
  40174d:	01 d0                	add    %edx,%eax
  40174f:	0f b6 00             	movzbl (%eax),%eax
  401752:	0f be c0             	movsbl %al,%eax
  401755:	8d 50 d0             	lea    -0x30(%eax),%edx
  401758:	8b 45 e8             	mov    -0x18(%ebp),%eax
  40175b:	89 90 88 00 00 00    	mov    %edx,0x88(%eax)
  401761:	8b 45 ec             	mov    -0x14(%ebp),%eax
  401764:	8d 50 01             	lea    0x1(%eax),%edx
  401767:	89 55 ec             	mov    %edx,-0x14(%ebp)
  40176a:	89 c2                	mov    %eax,%edx
  40176c:	8b 45 08             	mov    0x8(%ebp),%eax
  40176f:	01 d0                	add    %edx,%eax
  401771:	0f b6 00             	movzbl (%eax),%eax
  401774:	0f be c0             	movsbl %al,%eax
  401777:	8d 50 d0             	lea    -0x30(%eax),%edx
  40177a:	8b 45 e8             	mov    -0x18(%ebp),%eax
  40177d:	89 90 8c 00 00 00    	mov    %edx,0x8c(%eax)
  401783:	8b 45 ec             	mov    -0x14(%ebp),%eax
  401786:	8d 50 01             	lea    0x1(%eax),%edx
  401789:	89 55 ec             	mov    %edx,-0x14(%ebp)
  40178c:	89 c2                	mov    %eax,%edx
  40178e:	8b 45 08             	mov    0x8(%ebp),%eax
  401791:	01 d0                	add    %edx,%eax
  401793:	0f b6 00             	movzbl (%eax),%eax
  401796:	0f be c0             	movsbl %al,%eax
  401799:	8d 50 d0             	lea    -0x30(%eax),%edx
  40179c:	8b 45 e8             	mov    -0x18(%ebp),%eax
  40179f:	89 90 90 00 00 00    	mov    %edx,0x90(%eax)
  4017a5:	8b 45 ec             	mov    -0x14(%ebp),%eax
  4017a8:	8d 50 01             	lea    0x1(%eax),%edx
  4017ab:	89 55 ec             	mov    %edx,-0x14(%ebp)
  4017ae:	89 c2                	mov    %eax,%edx
  4017b0:	8b 45 08             	mov    0x8(%ebp),%eax
  4017b3:	01 d0                	add    %edx,%eax
  4017b5:	0f b6 00             	movzbl (%eax),%eax
  4017b8:	0f be c0             	movsbl %al,%eax
  4017bb:	8d 50 d0             	lea    -0x30(%eax),%edx
  4017be:	8b 45 e8             	mov    -0x18(%ebp),%eax
  4017c1:	89 90 94 00 00 00    	mov    %edx,0x94(%eax)
  4017c7:	8b 45 ec             	mov    -0x14(%ebp),%eax
  4017ca:	8d 50 01             	lea    0x1(%eax),%edx
  4017cd:	89 55 ec             	mov    %edx,-0x14(%ebp)
  4017d0:	89 c2                	mov    %eax,%edx
  4017d2:	8b 45 08             	mov    0x8(%ebp),%eax
  4017d5:	01 d0                	add    %edx,%eax
  4017d7:	0f b6 00             	movzbl (%eax),%eax
  4017da:	0f be c0             	movsbl %al,%eax
  4017dd:	8d 50 d0             	lea    -0x30(%eax),%edx
  4017e0:	8b 45 e8             	mov    -0x18(%ebp),%eax
  4017e3:	89 90 98 00 00 00    	mov    %edx,0x98(%eax)
  4017e9:	8b 45 ec             	mov    -0x14(%ebp),%eax
  4017ec:	8d 50 01             	lea    0x1(%eax),%edx
  4017ef:	89 55 ec             	mov    %edx,-0x14(%ebp)
  4017f2:	89 c2                	mov    %eax,%edx
  4017f4:	8b 45 08             	mov    0x8(%ebp),%eax
  4017f7:	01 d0                	add    %edx,%eax
  4017f9:	0f b6 00             	movzbl (%eax),%eax
  4017fc:	0f be c0             	movsbl %al,%eax
  4017ff:	8d 50 d0             	lea    -0x30(%eax),%edx
  401802:	8b 45 e8             	mov    -0x18(%ebp),%eax
  401805:	89 90 9c 00 00 00    	mov    %edx,0x9c(%eax)
  40180b:	8b 45 e8             	mov    -0x18(%ebp),%eax
  40180e:	c7 80 a0 00 00 00 32 	movl   $0x32,0xa0(%eax)
  401815:	00 00 00 
  401818:	8b 45 e8             	mov    -0x18(%ebp),%eax
  40181b:	c7 80 74 08 00 00 00 	movl   $0x0,0x874(%eax)
  401822:	00 00 00 
  401825:	8b 45 e8             	mov    -0x18(%ebp),%eax
  401828:	a3 84 fa 40 00       	mov    %eax,0x40fa84
  40182d:	8b 45 e8             	mov    -0x18(%ebp),%eax
  401830:	83 c0 40             	add    $0x40,%eax
  401833:	a3 80 fa 40 00       	mov    %eax,0x40fa80
  401838:	8b 45 e8             	mov    -0x18(%ebp),%eax
  40183b:	83 c4 24             	add    $0x24,%esp
  40183e:	5b                   	pop    %ebx
  40183f:	5d                   	pop    %ebp
  401840:	c3                   	ret    

00401841 <_getAllMoves>:
  401841:	55                   	push   %ebp
  401842:	89 e5                	mov    %esp,%ebp
  401844:	53                   	push   %ebx
  401845:	83 ec 34             	sub    $0x34,%esp
  401848:	8b 45 0c             	mov    0xc(%ebp),%eax
  40184b:	89 44 24 04          	mov    %eax,0x4(%esp)
  40184f:	8b 45 08             	mov    0x8(%ebp),%eax
  401852:	89 04 24             	mov    %eax,(%esp)
  401855:	e8 e9 11 00 00       	call   402a43 <_pruneCheckValidations>
  40185a:	c7 45 f4 00 00 00 00 	movl   $0x0,-0xc(%ebp)
  401861:	e9 a0 00 00 00       	jmp    401906 <_getAllMoves+0xc5>
  401866:	c7 45 f0 00 00 00 00 	movl   $0x0,-0x10(%ebp)
  40186d:	e9 86 00 00 00       	jmp    4018f8 <_getAllMoves+0xb7>
  401872:	8b 45 08             	mov    0x8(%ebp),%eax
  401875:	8b 55 f4             	mov    -0xc(%ebp),%edx
  401878:	c1 e2 03             	shl    $0x3,%edx
  40187b:	01 c2                	add    %eax,%edx
  40187d:	8b 45 f0             	mov    -0x10(%ebp),%eax
  401880:	01 d0                	add    %edx,%eax
  401882:	83 c0 40             	add    $0x40,%eax
  401885:	0f b6 00             	movzbl (%eax),%eax
  401888:	0f be c0             	movsbl %al,%eax
  40188b:	3b 45 0c             	cmp    0xc(%ebp),%eax
  40188e:	75 64                	jne    4018f4 <_getAllMoves+0xb3>
  401890:	8b 45 08             	mov    0x8(%ebp),%eax
  401893:	8b 55 f4             	mov    -0xc(%ebp),%edx
  401896:	8d 0c d5 00 00 00 00 	lea    0x0(,%edx,8),%ecx
  40189d:	8b 55 f0             	mov    -0x10(%ebp),%edx
  4018a0:	01 ca                	add    %ecx,%edx
  4018a2:	01 d0                	add    %edx,%eax
  4018a4:	0f b6 00             	movzbl (%eax),%eax
  4018a7:	0f be c0             	movsbl %al,%eax
  4018aa:	8b 04 85 a0 b1 40 00 	mov    0x40b1a0(,%eax,4),%eax
  4018b1:	8b 55 f4             	mov    -0xc(%ebp),%edx
  4018b4:	8d 0c d5 00 00 00 00 	lea    0x0(,%edx,8),%ecx
  4018bb:	8b 55 f0             	mov    -0x10(%ebp),%edx
  4018be:	01 ca                	add    %ecx,%edx
  4018c0:	81 c2 40 fa 40 00    	add    $0x40fa40,%edx
  4018c6:	0f b6 12             	movzbl (%edx),%edx
  4018c9:	0f be d2             	movsbl %dl,%edx
  4018cc:	89 54 24 14          	mov    %edx,0x14(%esp)
  4018d0:	8b 55 f0             	mov    -0x10(%ebp),%edx
  4018d3:	89 54 24 10          	mov    %edx,0x10(%esp)
  4018d7:	8b 55 f4             	mov    -0xc(%ebp),%edx
  4018da:	89 54 24 0c          	mov    %edx,0xc(%esp)
  4018de:	8b 55 10             	mov    0x10(%ebp),%edx
  4018e1:	89 54 24 08          	mov    %edx,0x8(%esp)
  4018e5:	8b 55 0c             	mov    0xc(%ebp),%edx
  4018e8:	89 54 24 04          	mov    %edx,0x4(%esp)
  4018ec:	8b 55 08             	mov    0x8(%ebp),%edx
  4018ef:	89 14 24             	mov    %edx,(%esp)
  4018f2:	ff d0                	call   *%eax
  4018f4:	83 45 f0 01          	addl   $0x1,-0x10(%ebp)
  4018f8:	83 7d f0 07          	cmpl   $0x7,-0x10(%ebp)
  4018fc:	0f 8e 70 ff ff ff    	jle    401872 <_getAllMoves+0x31>
  401902:	83 45 f4 01          	addl   $0x1,-0xc(%ebp)
  401906:	83 7d f4 07          	cmpl   $0x7,-0xc(%ebp)
  40190a:	0f 8e 56 ff ff ff    	jle    401866 <_getAllMoves+0x25>
  401910:	8b 45 10             	mov    0x10(%ebp),%eax
  401913:	8b 00                	mov    (%eax),%eax
  401915:	89 c2                	mov    %eax,%edx
  401917:	89 d0                	mov    %edx,%eax
  401919:	c1 e0 02             	shl    $0x2,%eax
  40191c:	01 d0                	add    %edx,%eax
  40191e:	c1 e0 02             	shl    $0x2,%eax
  401921:	89 c3                	mov    %eax,%ebx
  401923:	8b 45 10             	mov    0x10(%ebp),%eax
  401926:	8b 00                	mov    (%eax),%eax
  401928:	89 c2                	mov    %eax,%edx
  40192a:	89 d0                	mov    %edx,%eax
  40192c:	c1 e0 02             	shl    $0x2,%eax
  40192f:	01 d0                	add    %edx,%eax
  401931:	c1 e0 02             	shl    $0x2,%eax
  401934:	89 04 24             	mov    %eax,(%esp)
  401937:	e8 6c 8a 00 00       	call   40a3a8 <_malloc>
  40193c:	89 5c 24 08          	mov    %ebx,0x8(%esp)
  401940:	c7 44 24 04 a0 fa 40 	movl   $0x40faa0,0x4(%esp)
  401947:	00 
  401948:	89 04 24             	mov    %eax,(%esp)
  40194b:	e8 60 8a 00 00       	call   40a3b0 <_memcpy>
  401950:	83 c4 34             	add    $0x34,%esp
  401953:	5b                   	pop    %ebx
  401954:	5d                   	pop    %ebp
  401955:	c3                   	ret    

00401956 <_getPawnMoves>:
  401956:	55                   	push   %ebp
  401957:	89 e5                	mov    %esp,%ebp
  401959:	53                   	push   %ebx
  40195a:	81 ec d4 00 00 00    	sub    $0xd4,%esp
  401960:	8b 45 08             	mov    0x8(%ebp),%eax
  401963:	8b 80 78 08 00 00    	mov    0x878(%eax),%eax
  401969:	89 45 f0             	mov    %eax,-0x10(%ebp)
  40196c:	8b 45 08             	mov    0x8(%ebp),%eax
  40196f:	8b 55 14             	mov    0x14(%ebp),%edx
  401972:	c1 e2 03             	shl    $0x3,%edx
  401975:	01 c2                	add    %eax,%edx
  401977:	8b 45 18             	mov    0x18(%ebp),%eax
  40197a:	01 d0                	add    %edx,%eax
  40197c:	83 c0 40             	add    $0x40,%eax
  40197f:	0f b6 00             	movzbl (%eax),%eax
  401982:	84 c0                	test   %al,%al
  401984:	75 07                	jne    40198d <_getPawnMoves+0x37>
  401986:	b8 ff ff ff ff       	mov    $0xffffffff,%eax
  40198b:	eb 05                	jmp    401992 <_getPawnMoves+0x3c>
  40198d:	b8 01 00 00 00       	mov    $0x1,%eax
  401992:	89 45 ec             	mov    %eax,-0x14(%ebp)
  401995:	8b 45 14             	mov    0x14(%ebp),%eax
  401998:	8d 14 c5 00 00 00 00 	lea    0x0(,%eax,8),%edx
  40199f:	8b 45 18             	mov    0x18(%ebp),%eax
  4019a2:	01 d0                	add    %edx,%eax
  4019a4:	89 45 e8             	mov    %eax,-0x18(%ebp)
  4019a7:	8b 45 ec             	mov    -0x14(%ebp),%eax
  4019aa:	8b 55 14             	mov    0x14(%ebp),%edx
  4019ad:	01 c2                	add    %eax,%edx
  4019af:	8b 45 08             	mov    0x8(%ebp),%eax
  4019b2:	8d 0c d5 00 00 00 00 	lea    0x0(,%edx,8),%ecx
  4019b9:	8b 55 18             	mov    0x18(%ebp),%edx
  4019bc:	01 ca                	add    %ecx,%edx
  4019be:	01 d0                	add    %edx,%eax
  4019c0:	0f b6 00             	movzbl (%eax),%eax
  4019c3:	3c 09                	cmp    $0x9,%al
  4019c5:	0f 85 67 01 00 00    	jne    401b32 <_getPawnMoves+0x1dc>
  4019cb:	8b 45 ec             	mov    -0x14(%ebp),%eax
  4019ce:	8b 55 14             	mov    0x14(%ebp),%edx
  4019d1:	01 d0                	add    %edx,%eax
  4019d3:	85 c0                	test   %eax,%eax
  4019d5:	74 0d                	je     4019e4 <_getPawnMoves+0x8e>
  4019d7:	8b 45 ec             	mov    -0x14(%ebp),%eax
  4019da:	8b 55 14             	mov    0x14(%ebp),%edx
  4019dd:	01 d0                	add    %edx,%eax
  4019df:	83 f8 07             	cmp    $0x7,%eax
  4019e2:	75 6b                	jne    401a4f <_getPawnMoves+0xf9>
  4019e4:	c7 45 f4 04 00 00 00 	movl   $0x4,-0xc(%ebp)
  4019eb:	eb 57                	jmp    401a44 <_getPawnMoves+0xee>
  4019ed:	c7 45 d4 02 00 00 00 	movl   $0x2,-0x2c(%ebp)
  4019f4:	8b 45 e8             	mov    -0x18(%ebp),%eax
  4019f7:	89 45 d8             	mov    %eax,-0x28(%ebp)
  4019fa:	8b 45 ec             	mov    -0x14(%ebp),%eax
  4019fd:	8d 14 c5 00 00 00 00 	lea    0x0(,%eax,8),%edx
  401a04:	8b 45 e8             	mov    -0x18(%ebp),%eax
  401a07:	01 d0                	add    %edx,%eax
  401a09:	89 45 dc             	mov    %eax,-0x24(%ebp)
  401a0c:	c7 45 e0 09 00 00 00 	movl   $0x9,-0x20(%ebp)
  401a13:	8b 45 f4             	mov    -0xc(%ebp),%eax
  401a16:	89 45 e4             	mov    %eax,-0x1c(%ebp)
  401a19:	8b 45 1c             	mov    0x1c(%ebp),%eax
  401a1c:	89 44 24 10          	mov    %eax,0x10(%esp)
  401a20:	8d 45 d4             	lea    -0x2c(%ebp),%eax
  401a23:	89 44 24 0c          	mov    %eax,0xc(%esp)
  401a27:	8b 45 10             	mov    0x10(%ebp),%eax
  401a2a:	89 44 24 08          	mov    %eax,0x8(%esp)
  401a2e:	8b 45 0c             	mov    0xc(%ebp),%eax
  401a31:	89 44 24 04          	mov    %eax,0x4(%esp)
  401a35:	8b 45 08             	mov    0x8(%ebp),%eax
  401a38:	89 04 24             	mov    %eax,(%esp)
  401a3b:	e8 bf 13 00 00       	call   402dff <_createPromotionMove>
  401a40:	83 6d f4 01          	subl   $0x1,-0xc(%ebp)
  401a44:	83 7d f4 00          	cmpl   $0x0,-0xc(%ebp)
  401a48:	75 a3                	jne    4019ed <_getPawnMoves+0x97>
  401a4a:	e9 e3 00 00 00       	jmp    401b32 <_getPawnMoves+0x1dc>
  401a4f:	c7 45 c0 00 00 00 00 	movl   $0x0,-0x40(%ebp)
  401a56:	8b 45 e8             	mov    -0x18(%ebp),%eax
  401a59:	89 45 c4             	mov    %eax,-0x3c(%ebp)
  401a5c:	8b 45 ec             	mov    -0x14(%ebp),%eax
  401a5f:	8d 14 c5 00 00 00 00 	lea    0x0(,%eax,8),%edx
  401a66:	8b 45 e8             	mov    -0x18(%ebp),%eax
  401a69:	01 d0                	add    %edx,%eax
  401a6b:	89 45 c8             	mov    %eax,-0x38(%ebp)
  401a6e:	c7 45 cc 09 00 00 00 	movl   $0x9,-0x34(%ebp)
  401a75:	c7 45 d0 00 00 00 00 	movl   $0x0,-0x30(%ebp)
  401a7c:	8b 45 1c             	mov    0x1c(%ebp),%eax
  401a7f:	89 44 24 10          	mov    %eax,0x10(%esp)
  401a83:	8d 45 c0             	lea    -0x40(%ebp),%eax
  401a86:	89 44 24 0c          	mov    %eax,0xc(%esp)
  401a8a:	8b 45 10             	mov    0x10(%ebp),%eax
  401a8d:	89 44 24 08          	mov    %eax,0x8(%esp)
  401a91:	8b 45 0c             	mov    0xc(%ebp),%eax
  401a94:	89 44 24 04          	mov    %eax,0x4(%esp)
  401a98:	8b 45 08             	mov    0x8(%ebp),%eax
  401a9b:	89 04 24             	mov    %eax,(%esp)
  401a9e:	e8 f8 11 00 00       	call   402c9b <_createNormalMove>
  401aa3:	83 7d 0c 00          	cmpl   $0x0,0xc(%ebp)
  401aa7:	75 06                	jne    401aaf <_getPawnMoves+0x159>
  401aa9:	83 7d 14 06          	cmpl   $0x6,0x14(%ebp)
  401aad:	74 0c                	je     401abb <_getPawnMoves+0x165>
  401aaf:	83 7d 0c 01          	cmpl   $0x1,0xc(%ebp)
  401ab3:	75 7d                	jne    401b32 <_getPawnMoves+0x1dc>
  401ab5:	83 7d 14 01          	cmpl   $0x1,0x14(%ebp)
  401ab9:	75 77                	jne    401b32 <_getPawnMoves+0x1dc>
  401abb:	8b 45 ec             	mov    -0x14(%ebp),%eax
  401abe:	8b 55 14             	mov    0x14(%ebp),%edx
  401ac1:	01 c2                	add    %eax,%edx
  401ac3:	8b 45 ec             	mov    -0x14(%ebp),%eax
  401ac6:	01 c2                	add    %eax,%edx
  401ac8:	8b 45 08             	mov    0x8(%ebp),%eax
  401acb:	8d 0c d5 00 00 00 00 	lea    0x0(,%edx,8),%ecx
  401ad2:	8b 55 18             	mov    0x18(%ebp),%edx
  401ad5:	01 ca                	add    %ecx,%edx
  401ad7:	01 d0                	add    %edx,%eax
  401ad9:	0f b6 00             	movzbl (%eax),%eax
  401adc:	3c 09                	cmp    $0x9,%al
  401ade:	75 52                	jne    401b32 <_getPawnMoves+0x1dc>
  401ae0:	c7 45 ac 04 00 00 00 	movl   $0x4,-0x54(%ebp)
  401ae7:	8b 45 e8             	mov    -0x18(%ebp),%eax
  401aea:	89 45 b0             	mov    %eax,-0x50(%ebp)
  401aed:	8b 45 ec             	mov    -0x14(%ebp),%eax
  401af0:	c1 e0 04             	shl    $0x4,%eax
  401af3:	89 c2                	mov    %eax,%edx
  401af5:	8b 45 e8             	mov    -0x18(%ebp),%eax
  401af8:	01 d0                	add    %edx,%eax
  401afa:	89 45 b4             	mov    %eax,-0x4c(%ebp)
  401afd:	c7 45 b8 09 00 00 00 	movl   $0x9,-0x48(%ebp)
  401b04:	c7 45 bc 00 00 00 00 	movl   $0x0,-0x44(%ebp)
  401b0b:	8b 45 1c             	mov    0x1c(%ebp),%eax
  401b0e:	89 44 24 10          	mov    %eax,0x10(%esp)
  401b12:	8d 45 ac             	lea    -0x54(%ebp),%eax
  401b15:	89 44 24 0c          	mov    %eax,0xc(%esp)
  401b19:	8b 45 10             	mov    0x10(%ebp),%eax
  401b1c:	89 44 24 08          	mov    %eax,0x8(%esp)
  401b20:	8b 45 0c             	mov    0xc(%ebp),%eax
  401b23:	89 44 24 04          	mov    %eax,0x4(%esp)
  401b27:	8b 45 08             	mov    0x8(%ebp),%eax
  401b2a:	89 04 24             	mov    %eax,(%esp)
  401b2d:	e8 69 11 00 00       	call   402c9b <_createNormalMove>
  401b32:	8b 45 f0             	mov    -0x10(%ebp),%eax
  401b35:	8b 00                	mov    (%eax),%eax
  401b37:	83 f8 04             	cmp    $0x4,%eax
  401b3a:	0f 85 a1 00 00 00    	jne    401be1 <_getPawnMoves+0x28b>
  401b40:	8b 45 f0             	mov    -0x10(%ebp),%eax
  401b43:	83 c0 08             	add    $0x8,%eax
  401b46:	8b 00                	mov    (%eax),%eax
  401b48:	99                   	cltd   
  401b49:	c1 ea 1d             	shr    $0x1d,%edx
  401b4c:	01 d0                	add    %edx,%eax
  401b4e:	83 e0 07             	and    $0x7,%eax
  401b51:	29 d0                	sub    %edx,%eax
  401b53:	8b 55 18             	mov    0x18(%ebp),%edx
  401b56:	29 c2                	sub    %eax,%edx
  401b58:	89 d0                	mov    %edx,%eax
  401b5a:	99                   	cltd   
  401b5b:	31 d0                	xor    %edx,%eax
  401b5d:	29 d0                	sub    %edx,%eax
  401b5f:	83 f8 01             	cmp    $0x1,%eax
  401b62:	75 7d                	jne    401be1 <_getPawnMoves+0x28b>
  401b64:	8b 45 0c             	mov    0xc(%ebp),%eax
  401b67:	83 c0 03             	add    $0x3,%eax
  401b6a:	3b 45 14             	cmp    0x14(%ebp),%eax
  401b6d:	75 72                	jne    401be1 <_getPawnMoves+0x28b>
  401b6f:	8b 15 80 fa 40 00    	mov    0x40fa80,%edx
  401b75:	8b 45 f0             	mov    -0x10(%ebp),%eax
  401b78:	83 c0 08             	add    $0x8,%eax
  401b7b:	8b 00                	mov    (%eax),%eax
  401b7d:	01 d0                	add    %edx,%eax
  401b7f:	0f b6 00             	movzbl (%eax),%eax
  401b82:	0f be c0             	movsbl %al,%eax
  401b85:	3b 45 0c             	cmp    0xc(%ebp),%eax
  401b88:	74 57                	je     401be1 <_getPawnMoves+0x28b>
  401b8a:	c7 45 98 03 00 00 00 	movl   $0x3,-0x68(%ebp)
  401b91:	8b 45 e8             	mov    -0x18(%ebp),%eax
  401b94:	89 45 9c             	mov    %eax,-0x64(%ebp)
  401b97:	8b 45 f0             	mov    -0x10(%ebp),%eax
  401b9a:	83 c0 08             	add    $0x8,%eax
  401b9d:	8b 00                	mov    (%eax),%eax
  401b9f:	8b 55 ec             	mov    -0x14(%ebp),%edx
  401ba2:	c1 e2 03             	shl    $0x3,%edx
  401ba5:	01 d0                	add    %edx,%eax
  401ba7:	89 45 a0             	mov    %eax,-0x60(%ebp)
  401baa:	8b 45 f0             	mov    -0x10(%ebp),%eax
  401bad:	8b 40 08             	mov    0x8(%eax),%eax
  401bb0:	89 45 a4             	mov    %eax,-0x5c(%ebp)
  401bb3:	c7 45 a8 00 00 00 00 	movl   $0x0,-0x58(%ebp)
  401bba:	8b 45 1c             	mov    0x1c(%ebp),%eax
  401bbd:	89 44 24 10          	mov    %eax,0x10(%esp)
  401bc1:	8d 45 98             	lea    -0x68(%ebp),%eax
  401bc4:	89 44 24 0c          	mov    %eax,0xc(%esp)
  401bc8:	8b 45 10             	mov    0x10(%ebp),%eax
  401bcb:	89 44 24 08          	mov    %eax,0x8(%esp)
  401bcf:	8b 45 0c             	mov    0xc(%ebp),%eax
  401bd2:	89 44 24 04          	mov    %eax,0x4(%esp)
  401bd6:	8b 45 08             	mov    0x8(%ebp),%eax
  401bd9:	89 04 24             	mov    %eax,(%esp)
  401bdc:	e8 d0 12 00 00       	call   402eb1 <_createEnpassMove>
  401be1:	8b 45 18             	mov    0x18(%ebp),%eax
  401be4:	83 c0 01             	add    $0x1,%eax
  401be7:	83 f8 07             	cmp    $0x7,%eax
  401bea:	0f 8f 82 01 00 00    	jg     401d72 <_getPawnMoves+0x41c>
  401bf0:	8b 45 ec             	mov    -0x14(%ebp),%eax
  401bf3:	8b 55 14             	mov    0x14(%ebp),%edx
  401bf6:	8d 1c 02             	lea    (%edx,%eax,1),%ebx
  401bf9:	8b 45 18             	mov    0x18(%ebp),%eax
  401bfc:	8d 48 01             	lea    0x1(%eax),%ecx
  401bff:	8b 55 08             	mov    0x8(%ebp),%edx
  401c02:	8d 04 dd 00 00 00 00 	lea    0x0(,%ebx,8),%eax
  401c09:	01 c8                	add    %ecx,%eax
  401c0b:	01 d0                	add    %edx,%eax
  401c0d:	0f b6 00             	movzbl (%eax),%eax
  401c10:	3c 09                	cmp    $0x9,%al
  401c12:	0f 84 5a 01 00 00    	je     401d72 <_getPawnMoves+0x41c>
  401c18:	8b 45 ec             	mov    -0x14(%ebp),%eax
  401c1b:	8b 55 14             	mov    0x14(%ebp),%edx
  401c1e:	8d 0c 02             	lea    (%edx,%eax,1),%ecx
  401c21:	8b 45 18             	mov    0x18(%ebp),%eax
  401c24:	8d 50 01             	lea    0x1(%eax),%edx
  401c27:	8b 45 08             	mov    0x8(%ebp),%eax
  401c2a:	c1 e1 03             	shl    $0x3,%ecx
  401c2d:	01 c8                	add    %ecx,%eax
  401c2f:	01 d0                	add    %edx,%eax
  401c31:	83 c0 40             	add    $0x40,%eax
  401c34:	0f b6 00             	movzbl (%eax),%eax
  401c37:	0f be c0             	movsbl %al,%eax
  401c3a:	3b 45 0c             	cmp    0xc(%ebp),%eax
  401c3d:	0f 84 2f 01 00 00    	je     401d72 <_getPawnMoves+0x41c>
  401c43:	8b 45 ec             	mov    -0x14(%ebp),%eax
  401c46:	8b 55 14             	mov    0x14(%ebp),%edx
  401c49:	01 d0                	add    %edx,%eax
  401c4b:	85 c0                	test   %eax,%eax
  401c4d:	74 11                	je     401c60 <_getPawnMoves+0x30a>
  401c4f:	8b 45 ec             	mov    -0x14(%ebp),%eax
  401c52:	8b 55 14             	mov    0x14(%ebp),%edx
  401c55:	01 d0                	add    %edx,%eax
  401c57:	83 f8 07             	cmp    $0x7,%eax
  401c5a:	0f 85 8d 00 00 00    	jne    401ced <_getPawnMoves+0x397>
  401c60:	c7 45 f4 04 00 00 00 	movl   $0x4,-0xc(%ebp)
  401c67:	eb 79                	jmp    401ce2 <_getPawnMoves+0x38c>
  401c69:	c7 45 84 02 00 00 00 	movl   $0x2,-0x7c(%ebp)
  401c70:	8b 45 e8             	mov    -0x18(%ebp),%eax
  401c73:	89 45 88             	mov    %eax,-0x78(%ebp)
  401c76:	8b 45 ec             	mov    -0x14(%ebp),%eax
  401c79:	8d 14 c5 00 00 00 00 	lea    0x0(,%eax,8),%edx
  401c80:	8b 45 e8             	mov    -0x18(%ebp),%eax
  401c83:	01 d0                	add    %edx,%eax
  401c85:	83 c0 01             	add    $0x1,%eax
  401c88:	89 45 8c             	mov    %eax,-0x74(%ebp)
  401c8b:	8b 45 ec             	mov    -0x14(%ebp),%eax
  401c8e:	8b 55 14             	mov    0x14(%ebp),%edx
  401c91:	8d 1c 02             	lea    (%edx,%eax,1),%ebx
  401c94:	8b 45 18             	mov    0x18(%ebp),%eax
  401c97:	8d 48 01             	lea    0x1(%eax),%ecx
  401c9a:	8b 55 08             	mov    0x8(%ebp),%edx
  401c9d:	8d 04 dd 00 00 00 00 	lea    0x0(,%ebx,8),%eax
  401ca4:	01 c8                	add    %ecx,%eax
  401ca6:	01 d0                	add    %edx,%eax
  401ca8:	0f b6 00             	movzbl (%eax),%eax
  401cab:	0f be c0             	movsbl %al,%eax
  401cae:	89 45 90             	mov    %eax,-0x70(%ebp)
  401cb1:	8b 45 f4             	mov    -0xc(%ebp),%eax
  401cb4:	89 45 94             	mov    %eax,-0x6c(%ebp)
  401cb7:	8b 45 1c             	mov    0x1c(%ebp),%eax
  401cba:	89 44 24 10          	mov    %eax,0x10(%esp)
  401cbe:	8d 45 84             	lea    -0x7c(%ebp),%eax
  401cc1:	89 44 24 0c          	mov    %eax,0xc(%esp)
  401cc5:	8b 45 10             	mov    0x10(%ebp),%eax
  401cc8:	89 44 24 08          	mov    %eax,0x8(%esp)
  401ccc:	8b 45 0c             	mov    0xc(%ebp),%eax
  401ccf:	89 44 24 04          	mov    %eax,0x4(%esp)
  401cd3:	8b 45 08             	mov    0x8(%ebp),%eax
  401cd6:	89 04 24             	mov    %eax,(%esp)
  401cd9:	e8 21 11 00 00       	call   402dff <_createPromotionMove>
  401cde:	83 6d f4 01          	subl   $0x1,-0xc(%ebp)
  401ce2:	83 7d f4 00          	cmpl   $0x0,-0xc(%ebp)
  401ce6:	75 81                	jne    401c69 <_getPawnMoves+0x313>
  401ce8:	e9 85 00 00 00       	jmp    401d72 <_getPawnMoves+0x41c>
  401ced:	c7 85 70 ff ff ff 00 	movl   $0x0,-0x90(%ebp)
  401cf4:	00 00 00 
  401cf7:	8b 45 e8             	mov    -0x18(%ebp),%eax
  401cfa:	89 85 74 ff ff ff    	mov    %eax,-0x8c(%ebp)
  401d00:	8b 45 ec             	mov    -0x14(%ebp),%eax
  401d03:	8d 14 c5 00 00 00 00 	lea    0x0(,%eax,8),%edx
  401d0a:	8b 45 e8             	mov    -0x18(%ebp),%eax
  401d0d:	01 d0                	add    %edx,%eax
  401d0f:	83 c0 01             	add    $0x1,%eax
  401d12:	89 85 78 ff ff ff    	mov    %eax,-0x88(%ebp)
  401d18:	8b 45 ec             	mov    -0x14(%ebp),%eax
  401d1b:	8b 55 14             	mov    0x14(%ebp),%edx
  401d1e:	8d 1c 02             	lea    (%edx,%eax,1),%ebx
  401d21:	8b 45 18             	mov    0x18(%ebp),%eax
  401d24:	8d 48 01             	lea    0x1(%eax),%ecx
  401d27:	8b 55 08             	mov    0x8(%ebp),%edx
  401d2a:	8d 04 dd 00 00 00 00 	lea    0x0(,%ebx,8),%eax
  401d31:	01 c8                	add    %ecx,%eax
  401d33:	01 d0                	add    %edx,%eax
  401d35:	0f b6 00             	movzbl (%eax),%eax
  401d38:	0f be c0             	movsbl %al,%eax
  401d3b:	89 85 7c ff ff ff    	mov    %eax,-0x84(%ebp)
  401d41:	c7 45 80 00 00 00 00 	movl   $0x0,-0x80(%ebp)
  401d48:	8b 45 1c             	mov    0x1c(%ebp),%eax
  401d4b:	89 44 24 10          	mov    %eax,0x10(%esp)
  401d4f:	8d 85 70 ff ff ff    	lea    -0x90(%ebp),%eax
  401d55:	89 44 24 0c          	mov    %eax,0xc(%esp)
  401d59:	8b 45 10             	mov    0x10(%ebp),%eax
  401d5c:	89 44 24 08          	mov    %eax,0x8(%esp)
  401d60:	8b 45 0c             	mov    0xc(%ebp),%eax
  401d63:	89 44 24 04          	mov    %eax,0x4(%esp)
  401d67:	8b 45 08             	mov    0x8(%ebp),%eax
  401d6a:	89 04 24             	mov    %eax,(%esp)
  401d6d:	e8 29 0f 00 00       	call   402c9b <_createNormalMove>
  401d72:	8b 45 18             	mov    0x18(%ebp),%eax
  401d75:	83 e8 01             	sub    $0x1,%eax
  401d78:	85 c0                	test   %eax,%eax
  401d7a:	0f 88 9e 01 00 00    	js     401f1e <_getPawnMoves+0x5c8>
  401d80:	8b 45 ec             	mov    -0x14(%ebp),%eax
  401d83:	8b 55 14             	mov    0x14(%ebp),%edx
  401d86:	8d 1c 02             	lea    (%edx,%eax,1),%ebx
  401d89:	8b 45 18             	mov    0x18(%ebp),%eax
  401d8c:	8d 48 ff             	lea    -0x1(%eax),%ecx
  401d8f:	8b 55 08             	mov    0x8(%ebp),%edx
  401d92:	8d 04 dd 00 00 00 00 	lea    0x0(,%ebx,8),%eax
  401d99:	01 c8                	add    %ecx,%eax
  401d9b:	01 d0                	add    %edx,%eax
  401d9d:	0f b6 00             	movzbl (%eax),%eax
  401da0:	3c 09                	cmp    $0x9,%al
  401da2:	0f 84 76 01 00 00    	je     401f1e <_getPawnMoves+0x5c8>
  401da8:	8b 45 ec             	mov    -0x14(%ebp),%eax
  401dab:	8b 55 14             	mov    0x14(%ebp),%edx
  401dae:	8d 0c 02             	lea    (%edx,%eax,1),%ecx
  401db1:	8b 45 18             	mov    0x18(%ebp),%eax
  401db4:	8d 50 ff             	lea    -0x1(%eax),%edx
  401db7:	8b 45 08             	mov    0x8(%ebp),%eax
  401dba:	c1 e1 03             	shl    $0x3,%ecx
  401dbd:	01 c8                	add    %ecx,%eax
  401dbf:	01 d0                	add    %edx,%eax
  401dc1:	83 c0 40             	add    $0x40,%eax
  401dc4:	0f b6 00             	movzbl (%eax),%eax
  401dc7:	0f be c0             	movsbl %al,%eax
  401dca:	3b 45 0c             	cmp    0xc(%ebp),%eax
  401dcd:	0f 84 4b 01 00 00    	je     401f1e <_getPawnMoves+0x5c8>
  401dd3:	8b 45 ec             	mov    -0x14(%ebp),%eax
  401dd6:	8b 55 14             	mov    0x14(%ebp),%edx
  401dd9:	01 d0                	add    %edx,%eax
  401ddb:	85 c0                	test   %eax,%eax
  401ddd:	74 11                	je     401df0 <_getPawnMoves+0x49a>
  401ddf:	8b 45 ec             	mov    -0x14(%ebp),%eax
  401de2:	8b 55 14             	mov    0x14(%ebp),%edx
  401de5:	01 d0                	add    %edx,%eax
  401de7:	83 f8 07             	cmp    $0x7,%eax
  401dea:	0f 85 a6 00 00 00    	jne    401e96 <_getPawnMoves+0x540>
  401df0:	c7 45 f4 04 00 00 00 	movl   $0x4,-0xc(%ebp)
  401df7:	e9 8b 00 00 00       	jmp    401e87 <_getPawnMoves+0x531>
  401dfc:	c7 85 5c ff ff ff 02 	movl   $0x2,-0xa4(%ebp)
  401e03:	00 00 00 
  401e06:	8b 45 e8             	mov    -0x18(%ebp),%eax
  401e09:	89 85 60 ff ff ff    	mov    %eax,-0xa0(%ebp)
  401e0f:	8b 45 ec             	mov    -0x14(%ebp),%eax
  401e12:	8d 14 c5 00 00 00 00 	lea    0x0(,%eax,8),%edx
  401e19:	8b 45 e8             	mov    -0x18(%ebp),%eax
  401e1c:	01 d0                	add    %edx,%eax
  401e1e:	83 e8 01             	sub    $0x1,%eax
  401e21:	89 85 64 ff ff ff    	mov    %eax,-0x9c(%ebp)
  401e27:	8b 45 ec             	mov    -0x14(%ebp),%eax
  401e2a:	8b 55 14             	mov    0x14(%ebp),%edx
  401e2d:	8d 1c 02             	lea    (%edx,%eax,1),%ebx
  401e30:	8b 45 18             	mov    0x18(%ebp),%eax
  401e33:	8d 48 ff             	lea    -0x1(%eax),%ecx
  401e36:	8b 55 08             	mov    0x8(%ebp),%edx
  401e39:	8d 04 dd 00 00 00 00 	lea    0x0(,%ebx,8),%eax
  401e40:	01 c8                	add    %ecx,%eax
  401e42:	01 d0                	add    %edx,%eax
  401e44:	0f b6 00             	movzbl (%eax),%eax
  401e47:	0f be c0             	movsbl %al,%eax
  401e4a:	89 85 68 ff ff ff    	mov    %eax,-0x98(%ebp)
  401e50:	8b 45 f4             	mov    -0xc(%ebp),%eax
  401e53:	89 85 6c ff ff ff    	mov    %eax,-0x94(%ebp)
  401e59:	8b 45 1c             	mov    0x1c(%ebp),%eax
  401e5c:	89 44 24 10          	mov    %eax,0x10(%esp)
  401e60:	8d 85 5c ff ff ff    	lea    -0xa4(%ebp),%eax
  401e66:	89 44 24 0c          	mov    %eax,0xc(%esp)
  401e6a:	8b 45 10             	mov    0x10(%ebp),%eax
  401e6d:	89 44 24 08          	mov    %eax,0x8(%esp)
  401e71:	8b 45 0c             	mov    0xc(%ebp),%eax
  401e74:	89 44 24 04          	mov    %eax,0x4(%esp)
  401e78:	8b 45 08             	mov    0x8(%ebp),%eax
  401e7b:	89 04 24             	mov    %eax,(%esp)
  401e7e:	e8 7c 0f 00 00       	call   402dff <_createPromotionMove>
  401e83:	83 6d f4 01          	subl   $0x1,-0xc(%ebp)
  401e87:	83 7d f4 00          	cmpl   $0x0,-0xc(%ebp)
  401e8b:	0f 85 6b ff ff ff    	jne    401dfc <_getPawnMoves+0x4a6>
  401e91:	e9 88 00 00 00       	jmp    401f1e <_getPawnMoves+0x5c8>
  401e96:	c7 85 48 ff ff ff 00 	movl   $0x0,-0xb8(%ebp)
  401e9d:	00 00 00 
  401ea0:	8b 45 e8             	mov    -0x18(%ebp),%eax
  401ea3:	89 85 4c ff ff ff    	mov    %eax,-0xb4(%ebp)
  401ea9:	8b 45 ec             	mov    -0x14(%ebp),%eax
  401eac:	8d 14 c5 00 00 00 00 	lea    0x0(,%eax,8),%edx
  401eb3:	8b 45 e8             	mov    -0x18(%ebp),%eax
  401eb6:	01 d0                	add    %edx,%eax
  401eb8:	83 e8 01             	sub    $0x1,%eax
  401ebb:	89 85 50 ff ff ff    	mov    %eax,-0xb0(%ebp)
  401ec1:	8b 45 ec             	mov    -0x14(%ebp),%eax
  401ec4:	8b 55 14             	mov    0x14(%ebp),%edx
  401ec7:	8d 1c 02             	lea    (%edx,%eax,1),%ebx
  401eca:	8b 45 18             	mov    0x18(%ebp),%eax
  401ecd:	8d 48 ff             	lea    -0x1(%eax),%ecx
  401ed0:	8b 55 08             	mov    0x8(%ebp),%edx
  401ed3:	8d 04 dd 00 00 00 00 	lea    0x0(,%ebx,8),%eax
  401eda:	01 c8                	add    %ecx,%eax
  401edc:	01 d0                	add    %edx,%eax
  401ede:	0f b6 00             	movzbl (%eax),%eax
  401ee1:	0f be c0             	movsbl %al,%eax
  401ee4:	89 85 54 ff ff ff    	mov    %eax,-0xac(%ebp)
  401eea:	c7 85 58 ff ff ff 00 	movl   $0x0,-0xa8(%ebp)
  401ef1:	00 00 00 
  401ef4:	8b 45 1c             	mov    0x1c(%ebp),%eax
  401ef7:	89 44 24 10          	mov    %eax,0x10(%esp)
  401efb:	8d 85 48 ff ff ff    	lea    -0xb8(%ebp),%eax
  401f01:	89 44 24 0c          	mov    %eax,0xc(%esp)
  401f05:	8b 45 10             	mov    0x10(%ebp),%eax
  401f08:	89 44 24 08          	mov    %eax,0x8(%esp)
  401f0c:	8b 45 0c             	mov    0xc(%ebp),%eax
  401f0f:	89 44 24 04          	mov    %eax,0x4(%esp)
  401f13:	8b 45 08             	mov    0x8(%ebp),%eax
  401f16:	89 04 24             	mov    %eax,(%esp)
  401f19:	e8 7d 0d 00 00       	call   402c9b <_createNormalMove>
  401f1e:	81 c4 d4 00 00 00    	add    $0xd4,%esp
  401f24:	5b                   	pop    %ebx
  401f25:	5d                   	pop    %ebp
  401f26:	c3                   	ret    

00401f27 <_getKnightMoves>:
  401f27:	55                   	push   %ebp
  401f28:	89 e5                	mov    %esp,%ebp
  401f2a:	83 ec 58             	sub    $0x58,%esp
  401f2d:	8b 45 14             	mov    0x14(%ebp),%eax
  401f30:	8d 14 c5 00 00 00 00 	lea    0x0(,%eax,8),%edx
  401f37:	8b 45 18             	mov    0x18(%ebp),%eax
  401f3a:	01 d0                	add    %edx,%eax
  401f3c:	89 45 f0             	mov    %eax,-0x10(%ebp)
  401f3f:	c7 45 f4 00 00 00 00 	movl   $0x0,-0xc(%ebp)
  401f46:	e9 e0 00 00 00       	jmp    40202b <_getKnightMoves+0x104>
  401f4b:	8b 45 f4             	mov    -0xc(%ebp),%eax
  401f4e:	0f b6 84 00 00 b0 40 	movzbl 0x40b000(%eax,%eax,1),%eax
  401f55:	00 
  401f56:	0f be d0             	movsbl %al,%edx
  401f59:	8b 45 14             	mov    0x14(%ebp),%eax
  401f5c:	01 d0                	add    %edx,%eax
  401f5e:	89 45 ec             	mov    %eax,-0x14(%ebp)
  401f61:	8b 45 f4             	mov    -0xc(%ebp),%eax
  401f64:	0f b6 84 00 01 b0 40 	movzbl 0x40b001(%eax,%eax,1),%eax
  401f6b:	00 
  401f6c:	0f be d0             	movsbl %al,%edx
  401f6f:	8b 45 18             	mov    0x18(%ebp),%eax
  401f72:	01 d0                	add    %edx,%eax
  401f74:	89 45 e8             	mov    %eax,-0x18(%ebp)
  401f77:	83 7d ec 00          	cmpl   $0x0,-0x14(%ebp)
  401f7b:	0f 88 a6 00 00 00    	js     402027 <_getKnightMoves+0x100>
  401f81:	83 7d ec 07          	cmpl   $0x7,-0x14(%ebp)
  401f85:	0f 8f 9c 00 00 00    	jg     402027 <_getKnightMoves+0x100>
  401f8b:	83 7d e8 00          	cmpl   $0x0,-0x18(%ebp)
  401f8f:	0f 88 92 00 00 00    	js     402027 <_getKnightMoves+0x100>
  401f95:	83 7d e8 07          	cmpl   $0x7,-0x18(%ebp)
  401f99:	0f 8f 88 00 00 00    	jg     402027 <_getKnightMoves+0x100>
  401f9f:	8b 45 08             	mov    0x8(%ebp),%eax
  401fa2:	8b 55 ec             	mov    -0x14(%ebp),%edx
  401fa5:	c1 e2 03             	shl    $0x3,%edx
  401fa8:	01 c2                	add    %eax,%edx
  401faa:	8b 45 e8             	mov    -0x18(%ebp),%eax
  401fad:	01 d0                	add    %edx,%eax
  401faf:	83 c0 40             	add    $0x40,%eax
  401fb2:	0f b6 00             	movzbl (%eax),%eax
  401fb5:	0f be c0             	movsbl %al,%eax
  401fb8:	3b 45 0c             	cmp    0xc(%ebp),%eax
  401fbb:	74 6a                	je     402027 <_getKnightMoves+0x100>
  401fbd:	c7 45 d4 00 00 00 00 	movl   $0x0,-0x2c(%ebp)
  401fc4:	8b 45 f0             	mov    -0x10(%ebp),%eax
  401fc7:	89 45 d8             	mov    %eax,-0x28(%ebp)
  401fca:	8b 45 ec             	mov    -0x14(%ebp),%eax
  401fcd:	8d 14 c5 00 00 00 00 	lea    0x0(,%eax,8),%edx
  401fd4:	8b 45 e8             	mov    -0x18(%ebp),%eax
  401fd7:	01 d0                	add    %edx,%eax
  401fd9:	89 45 dc             	mov    %eax,-0x24(%ebp)
  401fdc:	8b 45 08             	mov    0x8(%ebp),%eax
  401fdf:	8b 55 ec             	mov    -0x14(%ebp),%edx
  401fe2:	8d 0c d5 00 00 00 00 	lea    0x0(,%edx,8),%ecx
  401fe9:	8b 55 e8             	mov    -0x18(%ebp),%edx
  401fec:	01 ca                	add    %ecx,%edx
  401fee:	01 d0                	add    %edx,%eax
  401ff0:	0f b6 00             	movzbl (%eax),%eax
  401ff3:	0f be c0             	movsbl %al,%eax
  401ff6:	89 45 e0             	mov    %eax,-0x20(%ebp)
  401ff9:	c7 45 e4 00 00 00 00 	movl   $0x0,-0x1c(%ebp)
  402000:	8b 45 1c             	mov    0x1c(%ebp),%eax
  402003:	89 44 24 10          	mov    %eax,0x10(%esp)
  402007:	8d 45 d4             	lea    -0x2c(%ebp),%eax
  40200a:	89 44 24 0c          	mov    %eax,0xc(%esp)
  40200e:	8b 45 10             	mov    0x10(%ebp),%eax
  402011:	89 44 24 08          	mov    %eax,0x8(%esp)
  402015:	8b 45 0c             	mov    0xc(%ebp),%eax
  402018:	89 44 24 04          	mov    %eax,0x4(%esp)
  40201c:	8b 45 08             	mov    0x8(%ebp),%eax
  40201f:	89 04 24             	mov    %eax,(%esp)
  402022:	e8 74 0c 00 00       	call   402c9b <_createNormalMove>
  402027:	83 45 f4 01          	addl   $0x1,-0xc(%ebp)
  40202b:	83 7d f4 07          	cmpl   $0x7,-0xc(%ebp)
  40202f:	0f 8e 16 ff ff ff    	jle    401f4b <_getKnightMoves+0x24>
  402035:	c9                   	leave  
  402036:	c3                   	ret    

00402037 <_getBishopMoves>:
  402037:	55                   	push   %ebp
  402038:	89 e5                	mov    %esp,%ebp
  40203a:	83 ec 58             	sub    $0x58,%esp
  40203d:	8b 45 14             	mov    0x14(%ebp),%eax
  402040:	8d 14 c5 00 00 00 00 	lea    0x0(,%eax,8),%edx
  402047:	8b 45 18             	mov    0x18(%ebp),%eax
  40204a:	01 d0                	add    %edx,%eax
  40204c:	89 45 e8             	mov    %eax,-0x18(%ebp)
  40204f:	c7 45 f4 00 00 00 00 	movl   $0x0,-0xc(%ebp)
  402056:	e9 06 01 00 00       	jmp    402161 <_getBishopMoves+0x12a>
  40205b:	8b 45 14             	mov    0x14(%ebp),%eax
  40205e:	89 45 f0             	mov    %eax,-0x10(%ebp)
  402061:	8b 45 18             	mov    0x18(%ebp),%eax
  402064:	89 45 ec             	mov    %eax,-0x14(%ebp)
  402067:	8b 45 f4             	mov    -0xc(%ebp),%eax
  40206a:	0f b6 84 00 10 b0 40 	movzbl 0x40b010(%eax,%eax,1),%eax
  402071:	00 
  402072:	0f be c0             	movsbl %al,%eax
  402075:	01 45 f0             	add    %eax,-0x10(%ebp)
  402078:	8b 45 f4             	mov    -0xc(%ebp),%eax
  40207b:	0f b6 84 00 11 b0 40 	movzbl 0x40b011(%eax,%eax,1),%eax
  402082:	00 
  402083:	0f be c0             	movsbl %al,%eax
  402086:	01 45 ec             	add    %eax,-0x14(%ebp)
  402089:	83 7d f0 00          	cmpl   $0x0,-0x10(%ebp)
  40208d:	0f 88 ca 00 00 00    	js     40215d <_getBishopMoves+0x126>
  402093:	83 7d f0 07          	cmpl   $0x7,-0x10(%ebp)
  402097:	0f 8f c0 00 00 00    	jg     40215d <_getBishopMoves+0x126>
  40209d:	83 7d ec 00          	cmpl   $0x0,-0x14(%ebp)
  4020a1:	0f 88 b6 00 00 00    	js     40215d <_getBishopMoves+0x126>
  4020a7:	83 7d ec 07          	cmpl   $0x7,-0x14(%ebp)
  4020ab:	0f 8f ac 00 00 00    	jg     40215d <_getBishopMoves+0x126>
  4020b1:	8b 45 08             	mov    0x8(%ebp),%eax
  4020b4:	8b 55 f0             	mov    -0x10(%ebp),%edx
  4020b7:	c1 e2 03             	shl    $0x3,%edx
  4020ba:	01 c2                	add    %eax,%edx
  4020bc:	8b 45 ec             	mov    -0x14(%ebp),%eax
  4020bf:	01 d0                	add    %edx,%eax
  4020c1:	83 c0 40             	add    $0x40,%eax
  4020c4:	0f b6 00             	movzbl (%eax),%eax
  4020c7:	0f be c0             	movsbl %al,%eax
  4020ca:	3b 45 0c             	cmp    0xc(%ebp),%eax
  4020cd:	0f 84 8a 00 00 00    	je     40215d <_getBishopMoves+0x126>
  4020d3:	c7 45 d4 00 00 00 00 	movl   $0x0,-0x2c(%ebp)
  4020da:	8b 45 e8             	mov    -0x18(%ebp),%eax
  4020dd:	89 45 d8             	mov    %eax,-0x28(%ebp)
  4020e0:	8b 45 f0             	mov    -0x10(%ebp),%eax
  4020e3:	8d 14 c5 00 00 00 00 	lea    0x0(,%eax,8),%edx
  4020ea:	8b 45 ec             	mov    -0x14(%ebp),%eax
  4020ed:	01 d0                	add    %edx,%eax
  4020ef:	89 45 dc             	mov    %eax,-0x24(%ebp)
  4020f2:	8b 45 08             	mov    0x8(%ebp),%eax
  4020f5:	8b 55 f0             	mov    -0x10(%ebp),%edx
  4020f8:	8d 0c d5 00 00 00 00 	lea    0x0(,%edx,8),%ecx
  4020ff:	8b 55 ec             	mov    -0x14(%ebp),%edx
  402102:	01 ca                	add    %ecx,%edx
  402104:	01 d0                	add    %edx,%eax
  402106:	0f b6 00             	movzbl (%eax),%eax
  402109:	0f be c0             	movsbl %al,%eax
  40210c:	89 45 e0             	mov    %eax,-0x20(%ebp)
  40210f:	c7 45 e4 00 00 00 00 	movl   $0x0,-0x1c(%ebp)
  402116:	8b 45 1c             	mov    0x1c(%ebp),%eax
  402119:	89 44 24 10          	mov    %eax,0x10(%esp)
  40211d:	8d 45 d4             	lea    -0x2c(%ebp),%eax
  402120:	89 44 24 0c          	mov    %eax,0xc(%esp)
  402124:	8b 45 10             	mov    0x10(%ebp),%eax
  402127:	89 44 24 08          	mov    %eax,0x8(%esp)
  40212b:	8b 45 0c             	mov    0xc(%ebp),%eax
  40212e:	89 44 24 04          	mov    %eax,0x4(%esp)
  402132:	8b 45 08             	mov    0x8(%ebp),%eax
  402135:	89 04 24             	mov    %eax,(%esp)
  402138:	e8 5e 0b 00 00       	call   402c9b <_createNormalMove>
  40213d:	8b 45 08             	mov    0x8(%ebp),%eax
  402140:	8b 55 f0             	mov    -0x10(%ebp),%edx
  402143:	8d 0c d5 00 00 00 00 	lea    0x0(,%edx,8),%ecx
  40214a:	8b 55 ec             	mov    -0x14(%ebp),%edx
  40214d:	01 ca                	add    %ecx,%edx
  40214f:	01 d0                	add    %edx,%eax
  402151:	0f b6 00             	movzbl (%eax),%eax
  402154:	3c 09                	cmp    $0x9,%al
  402156:	75 05                	jne    40215d <_getBishopMoves+0x126>
  402158:	e9 0a ff ff ff       	jmp    402067 <_getBishopMoves+0x30>
  40215d:	83 45 f4 01          	addl   $0x1,-0xc(%ebp)
  402161:	83 7d f4 03          	cmpl   $0x3,-0xc(%ebp)
  402165:	0f 8e f0 fe ff ff    	jle    40205b <_getBishopMoves+0x24>
  40216b:	c9                   	leave  
  40216c:	c3                   	ret    

0040216d <_getRookMoves>:
  40216d:	55                   	push   %ebp
  40216e:	89 e5                	mov    %esp,%ebp
  402170:	83 ec 58             	sub    $0x58,%esp
  402173:	8b 45 14             	mov    0x14(%ebp),%eax
  402176:	8d 14 c5 00 00 00 00 	lea    0x0(,%eax,8),%edx
  40217d:	8b 45 18             	mov    0x18(%ebp),%eax
  402180:	01 d0                	add    %edx,%eax
  402182:	89 45 e8             	mov    %eax,-0x18(%ebp)
  402185:	c7 45 f4 00 00 00 00 	movl   $0x0,-0xc(%ebp)
  40218c:	e9 06 01 00 00       	jmp    402297 <_getRookMoves+0x12a>
  402191:	8b 45 14             	mov    0x14(%ebp),%eax
  402194:	89 45 f0             	mov    %eax,-0x10(%ebp)
  402197:	8b 45 18             	mov    0x18(%ebp),%eax
  40219a:	89 45 ec             	mov    %eax,-0x14(%ebp)
  40219d:	8b 45 f4             	mov    -0xc(%ebp),%eax
  4021a0:	0f b6 84 00 18 b0 40 	movzbl 0x40b018(%eax,%eax,1),%eax
  4021a7:	00 
  4021a8:	0f be c0             	movsbl %al,%eax
  4021ab:	01 45 f0             	add    %eax,-0x10(%ebp)
  4021ae:	8b 45 f4             	mov    -0xc(%ebp),%eax
  4021b1:	0f b6 84 00 19 b0 40 	movzbl 0x40b019(%eax,%eax,1),%eax
  4021b8:	00 
  4021b9:	0f be c0             	movsbl %al,%eax
  4021bc:	01 45 ec             	add    %eax,-0x14(%ebp)
  4021bf:	83 7d f0 00          	cmpl   $0x0,-0x10(%ebp)
  4021c3:	0f 88 ca 00 00 00    	js     402293 <_getRookMoves+0x126>
  4021c9:	83 7d f0 07          	cmpl   $0x7,-0x10(%ebp)
  4021cd:	0f 8f c0 00 00 00    	jg     402293 <_getRookMoves+0x126>
  4021d3:	83 7d ec 00          	cmpl   $0x0,-0x14(%ebp)
  4021d7:	0f 88 b6 00 00 00    	js     402293 <_getRookMoves+0x126>
  4021dd:	83 7d ec 07          	cmpl   $0x7,-0x14(%ebp)
  4021e1:	0f 8f ac 00 00 00    	jg     402293 <_getRookMoves+0x126>
  4021e7:	8b 45 08             	mov    0x8(%ebp),%eax
  4021ea:	8b 55 f0             	mov    -0x10(%ebp),%edx
  4021ed:	c1 e2 03             	shl    $0x3,%edx
  4021f0:	01 c2                	add    %eax,%edx
  4021f2:	8b 45 ec             	mov    -0x14(%ebp),%eax
  4021f5:	01 d0                	add    %edx,%eax
  4021f7:	83 c0 40             	add    $0x40,%eax
  4021fa:	0f b6 00             	movzbl (%eax),%eax
  4021fd:	0f be c0             	movsbl %al,%eax
  402200:	3b 45 0c             	cmp    0xc(%ebp),%eax
  402203:	0f 84 8a 00 00 00    	je     402293 <_getRookMoves+0x126>
  402209:	c7 45 d4 00 00 00 00 	movl   $0x0,-0x2c(%ebp)
  402210:	8b 45 e8             	mov    -0x18(%ebp),%eax
  402213:	89 45 d8             	mov    %eax,-0x28(%ebp)
  402216:	8b 45 f0             	mov    -0x10(%ebp),%eax
  402219:	8d 14 c5 00 00 00 00 	lea    0x0(,%eax,8),%edx
  402220:	8b 45 ec             	mov    -0x14(%ebp),%eax
  402223:	01 d0                	add    %edx,%eax
  402225:	89 45 dc             	mov    %eax,-0x24(%ebp)
  402228:	8b 45 08             	mov    0x8(%ebp),%eax
  40222b:	8b 55 f0             	mov    -0x10(%ebp),%edx
  40222e:	8d 0c d5 00 00 00 00 	lea    0x0(,%edx,8),%ecx
  402235:	8b 55 ec             	mov    -0x14(%ebp),%edx
  402238:	01 ca                	add    %ecx,%edx
  40223a:	01 d0                	add    %edx,%eax
  40223c:	0f b6 00             	movzbl (%eax),%eax
  40223f:	0f be c0             	movsbl %al,%eax
  402242:	89 45 e0             	mov    %eax,-0x20(%ebp)
  402245:	c7 45 e4 00 00 00 00 	movl   $0x0,-0x1c(%ebp)
  40224c:	8b 45 1c             	mov    0x1c(%ebp),%eax
  40224f:	89 44 24 10          	mov    %eax,0x10(%esp)
  402253:	8d 45 d4             	lea    -0x2c(%ebp),%eax
  402256:	89 44 24 0c          	mov    %eax,0xc(%esp)
  40225a:	8b 45 10             	mov    0x10(%ebp),%eax
  40225d:	89 44 24 08          	mov    %eax,0x8(%esp)
  402261:	8b 45 0c             	mov    0xc(%ebp),%eax
  402264:	89 44 24 04          	mov    %eax,0x4(%esp)
  402268:	8b 45 08             	mov    0x8(%ebp),%eax
  40226b:	89 04 24             	mov    %eax,(%esp)
  40226e:	e8 28 0a 00 00       	call   402c9b <_createNormalMove>
  402273:	8b 45 08             	mov    0x8(%ebp),%eax
  402276:	8b 55 f0             	mov    -0x10(%ebp),%edx
  402279:	8d 0c d5 00 00 00 00 	lea    0x0(,%edx,8),%ecx
  402280:	8b 55 ec             	mov    -0x14(%ebp),%edx
  402283:	01 ca                	add    %ecx,%edx
  402285:	01 d0                	add    %edx,%eax
  402287:	0f b6 00             	movzbl (%eax),%eax
  40228a:	3c 09                	cmp    $0x9,%al
  40228c:	75 05                	jne    402293 <_getRookMoves+0x126>
  40228e:	e9 0a ff ff ff       	jmp    40219d <_getRookMoves+0x30>
  402293:	83 45 f4 01          	addl   $0x1,-0xc(%ebp)
  402297:	83 7d f4 03          	cmpl   $0x3,-0xc(%ebp)
  40229b:	0f 8e f0 fe ff ff    	jle    402191 <_getRookMoves+0x24>
  4022a1:	c9                   	leave  
  4022a2:	c3                   	ret    

004022a3 <_getQueenMoves>:
  4022a3:	55                   	push   %ebp
  4022a4:	89 e5                	mov    %esp,%ebp
  4022a6:	83 ec 28             	sub    $0x28,%esp
  4022a9:	8b 45 1c             	mov    0x1c(%ebp),%eax
  4022ac:	89 44 24 14          	mov    %eax,0x14(%esp)
  4022b0:	8b 45 18             	mov    0x18(%ebp),%eax
  4022b3:	89 44 24 10          	mov    %eax,0x10(%esp)
  4022b7:	8b 45 14             	mov    0x14(%ebp),%eax
  4022ba:	89 44 24 0c          	mov    %eax,0xc(%esp)
  4022be:	8b 45 10             	mov    0x10(%ebp),%eax
  4022c1:	89 44 24 08          	mov    %eax,0x8(%esp)
  4022c5:	8b 45 0c             	mov    0xc(%ebp),%eax
  4022c8:	89 44 24 04          	mov    %eax,0x4(%esp)
  4022cc:	8b 45 08             	mov    0x8(%ebp),%eax
  4022cf:	89 04 24             	mov    %eax,(%esp)
  4022d2:	e8 60 fd ff ff       	call   402037 <_getBishopMoves>
  4022d7:	8b 45 1c             	mov    0x1c(%ebp),%eax
  4022da:	89 44 24 14          	mov    %eax,0x14(%esp)
  4022de:	8b 45 18             	mov    0x18(%ebp),%eax
  4022e1:	89 44 24 10          	mov    %eax,0x10(%esp)
  4022e5:	8b 45 14             	mov    0x14(%ebp),%eax
  4022e8:	89 44 24 0c          	mov    %eax,0xc(%esp)
  4022ec:	8b 45 10             	mov    0x10(%ebp),%eax
  4022ef:	89 44 24 08          	mov    %eax,0x8(%esp)
  4022f3:	8b 45 0c             	mov    0xc(%ebp),%eax
  4022f6:	89 44 24 04          	mov    %eax,0x4(%esp)
  4022fa:	8b 45 08             	mov    0x8(%ebp),%eax
  4022fd:	89 04 24             	mov    %eax,(%esp)
  402300:	e8 68 fe ff ff       	call   40216d <_getRookMoves>
  402305:	c9                   	leave  
  402306:	c3                   	ret    

00402307 <_getKingMoves>:
  402307:	55                   	push   %ebp
  402308:	89 e5                	mov    %esp,%ebp
  40230a:	53                   	push   %ebx
  40230b:	81 ec 94 00 00 00    	sub    $0x94,%esp
  402311:	8d 55 c4             	lea    -0x3c(%ebp),%edx
  402314:	b9 00 00 00 00       	mov    $0x0,%ecx
  402319:	b8 20 00 00 00       	mov    $0x20,%eax
  40231e:	83 e0 fc             	and    $0xfffffffc,%eax
  402321:	89 c3                	mov    %eax,%ebx
  402323:	b8 00 00 00 00       	mov    $0x0,%eax
  402328:	89 0c 02             	mov    %ecx,(%edx,%eax,1)
  40232b:	83 c0 04             	add    $0x4,%eax
  40232e:	39 d8                	cmp    %ebx,%eax
  402330:	72 f6                	jb     402328 <_getKingMoves+0x21>
  402332:	01 c2                	add    %eax,%edx
  402334:	8b 45 14             	mov    0x14(%ebp),%eax
  402337:	8d 14 c5 00 00 00 00 	lea    0x0(,%eax,8),%edx
  40233e:	8b 45 18             	mov    0x18(%ebp),%eax
  402341:	01 d0                	add    %edx,%eax
  402343:	89 45 f0             	mov    %eax,-0x10(%ebp)
  402346:	c7 45 f4 00 00 00 00 	movl   $0x0,-0xc(%ebp)
  40234d:	e9 01 01 00 00       	jmp    402453 <_getKingMoves+0x14c>
  402352:	8b 45 f4             	mov    -0xc(%ebp),%eax
  402355:	0f b6 84 00 20 b0 40 	movzbl 0x40b020(%eax,%eax,1),%eax
  40235c:	00 
  40235d:	0f be d0             	movsbl %al,%edx
  402360:	8b 45 14             	mov    0x14(%ebp),%eax
  402363:	01 d0                	add    %edx,%eax
  402365:	89 45 ec             	mov    %eax,-0x14(%ebp)
  402368:	8b 45 f4             	mov    -0xc(%ebp),%eax
  40236b:	0f b6 84 00 21 b0 40 	movzbl 0x40b021(%eax,%eax,1),%eax
  402372:	00 
  402373:	0f be d0             	movsbl %al,%edx
  402376:	8b 45 18             	mov    0x18(%ebp),%eax
  402379:	01 d0                	add    %edx,%eax
  40237b:	89 45 e8             	mov    %eax,-0x18(%ebp)
  40237e:	83 7d ec 00          	cmpl   $0x0,-0x14(%ebp)
  402382:	0f 88 c7 00 00 00    	js     40244f <_getKingMoves+0x148>
  402388:	83 7d ec 07          	cmpl   $0x7,-0x14(%ebp)
  40238c:	0f 8f bd 00 00 00    	jg     40244f <_getKingMoves+0x148>
  402392:	83 7d e8 00          	cmpl   $0x0,-0x18(%ebp)
  402396:	0f 88 b3 00 00 00    	js     40244f <_getKingMoves+0x148>
  40239c:	83 7d e8 07          	cmpl   $0x7,-0x18(%ebp)
  4023a0:	0f 8f a9 00 00 00    	jg     40244f <_getKingMoves+0x148>
  4023a6:	8b 45 08             	mov    0x8(%ebp),%eax
  4023a9:	8b 55 ec             	mov    -0x14(%ebp),%edx
  4023ac:	c1 e2 03             	shl    $0x3,%edx
  4023af:	01 c2                	add    %eax,%edx
  4023b1:	8b 45 e8             	mov    -0x18(%ebp),%eax
  4023b4:	01 d0                	add    %edx,%eax
  4023b6:	83 c0 40             	add    $0x40,%eax
  4023b9:	0f b6 00             	movzbl (%eax),%eax
  4023bc:	0f be c0             	movsbl %al,%eax
  4023bf:	3b 45 0c             	cmp    0xc(%ebp),%eax
  4023c2:	0f 84 87 00 00 00    	je     40244f <_getKingMoves+0x148>
  4023c8:	c7 45 b0 00 00 00 00 	movl   $0x0,-0x50(%ebp)
  4023cf:	8b 45 f0             	mov    -0x10(%ebp),%eax
  4023d2:	89 45 b4             	mov    %eax,-0x4c(%ebp)
  4023d5:	8b 45 ec             	mov    -0x14(%ebp),%eax
  4023d8:	8d 14 c5 00 00 00 00 	lea    0x0(,%eax,8),%edx
  4023df:	8b 45 e8             	mov    -0x18(%ebp),%eax
  4023e2:	01 d0                	add    %edx,%eax
  4023e4:	89 45 b8             	mov    %eax,-0x48(%ebp)
  4023e7:	8b 45 08             	mov    0x8(%ebp),%eax
  4023ea:	8b 55 ec             	mov    -0x14(%ebp),%edx
  4023ed:	8d 0c d5 00 00 00 00 	lea    0x0(,%edx,8),%ecx
  4023f4:	8b 55 e8             	mov    -0x18(%ebp),%edx
  4023f7:	01 ca                	add    %ecx,%edx
  4023f9:	01 d0                	add    %edx,%eax
  4023fb:	0f b6 00             	movzbl (%eax),%eax
  4023fe:	0f be c0             	movsbl %al,%eax
  402401:	89 45 bc             	mov    %eax,-0x44(%ebp)
  402404:	c7 45 c0 00 00 00 00 	movl   $0x0,-0x40(%ebp)
  40240b:	8b 45 10             	mov    0x10(%ebp),%eax
  40240e:	8b 00                	mov    (%eax),%eax
  402410:	89 45 e4             	mov    %eax,-0x1c(%ebp)
  402413:	8b 45 1c             	mov    0x1c(%ebp),%eax
  402416:	89 44 24 10          	mov    %eax,0x10(%esp)
  40241a:	8d 45 b0             	lea    -0x50(%ebp),%eax
  40241d:	89 44 24 0c          	mov    %eax,0xc(%esp)
  402421:	8b 45 10             	mov    0x10(%ebp),%eax
  402424:	89 44 24 08          	mov    %eax,0x8(%esp)
  402428:	8b 45 0c             	mov    0xc(%ebp),%eax
  40242b:	89 44 24 04          	mov    %eax,0x4(%esp)
  40242f:	8b 45 08             	mov    0x8(%ebp),%eax
  402432:	89 04 24             	mov    %eax,(%esp)
  402435:	e8 61 08 00 00       	call   402c9b <_createNormalMove>
  40243a:	8b 45 10             	mov    0x10(%ebp),%eax
  40243d:	8b 00                	mov    (%eax),%eax
  40243f:	3b 45 e4             	cmp    -0x1c(%ebp),%eax
  402442:	74 0b                	je     40244f <_getKingMoves+0x148>
  402444:	8b 45 f4             	mov    -0xc(%ebp),%eax
  402447:	c7 44 85 c4 01 00 00 	movl   $0x1,-0x3c(%ebp,%eax,4)
  40244e:	00 
  40244f:	83 45 f4 01          	addl   $0x1,-0xc(%ebp)
  402453:	83 7d f4 07          	cmpl   $0x7,-0xc(%ebp)
  402457:	0f 8e f5 fe ff ff    	jle    402352 <_getKingMoves+0x4b>
  40245d:	8b 45 08             	mov    0x8(%ebp),%eax
  402460:	8b 55 0c             	mov    0xc(%ebp),%edx
  402463:	83 c2 20             	add    $0x20,%edx
  402466:	8b 44 90 08          	mov    0x8(%eax,%edx,4),%eax
  40246a:	85 c0                	test   %eax,%eax
  40246c:	0f 85 87 01 00 00    	jne    4025f9 <_getKingMoves+0x2f2>
  402472:	8b 45 0c             	mov    0xc(%ebp),%eax
  402475:	89 44 24 04          	mov    %eax,0x4(%esp)
  402479:	8b 45 08             	mov    0x8(%ebp),%eax
  40247c:	89 04 24             	mov    %eax,(%esp)
  40247f:	e8 7e 01 00 00       	call   402602 <_validateMove>
  402484:	85 c0                	test   %eax,%eax
  402486:	0f 84 6d 01 00 00    	je     4025f9 <_getKingMoves+0x2f2>
  40248c:	8b 45 08             	mov    0x8(%ebp),%eax
  40248f:	8b 55 0c             	mov    0xc(%ebp),%edx
  402492:	83 c2 12             	add    $0x12,%edx
  402495:	8b 04 d0             	mov    (%eax,%edx,8),%eax
  402498:	85 c0                	test   %eax,%eax
  40249a:	0f 84 96 00 00 00    	je     402536 <_getKingMoves+0x22f>
  4024a0:	8b 45 e0             	mov    -0x20(%ebp),%eax
  4024a3:	85 c0                	test   %eax,%eax
  4024a5:	0f 84 8b 00 00 00    	je     402536 <_getKingMoves+0x22f>
  4024ab:	a1 84 fa 40 00       	mov    0x40fa84,%eax
  4024b0:	8b 55 f0             	mov    -0x10(%ebp),%edx
  4024b3:	83 ea 03             	sub    $0x3,%edx
  4024b6:	01 d0                	add    %edx,%eax
  4024b8:	0f b6 00             	movzbl (%eax),%eax
  4024bb:	3c 03                	cmp    $0x3,%al
  4024bd:	75 77                	jne    402536 <_getKingMoves+0x22f>
  4024bf:	a1 84 fa 40 00       	mov    0x40fa84,%eax
  4024c4:	8b 55 f0             	mov    -0x10(%ebp),%edx
  4024c7:	83 ea 01             	sub    $0x1,%edx
  4024ca:	01 d0                	add    %edx,%eax
  4024cc:	0f b6 00             	movzbl (%eax),%eax
  4024cf:	3c 09                	cmp    $0x9,%al
  4024d1:	75 63                	jne    402536 <_getKingMoves+0x22f>
  4024d3:	a1 84 fa 40 00       	mov    0x40fa84,%eax
  4024d8:	8b 55 f0             	mov    -0x10(%ebp),%edx
  4024db:	83 ea 02             	sub    $0x2,%edx
  4024de:	01 d0                	add    %edx,%eax
  4024e0:	0f b6 00             	movzbl (%eax),%eax
  4024e3:	3c 09                	cmp    $0x9,%al
  4024e5:	75 4f                	jne    402536 <_getKingMoves+0x22f>
  4024e7:	c7 45 9c 01 00 00 00 	movl   $0x1,-0x64(%ebp)
  4024ee:	8b 45 f0             	mov    -0x10(%ebp),%eax
  4024f1:	89 45 a0             	mov    %eax,-0x60(%ebp)
  4024f4:	8b 45 f0             	mov    -0x10(%ebp),%eax
  4024f7:	83 e8 02             	sub    $0x2,%eax
  4024fa:	89 45 a4             	mov    %eax,-0x5c(%ebp)
  4024fd:	8b 45 f0             	mov    -0x10(%ebp),%eax
  402500:	83 e8 03             	sub    $0x3,%eax
  402503:	89 45 a8             	mov    %eax,-0x58(%ebp)
  402506:	8b 45 f0             	mov    -0x10(%ebp),%eax
  402509:	83 e8 01             	sub    $0x1,%eax
  40250c:	89 45 ac             	mov    %eax,-0x54(%ebp)
  40250f:	8b 45 1c             	mov    0x1c(%ebp),%eax
  402512:	89 44 24 10          	mov    %eax,0x10(%esp)
  402516:	8d 45 9c             	lea    -0x64(%ebp),%eax
  402519:	89 44 24 0c          	mov    %eax,0xc(%esp)
  40251d:	8b 45 10             	mov    0x10(%ebp),%eax
  402520:	89 44 24 08          	mov    %eax,0x8(%esp)
  402524:	8b 45 0c             	mov    0xc(%ebp),%eax
  402527:	89 44 24 04          	mov    %eax,0x4(%esp)
  40252b:	8b 45 08             	mov    0x8(%ebp),%eax
  40252e:	89 04 24             	mov    %eax,(%esp)
  402531:	e8 17 08 00 00       	call   402d4d <_createCastleMove>
  402536:	8b 45 08             	mov    0x8(%ebp),%eax
  402539:	8b 55 0c             	mov    0xc(%ebp),%edx
  40253c:	8b 84 d0 94 00 00 00 	mov    0x94(%eax,%edx,8),%eax
  402543:	85 c0                	test   %eax,%eax
  402545:	0f 84 ae 00 00 00    	je     4025f9 <_getKingMoves+0x2f2>
  40254b:	8b 45 dc             	mov    -0x24(%ebp),%eax
  40254e:	85 c0                	test   %eax,%eax
  402550:	0f 84 a3 00 00 00    	je     4025f9 <_getKingMoves+0x2f2>
  402556:	a1 84 fa 40 00       	mov    0x40fa84,%eax
  40255b:	8b 55 f0             	mov    -0x10(%ebp),%edx
  40255e:	83 c2 04             	add    $0x4,%edx
  402561:	01 d0                	add    %edx,%eax
  402563:	0f b6 00             	movzbl (%eax),%eax
  402566:	3c 03                	cmp    $0x3,%al
  402568:	0f 85 8b 00 00 00    	jne    4025f9 <_getKingMoves+0x2f2>
  40256e:	a1 84 fa 40 00       	mov    0x40fa84,%eax
  402573:	8b 55 f0             	mov    -0x10(%ebp),%edx
  402576:	83 c2 01             	add    $0x1,%edx
  402579:	01 d0                	add    %edx,%eax
  40257b:	0f b6 00             	movzbl (%eax),%eax
  40257e:	3c 09                	cmp    $0x9,%al
  402580:	75 77                	jne    4025f9 <_getKingMoves+0x2f2>
  402582:	a1 84 fa 40 00       	mov    0x40fa84,%eax
  402587:	8b 55 f0             	mov    -0x10(%ebp),%edx
  40258a:	83 c2 02             	add    $0x2,%edx
  40258d:	01 d0                	add    %edx,%eax
  40258f:	0f b6 00             	movzbl (%eax),%eax
  402592:	3c 09                	cmp    $0x9,%al
  402594:	75 63                	jne    4025f9 <_getKingMoves+0x2f2>
  402596:	a1 84 fa 40 00       	mov    0x40fa84,%eax
  40259b:	8b 55 f0             	mov    -0x10(%ebp),%edx
  40259e:	83 c2 03             	add    $0x3,%edx
  4025a1:	01 d0                	add    %edx,%eax
  4025a3:	0f b6 00             	movzbl (%eax),%eax
  4025a6:	3c 09                	cmp    $0x9,%al
  4025a8:	75 4f                	jne    4025f9 <_getKingMoves+0x2f2>
  4025aa:	c7 45 88 01 00 00 00 	movl   $0x1,-0x78(%ebp)
  4025b1:	8b 45 f0             	mov    -0x10(%ebp),%eax
  4025b4:	89 45 8c             	mov    %eax,-0x74(%ebp)
  4025b7:	8b 45 f0             	mov    -0x10(%ebp),%eax
  4025ba:	83 c0 02             	add    $0x2,%eax
  4025bd:	89 45 90             	mov    %eax,-0x70(%ebp)
  4025c0:	8b 45 f0             	mov    -0x10(%ebp),%eax
  4025c3:	83 c0 04             	add    $0x4,%eax
  4025c6:	89 45 94             	mov    %eax,-0x6c(%ebp)
  4025c9:	8b 45 f0             	mov    -0x10(%ebp),%eax
  4025cc:	83 c0 01             	add    $0x1,%eax
  4025cf:	89 45 98             	mov    %eax,-0x68(%ebp)
  4025d2:	8b 45 1c             	mov    0x1c(%ebp),%eax
  4025d5:	89 44 24 10          	mov    %eax,0x10(%esp)
  4025d9:	8d 45 88             	lea    -0x78(%ebp),%eax
  4025dc:	89 44 24 0c          	mov    %eax,0xc(%esp)
  4025e0:	8b 45 10             	mov    0x10(%ebp),%eax
  4025e3:	89 44 24 08          	mov    %eax,0x8(%esp)
  4025e7:	8b 45 0c             	mov    0xc(%ebp),%eax
  4025ea:	89 44 24 04          	mov    %eax,0x4(%esp)
  4025ee:	8b 45 08             	mov    0x8(%ebp),%eax
  4025f1:	89 04 24             	mov    %eax,(%esp)
  4025f4:	e8 54 07 00 00       	call   402d4d <_createCastleMove>
  4025f9:	81 c4 94 00 00 00    	add    $0x94,%esp
  4025ff:	5b                   	pop    %ebx
  402600:	5d                   	pop    %ebp
  402601:	c3                   	ret    

00402602 <_validateMove>:
  402602:	55                   	push   %ebp
  402603:	89 e5                	mov    %esp,%ebp
  402605:	53                   	push   %ebx
  402606:	83 ec 20             	sub    $0x20,%esp
  402609:	8b 45 08             	mov    0x8(%ebp),%eax
  40260c:	8b 55 0c             	mov    0xc(%ebp),%edx
  40260f:	83 c2 20             	add    $0x20,%edx
  402612:	8b 04 90             	mov    (%eax,%edx,4),%eax
  402615:	8d 50 07             	lea    0x7(%eax),%edx
  402618:	85 c0                	test   %eax,%eax
  40261a:	0f 48 c2             	cmovs  %edx,%eax
  40261d:	c1 f8 03             	sar    $0x3,%eax
  402620:	89 45 e8             	mov    %eax,-0x18(%ebp)
  402623:	8b 45 08             	mov    0x8(%ebp),%eax
  402626:	8b 55 0c             	mov    0xc(%ebp),%edx
  402629:	83 c2 20             	add    $0x20,%edx
  40262c:	8b 04 90             	mov    (%eax,%edx,4),%eax
  40262f:	99                   	cltd   
  402630:	c1 ea 1d             	shr    $0x1d,%edx
  402633:	01 d0                	add    %edx,%eax
  402635:	83 e0 07             	and    $0x7,%eax
  402638:	29 d0                	sub    %edx,%eax
  40263a:	89 45 e4             	mov    %eax,-0x1c(%ebp)
  40263d:	c7 45 ec ff ff ff ff 	movl   $0xffffffff,-0x14(%ebp)
  402644:	83 7d 0c 01          	cmpl   $0x1,0xc(%ebp)
  402648:	75 07                	jne    402651 <_validateMove+0x4f>
  40264a:	c7 45 ec 01 00 00 00 	movl   $0x1,-0x14(%ebp)
  402651:	83 7d e8 00          	cmpl   $0x0,-0x18(%ebp)
  402655:	74 06                	je     40265d <_validateMove+0x5b>
  402657:	83 7d ec ff          	cmpl   $0xffffffff,-0x14(%ebp)
  40265b:	74 14                	je     402671 <_validateMove+0x6f>
  40265d:	83 7d e8 07          	cmpl   $0x7,-0x18(%ebp)
  402661:	0f 84 c0 00 00 00    	je     402727 <_validateMove+0x125>
  402667:	83 7d ec 01          	cmpl   $0x1,-0x14(%ebp)
  40266b:	0f 85 b6 00 00 00    	jne    402727 <_validateMove+0x125>
  402671:	83 7d e4 07          	cmpl   $0x7,-0x1c(%ebp)
  402675:	74 55                	je     4026cc <_validateMove+0xca>
  402677:	8b 45 ec             	mov    -0x14(%ebp),%eax
  40267a:	8b 55 e8             	mov    -0x18(%ebp),%edx
  40267d:	8d 1c 02             	lea    (%edx,%eax,1),%ebx
  402680:	8b 45 e4             	mov    -0x1c(%ebp),%eax
  402683:	8d 48 01             	lea    0x1(%eax),%ecx
  402686:	8b 55 08             	mov    0x8(%ebp),%edx
  402689:	8d 04 dd 00 00 00 00 	lea    0x0(,%ebx,8),%eax
  402690:	01 c8                	add    %ecx,%eax
  402692:	01 d0                	add    %edx,%eax
  402694:	0f b6 00             	movzbl (%eax),%eax
  402697:	84 c0                	test   %al,%al
  402699:	75 31                	jne    4026cc <_validateMove+0xca>
  40269b:	8b 45 ec             	mov    -0x14(%ebp),%eax
  40269e:	8b 55 e8             	mov    -0x18(%ebp),%edx
  4026a1:	8d 0c 02             	lea    (%edx,%eax,1),%ecx
  4026a4:	8b 45 e4             	mov    -0x1c(%ebp),%eax
  4026a7:	8d 50 01             	lea    0x1(%eax),%edx
  4026aa:	8b 45 08             	mov    0x8(%ebp),%eax
  4026ad:	c1 e1 03             	shl    $0x3,%ecx
  4026b0:	01 c8                	add    %ecx,%eax
  4026b2:	01 d0                	add    %edx,%eax
  4026b4:	83 c0 40             	add    $0x40,%eax
  4026b7:	0f b6 00             	movzbl (%eax),%eax
  4026ba:	0f be c0             	movsbl %al,%eax
  4026bd:	3b 45 0c             	cmp    0xc(%ebp),%eax
  4026c0:	74 0a                	je     4026cc <_validateMove+0xca>
  4026c2:	b8 00 00 00 00       	mov    $0x0,%eax
  4026c7:	e9 71 03 00 00       	jmp    402a3d <_validateMove+0x43b>
  4026cc:	83 7d e4 00          	cmpl   $0x0,-0x1c(%ebp)
  4026d0:	74 55                	je     402727 <_validateMove+0x125>
  4026d2:	8b 45 ec             	mov    -0x14(%ebp),%eax
  4026d5:	8b 55 e8             	mov    -0x18(%ebp),%edx
  4026d8:	8d 1c 02             	lea    (%edx,%eax,1),%ebx
  4026db:	8b 45 e4             	mov    -0x1c(%ebp),%eax
  4026de:	8d 48 ff             	lea    -0x1(%eax),%ecx
  4026e1:	8b 55 08             	mov    0x8(%ebp),%edx
  4026e4:	8d 04 dd 00 00 00 00 	lea    0x0(,%ebx,8),%eax
  4026eb:	01 c8                	add    %ecx,%eax
  4026ed:	01 d0                	add    %edx,%eax
  4026ef:	0f b6 00             	movzbl (%eax),%eax
  4026f2:	84 c0                	test   %al,%al
  4026f4:	75 31                	jne    402727 <_validateMove+0x125>
  4026f6:	8b 45 ec             	mov    -0x14(%ebp),%eax
  4026f9:	8b 55 e8             	mov    -0x18(%ebp),%edx
  4026fc:	8d 0c 02             	lea    (%edx,%eax,1),%ecx
  4026ff:	8b 45 e4             	mov    -0x1c(%ebp),%eax
  402702:	8d 50 ff             	lea    -0x1(%eax),%edx
  402705:	8b 45 08             	mov    0x8(%ebp),%eax
  402708:	c1 e1 03             	shl    $0x3,%ecx
  40270b:	01 c8                	add    %ecx,%eax
  40270d:	01 d0                	add    %edx,%eax
  40270f:	83 c0 40             	add    $0x40,%eax
  402712:	0f b6 00             	movzbl (%eax),%eax
  402715:	0f be c0             	movsbl %al,%eax
  402718:	3b 45 0c             	cmp    0xc(%ebp),%eax
  40271b:	74 0a                	je     402727 <_validateMove+0x125>
  40271d:	b8 00 00 00 00       	mov    $0x0,%eax
  402722:	e9 16 03 00 00       	jmp    402a3d <_validateMove+0x43b>
  402727:	c7 45 f0 00 00 00 00 	movl   $0x0,-0x10(%ebp)
  40272e:	e9 8d 00 00 00       	jmp    4027c0 <_validateMove+0x1be>
  402733:	8b 45 f0             	mov    -0x10(%ebp),%eax
  402736:	0f b6 84 00 00 b0 40 	movzbl 0x40b000(%eax,%eax,1),%eax
  40273d:	00 
  40273e:	0f be d0             	movsbl %al,%edx
  402741:	8b 45 e8             	mov    -0x18(%ebp),%eax
  402744:	01 d0                	add    %edx,%eax
  402746:	89 45 f8             	mov    %eax,-0x8(%ebp)
  402749:	8b 45 f0             	mov    -0x10(%ebp),%eax
  40274c:	0f b6 84 00 01 b0 40 	movzbl 0x40b001(%eax,%eax,1),%eax
  402753:	00 
  402754:	0f be d0             	movsbl %al,%edx
  402757:	8b 45 e4             	mov    -0x1c(%ebp),%eax
  40275a:	01 d0                	add    %edx,%eax
  40275c:	89 45 f4             	mov    %eax,-0xc(%ebp)
  40275f:	83 7d f8 00          	cmpl   $0x0,-0x8(%ebp)
  402763:	78 12                	js     402777 <_validateMove+0x175>
  402765:	83 7d f4 00          	cmpl   $0x0,-0xc(%ebp)
  402769:	78 0c                	js     402777 <_validateMove+0x175>
  40276b:	83 7d f8 07          	cmpl   $0x7,-0x8(%ebp)
  40276f:	7f 06                	jg     402777 <_validateMove+0x175>
  402771:	83 7d f4 07          	cmpl   $0x7,-0xc(%ebp)
  402775:	7e 02                	jle    402779 <_validateMove+0x177>
  402777:	eb 43                	jmp    4027bc <_validateMove+0x1ba>
  402779:	8b 45 08             	mov    0x8(%ebp),%eax
  40277c:	8b 55 f8             	mov    -0x8(%ebp),%edx
  40277f:	8d 0c d5 00 00 00 00 	lea    0x0(,%edx,8),%ecx
  402786:	8b 55 f4             	mov    -0xc(%ebp),%edx
  402789:	01 ca                	add    %ecx,%edx
  40278b:	01 d0                	add    %edx,%eax
  40278d:	0f b6 00             	movzbl (%eax),%eax
  402790:	3c 01                	cmp    $0x1,%al
  402792:	75 28                	jne    4027bc <_validateMove+0x1ba>
  402794:	8b 45 08             	mov    0x8(%ebp),%eax
  402797:	8b 55 f8             	mov    -0x8(%ebp),%edx
  40279a:	c1 e2 03             	shl    $0x3,%edx
  40279d:	01 c2                	add    %eax,%edx
  40279f:	8b 45 f4             	mov    -0xc(%ebp),%eax
  4027a2:	01 d0                	add    %edx,%eax
  4027a4:	83 c0 40             	add    $0x40,%eax
  4027a7:	0f b6 00             	movzbl (%eax),%eax
  4027aa:	0f be c0             	movsbl %al,%eax
  4027ad:	3b 45 0c             	cmp    0xc(%ebp),%eax
  4027b0:	74 0a                	je     4027bc <_validateMove+0x1ba>
  4027b2:	b8 00 00 00 00       	mov    $0x0,%eax
  4027b7:	e9 81 02 00 00       	jmp    402a3d <_validateMove+0x43b>
  4027bc:	83 45 f0 01          	addl   $0x1,-0x10(%ebp)
  4027c0:	83 7d f0 07          	cmpl   $0x7,-0x10(%ebp)
  4027c4:	0f 8e 69 ff ff ff    	jle    402733 <_validateMove+0x131>
  4027ca:	c7 45 f0 00 00 00 00 	movl   $0x0,-0x10(%ebp)
  4027d1:	e9 d1 00 00 00       	jmp    4028a7 <_validateMove+0x2a5>
  4027d6:	8b 45 e8             	mov    -0x18(%ebp),%eax
  4027d9:	89 45 f8             	mov    %eax,-0x8(%ebp)
  4027dc:	8b 45 e4             	mov    -0x1c(%ebp),%eax
  4027df:	89 45 f4             	mov    %eax,-0xc(%ebp)
  4027e2:	8b 45 f0             	mov    -0x10(%ebp),%eax
  4027e5:	0f b6 84 00 10 b0 40 	movzbl 0x40b010(%eax,%eax,1),%eax
  4027ec:	00 
  4027ed:	0f be c0             	movsbl %al,%eax
  4027f0:	01 45 f8             	add    %eax,-0x8(%ebp)
  4027f3:	8b 45 f0             	mov    -0x10(%ebp),%eax
  4027f6:	0f b6 84 00 11 b0 40 	movzbl 0x40b011(%eax,%eax,1),%eax
  4027fd:	00 
  4027fe:	0f be c0             	movsbl %al,%eax
  402801:	01 45 f4             	add    %eax,-0xc(%ebp)
  402804:	83 7d f8 00          	cmpl   $0x0,-0x8(%ebp)
  402808:	0f 88 95 00 00 00    	js     4028a3 <_validateMove+0x2a1>
  40280e:	83 7d f4 00          	cmpl   $0x0,-0xc(%ebp)
  402812:	0f 88 8b 00 00 00    	js     4028a3 <_validateMove+0x2a1>
  402818:	83 7d f8 07          	cmpl   $0x7,-0x8(%ebp)
  40281c:	0f 8f 81 00 00 00    	jg     4028a3 <_validateMove+0x2a1>
  402822:	83 7d f4 07          	cmpl   $0x7,-0xc(%ebp)
  402826:	7f 7b                	jg     4028a3 <_validateMove+0x2a1>
  402828:	8b 45 08             	mov    0x8(%ebp),%eax
  40282b:	8b 55 f8             	mov    -0x8(%ebp),%edx
  40282e:	8d 0c d5 00 00 00 00 	lea    0x0(,%edx,8),%ecx
  402835:	8b 55 f4             	mov    -0xc(%ebp),%edx
  402838:	01 ca                	add    %ecx,%edx
  40283a:	01 d0                	add    %edx,%eax
  40283c:	0f b6 00             	movzbl (%eax),%eax
  40283f:	3c 09                	cmp    $0x9,%al
  402841:	75 02                	jne    402845 <_validateMove+0x243>
  402843:	eb 9d                	jmp    4027e2 <_validateMove+0x1e0>
  402845:	8b 45 08             	mov    0x8(%ebp),%eax
  402848:	8b 55 f8             	mov    -0x8(%ebp),%edx
  40284b:	8d 0c d5 00 00 00 00 	lea    0x0(,%edx,8),%ecx
  402852:	8b 55 f4             	mov    -0xc(%ebp),%edx
  402855:	01 ca                	add    %ecx,%edx
  402857:	01 d0                	add    %edx,%eax
  402859:	0f b6 00             	movzbl (%eax),%eax
  40285c:	3c 02                	cmp    $0x2,%al
  40285e:	74 1b                	je     40287b <_validateMove+0x279>
  402860:	8b 45 08             	mov    0x8(%ebp),%eax
  402863:	8b 55 f8             	mov    -0x8(%ebp),%edx
  402866:	8d 0c d5 00 00 00 00 	lea    0x0(,%edx,8),%ecx
  40286d:	8b 55 f4             	mov    -0xc(%ebp),%edx
  402870:	01 ca                	add    %ecx,%edx
  402872:	01 d0                	add    %edx,%eax
  402874:	0f b6 00             	movzbl (%eax),%eax
  402877:	3c 04                	cmp    $0x4,%al
  402879:	75 28                	jne    4028a3 <_validateMove+0x2a1>
  40287b:	8b 45 08             	mov    0x8(%ebp),%eax
  40287e:	8b 55 f8             	mov    -0x8(%ebp),%edx
  402881:	c1 e2 03             	shl    $0x3,%edx
  402884:	01 c2                	add    %eax,%edx
  402886:	8b 45 f4             	mov    -0xc(%ebp),%eax
  402889:	01 d0                	add    %edx,%eax
  40288b:	83 c0 40             	add    $0x40,%eax
  40288e:	0f b6 00             	movzbl (%eax),%eax
  402891:	0f be c0             	movsbl %al,%eax
  402894:	3b 45 0c             	cmp    0xc(%ebp),%eax
  402897:	74 0a                	je     4028a3 <_validateMove+0x2a1>
  402899:	b8 00 00 00 00       	mov    $0x0,%eax
  40289e:	e9 9a 01 00 00       	jmp    402a3d <_validateMove+0x43b>
  4028a3:	83 45 f0 01          	addl   $0x1,-0x10(%ebp)
  4028a7:	83 7d f0 03          	cmpl   $0x3,-0x10(%ebp)
  4028ab:	0f 8e 25 ff ff ff    	jle    4027d6 <_validateMove+0x1d4>
  4028b1:	c7 45 f0 00 00 00 00 	movl   $0x0,-0x10(%ebp)
  4028b8:	e9 d1 00 00 00       	jmp    40298e <_validateMove+0x38c>
  4028bd:	8b 45 e8             	mov    -0x18(%ebp),%eax
  4028c0:	89 45 f8             	mov    %eax,-0x8(%ebp)
  4028c3:	8b 45 e4             	mov    -0x1c(%ebp),%eax
  4028c6:	89 45 f4             	mov    %eax,-0xc(%ebp)
  4028c9:	8b 45 f0             	mov    -0x10(%ebp),%eax
  4028cc:	0f b6 84 00 18 b0 40 	movzbl 0x40b018(%eax,%eax,1),%eax
  4028d3:	00 
  4028d4:	0f be c0             	movsbl %al,%eax
  4028d7:	01 45 f8             	add    %eax,-0x8(%ebp)
  4028da:	8b 45 f0             	mov    -0x10(%ebp),%eax
  4028dd:	0f b6 84 00 19 b0 40 	movzbl 0x40b019(%eax,%eax,1),%eax
  4028e4:	00 
  4028e5:	0f be c0             	movsbl %al,%eax
  4028e8:	01 45 f4             	add    %eax,-0xc(%ebp)
  4028eb:	83 7d f8 00          	cmpl   $0x0,-0x8(%ebp)
  4028ef:	0f 88 95 00 00 00    	js     40298a <_validateMove+0x388>
  4028f5:	83 7d f4 00          	cmpl   $0x0,-0xc(%ebp)
  4028f9:	0f 88 8b 00 00 00    	js     40298a <_validateMove+0x388>
  4028ff:	83 7d f8 07          	cmpl   $0x7,-0x8(%ebp)
  402903:	0f 8f 81 00 00 00    	jg     40298a <_validateMove+0x388>
  402909:	83 7d f4 07          	cmpl   $0x7,-0xc(%ebp)
  40290d:	7f 7b                	jg     40298a <_validateMove+0x388>
  40290f:	8b 45 08             	mov    0x8(%ebp),%eax
  402912:	8b 55 f8             	mov    -0x8(%ebp),%edx
  402915:	8d 0c d5 00 00 00 00 	lea    0x0(,%edx,8),%ecx
  40291c:	8b 55 f4             	mov    -0xc(%ebp),%edx
  40291f:	01 ca                	add    %ecx,%edx
  402921:	01 d0                	add    %edx,%eax
  402923:	0f b6 00             	movzbl (%eax),%eax
  402926:	3c 09                	cmp    $0x9,%al
  402928:	75 02                	jne    40292c <_validateMove+0x32a>
  40292a:	eb 9d                	jmp    4028c9 <_validateMove+0x2c7>
  40292c:	8b 45 08             	mov    0x8(%ebp),%eax
  40292f:	8b 55 f8             	mov    -0x8(%ebp),%edx
  402932:	8d 0c d5 00 00 00 00 	lea    0x0(,%edx,8),%ecx
  402939:	8b 55 f4             	mov    -0xc(%ebp),%edx
  40293c:	01 ca                	add    %ecx,%edx
  40293e:	01 d0                	add    %edx,%eax
  402940:	0f b6 00             	movzbl (%eax),%eax
  402943:	3c 02                	cmp    $0x2,%al
  402945:	7e 43                	jle    40298a <_validateMove+0x388>
  402947:	8b 45 08             	mov    0x8(%ebp),%eax
  40294a:	8b 55 f8             	mov    -0x8(%ebp),%edx
  40294d:	8d 0c d5 00 00 00 00 	lea    0x0(,%edx,8),%ecx
  402954:	8b 55 f4             	mov    -0xc(%ebp),%edx
  402957:	01 ca                	add    %ecx,%edx
  402959:	01 d0                	add    %edx,%eax
  40295b:	0f b6 00             	movzbl (%eax),%eax
  40295e:	3c 05                	cmp    $0x5,%al
  402960:	74 28                	je     40298a <_validateMove+0x388>
  402962:	8b 45 08             	mov    0x8(%ebp),%eax
  402965:	8b 55 f8             	mov    -0x8(%ebp),%edx
  402968:	c1 e2 03             	shl    $0x3,%edx
  40296b:	01 c2                	add    %eax,%edx
  40296d:	8b 45 f4             	mov    -0xc(%ebp),%eax
  402970:	01 d0                	add    %edx,%eax
  402972:	83 c0 40             	add    $0x40,%eax
  402975:	0f b6 00             	movzbl (%eax),%eax
  402978:	0f be c0             	movsbl %al,%eax
  40297b:	3b 45 0c             	cmp    0xc(%ebp),%eax
  40297e:	74 0a                	je     40298a <_validateMove+0x388>
  402980:	b8 00 00 00 00       	mov    $0x0,%eax
  402985:	e9 b3 00 00 00       	jmp    402a3d <_validateMove+0x43b>
  40298a:	83 45 f0 01          	addl   $0x1,-0x10(%ebp)
  40298e:	83 7d f0 03          	cmpl   $0x3,-0x10(%ebp)
  402992:	0f 8e 25 ff ff ff    	jle    4028bd <_validateMove+0x2bb>
  402998:	c7 45 f0 00 00 00 00 	movl   $0x0,-0x10(%ebp)
  40299f:	e9 8a 00 00 00       	jmp    402a2e <_validateMove+0x42c>
  4029a4:	8b 45 f0             	mov    -0x10(%ebp),%eax
  4029a7:	0f b6 84 00 20 b0 40 	movzbl 0x40b020(%eax,%eax,1),%eax
  4029ae:	00 
  4029af:	0f be d0             	movsbl %al,%edx
  4029b2:	8b 45 e8             	mov    -0x18(%ebp),%eax
  4029b5:	01 d0                	add    %edx,%eax
  4029b7:	89 45 f8             	mov    %eax,-0x8(%ebp)
  4029ba:	8b 45 f0             	mov    -0x10(%ebp),%eax
  4029bd:	0f b6 84 00 21 b0 40 	movzbl 0x40b021(%eax,%eax,1),%eax
  4029c4:	00 
  4029c5:	0f be d0             	movsbl %al,%edx
  4029c8:	8b 45 e4             	mov    -0x1c(%ebp),%eax
  4029cb:	01 d0                	add    %edx,%eax
  4029cd:	89 45 f4             	mov    %eax,-0xc(%ebp)
  4029d0:	83 7d f8 00          	cmpl   $0x0,-0x8(%ebp)
  4029d4:	78 12                	js     4029e8 <_validateMove+0x3e6>
  4029d6:	83 7d f4 00          	cmpl   $0x0,-0xc(%ebp)
  4029da:	78 0c                	js     4029e8 <_validateMove+0x3e6>
  4029dc:	83 7d f8 07          	cmpl   $0x7,-0x8(%ebp)
  4029e0:	7f 06                	jg     4029e8 <_validateMove+0x3e6>
  4029e2:	83 7d f4 07          	cmpl   $0x7,-0xc(%ebp)
  4029e6:	7e 02                	jle    4029ea <_validateMove+0x3e8>
  4029e8:	eb 40                	jmp    402a2a <_validateMove+0x428>
  4029ea:	8b 45 08             	mov    0x8(%ebp),%eax
  4029ed:	8b 55 f8             	mov    -0x8(%ebp),%edx
  4029f0:	8d 0c d5 00 00 00 00 	lea    0x0(,%edx,8),%ecx
  4029f7:	8b 55 f4             	mov    -0xc(%ebp),%edx
  4029fa:	01 ca                	add    %ecx,%edx
  4029fc:	01 d0                	add    %edx,%eax
  4029fe:	0f b6 00             	movzbl (%eax),%eax
  402a01:	3c 05                	cmp    $0x5,%al
  402a03:	75 25                	jne    402a2a <_validateMove+0x428>
  402a05:	8b 45 08             	mov    0x8(%ebp),%eax
  402a08:	8b 55 f8             	mov    -0x8(%ebp),%edx
  402a0b:	c1 e2 03             	shl    $0x3,%edx
  402a0e:	01 c2                	add    %eax,%edx
  402a10:	8b 45 f4             	mov    -0xc(%ebp),%eax
  402a13:	01 d0                	add    %edx,%eax
  402a15:	83 c0 40             	add    $0x40,%eax
  402a18:	0f b6 00             	movzbl (%eax),%eax
  402a1b:	0f be c0             	movsbl %al,%eax
  402a1e:	3b 45 0c             	cmp    0xc(%ebp),%eax
  402a21:	74 07                	je     402a2a <_validateMove+0x428>
  402a23:	b8 00 00 00 00       	mov    $0x0,%eax
  402a28:	eb 13                	jmp    402a3d <_validateMove+0x43b>
  402a2a:	83 45 f0 01          	addl   $0x1,-0x10(%ebp)
  402a2e:	83 7d f0 07          	cmpl   $0x7,-0x10(%ebp)
  402a32:	0f 8e 6c ff ff ff    	jle    4029a4 <_validateMove+0x3a2>
  402a38:	b8 01 00 00 00       	mov    $0x1,%eax
  402a3d:	83 c4 20             	add    $0x20,%esp
  402a40:	5b                   	pop    %ebx
  402a41:	5d                   	pop    %ebp
  402a42:	c3                   	ret    

00402a43 <_pruneCheckValidations>:
  402a43:	55                   	push   %ebp
  402a44:	89 e5                	mov    %esp,%ebp
  402a46:	83 ec 38             	sub    $0x38,%esp
  402a49:	8b 45 0c             	mov    0xc(%ebp),%eax
  402a4c:	89 44 24 04          	mov    %eax,0x4(%esp)
  402a50:	8b 45 08             	mov    0x8(%ebp),%eax
  402a53:	89 04 24             	mov    %eax,(%esp)
  402a56:	e8 a7 fb ff ff       	call   402602 <_validateMove>
  402a5b:	85 c0                	test   %eax,%eax
  402a5d:	0f 84 89 01 00 00    	je     402bec <_pruneCheckValidations+0x1a9>
  402a63:	c7 44 24 08 40 00 00 	movl   $0x40,0x8(%esp)
  402a6a:	00 
  402a6b:	c7 44 24 04 00 00 00 	movl   $0x0,0x4(%esp)
  402a72:	00 
  402a73:	c7 04 24 40 fa 40 00 	movl   $0x40fa40,(%esp)
  402a7a:	e8 39 79 00 00       	call   40a3b8 <_memset>
  402a7f:	8b 45 08             	mov    0x8(%ebp),%eax
  402a82:	8b 55 0c             	mov    0xc(%ebp),%edx
  402a85:	83 c2 20             	add    $0x20,%edx
  402a88:	8b 04 90             	mov    (%eax,%edx,4),%eax
  402a8b:	8d 50 07             	lea    0x7(%eax),%edx
  402a8e:	85 c0                	test   %eax,%eax
  402a90:	0f 48 c2             	cmovs  %edx,%eax
  402a93:	c1 f8 03             	sar    $0x3,%eax
  402a96:	89 45 e4             	mov    %eax,-0x1c(%ebp)
  402a99:	8b 45 08             	mov    0x8(%ebp),%eax
  402a9c:	8b 55 0c             	mov    0xc(%ebp),%edx
  402a9f:	83 c2 20             	add    $0x20,%edx
  402aa2:	8b 04 90             	mov    (%eax,%edx,4),%eax
  402aa5:	99                   	cltd   
  402aa6:	c1 ea 1d             	shr    $0x1d,%edx
  402aa9:	01 d0                	add    %edx,%eax
  402aab:	83 e0 07             	and    $0x7,%eax
  402aae:	29 d0                	sub    %edx,%eax
  402ab0:	89 45 e0             	mov    %eax,-0x20(%ebp)
  402ab3:	c7 45 f4 00 00 00 00 	movl   $0x0,-0xc(%ebp)
  402aba:	8b 45 e4             	mov    -0x1c(%ebp),%eax
  402abd:	89 45 f0             	mov    %eax,-0x10(%ebp)
  402ac0:	8b 45 e0             	mov    -0x20(%ebp),%eax
  402ac3:	89 45 ec             	mov    %eax,-0x14(%ebp)
  402ac6:	e9 fe 00 00 00       	jmp    402bc9 <_pruneCheckValidations+0x186>
  402acb:	c7 45 e8 00 00 00 00 	movl   $0x0,-0x18(%ebp)
  402ad2:	8b 45 f4             	mov    -0xc(%ebp),%eax
  402ad5:	0f b6 84 00 20 b0 40 	movzbl 0x40b020(%eax,%eax,1),%eax
  402adc:	00 
  402add:	0f be c0             	movsbl %al,%eax
  402ae0:	01 45 f0             	add    %eax,-0x10(%ebp)
  402ae3:	8b 45 f4             	mov    -0xc(%ebp),%eax
  402ae6:	0f b6 84 00 21 b0 40 	movzbl 0x40b021(%eax,%eax,1),%eax
  402aed:	00 
  402aee:	0f be c0             	movsbl %al,%eax
  402af1:	01 45 ec             	add    %eax,-0x14(%ebp)
  402af4:	83 7d f0 00          	cmpl   $0x0,-0x10(%ebp)
  402af8:	0f 88 bb 00 00 00    	js     402bb9 <_pruneCheckValidations+0x176>
  402afe:	83 7d f0 07          	cmpl   $0x7,-0x10(%ebp)
  402b02:	0f 8f b1 00 00 00    	jg     402bb9 <_pruneCheckValidations+0x176>
  402b08:	83 7d ec 00          	cmpl   $0x0,-0x14(%ebp)
  402b0c:	0f 88 a7 00 00 00    	js     402bb9 <_pruneCheckValidations+0x176>
  402b12:	83 7d ec 07          	cmpl   $0x7,-0x14(%ebp)
  402b16:	0f 8f 9d 00 00 00    	jg     402bb9 <_pruneCheckValidations+0x176>
  402b1c:	8b 45 08             	mov    0x8(%ebp),%eax
  402b1f:	8b 55 f0             	mov    -0x10(%ebp),%edx
  402b22:	c1 e2 03             	shl    $0x3,%edx
  402b25:	01 c2                	add    %eax,%edx
  402b27:	8b 45 ec             	mov    -0x14(%ebp),%eax
  402b2a:	01 d0                	add    %edx,%eax
  402b2c:	83 c0 40             	add    $0x40,%eax
  402b2f:	0f b6 00             	movzbl (%eax),%eax
  402b32:	0f be c0             	movsbl %al,%eax
  402b35:	3b 45 0c             	cmp    0xc(%ebp),%eax
  402b38:	75 11                	jne    402b4b <_pruneCheckValidations+0x108>
  402b3a:	83 7d e8 01          	cmpl   $0x1,-0x18(%ebp)
  402b3e:	75 02                	jne    402b42 <_pruneCheckValidations+0xff>
  402b40:	eb 77                	jmp    402bb9 <_pruneCheckValidations+0x176>
  402b42:	c7 45 e8 01 00 00 00 	movl   $0x1,-0x18(%ebp)
  402b49:	eb 69                	jmp    402bb4 <_pruneCheckValidations+0x171>
  402b4b:	8b 45 08             	mov    0x8(%ebp),%eax
  402b4e:	8b 55 f0             	mov    -0x10(%ebp),%edx
  402b51:	8d 0c d5 00 00 00 00 	lea    0x0(,%edx,8),%ecx
  402b58:	8b 55 ec             	mov    -0x14(%ebp),%edx
  402b5b:	01 ca                	add    %ecx,%edx
  402b5d:	01 d0                	add    %edx,%eax
  402b5f:	0f b6 00             	movzbl (%eax),%eax
  402b62:	3c 09                	cmp    $0x9,%al
  402b64:	74 4e                	je     402bb4 <_pruneCheckValidations+0x171>
  402b66:	8b 45 08             	mov    0x8(%ebp),%eax
  402b69:	8b 55 f0             	mov    -0x10(%ebp),%edx
  402b6c:	8d 0c d5 00 00 00 00 	lea    0x0(,%edx,8),%ecx
  402b73:	8b 55 ec             	mov    -0x14(%ebp),%edx
  402b76:	01 ca                	add    %ecx,%edx
  402b78:	01 d0                	add    %edx,%eax
  402b7a:	0f b6 00             	movzbl (%eax),%eax
  402b7d:	0f be c0             	movsbl %al,%eax
  402b80:	8d 14 c5 00 00 00 00 	lea    0x0(,%eax,8),%edx
  402b87:	8b 45 f4             	mov    -0xc(%ebp),%eax
  402b8a:	01 d0                	add    %edx,%eax
  402b8c:	8b 04 85 e0 b0 40 00 	mov    0x40b0e0(,%eax,4),%eax
  402b93:	85 c0                	test   %eax,%eax
  402b95:	75 02                	jne    402b99 <_pruneCheckValidations+0x156>
  402b97:	eb 20                	jmp    402bb9 <_pruneCheckValidations+0x176>
  402b99:	8b 45 f4             	mov    -0xc(%ebp),%eax
  402b9c:	89 44 24 08          	mov    %eax,0x8(%esp)
  402ba0:	8b 45 0c             	mov    0xc(%ebp),%eax
  402ba3:	89 44 24 04          	mov    %eax,0x4(%esp)
  402ba7:	8b 45 08             	mov    0x8(%ebp),%eax
  402baa:	89 04 24             	mov    %eax,(%esp)
  402bad:	e8 58 00 00 00       	call   402c0a <_fillDirection>
  402bb2:	eb 05                	jmp    402bb9 <_pruneCheckValidations+0x176>
  402bb4:	e9 19 ff ff ff       	jmp    402ad2 <_pruneCheckValidations+0x8f>
  402bb9:	83 45 f4 01          	addl   $0x1,-0xc(%ebp)
  402bbd:	8b 45 e4             	mov    -0x1c(%ebp),%eax
  402bc0:	89 45 f0             	mov    %eax,-0x10(%ebp)
  402bc3:	8b 45 e0             	mov    -0x20(%ebp),%eax
  402bc6:	89 45 ec             	mov    %eax,-0x14(%ebp)
  402bc9:	83 7d f4 07          	cmpl   $0x7,-0xc(%ebp)
  402bcd:	0f 8e f8 fe ff ff    	jle    402acb <_pruneCheckValidations+0x88>
  402bd3:	8b 45 e4             	mov    -0x1c(%ebp),%eax
  402bd6:	8d 14 c5 00 00 00 00 	lea    0x0(,%eax,8),%edx
  402bdd:	8b 45 e0             	mov    -0x20(%ebp),%eax
  402be0:	01 d0                	add    %edx,%eax
  402be2:	05 40 fa 40 00       	add    $0x40fa40,%eax
  402be7:	c6 00 01             	movb   $0x1,(%eax)
  402bea:	eb 1c                	jmp    402c08 <_pruneCheckValidations+0x1c5>
  402bec:	c7 44 24 08 40 00 00 	movl   $0x40,0x8(%esp)
  402bf3:	00 
  402bf4:	c7 44 24 04 01 00 00 	movl   $0x1,0x4(%esp)
  402bfb:	00 
  402bfc:	c7 04 24 40 fa 40 00 	movl   $0x40fa40,(%esp)
  402c03:	e8 b0 77 00 00       	call   40a3b8 <_memset>
  402c08:	c9                   	leave  
  402c09:	c3                   	ret    

00402c0a <_fillDirection>:
  402c0a:	55                   	push   %ebp
  402c0b:	89 e5                	mov    %esp,%ebp
  402c0d:	83 ec 10             	sub    $0x10,%esp
  402c10:	8b 45 08             	mov    0x8(%ebp),%eax
  402c13:	8b 55 0c             	mov    0xc(%ebp),%edx
  402c16:	83 c2 20             	add    $0x20,%edx
  402c19:	8b 04 90             	mov    (%eax,%edx,4),%eax
  402c1c:	8d 50 07             	lea    0x7(%eax),%edx
  402c1f:	85 c0                	test   %eax,%eax
  402c21:	0f 48 c2             	cmovs  %edx,%eax
  402c24:	c1 f8 03             	sar    $0x3,%eax
  402c27:	89 45 fc             	mov    %eax,-0x4(%ebp)
  402c2a:	8b 45 08             	mov    0x8(%ebp),%eax
  402c2d:	8b 55 0c             	mov    0xc(%ebp),%edx
  402c30:	83 c2 20             	add    $0x20,%edx
  402c33:	8b 04 90             	mov    (%eax,%edx,4),%eax
  402c36:	99                   	cltd   
  402c37:	c1 ea 1d             	shr    $0x1d,%edx
  402c3a:	01 d0                	add    %edx,%eax
  402c3c:	83 e0 07             	and    $0x7,%eax
  402c3f:	29 d0                	sub    %edx,%eax
  402c41:	89 45 f8             	mov    %eax,-0x8(%ebp)
  402c44:	8b 45 10             	mov    0x10(%ebp),%eax
  402c47:	0f b6 84 00 20 b0 40 	movzbl 0x40b020(%eax,%eax,1),%eax
  402c4e:	00 
  402c4f:	0f be c0             	movsbl %al,%eax
  402c52:	01 45 fc             	add    %eax,-0x4(%ebp)
  402c55:	8b 45 10             	mov    0x10(%ebp),%eax
  402c58:	0f b6 84 00 21 b0 40 	movzbl 0x40b021(%eax,%eax,1),%eax
  402c5f:	00 
  402c60:	0f be c0             	movsbl %al,%eax
  402c63:	01 45 f8             	add    %eax,-0x8(%ebp)
  402c66:	83 7d fc 00          	cmpl   $0x0,-0x4(%ebp)
  402c6a:	78 12                	js     402c7e <_fillDirection+0x74>
  402c6c:	83 7d fc 07          	cmpl   $0x7,-0x4(%ebp)
  402c70:	7f 0c                	jg     402c7e <_fillDirection+0x74>
  402c72:	83 7d f8 00          	cmpl   $0x0,-0x8(%ebp)
  402c76:	78 06                	js     402c7e <_fillDirection+0x74>
  402c78:	83 7d f8 07          	cmpl   $0x7,-0x8(%ebp)
  402c7c:	7e 02                	jle    402c80 <_fillDirection+0x76>
  402c7e:	eb 19                	jmp    402c99 <_fillDirection+0x8f>
  402c80:	8b 45 fc             	mov    -0x4(%ebp),%eax
  402c83:	8d 14 c5 00 00 00 00 	lea    0x0(,%eax,8),%edx
  402c8a:	8b 45 f8             	mov    -0x8(%ebp),%eax
  402c8d:	01 d0                	add    %edx,%eax
  402c8f:	05 40 fa 40 00       	add    $0x40fa40,%eax
  402c94:	c6 00 01             	movb   $0x1,(%eax)
  402c97:	eb ab                	jmp    402c44 <_fillDirection+0x3a>
  402c99:	c9                   	leave  
  402c9a:	c3                   	ret    

00402c9b <_createNormalMove>:
  402c9b:	55                   	push   %ebp
  402c9c:	89 e5                	mov    %esp,%ebp
  402c9e:	83 ec 18             	sub    $0x18,%esp
  402ca1:	83 7d 18 00          	cmpl   $0x0,0x18(%ebp)
  402ca5:	74 70                	je     402d17 <_createNormalMove+0x7c>
  402ca7:	8b 45 14             	mov    0x14(%ebp),%eax
  402caa:	89 44 24 04          	mov    %eax,0x4(%esp)
  402cae:	8b 45 08             	mov    0x8(%ebp),%eax
  402cb1:	89 04 24             	mov    %eax,(%esp)
  402cb4:	e8 aa 02 00 00       	call   402f63 <_applyNormalMove>
  402cb9:	8b 45 0c             	mov    0xc(%ebp),%eax
  402cbc:	89 44 24 04          	mov    %eax,0x4(%esp)
  402cc0:	8b 45 08             	mov    0x8(%ebp),%eax
  402cc3:	89 04 24             	mov    %eax,(%esp)
  402cc6:	e8 37 f9 ff ff       	call   402602 <_validateMove>
  402ccb:	85 c0                	test   %eax,%eax
  402ccd:	74 34                	je     402d03 <_createNormalMove+0x68>
  402ccf:	8b 45 10             	mov    0x10(%ebp),%eax
  402cd2:	8b 10                	mov    (%eax),%edx
  402cd4:	8d 4a 01             	lea    0x1(%edx),%ecx
  402cd7:	8b 45 10             	mov    0x10(%ebp),%eax
  402cda:	89 08                	mov    %ecx,(%eax)
  402cdc:	89 d0                	mov    %edx,%eax
  402cde:	c1 e0 02             	shl    $0x2,%eax
  402ce1:	01 d0                	add    %edx,%eax
  402ce3:	c1 e0 02             	shl    $0x2,%eax
  402ce6:	8d 90 a0 fa 40 00    	lea    0x40faa0(%eax),%edx
  402cec:	c7 44 24 08 14 00 00 	movl   $0x14,0x8(%esp)
  402cf3:	00 
  402cf4:	8b 45 14             	mov    0x14(%ebp),%eax
  402cf7:	89 44 24 04          	mov    %eax,0x4(%esp)
  402cfb:	89 14 24             	mov    %edx,(%esp)
  402cfe:	e8 ad 76 00 00       	call   40a3b0 <_memcpy>
  402d03:	8b 45 14             	mov    0x14(%ebp),%eax
  402d06:	89 44 24 04          	mov    %eax,0x4(%esp)
  402d0a:	8b 45 08             	mov    0x8(%ebp),%eax
  402d0d:	89 04 24             	mov    %eax,(%esp)
  402d10:	e8 69 05 00 00       	call   40327e <_revertNormalMove>
  402d15:	eb 34                	jmp    402d4b <_createNormalMove+0xb0>
  402d17:	8b 45 10             	mov    0x10(%ebp),%eax
  402d1a:	8b 10                	mov    (%eax),%edx
  402d1c:	8d 4a 01             	lea    0x1(%edx),%ecx
  402d1f:	8b 45 10             	mov    0x10(%ebp),%eax
  402d22:	89 08                	mov    %ecx,(%eax)
  402d24:	89 d0                	mov    %edx,%eax
  402d26:	c1 e0 02             	shl    $0x2,%eax
  402d29:	01 d0                	add    %edx,%eax
  402d2b:	c1 e0 02             	shl    $0x2,%eax
  402d2e:	8d 90 a0 fa 40 00    	lea    0x40faa0(%eax),%edx
  402d34:	c7 44 24 08 14 00 00 	movl   $0x14,0x8(%esp)
  402d3b:	00 
  402d3c:	8b 45 14             	mov    0x14(%ebp),%eax
  402d3f:	89 44 24 04          	mov    %eax,0x4(%esp)
  402d43:	89 14 24             	mov    %edx,(%esp)
  402d46:	e8 65 76 00 00       	call   40a3b0 <_memcpy>
  402d4b:	c9                   	leave  
  402d4c:	c3                   	ret    

00402d4d <_createCastleMove>:
  402d4d:	55                   	push   %ebp
  402d4e:	89 e5                	mov    %esp,%ebp
  402d50:	83 ec 18             	sub    $0x18,%esp
  402d53:	83 7d 18 00          	cmpl   $0x0,0x18(%ebp)
  402d57:	74 70                	je     402dc9 <_createCastleMove+0x7c>
  402d59:	8b 45 14             	mov    0x14(%ebp),%eax
  402d5c:	89 44 24 04          	mov    %eax,0x4(%esp)
  402d60:	8b 45 08             	mov    0x8(%ebp),%eax
  402d63:	89 04 24             	mov    %eax,(%esp)
  402d66:	e8 16 03 00 00       	call   403081 <_applyCastleMove>
  402d6b:	8b 45 0c             	mov    0xc(%ebp),%eax
  402d6e:	89 44 24 04          	mov    %eax,0x4(%esp)
  402d72:	8b 45 08             	mov    0x8(%ebp),%eax
  402d75:	89 04 24             	mov    %eax,(%esp)
  402d78:	e8 85 f8 ff ff       	call   402602 <_validateMove>
  402d7d:	85 c0                	test   %eax,%eax
  402d7f:	74 34                	je     402db5 <_createCastleMove+0x68>
  402d81:	8b 45 10             	mov    0x10(%ebp),%eax
  402d84:	8b 10                	mov    (%eax),%edx
  402d86:	8d 4a 01             	lea    0x1(%edx),%ecx
  402d89:	8b 45 10             	mov    0x10(%ebp),%eax
  402d8c:	89 08                	mov    %ecx,(%eax)
  402d8e:	89 d0                	mov    %edx,%eax
  402d90:	c1 e0 02             	shl    $0x2,%eax
  402d93:	01 d0                	add    %edx,%eax
  402d95:	c1 e0 02             	shl    $0x2,%eax
  402d98:	8d 90 a0 fa 40 00    	lea    0x40faa0(%eax),%edx
  402d9e:	c7 44 24 08 14 00 00 	movl   $0x14,0x8(%esp)
  402da5:	00 
  402da6:	8b 45 14             	mov    0x14(%ebp),%eax
  402da9:	89 44 24 04          	mov    %eax,0x4(%esp)
  402dad:	89 14 24             	mov    %edx,(%esp)
  402db0:	e8 fb 75 00 00       	call   40a3b0 <_memcpy>
  402db5:	8b 45 14             	mov    0x14(%ebp),%eax
  402db8:	89 44 24 04          	mov    %eax,0x4(%esp)
  402dbc:	8b 45 08             	mov    0x8(%ebp),%eax
  402dbf:	89 04 24             	mov    %eax,(%esp)
  402dc2:	e8 07 06 00 00       	call   4033ce <_revertCastleMove>
  402dc7:	eb 34                	jmp    402dfd <_createCastleMove+0xb0>
  402dc9:	8b 45 10             	mov    0x10(%ebp),%eax
  402dcc:	8b 10                	mov    (%eax),%edx
  402dce:	8d 4a 01             	lea    0x1(%edx),%ecx
  402dd1:	8b 45 10             	mov    0x10(%ebp),%eax
  402dd4:	89 08                	mov    %ecx,(%eax)
  402dd6:	89 d0                	mov    %edx,%eax
  402dd8:	c1 e0 02             	shl    $0x2,%eax
  402ddb:	01 d0                	add    %edx,%eax
  402ddd:	c1 e0 02             	shl    $0x2,%eax
  402de0:	8d 90 a0 fa 40 00    	lea    0x40faa0(%eax),%edx
  402de6:	c7 44 24 08 14 00 00 	movl   $0x14,0x8(%esp)
  402ded:	00 
  402dee:	8b 45 14             	mov    0x14(%ebp),%eax
  402df1:	89 44 24 04          	mov    %eax,0x4(%esp)
  402df5:	89 14 24             	mov    %edx,(%esp)
  402df8:	e8 b3 75 00 00       	call   40a3b0 <_memcpy>
  402dfd:	c9                   	leave  
  402dfe:	c3                   	ret    

00402dff <_createPromotionMove>:
  402dff:	55                   	push   %ebp
  402e00:	89 e5                	mov    %esp,%ebp
  402e02:	83 ec 18             	sub    $0x18,%esp
  402e05:	83 7d 18 00          	cmpl   $0x0,0x18(%ebp)
  402e09:	74 70                	je     402e7b <_createPromotionMove+0x7c>
  402e0b:	8b 45 14             	mov    0x14(%ebp),%eax
  402e0e:	89 44 24 04          	mov    %eax,0x4(%esp)
  402e12:	8b 45 08             	mov    0x8(%ebp),%eax
  402e15:	89 04 24             	mov    %eax,(%esp)
  402e18:	e8 6e 03 00 00       	call   40318b <_applyPromotionMove>
  402e1d:	8b 45 0c             	mov    0xc(%ebp),%eax
  402e20:	89 44 24 04          	mov    %eax,0x4(%esp)
  402e24:	8b 45 08             	mov    0x8(%ebp),%eax
  402e27:	89 04 24             	mov    %eax,(%esp)
  402e2a:	e8 d3 f7 ff ff       	call   402602 <_validateMove>
  402e2f:	85 c0                	test   %eax,%eax
  402e31:	74 34                	je     402e67 <_createPromotionMove+0x68>
  402e33:	8b 45 10             	mov    0x10(%ebp),%eax
  402e36:	8b 10                	mov    (%eax),%edx
  402e38:	8d 4a 01             	lea    0x1(%edx),%ecx
  402e3b:	8b 45 10             	mov    0x10(%ebp),%eax
  402e3e:	89 08                	mov    %ecx,(%eax)
  402e40:	89 d0                	mov    %edx,%eax
  402e42:	c1 e0 02             	shl    $0x2,%eax
  402e45:	01 d0                	add    %edx,%eax
  402e47:	c1 e0 02             	shl    $0x2,%eax
  402e4a:	8d 90 a0 fa 40 00    	lea    0x40faa0(%eax),%edx
  402e50:	c7 44 24 08 14 00 00 	movl   $0x14,0x8(%esp)
  402e57:	00 
  402e58:	8b 45 14             	mov    0x14(%ebp),%eax
  402e5b:	89 44 24 04          	mov    %eax,0x4(%esp)
  402e5f:	89 14 24             	mov    %edx,(%esp)
  402e62:	e8 49 75 00 00       	call   40a3b0 <_memcpy>
  402e67:	8b 45 14             	mov    0x14(%ebp),%eax
  402e6a:	89 44 24 04          	mov    %eax,0x4(%esp)
  402e6e:	8b 45 08             	mov    0x8(%ebp),%eax
  402e71:	89 04 24             	mov    %eax,(%esp)
  402e74:	e8 5f 06 00 00       	call   4034d8 <_revertPromotionMove>
  402e79:	eb 34                	jmp    402eaf <_createPromotionMove+0xb0>
  402e7b:	8b 45 10             	mov    0x10(%ebp),%eax
  402e7e:	8b 10                	mov    (%eax),%edx
  402e80:	8d 4a 01             	lea    0x1(%edx),%ecx
  402e83:	8b 45 10             	mov    0x10(%ebp),%eax
  402e86:	89 08                	mov    %ecx,(%eax)
  402e88:	89 d0                	mov    %edx,%eax
  402e8a:	c1 e0 02             	shl    $0x2,%eax
  402e8d:	01 d0                	add    %edx,%eax
  402e8f:	c1 e0 02             	shl    $0x2,%eax
  402e92:	8d 90 a0 fa 40 00    	lea    0x40faa0(%eax),%edx
  402e98:	c7 44 24 08 14 00 00 	movl   $0x14,0x8(%esp)
  402e9f:	00 
  402ea0:	8b 45 14             	mov    0x14(%ebp),%eax
  402ea3:	89 44 24 04          	mov    %eax,0x4(%esp)
  402ea7:	89 14 24             	mov    %edx,(%esp)
  402eaa:	e8 01 75 00 00       	call   40a3b0 <_memcpy>
  402eaf:	c9                   	leave  
  402eb0:	c3                   	ret    

00402eb1 <_createEnpassMove>:
  402eb1:	55                   	push   %ebp
  402eb2:	89 e5                	mov    %esp,%ebp
  402eb4:	83 ec 18             	sub    $0x18,%esp
  402eb7:	83 7d 18 00          	cmpl   $0x0,0x18(%ebp)
  402ebb:	74 70                	je     402f2d <_createEnpassMove+0x7c>
  402ebd:	8b 45 14             	mov    0x14(%ebp),%eax
  402ec0:	89 44 24 04          	mov    %eax,0x4(%esp)
  402ec4:	8b 45 08             	mov    0x8(%ebp),%eax
  402ec7:	89 04 24             	mov    %eax,(%esp)
  402eca:	e8 26 03 00 00       	call   4031f5 <_applyEnpassMove>
  402ecf:	8b 45 0c             	mov    0xc(%ebp),%eax
  402ed2:	89 44 24 04          	mov    %eax,0x4(%esp)
  402ed6:	8b 45 08             	mov    0x8(%ebp),%eax
  402ed9:	89 04 24             	mov    %eax,(%esp)
  402edc:	e8 21 f7 ff ff       	call   402602 <_validateMove>
  402ee1:	85 c0                	test   %eax,%eax
  402ee3:	74 34                	je     402f19 <_createEnpassMove+0x68>
  402ee5:	8b 45 10             	mov    0x10(%ebp),%eax
  402ee8:	8b 10                	mov    (%eax),%edx
  402eea:	8d 4a 01             	lea    0x1(%edx),%ecx
  402eed:	8b 45 10             	mov    0x10(%ebp),%eax
  402ef0:	89 08                	mov    %ecx,(%eax)
  402ef2:	89 d0                	mov    %edx,%eax
  402ef4:	c1 e0 02             	shl    $0x2,%eax
  402ef7:	01 d0                	add    %edx,%eax
  402ef9:	c1 e0 02             	shl    $0x2,%eax
  402efc:	8d 90 a0 fa 40 00    	lea    0x40faa0(%eax),%edx
  402f02:	c7 44 24 08 14 00 00 	movl   $0x14,0x8(%esp)
  402f09:	00 
  402f0a:	8b 45 14             	mov    0x14(%ebp),%eax
  402f0d:	89 44 24 04          	mov    %eax,0x4(%esp)
  402f11:	89 14 24             	mov    %edx,(%esp)
  402f14:	e8 97 74 00 00       	call   40a3b0 <_memcpy>
  402f19:	8b 45 14             	mov    0x14(%ebp),%eax
  402f1c:	89 44 24 04          	mov    %eax,0x4(%esp)
  402f20:	8b 45 08             	mov    0x8(%ebp),%eax
  402f23:	89 04 24             	mov    %eax,(%esp)
  402f26:	e8 42 06 00 00       	call   40356d <_revertEnpassMove>
  402f2b:	eb 34                	jmp    402f61 <_createEnpassMove+0xb0>
  402f2d:	8b 45 10             	mov    0x10(%ebp),%eax
  402f30:	8b 10                	mov    (%eax),%edx
  402f32:	8d 4a 01             	lea    0x1(%edx),%ecx
  402f35:	8b 45 10             	mov    0x10(%ebp),%eax
  402f38:	89 08                	mov    %ecx,(%eax)
  402f3a:	89 d0                	mov    %edx,%eax
  402f3c:	c1 e0 02             	shl    $0x2,%eax
  402f3f:	01 d0                	add    %edx,%eax
  402f41:	c1 e0 02             	shl    $0x2,%eax
  402f44:	8d 90 a0 fa 40 00    	lea    0x40faa0(%eax),%edx
  402f4a:	c7 44 24 08 14 00 00 	movl   $0x14,0x8(%esp)
  402f51:	00 
  402f52:	8b 45 14             	mov    0x14(%ebp),%eax
  402f55:	89 44 24 04          	mov    %eax,0x4(%esp)
  402f59:	89 14 24             	mov    %edx,(%esp)
  402f5c:	e8 4f 74 00 00       	call   40a3b0 <_memcpy>
  402f61:	c9                   	leave  
  402f62:	c3                   	ret    

00402f63 <_applyNormalMove>:
  402f63:	55                   	push   %ebp
  402f64:	89 e5                	mov    %esp,%ebp
  402f66:	8b 15 84 fa 40 00    	mov    0x40fa84,%edx
  402f6c:	8b 45 0c             	mov    0xc(%ebp),%eax
  402f6f:	83 c0 08             	add    $0x8,%eax
  402f72:	8b 00                	mov    (%eax),%eax
  402f74:	01 c2                	add    %eax,%edx
  402f76:	8b 0d 84 fa 40 00    	mov    0x40fa84,%ecx
  402f7c:	8b 45 0c             	mov    0xc(%ebp),%eax
  402f7f:	83 c0 04             	add    $0x4,%eax
  402f82:	8b 00                	mov    (%eax),%eax
  402f84:	01 c8                	add    %ecx,%eax
  402f86:	0f b6 00             	movzbl (%eax),%eax
  402f89:	88 02                	mov    %al,(%edx)
  402f8b:	8b 15 80 fa 40 00    	mov    0x40fa80,%edx
  402f91:	8b 45 0c             	mov    0xc(%ebp),%eax
  402f94:	83 c0 08             	add    $0x8,%eax
  402f97:	8b 00                	mov    (%eax),%eax
  402f99:	01 c2                	add    %eax,%edx
  402f9b:	8b 0d 80 fa 40 00    	mov    0x40fa80,%ecx
  402fa1:	8b 45 0c             	mov    0xc(%ebp),%eax
  402fa4:	83 c0 04             	add    $0x4,%eax
  402fa7:	8b 00                	mov    (%eax),%eax
  402fa9:	01 c8                	add    %ecx,%eax
  402fab:	0f b6 00             	movzbl (%eax),%eax
  402fae:	88 02                	mov    %al,(%edx)
  402fb0:	8b 15 84 fa 40 00    	mov    0x40fa84,%edx
  402fb6:	8b 45 0c             	mov    0xc(%ebp),%eax
  402fb9:	83 c0 04             	add    $0x4,%eax
  402fbc:	8b 00                	mov    (%eax),%eax
  402fbe:	01 d0                	add    %edx,%eax
  402fc0:	c6 00 09             	movb   $0x9,(%eax)
  402fc3:	8b 15 80 fa 40 00    	mov    0x40fa80,%edx
  402fc9:	8b 45 0c             	mov    0xc(%ebp),%eax
  402fcc:	83 c0 04             	add    $0x4,%eax
  402fcf:	8b 00                	mov    (%eax),%eax
  402fd1:	01 d0                	add    %edx,%eax
  402fd3:	c6 00 09             	movb   $0x9,(%eax)
  402fd6:	8b 15 84 fa 40 00    	mov    0x40fa84,%edx
  402fdc:	8b 45 0c             	mov    0xc(%ebp),%eax
  402fdf:	83 c0 08             	add    $0x8,%eax
  402fe2:	8b 00                	mov    (%eax),%eax
  402fe4:	01 d0                	add    %edx,%eax
  402fe6:	0f b6 00             	movzbl (%eax),%eax
  402fe9:	3c 05                	cmp    $0x5,%al
  402feb:	75 25                	jne    403012 <_applyNormalMove+0xaf>
  402fed:	8b 15 80 fa 40 00    	mov    0x40fa80,%edx
  402ff3:	8b 45 0c             	mov    0xc(%ebp),%eax
  402ff6:	83 c0 08             	add    $0x8,%eax
  402ff9:	8b 00                	mov    (%eax),%eax
  402ffb:	01 d0                	add    %edx,%eax
  402ffd:	0f b6 00             	movzbl (%eax),%eax
  403000:	0f be c8             	movsbl %al,%ecx
  403003:	8b 45 0c             	mov    0xc(%ebp),%eax
  403006:	8b 50 08             	mov    0x8(%eax),%edx
  403009:	8b 45 08             	mov    0x8(%ebp),%eax
  40300c:	83 c1 20             	add    $0x20,%ecx
  40300f:	89 14 88             	mov    %edx,(%eax,%ecx,4)
  403012:	8b 45 0c             	mov    0xc(%ebp),%eax
  403015:	83 c0 10             	add    $0x10,%eax
  403018:	8b 00                	mov    (%eax),%eax
  40301a:	85 c0                	test   %eax,%eax
  40301c:	74 61                	je     40307f <_applyNormalMove+0x11c>
  40301e:	8b 45 0c             	mov    0xc(%ebp),%eax
  403021:	83 c0 10             	add    $0x10,%eax
  403024:	8b 00                	mov    (%eax),%eax
  403026:	83 f8 01             	cmp    $0x1,%eax
  403029:	75 23                	jne    40304e <_applyNormalMove+0xeb>
  40302b:	8b 15 80 fa 40 00    	mov    0x40fa80,%edx
  403031:	8b 45 0c             	mov    0xc(%ebp),%eax
  403034:	83 c0 08             	add    $0x8,%eax
  403037:	8b 00                	mov    (%eax),%eax
  403039:	01 d0                	add    %edx,%eax
  40303b:	0f b6 00             	movzbl (%eax),%eax
  40303e:	0f be d0             	movsbl %al,%edx
  403041:	8b 45 08             	mov    0x8(%ebp),%eax
  403044:	83 c2 12             	add    $0x12,%edx
  403047:	c7 04 d0 00 00 00 00 	movl   $0x0,(%eax,%edx,8)
  40304e:	8b 45 0c             	mov    0xc(%ebp),%eax
  403051:	83 c0 10             	add    $0x10,%eax
  403054:	8b 00                	mov    (%eax),%eax
  403056:	83 f8 02             	cmp    $0x2,%eax
  403059:	75 24                	jne    40307f <_applyNormalMove+0x11c>
  40305b:	8b 15 80 fa 40 00    	mov    0x40fa80,%edx
  403061:	8b 45 0c             	mov    0xc(%ebp),%eax
  403064:	83 c0 08             	add    $0x8,%eax
  403067:	8b 00                	mov    (%eax),%eax
  403069:	01 d0                	add    %edx,%eax
  40306b:	0f b6 00             	movzbl (%eax),%eax
  40306e:	0f be d0             	movsbl %al,%edx
  403071:	8b 45 08             	mov    0x8(%ebp),%eax
  403074:	c7 84 d0 94 00 00 00 	movl   $0x0,0x94(%eax,%edx,8)
  40307b:	00 00 00 00 
  40307f:	5d                   	pop    %ebp
  403080:	c3                   	ret    

00403081 <_applyCastleMove>:
  403081:	55                   	push   %ebp
  403082:	89 e5                	mov    %esp,%ebp
  403084:	8b 15 84 fa 40 00    	mov    0x40fa84,%edx
  40308a:	8b 45 0c             	mov    0xc(%ebp),%eax
  40308d:	83 c0 08             	add    $0x8,%eax
  403090:	8b 00                	mov    (%eax),%eax
  403092:	01 d0                	add    %edx,%eax
  403094:	c6 00 05             	movb   $0x5,(%eax)
  403097:	8b 15 80 fa 40 00    	mov    0x40fa80,%edx
  40309d:	8b 45 0c             	mov    0xc(%ebp),%eax
  4030a0:	83 c0 08             	add    $0x8,%eax
  4030a3:	8b 00                	mov    (%eax),%eax
  4030a5:	01 c2                	add    %eax,%edx
  4030a7:	8b 0d 80 fa 40 00    	mov    0x40fa80,%ecx
  4030ad:	8b 45 0c             	mov    0xc(%ebp),%eax
  4030b0:	83 c0 04             	add    $0x4,%eax
  4030b3:	8b 00                	mov    (%eax),%eax
  4030b5:	01 c8                	add    %ecx,%eax
  4030b7:	0f b6 00             	movzbl (%eax),%eax
  4030ba:	88 02                	mov    %al,(%edx)
  4030bc:	8b 15 84 fa 40 00    	mov    0x40fa84,%edx
  4030c2:	8b 45 0c             	mov    0xc(%ebp),%eax
  4030c5:	83 c0 04             	add    $0x4,%eax
  4030c8:	8b 00                	mov    (%eax),%eax
  4030ca:	01 d0                	add    %edx,%eax
  4030cc:	c6 00 09             	movb   $0x9,(%eax)
  4030cf:	8b 15 80 fa 40 00    	mov    0x40fa80,%edx
  4030d5:	8b 45 0c             	mov    0xc(%ebp),%eax
  4030d8:	83 c0 04             	add    $0x4,%eax
  4030db:	8b 00                	mov    (%eax),%eax
  4030dd:	01 d0                	add    %edx,%eax
  4030df:	c6 00 09             	movb   $0x9,(%eax)
  4030e2:	8b 15 84 fa 40 00    	mov    0x40fa84,%edx
  4030e8:	8b 45 0c             	mov    0xc(%ebp),%eax
  4030eb:	83 c0 10             	add    $0x10,%eax
  4030ee:	8b 00                	mov    (%eax),%eax
  4030f0:	01 d0                	add    %edx,%eax
  4030f2:	c6 00 03             	movb   $0x3,(%eax)
  4030f5:	8b 15 80 fa 40 00    	mov    0x40fa80,%edx
  4030fb:	8b 45 0c             	mov    0xc(%ebp),%eax
  4030fe:	83 c0 10             	add    $0x10,%eax
  403101:	8b 00                	mov    (%eax),%eax
  403103:	01 c2                	add    %eax,%edx
  403105:	8b 0d 80 fa 40 00    	mov    0x40fa80,%ecx
  40310b:	8b 45 0c             	mov    0xc(%ebp),%eax
  40310e:	83 c0 0c             	add    $0xc,%eax
  403111:	8b 00                	mov    (%eax),%eax
  403113:	01 c8                	add    %ecx,%eax
  403115:	0f b6 00             	movzbl (%eax),%eax
  403118:	88 02                	mov    %al,(%edx)
  40311a:	8b 15 84 fa 40 00    	mov    0x40fa84,%edx
  403120:	8b 45 0c             	mov    0xc(%ebp),%eax
  403123:	83 c0 0c             	add    $0xc,%eax
  403126:	8b 00                	mov    (%eax),%eax
  403128:	01 d0                	add    %edx,%eax
  40312a:	c6 00 09             	movb   $0x9,(%eax)
  40312d:	8b 15 80 fa 40 00    	mov    0x40fa80,%edx
  403133:	8b 45 0c             	mov    0xc(%ebp),%eax
  403136:	83 c0 0c             	add    $0xc,%eax
  403139:	8b 00                	mov    (%eax),%eax
  40313b:	01 d0                	add    %edx,%eax
  40313d:	c6 00 09             	movb   $0x9,(%eax)
  403140:	8b 15 80 fa 40 00    	mov    0x40fa80,%edx
  403146:	8b 45 0c             	mov    0xc(%ebp),%eax
  403149:	83 c0 08             	add    $0x8,%eax
  40314c:	8b 00                	mov    (%eax),%eax
  40314e:	01 d0                	add    %edx,%eax
  403150:	0f b6 00             	movzbl (%eax),%eax
  403153:	0f be c8             	movsbl %al,%ecx
  403156:	8b 45 0c             	mov    0xc(%ebp),%eax
  403159:	8b 50 08             	mov    0x8(%eax),%edx
  40315c:	8b 45 08             	mov    0x8(%ebp),%eax
  40315f:	83 c1 20             	add    $0x20,%ecx
  403162:	89 14 88             	mov    %edx,(%eax,%ecx,4)
  403165:	8b 15 80 fa 40 00    	mov    0x40fa80,%edx
  40316b:	8b 45 0c             	mov    0xc(%ebp),%eax
  40316e:	83 c0 08             	add    $0x8,%eax
  403171:	8b 00                	mov    (%eax),%eax
  403173:	01 d0                	add    %edx,%eax
  403175:	0f b6 00             	movzbl (%eax),%eax
  403178:	0f be d0             	movsbl %al,%edx
  40317b:	8b 45 08             	mov    0x8(%ebp),%eax
  40317e:	83 c2 20             	add    $0x20,%edx
  403181:	c7 44 90 08 01 00 00 	movl   $0x1,0x8(%eax,%edx,4)
  403188:	00 
  403189:	5d                   	pop    %ebp
  40318a:	c3                   	ret    

0040318b <_applyPromotionMove>:
  40318b:	55                   	push   %ebp
  40318c:	89 e5                	mov    %esp,%ebp
  40318e:	8b 15 84 fa 40 00    	mov    0x40fa84,%edx
  403194:	8b 45 0c             	mov    0xc(%ebp),%eax
  403197:	83 c0 08             	add    $0x8,%eax
  40319a:	8b 00                	mov    (%eax),%eax
  40319c:	01 c2                	add    %eax,%edx
  40319e:	8b 45 0c             	mov    0xc(%ebp),%eax
  4031a1:	83 c0 10             	add    $0x10,%eax
  4031a4:	8b 00                	mov    (%eax),%eax
  4031a6:	88 02                	mov    %al,(%edx)
  4031a8:	8b 15 80 fa 40 00    	mov    0x40fa80,%edx
  4031ae:	8b 45 0c             	mov    0xc(%ebp),%eax
  4031b1:	83 c0 08             	add    $0x8,%eax
  4031b4:	8b 00                	mov    (%eax),%eax
  4031b6:	01 c2                	add    %eax,%edx
  4031b8:	8b 0d 80 fa 40 00    	mov    0x40fa80,%ecx
  4031be:	8b 45 0c             	mov    0xc(%ebp),%eax
  4031c1:	83 c0 04             	add    $0x4,%eax
  4031c4:	8b 00                	mov    (%eax),%eax
  4031c6:	01 c8                	add    %ecx,%eax
  4031c8:	0f b6 00             	movzbl (%eax),%eax
  4031cb:	88 02                	mov    %al,(%edx)
  4031cd:	8b 15 84 fa 40 00    	mov    0x40fa84,%edx
  4031d3:	8b 45 0c             	mov    0xc(%ebp),%eax
  4031d6:	83 c0 04             	add    $0x4,%eax
  4031d9:	8b 00                	mov    (%eax),%eax
  4031db:	01 d0                	add    %edx,%eax
  4031dd:	c6 00 09             	movb   $0x9,(%eax)
  4031e0:	8b 15 80 fa 40 00    	mov    0x40fa80,%edx
  4031e6:	8b 45 0c             	mov    0xc(%ebp),%eax
  4031e9:	83 c0 04             	add    $0x4,%eax
  4031ec:	8b 00                	mov    (%eax),%eax
  4031ee:	01 d0                	add    %edx,%eax
  4031f0:	c6 00 09             	movb   $0x9,(%eax)
  4031f3:	5d                   	pop    %ebp
  4031f4:	c3                   	ret    

004031f5 <_applyEnpassMove>:
  4031f5:	55                   	push   %ebp
  4031f6:	89 e5                	mov    %esp,%ebp
  4031f8:	8b 15 84 fa 40 00    	mov    0x40fa84,%edx
  4031fe:	8b 45 0c             	mov    0xc(%ebp),%eax
  403201:	83 c0 08             	add    $0x8,%eax
  403204:	8b 00                	mov    (%eax),%eax
  403206:	01 d0                	add    %edx,%eax
  403208:	c6 00 00             	movb   $0x0,(%eax)
  40320b:	8b 15 80 fa 40 00    	mov    0x40fa80,%edx
  403211:	8b 45 0c             	mov    0xc(%ebp),%eax
  403214:	83 c0 08             	add    $0x8,%eax
  403217:	8b 00                	mov    (%eax),%eax
  403219:	01 c2                	add    %eax,%edx
  40321b:	8b 0d 80 fa 40 00    	mov    0x40fa80,%ecx
  403221:	8b 45 0c             	mov    0xc(%ebp),%eax
  403224:	83 c0 04             	add    $0x4,%eax
  403227:	8b 00                	mov    (%eax),%eax
  403229:	01 c8                	add    %ecx,%eax
  40322b:	0f b6 00             	movzbl (%eax),%eax
  40322e:	88 02                	mov    %al,(%edx)
  403230:	8b 15 84 fa 40 00    	mov    0x40fa84,%edx
  403236:	8b 45 0c             	mov    0xc(%ebp),%eax
  403239:	83 c0 04             	add    $0x4,%eax
  40323c:	8b 00                	mov    (%eax),%eax
  40323e:	01 d0                	add    %edx,%eax
  403240:	c6 00 09             	movb   $0x9,(%eax)
  403243:	8b 15 80 fa 40 00    	mov    0x40fa80,%edx
  403249:	8b 45 0c             	mov    0xc(%ebp),%eax
  40324c:	83 c0 04             	add    $0x4,%eax
  40324f:	8b 00                	mov    (%eax),%eax
  403251:	01 d0                	add    %edx,%eax
  403253:	c6 00 09             	movb   $0x9,(%eax)
  403256:	8b 15 84 fa 40 00    	mov    0x40fa84,%edx
  40325c:	8b 45 0c             	mov    0xc(%ebp),%eax
  40325f:	83 c0 0c             	add    $0xc,%eax
  403262:	8b 00                	mov    (%eax),%eax
  403264:	01 d0                	add    %edx,%eax
  403266:	c6 00 09             	movb   $0x9,(%eax)
  403269:	8b 15 80 fa 40 00    	mov    0x40fa80,%edx
  40326f:	8b 45 0c             	mov    0xc(%ebp),%eax
  403272:	83 c0 0c             	add    $0xc,%eax
  403275:	8b 00                	mov    (%eax),%eax
  403277:	01 d0                	add    %edx,%eax
  403279:	c6 00 09             	movb   $0x9,(%eax)
  40327c:	5d                   	pop    %ebp
  40327d:	c3                   	ret    

0040327e <_revertNormalMove>:
  40327e:	55                   	push   %ebp
  40327f:	89 e5                	mov    %esp,%ebp
  403281:	8b 15 84 fa 40 00    	mov    0x40fa84,%edx
  403287:	8b 45 0c             	mov    0xc(%ebp),%eax
  40328a:	83 c0 04             	add    $0x4,%eax
  40328d:	8b 00                	mov    (%eax),%eax
  40328f:	01 c2                	add    %eax,%edx
  403291:	8b 0d 84 fa 40 00    	mov    0x40fa84,%ecx
  403297:	8b 45 0c             	mov    0xc(%ebp),%eax
  40329a:	83 c0 08             	add    $0x8,%eax
  40329d:	8b 00                	mov    (%eax),%eax
  40329f:	01 c8                	add    %ecx,%eax
  4032a1:	0f b6 00             	movzbl (%eax),%eax
  4032a4:	88 02                	mov    %al,(%edx)
  4032a6:	8b 15 80 fa 40 00    	mov    0x40fa80,%edx
  4032ac:	8b 45 0c             	mov    0xc(%ebp),%eax
  4032af:	83 c0 04             	add    $0x4,%eax
  4032b2:	8b 00                	mov    (%eax),%eax
  4032b4:	01 c2                	add    %eax,%edx
  4032b6:	8b 0d 80 fa 40 00    	mov    0x40fa80,%ecx
  4032bc:	8b 45 0c             	mov    0xc(%ebp),%eax
  4032bf:	83 c0 08             	add    $0x8,%eax
  4032c2:	8b 00                	mov    (%eax),%eax
  4032c4:	01 c8                	add    %ecx,%eax
  4032c6:	0f b6 00             	movzbl (%eax),%eax
  4032c9:	88 02                	mov    %al,(%edx)
  4032cb:	8b 15 84 fa 40 00    	mov    0x40fa84,%edx
  4032d1:	8b 45 0c             	mov    0xc(%ebp),%eax
  4032d4:	83 c0 08             	add    $0x8,%eax
  4032d7:	8b 00                	mov    (%eax),%eax
  4032d9:	01 c2                	add    %eax,%edx
  4032db:	8b 45 0c             	mov    0xc(%ebp),%eax
  4032de:	83 c0 0c             	add    $0xc,%eax
  4032e1:	8b 00                	mov    (%eax),%eax
  4032e3:	88 02                	mov    %al,(%edx)
  4032e5:	8b 15 80 fa 40 00    	mov    0x40fa80,%edx
  4032eb:	8b 45 0c             	mov    0xc(%ebp),%eax
  4032ee:	83 c0 08             	add    $0x8,%eax
  4032f1:	8b 00                	mov    (%eax),%eax
  4032f3:	01 c2                	add    %eax,%edx
  4032f5:	8b 45 0c             	mov    0xc(%ebp),%eax
  4032f8:	83 c0 0c             	add    $0xc,%eax
  4032fb:	8b 00                	mov    (%eax),%eax
  4032fd:	83 f8 09             	cmp    $0x9,%eax
  403300:	74 1a                	je     40331c <_revertNormalMove+0x9e>
  403302:	8b 0d 80 fa 40 00    	mov    0x40fa80,%ecx
  403308:	8b 45 0c             	mov    0xc(%ebp),%eax
  40330b:	83 c0 04             	add    $0x4,%eax
  40330e:	8b 00                	mov    (%eax),%eax
  403310:	01 c8                	add    %ecx,%eax
  403312:	0f b6 00             	movzbl (%eax),%eax
  403315:	84 c0                	test   %al,%al
  403317:	0f 94 c0             	sete   %al
  40331a:	eb 05                	jmp    403321 <_revertNormalMove+0xa3>
  40331c:	b8 09 00 00 00       	mov    $0x9,%eax
  403321:	88 02                	mov    %al,(%edx)
  403323:	8b 15 84 fa 40 00    	mov    0x40fa84,%edx
  403329:	8b 45 0c             	mov    0xc(%ebp),%eax
  40332c:	83 c0 04             	add    $0x4,%eax
  40332f:	8b 00                	mov    (%eax),%eax
  403331:	01 d0                	add    %edx,%eax
  403333:	0f b6 00             	movzbl (%eax),%eax
  403336:	3c 05                	cmp    $0x5,%al
  403338:	75 25                	jne    40335f <_revertNormalMove+0xe1>
  40333a:	8b 15 80 fa 40 00    	mov    0x40fa80,%edx
  403340:	8b 45 0c             	mov    0xc(%ebp),%eax
  403343:	83 c0 04             	add    $0x4,%eax
  403346:	8b 00                	mov    (%eax),%eax
  403348:	01 d0                	add    %edx,%eax
  40334a:	0f b6 00             	movzbl (%eax),%eax
  40334d:	0f be c8             	movsbl %al,%ecx
  403350:	8b 45 0c             	mov    0xc(%ebp),%eax
  403353:	8b 50 04             	mov    0x4(%eax),%edx
  403356:	8b 45 08             	mov    0x8(%ebp),%eax
  403359:	83 c1 20             	add    $0x20,%ecx
  40335c:	89 14 88             	mov    %edx,(%eax,%ecx,4)
  40335f:	8b 45 0c             	mov    0xc(%ebp),%eax
  403362:	83 c0 10             	add    $0x10,%eax
  403365:	8b 00                	mov    (%eax),%eax
  403367:	85 c0                	test   %eax,%eax
  403369:	74 61                	je     4033cc <_revertNormalMove+0x14e>
  40336b:	8b 45 0c             	mov    0xc(%ebp),%eax
  40336e:	83 c0 10             	add    $0x10,%eax
  403371:	8b 00                	mov    (%eax),%eax
  403373:	83 f8 01             	cmp    $0x1,%eax
  403376:	75 23                	jne    40339b <_revertNormalMove+0x11d>
  403378:	8b 15 80 fa 40 00    	mov    0x40fa80,%edx
  40337e:	8b 45 0c             	mov    0xc(%ebp),%eax
  403381:	83 c0 04             	add    $0x4,%eax
  403384:	8b 00                	mov    (%eax),%eax
  403386:	01 d0                	add    %edx,%eax
  403388:	0f b6 00             	movzbl (%eax),%eax
  40338b:	0f be d0             	movsbl %al,%edx
  40338e:	8b 45 08             	mov    0x8(%ebp),%eax
  403391:	83 c2 12             	add    $0x12,%edx
  403394:	c7 04 d0 01 00 00 00 	movl   $0x1,(%eax,%edx,8)
  40339b:	8b 45 0c             	mov    0xc(%ebp),%eax
  40339e:	83 c0 10             	add    $0x10,%eax
  4033a1:	8b 00                	mov    (%eax),%eax
  4033a3:	83 f8 02             	cmp    $0x2,%eax
  4033a6:	75 24                	jne    4033cc <_revertNormalMove+0x14e>
  4033a8:	8b 15 80 fa 40 00    	mov    0x40fa80,%edx
  4033ae:	8b 45 0c             	mov    0xc(%ebp),%eax
  4033b1:	83 c0 04             	add    $0x4,%eax
  4033b4:	8b 00                	mov    (%eax),%eax
  4033b6:	01 d0                	add    %edx,%eax
  4033b8:	0f b6 00             	movzbl (%eax),%eax
  4033bb:	0f be d0             	movsbl %al,%edx
  4033be:	8b 45 08             	mov    0x8(%ebp),%eax
  4033c1:	c7 84 d0 94 00 00 00 	movl   $0x1,0x94(%eax,%edx,8)
  4033c8:	01 00 00 00 
  4033cc:	5d                   	pop    %ebp
  4033cd:	c3                   	ret    

004033ce <_revertCastleMove>:
  4033ce:	55                   	push   %ebp
  4033cf:	89 e5                	mov    %esp,%ebp
  4033d1:	8b 15 84 fa 40 00    	mov    0x40fa84,%edx
  4033d7:	8b 45 0c             	mov    0xc(%ebp),%eax
  4033da:	83 c0 04             	add    $0x4,%eax
  4033dd:	8b 00                	mov    (%eax),%eax
  4033df:	01 d0                	add    %edx,%eax
  4033e1:	c6 00 05             	movb   $0x5,(%eax)
  4033e4:	8b 15 80 fa 40 00    	mov    0x40fa80,%edx
  4033ea:	8b 45 0c             	mov    0xc(%ebp),%eax
  4033ed:	83 c0 04             	add    $0x4,%eax
  4033f0:	8b 00                	mov    (%eax),%eax
  4033f2:	01 c2                	add    %eax,%edx
  4033f4:	8b 0d 80 fa 40 00    	mov    0x40fa80,%ecx
  4033fa:	8b 45 0c             	mov    0xc(%ebp),%eax
  4033fd:	83 c0 08             	add    $0x8,%eax
  403400:	8b 00                	mov    (%eax),%eax
  403402:	01 c8                	add    %ecx,%eax
  403404:	0f b6 00             	movzbl (%eax),%eax
  403407:	88 02                	mov    %al,(%edx)
  403409:	8b 15 84 fa 40 00    	mov    0x40fa84,%edx
  40340f:	8b 45 0c             	mov    0xc(%ebp),%eax
  403412:	83 c0 08             	add    $0x8,%eax
  403415:	8b 00                	mov    (%eax),%eax
  403417:	01 d0                	add    %edx,%eax
  403419:	c6 00 09             	movb   $0x9,(%eax)
  40341c:	8b 15 80 fa 40 00    	mov    0x40fa80,%edx
  403422:	8b 45 0c             	mov    0xc(%ebp),%eax
  403425:	83 c0 08             	add    $0x8,%eax
  403428:	8b 00                	mov    (%eax),%eax
  40342a:	01 d0                	add    %edx,%eax
  40342c:	c6 00 09             	movb   $0x9,(%eax)
  40342f:	8b 15 84 fa 40 00    	mov    0x40fa84,%edx
  403435:	8b 45 0c             	mov    0xc(%ebp),%eax
  403438:	83 c0 0c             	add    $0xc,%eax
  40343b:	8b 00                	mov    (%eax),%eax
  40343d:	01 d0                	add    %edx,%eax
  40343f:	c6 00 03             	movb   $0x3,(%eax)
  403442:	8b 15 80 fa 40 00    	mov    0x40fa80,%edx
  403448:	8b 45 0c             	mov    0xc(%ebp),%eax
  40344b:	83 c0 0c             	add    $0xc,%eax
  40344e:	8b 00                	mov    (%eax),%eax
  403450:	01 c2                	add    %eax,%edx
  403452:	8b 0d 80 fa 40 00    	mov    0x40fa80,%ecx
  403458:	8b 45 0c             	mov    0xc(%ebp),%eax
  40345b:	83 c0 10             	add    $0x10,%eax
  40345e:	8b 00                	mov    (%eax),%eax
  403460:	01 c8                	add    %ecx,%eax
  403462:	0f b6 00             	movzbl (%eax),%eax
  403465:	88 02                	mov    %al,(%edx)
  403467:	8b 15 84 fa 40 00    	mov    0x40fa84,%edx
  40346d:	8b 45 0c             	mov    0xc(%ebp),%eax
  403470:	83 c0 10             	add    $0x10,%eax
  403473:	8b 00                	mov    (%eax),%eax
  403475:	01 d0                	add    %edx,%eax
  403477:	c6 00 09             	movb   $0x9,(%eax)
  40347a:	8b 15 80 fa 40 00    	mov    0x40fa80,%edx
  403480:	8b 45 0c             	mov    0xc(%ebp),%eax
  403483:	83 c0 10             	add    $0x10,%eax
  403486:	8b 00                	mov    (%eax),%eax
  403488:	01 d0                	add    %edx,%eax
  40348a:	c6 00 09             	movb   $0x9,(%eax)
  40348d:	8b 15 80 fa 40 00    	mov    0x40fa80,%edx
  403493:	8b 45 0c             	mov    0xc(%ebp),%eax
  403496:	83 c0 08             	add    $0x8,%eax
  403499:	8b 00                	mov    (%eax),%eax
  40349b:	01 d0                	add    %edx,%eax
  40349d:	0f b6 00             	movzbl (%eax),%eax
  4034a0:	0f be c8             	movsbl %al,%ecx
  4034a3:	8b 45 0c             	mov    0xc(%ebp),%eax
  4034a6:	8b 50 04             	mov    0x4(%eax),%edx
  4034a9:	8b 45 08             	mov    0x8(%ebp),%eax
  4034ac:	83 c1 20             	add    $0x20,%ecx
  4034af:	89 14 88             	mov    %edx,(%eax,%ecx,4)
  4034b2:	8b 15 80 fa 40 00    	mov    0x40fa80,%edx
  4034b8:	8b 45 0c             	mov    0xc(%ebp),%eax
  4034bb:	83 c0 08             	add    $0x8,%eax
  4034be:	8b 00                	mov    (%eax),%eax
  4034c0:	01 d0                	add    %edx,%eax
  4034c2:	0f b6 00             	movzbl (%eax),%eax
  4034c5:	0f be d0             	movsbl %al,%edx
  4034c8:	8b 45 08             	mov    0x8(%ebp),%eax
  4034cb:	83 c2 20             	add    $0x20,%edx
  4034ce:	c7 44 90 08 00 00 00 	movl   $0x0,0x8(%eax,%edx,4)
  4034d5:	00 
  4034d6:	5d                   	pop    %ebp
  4034d7:	c3                   	ret    

004034d8 <_revertPromotionMove>:
  4034d8:	55                   	push   %ebp
  4034d9:	89 e5                	mov    %esp,%ebp
  4034db:	8b 15 84 fa 40 00    	mov    0x40fa84,%edx
  4034e1:	8b 45 0c             	mov    0xc(%ebp),%eax
  4034e4:	83 c0 04             	add    $0x4,%eax
  4034e7:	8b 00                	mov    (%eax),%eax
  4034e9:	01 d0                	add    %edx,%eax
  4034eb:	c6 00 00             	movb   $0x0,(%eax)
  4034ee:	8b 15 80 fa 40 00    	mov    0x40fa80,%edx
  4034f4:	8b 45 0c             	mov    0xc(%ebp),%eax
  4034f7:	83 c0 04             	add    $0x4,%eax
  4034fa:	8b 00                	mov    (%eax),%eax
  4034fc:	01 c2                	add    %eax,%edx
  4034fe:	8b 0d 80 fa 40 00    	mov    0x40fa80,%ecx
  403504:	8b 45 0c             	mov    0xc(%ebp),%eax
  403507:	83 c0 08             	add    $0x8,%eax
  40350a:	8b 00                	mov    (%eax),%eax
  40350c:	01 c8                	add    %ecx,%eax
  40350e:	0f b6 00             	movzbl (%eax),%eax
  403511:	88 02                	mov    %al,(%edx)
  403513:	8b 15 84 fa 40 00    	mov    0x40fa84,%edx
  403519:	8b 45 0c             	mov    0xc(%ebp),%eax
  40351c:	83 c0 08             	add    $0x8,%eax
  40351f:	8b 00                	mov    (%eax),%eax
  403521:	01 c2                	add    %eax,%edx
  403523:	8b 45 0c             	mov    0xc(%ebp),%eax
  403526:	83 c0 0c             	add    $0xc,%eax
  403529:	8b 00                	mov    (%eax),%eax
  40352b:	88 02                	mov    %al,(%edx)
  40352d:	8b 15 80 fa 40 00    	mov    0x40fa80,%edx
  403533:	8b 45 0c             	mov    0xc(%ebp),%eax
  403536:	83 c0 08             	add    $0x8,%eax
  403539:	8b 00                	mov    (%eax),%eax
  40353b:	01 c2                	add    %eax,%edx
  40353d:	8b 45 0c             	mov    0xc(%ebp),%eax
  403540:	83 c0 0c             	add    $0xc,%eax
  403543:	8b 00                	mov    (%eax),%eax
  403545:	83 f8 09             	cmp    $0x9,%eax
  403548:	74 1a                	je     403564 <_revertPromotionMove+0x8c>
  40354a:	8b 0d 80 fa 40 00    	mov    0x40fa80,%ecx
  403550:	8b 45 0c             	mov    0xc(%ebp),%eax
  403553:	83 c0 04             	add    $0x4,%eax
  403556:	8b 00                	mov    (%eax),%eax
  403558:	01 c8                	add    %ecx,%eax
  40355a:	0f b6 00             	movzbl (%eax),%eax
  40355d:	84 c0                	test   %al,%al
  40355f:	0f 94 c0             	sete   %al
  403562:	eb 05                	jmp    403569 <_revertPromotionMove+0x91>
  403564:	b8 09 00 00 00       	mov    $0x9,%eax
  403569:	88 02                	mov    %al,(%edx)
  40356b:	5d                   	pop    %ebp
  40356c:	c3                   	ret    

0040356d <_revertEnpassMove>:
  40356d:	55                   	push   %ebp
  40356e:	89 e5                	mov    %esp,%ebp
  403570:	8b 15 84 fa 40 00    	mov    0x40fa84,%edx
  403576:	8b 45 0c             	mov    0xc(%ebp),%eax
  403579:	83 c0 04             	add    $0x4,%eax
  40357c:	8b 00                	mov    (%eax),%eax
  40357e:	01 d0                	add    %edx,%eax
  403580:	c6 00 00             	movb   $0x0,(%eax)
  403583:	8b 15 80 fa 40 00    	mov    0x40fa80,%edx
  403589:	8b 45 0c             	mov    0xc(%ebp),%eax
  40358c:	83 c0 04             	add    $0x4,%eax
  40358f:	8b 00                	mov    (%eax),%eax
  403591:	01 c2                	add    %eax,%edx
  403593:	8b 0d 80 fa 40 00    	mov    0x40fa80,%ecx
  403599:	8b 45 0c             	mov    0xc(%ebp),%eax
  40359c:	83 c0 08             	add    $0x8,%eax
  40359f:	8b 00                	mov    (%eax),%eax
  4035a1:	01 c8                	add    %ecx,%eax
  4035a3:	0f b6 00             	movzbl (%eax),%eax
  4035a6:	88 02                	mov    %al,(%edx)
  4035a8:	8b 15 84 fa 40 00    	mov    0x40fa84,%edx
  4035ae:	8b 45 0c             	mov    0xc(%ebp),%eax
  4035b1:	83 c0 08             	add    $0x8,%eax
  4035b4:	8b 00                	mov    (%eax),%eax
  4035b6:	01 d0                	add    %edx,%eax
  4035b8:	c6 00 09             	movb   $0x9,(%eax)
  4035bb:	8b 15 80 fa 40 00    	mov    0x40fa80,%edx
  4035c1:	8b 45 0c             	mov    0xc(%ebp),%eax
  4035c4:	83 c0 08             	add    $0x8,%eax
  4035c7:	8b 00                	mov    (%eax),%eax
  4035c9:	01 d0                	add    %edx,%eax
  4035cb:	c6 00 09             	movb   $0x9,(%eax)
  4035ce:	8b 15 84 fa 40 00    	mov    0x40fa84,%edx
  4035d4:	8b 45 0c             	mov    0xc(%ebp),%eax
  4035d7:	83 c0 0c             	add    $0xc,%eax
  4035da:	8b 00                	mov    (%eax),%eax
  4035dc:	01 d0                	add    %edx,%eax
  4035de:	c6 00 00             	movb   $0x0,(%eax)
  4035e1:	8b 15 80 fa 40 00    	mov    0x40fa80,%edx
  4035e7:	8b 45 0c             	mov    0xc(%ebp),%eax
  4035ea:	83 c0 0c             	add    $0xc,%eax
  4035ed:	8b 00                	mov    (%eax),%eax
  4035ef:	01 c2                	add    %eax,%edx
  4035f1:	8b 0d 80 fa 40 00    	mov    0x40fa80,%ecx
  4035f7:	8b 45 0c             	mov    0xc(%ebp),%eax
  4035fa:	83 c0 04             	add    $0x4,%eax
  4035fd:	8b 00                	mov    (%eax),%eax
  4035ff:	01 c8                	add    %ecx,%eax
  403601:	0f b6 00             	movzbl (%eax),%eax
  403604:	84 c0                	test   %al,%al
  403606:	0f 94 c0             	sete   %al
  403609:	88 02                	mov    %al,(%edx)
  40360b:	5d                   	pop    %ebp
  40360c:	c3                   	ret    
  40360d:	90                   	nop
  40360e:	90                   	nop
  40360f:	90                   	nop

00403610 <___dyn_tls_dtor@12>:
  403610:	83 ec 1c             	sub    $0x1c,%esp
  403613:	8b 44 24 24          	mov    0x24(%esp),%eax
  403617:	85 c0                	test   %eax,%eax
  403619:	74 15                	je     403630 <___dyn_tls_dtor@12+0x20>
  40361b:	83 f8 03             	cmp    $0x3,%eax
  40361e:	74 10                	je     403630 <___dyn_tls_dtor@12+0x20>
  403620:	b8 01 00 00 00       	mov    $0x1,%eax
  403625:	83 c4 1c             	add    $0x1c,%esp
  403628:	c2 0c 00             	ret    $0xc
  40362b:	90                   	nop
  40362c:	8d 74 26 00          	lea    0x0(%esi,%eiz,1),%esi
  403630:	8b 54 24 28          	mov    0x28(%esp),%edx
  403634:	89 44 24 04          	mov    %eax,0x4(%esp)
  403638:	8b 44 24 20          	mov    0x20(%esp),%eax
  40363c:	89 54 24 08          	mov    %edx,0x8(%esp)
  403640:	89 04 24             	mov    %eax,(%esp)
  403643:	e8 18 0a 00 00       	call   404060 <___mingw_TLScallback>
  403648:	b8 01 00 00 00       	mov    $0x1,%eax
  40364d:	83 c4 1c             	add    $0x1c,%esp
  403650:	c2 0c 00             	ret    $0xc
  403653:	8d b6 00 00 00 00    	lea    0x0(%esi),%esi
  403659:	8d bc 27 00 00 00 00 	lea    0x0(%edi,%eiz,1),%edi

00403660 <___dyn_tls_init@12>:
  403660:	56                   	push   %esi
  403661:	53                   	push   %ebx
  403662:	83 ec 14             	sub    $0x14,%esp
  403665:	83 3d 48 f0 40 00 02 	cmpl   $0x2,0x40f048
  40366c:	8b 44 24 24          	mov    0x24(%esp),%eax
  403670:	74 0a                	je     40367c <___dyn_tls_init@12+0x1c>
  403672:	c7 05 48 f0 40 00 02 	movl   $0x2,0x40f048
  403679:	00 00 00 
  40367c:	83 f8 02             	cmp    $0x2,%eax
  40367f:	74 12                	je     403693 <___dyn_tls_init@12+0x33>
  403681:	83 f8 01             	cmp    $0x1,%eax
  403684:	74 42                	je     4036c8 <___dyn_tls_init@12+0x68>
  403686:	83 c4 14             	add    $0x14,%esp
  403689:	b8 01 00 00 00       	mov    $0x1,%eax
  40368e:	5b                   	pop    %ebx
  40368f:	5e                   	pop    %esi
  403690:	c2 0c 00             	ret    $0xc
  403693:	be 14 10 41 00       	mov    $0x411014,%esi
  403698:	81 ee 14 10 41 00    	sub    $0x411014,%esi
  40369e:	c1 fe 02             	sar    $0x2,%esi
  4036a1:	85 f6                	test   %esi,%esi
  4036a3:	7e e1                	jle    403686 <___dyn_tls_init@12+0x26>
  4036a5:	31 db                	xor    %ebx,%ebx
  4036a7:	8b 04 9d 14 10 41 00 	mov    0x411014(,%ebx,4),%eax
  4036ae:	85 c0                	test   %eax,%eax
  4036b0:	74 02                	je     4036b4 <___dyn_tls_init@12+0x54>
  4036b2:	ff d0                	call   *%eax
  4036b4:	83 c3 01             	add    $0x1,%ebx
  4036b7:	39 f3                	cmp    %esi,%ebx
  4036b9:	75 ec                	jne    4036a7 <___dyn_tls_init@12+0x47>
  4036bb:	83 c4 14             	add    $0x14,%esp
  4036be:	b8 01 00 00 00       	mov    $0x1,%eax
  4036c3:	5b                   	pop    %ebx
  4036c4:	5e                   	pop    %esi
  4036c5:	c2 0c 00             	ret    $0xc
  4036c8:	8b 44 24 28          	mov    0x28(%esp),%eax
  4036cc:	c7 44 24 04 01 00 00 	movl   $0x1,0x4(%esp)
  4036d3:	00 
  4036d4:	89 44 24 08          	mov    %eax,0x8(%esp)
  4036d8:	8b 44 24 20          	mov    0x20(%esp),%eax
  4036dc:	89 04 24             	mov    %eax,(%esp)
  4036df:	e8 7c 09 00 00       	call   404060 <___mingw_TLScallback>
  4036e4:	eb a0                	jmp    403686 <___dyn_tls_init@12+0x26>
  4036e6:	8d 76 00             	lea    0x0(%esi),%esi
  4036e9:	8d bc 27 00 00 00 00 	lea    0x0(%edi,%eiz,1),%edi

004036f0 <___tlregdtor>:
  4036f0:	31 c0                	xor    %eax,%eax
  4036f2:	c3                   	ret    
  4036f3:	90                   	nop
  4036f4:	90                   	nop
  4036f5:	90                   	nop
  4036f6:	90                   	nop
  4036f7:	90                   	nop
  4036f8:	90                   	nop
  4036f9:	90                   	nop
  4036fa:	90                   	nop
  4036fb:	90                   	nop
  4036fc:	90                   	nop
  4036fd:	90                   	nop
  4036fe:	90                   	nop
  4036ff:	90                   	nop

00403700 <__fpreset>:
  403700:	db e3                	fninit 
  403702:	c3                   	ret    
  403703:	90                   	nop
  403704:	90                   	nop
  403705:	90                   	nop
  403706:	90                   	nop
  403707:	90                   	nop
  403708:	90                   	nop
  403709:	90                   	nop
  40370a:	90                   	nop
  40370b:	90                   	nop
  40370c:	90                   	nop
  40370d:	90                   	nop
  40370e:	90                   	nop
  40370f:	90                   	nop

00403710 <___cpu_features_init>:
  403710:	9c                   	pushf  
  403711:	9c                   	pushf  
  403712:	58                   	pop    %eax
  403713:	89 c2                	mov    %eax,%edx
  403715:	35 00 00 20 00       	xor    $0x200000,%eax
  40371a:	50                   	push   %eax
  40371b:	9d                   	popf   
  40371c:	9c                   	pushf  
  40371d:	58                   	pop    %eax
  40371e:	9d                   	popf   
  40371f:	31 d0                	xor    %edx,%eax
  403721:	a9 00 00 20 00       	test   $0x200000,%eax
  403726:	0f 84 a5 00 00 00    	je     4037d1 <___cpu_features_init+0xc1>
  40372c:	53                   	push   %ebx
  40372d:	31 c0                	xor    %eax,%eax
  40372f:	0f a2                	cpuid  
  403731:	85 c0                	test   %eax,%eax
  403733:	0f 84 97 00 00 00    	je     4037d0 <___cpu_features_init+0xc0>
  403739:	b8 01 00 00 00       	mov    $0x1,%eax
  40373e:	0f a2                	cpuid  
  403740:	f6 c6 01             	test   $0x1,%dh
  403743:	74 07                	je     40374c <___cpu_features_init+0x3c>
  403745:	83 0d 3c f0 40 00 01 	orl    $0x1,0x40f03c
  40374c:	f6 c6 80             	test   $0x80,%dh
  40374f:	74 07                	je     403758 <___cpu_features_init+0x48>
  403751:	83 0d 3c f0 40 00 02 	orl    $0x2,0x40f03c
  403758:	f7 c2 00 00 80 00    	test   $0x800000,%edx
  40375e:	74 07                	je     403767 <___cpu_features_init+0x57>
  403760:	83 0d 3c f0 40 00 04 	orl    $0x4,0x40f03c
  403767:	f7 c2 00 00 00 01    	test   $0x1000000,%edx
  40376d:	74 07                	je     403776 <___cpu_features_init+0x66>
  40376f:	83 0d 3c f0 40 00 08 	orl    $0x8,0x40f03c
  403776:	f7 c2 00 00 00 02    	test   $0x2000000,%edx
  40377c:	74 07                	je     403785 <___cpu_features_init+0x75>
  40377e:	83 0d 3c f0 40 00 10 	orl    $0x10,0x40f03c
  403785:	81 e2 00 00 00 04    	and    $0x4000000,%edx
  40378b:	74 07                	je     403794 <___cpu_features_init+0x84>
  40378d:	83 0d 3c f0 40 00 20 	orl    $0x20,0x40f03c
  403794:	f6 c1 01             	test   $0x1,%cl
  403797:	74 07                	je     4037a0 <___cpu_features_init+0x90>
  403799:	83 0d 3c f0 40 00 40 	orl    $0x40,0x40f03c
  4037a0:	80 e5 20             	and    $0x20,%ch
  4037a3:	75 2e                	jne    4037d3 <___cpu_features_init+0xc3>
  4037a5:	b8 00 00 00 80       	mov    $0x80000000,%eax
  4037aa:	0f a2                	cpuid  
  4037ac:	3d 00 00 00 80       	cmp    $0x80000000,%eax
  4037b1:	76 1d                	jbe    4037d0 <___cpu_features_init+0xc0>
  4037b3:	b8 01 00 00 80       	mov    $0x80000001,%eax
  4037b8:	0f a2                	cpuid  
  4037ba:	85 d2                	test   %edx,%edx
  4037bc:	78 22                	js     4037e0 <___cpu_features_init+0xd0>
  4037be:	81 e2 00 00 00 40    	and    $0x40000000,%edx
  4037c4:	74 0a                	je     4037d0 <___cpu_features_init+0xc0>
  4037c6:	81 0d 3c f0 40 00 00 	orl    $0x200,0x40f03c
  4037cd:	02 00 00 
  4037d0:	5b                   	pop    %ebx
  4037d1:	f3 c3                	repz ret 
  4037d3:	81 0d 3c f0 40 00 80 	orl    $0x80,0x40f03c
  4037da:	00 00 00 
  4037dd:	eb c6                	jmp    4037a5 <___cpu_features_init+0x95>
  4037df:	90                   	nop
  4037e0:	81 0d 3c f0 40 00 00 	orl    $0x100,0x40f03c
  4037e7:	01 00 00 
  4037ea:	eb d2                	jmp    4037be <___cpu_features_init+0xae>
  4037ec:	90                   	nop
  4037ed:	90                   	nop
  4037ee:	90                   	nop
  4037ef:	90                   	nop

004037f0 <__setargv>:
  4037f0:	55                   	push   %ebp
  4037f1:	89 e5                	mov    %esp,%ebp
  4037f3:	57                   	push   %edi
  4037f4:	56                   	push   %esi
  4037f5:	53                   	push   %ebx
  4037f6:	83 ec 4c             	sub    $0x4c,%esp
  4037f9:	f6 05 e4 b1 40 00 02 	testb  $0x2,0x40b1e4
  403800:	0f 84 ba 02 00 00    	je     403ac0 <__setargv+0x2d0>
  403806:	e8 75 6c 00 00       	call   40a480 <_GetCommandLineA@0>
  40380b:	89 65 c0             	mov    %esp,-0x40(%ebp)
  40380e:	89 04 24             	mov    %eax,(%esp)
  403811:	89 c6                	mov    %eax,%esi
  403813:	e8 a8 6b 00 00       	call   40a3c0 <_strlen>
  403818:	8d 44 00 11          	lea    0x11(%eax,%eax,1),%eax
  40381c:	83 e0 f0             	and    $0xfffffff0,%eax
  40381f:	e8 3c 0b 00 00       	call   404360 <___chkstk_ms>
  403824:	29 c4                	sub    %eax,%esp
  403826:	8d 44 24 10          	lea    0x10(%esp),%eax
  40382a:	89 c2                	mov    %eax,%edx
  40382c:	89 45 c4             	mov    %eax,-0x3c(%ebp)
  40382f:	a1 e4 b1 40 00       	mov    0x40b1e4,%eax
  403834:	c7 45 e4 00 00 00 00 	movl   $0x0,-0x1c(%ebp)
  40383b:	c7 45 d0 00 00 00 00 	movl   $0x0,-0x30(%ebp)
  403842:	c7 45 cc 00 00 00 00 	movl   $0x0,-0x34(%ebp)
  403849:	83 e0 40             	and    $0x40,%eax
  40384c:	83 f8 01             	cmp    $0x1,%eax
  40384f:	19 c0                	sbb    %eax,%eax
  403851:	89 45 c8             	mov    %eax,-0x38(%ebp)
  403854:	31 c0                	xor    %eax,%eax
  403856:	81 65 c8 00 c0 ff ff 	andl   $0xffffc000,-0x38(%ebp)
  40385d:	81 45 c8 10 40 00 00 	addl   $0x4010,-0x38(%ebp)
  403864:	89 55 d4             	mov    %edx,-0x2c(%ebp)
  403867:	83 c6 01             	add    $0x1,%esi
  40386a:	0f b6 5e ff          	movzbl -0x1(%esi),%ebx
  40386e:	0f be cb             	movsbl %bl,%ecx
  403871:	85 c9                	test   %ecx,%ecx
  403873:	74 7b                	je     4038f0 <__setargv+0x100>
  403875:	80 fb 3f             	cmp    $0x3f,%bl
  403878:	0f 84 13 01 00 00    	je     403991 <__setargv+0x1a1>
  40387e:	0f 8f ec 00 00 00    	jg     403970 <__setargv+0x180>
  403884:	80 fb 27             	cmp    $0x27,%bl
  403887:	0f 84 e3 01 00 00    	je     403a70 <__setargv+0x280>
  40388d:	80 fb 2a             	cmp    $0x2a,%bl
  403890:	0f 84 fb 00 00 00    	je     403991 <__setargv+0x1a1>
  403896:	80 fb 22             	cmp    $0x22,%bl
  403899:	0f 85 36 01 00 00    	jne    4039d5 <__setargv+0x1e5>
  40389f:	89 c3                	mov    %eax,%ebx
  4038a1:	d1 fb                	sar    %ebx
  4038a3:	0f 84 3e 02 00 00    	je     403ae7 <__setargv+0x2f7>
  4038a9:	8b 55 d4             	mov    -0x2c(%ebp),%edx
  4038ac:	01 d3                	add    %edx,%ebx
  4038ae:	66 90                	xchg   %ax,%ax
  4038b0:	83 c2 01             	add    $0x1,%edx
  4038b3:	39 da                	cmp    %ebx,%edx
  4038b5:	c6 42 ff 5c          	movb   $0x5c,-0x1(%edx)
  4038b9:	75 f5                	jne    4038b0 <__setargv+0xc0>
  4038bb:	a8 01                	test   $0x1,%al
  4038bd:	0f 85 93 00 00 00    	jne    403956 <__setargv+0x166>
  4038c3:	83 7d d0 27          	cmpl   $0x27,-0x30(%ebp)
  4038c7:	0f 84 89 00 00 00    	je     403956 <__setargv+0x166>
  4038cd:	83 c6 01             	add    $0x1,%esi
  4038d0:	31 c0                	xor    %eax,%eax
  4038d2:	89 5d d4             	mov    %ebx,-0x2c(%ebp)
  4038d5:	0f b6 5e ff          	movzbl -0x1(%esi),%ebx
  4038d9:	31 4d d0             	xor    %ecx,-0x30(%ebp)
  4038dc:	c7 45 cc 01 00 00 00 	movl   $0x1,-0x34(%ebp)
  4038e3:	0f be cb             	movsbl %bl,%ecx
  4038e6:	85 c9                	test   %ecx,%ecx
  4038e8:	75 8b                	jne    403875 <__setargv+0x85>
  4038ea:	8d b6 00 00 00 00    	lea    0x0(%esi),%esi
  4038f0:	85 c0                	test   %eax,%eax
  4038f2:	8b 55 d4             	mov    -0x2c(%ebp),%edx
  4038f5:	0f 84 f4 01 00 00    	je     403aef <__setargv+0x2ff>
  4038fb:	01 d0                	add    %edx,%eax
  4038fd:	8d 76 00             	lea    0x0(%esi),%esi
  403900:	83 c2 01             	add    $0x1,%edx
  403903:	39 c2                	cmp    %eax,%edx
  403905:	c6 42 ff 5c          	movb   $0x5c,-0x1(%edx)
  403909:	75 f5                	jne    403900 <__setargv+0x110>
  40390b:	8b 55 cc             	mov    -0x34(%ebp),%edx
  40390e:	85 d2                	test   %edx,%edx
  403910:	75 05                	jne    403917 <__setargv+0x127>
  403912:	39 45 c4             	cmp    %eax,-0x3c(%ebp)
  403915:	73 24                	jae    40393b <__setargv+0x14b>
  403917:	c6 00 00             	movb   $0x0,(%eax)
  40391a:	8d 45 d8             	lea    -0x28(%ebp),%eax
  40391d:	89 44 24 0c          	mov    %eax,0xc(%esp)
  403921:	c7 44 24 08 00 00 00 	movl   $0x0,0x8(%esp)
  403928:	00 
  403929:	8b 45 c8             	mov    -0x38(%ebp),%eax
  40392c:	89 44 24 04          	mov    %eax,0x4(%esp)
  403930:	8b 45 c4             	mov    -0x3c(%ebp),%eax
  403933:	89 04 24             	mov    %eax,(%esp)
  403936:	e8 55 16 00 00       	call   404f90 <___mingw_glob>
  40393b:	8b 45 dc             	mov    -0x24(%ebp),%eax
  40393e:	a3 04 f0 40 00       	mov    %eax,0x40f004
  403943:	8b 45 e0             	mov    -0x20(%ebp),%eax
  403946:	a3 00 f0 40 00       	mov    %eax,0x40f000
  40394b:	8b 65 c0             	mov    -0x40(%ebp),%esp
  40394e:	8d 65 f4             	lea    -0xc(%ebp),%esp
  403951:	5b                   	pop    %ebx
  403952:	5e                   	pop    %esi
  403953:	5f                   	pop    %edi
  403954:	5d                   	pop    %ebp
  403955:	c3                   	ret    
  403956:	8d 43 01             	lea    0x1(%ebx),%eax
  403959:	89 45 d4             	mov    %eax,-0x2c(%ebp)
  40395c:	31 c0                	xor    %eax,%eax
  40395e:	c6 03 22             	movb   $0x22,(%ebx)
  403961:	c7 45 cc 01 00 00 00 	movl   $0x1,-0x34(%ebp)
  403968:	e9 fa fe ff ff       	jmp    403867 <__setargv+0x77>
  40396d:	8d 76 00             	lea    0x0(%esi),%esi
  403970:	80 fb 5c             	cmp    $0x5c,%bl
  403973:	0f 84 3f 01 00 00    	je     403ab8 <__setargv+0x2c8>
  403979:	80 fb 7f             	cmp    $0x7f,%bl
  40397c:	74 13                	je     403991 <__setargv+0x1a1>
  40397e:	80 fb 5b             	cmp    $0x5b,%bl
  403981:	75 52                	jne    4039d5 <__setargv+0x1e5>
  403983:	f6 05 e4 b1 40 00 20 	testb  $0x20,0x40b1e4
  40398a:	bf 01 00 00 00       	mov    $0x1,%edi
  40398f:	74 0a                	je     40399b <__setargv+0x1ab>
  403991:	8b 55 d0             	mov    -0x30(%ebp),%edx
  403994:	85 d2                	test   %edx,%edx
  403996:	0f 95 c2             	setne  %dl
  403999:	89 d7                	mov    %edx,%edi
  40399b:	85 c0                	test   %eax,%eax
  40399d:	0f 84 34 01 00 00    	je     403ad7 <__setargv+0x2e7>
  4039a3:	8b 55 d4             	mov    -0x2c(%ebp),%edx
  4039a6:	01 d0                	add    %edx,%eax
  4039a8:	83 c2 01             	add    $0x1,%edx
  4039ab:	39 c2                	cmp    %eax,%edx
  4039ad:	c6 42 ff 5c          	movb   $0x5c,-0x1(%edx)
  4039b1:	75 f5                	jne    4039a8 <__setargv+0x1b8>
  4039b3:	89 fa                	mov    %edi,%edx
  4039b5:	84 d2                	test   %dl,%dl
  4039b7:	0f 85 a3 00 00 00    	jne    403a60 <__setargv+0x270>
  4039bd:	83 f9 7f             	cmp    $0x7f,%ecx
  4039c0:	0f 84 9a 00 00 00    	je     403a60 <__setargv+0x270>
  4039c6:	8d 48 01             	lea    0x1(%eax),%ecx
  4039c9:	88 18                	mov    %bl,(%eax)
  4039cb:	31 c0                	xor    %eax,%eax
  4039cd:	89 4d d4             	mov    %ecx,-0x2c(%ebp)
  4039d0:	e9 92 fe ff ff       	jmp    403867 <__setargv+0x77>
  4039d5:	8b 7d d4             	mov    -0x2c(%ebp),%edi
  4039d8:	8b 55 d4             	mov    -0x2c(%ebp),%edx
  4039db:	01 c7                	add    %eax,%edi
  4039dd:	85 c0                	test   %eax,%eax
  4039df:	0f 84 fa 00 00 00    	je     403adf <__setargv+0x2ef>
  4039e5:	83 c2 01             	add    $0x1,%edx
  4039e8:	39 fa                	cmp    %edi,%edx
  4039ea:	c6 42 ff 5c          	movb   $0x5c,-0x1(%edx)
  4039ee:	75 f5                	jne    4039e5 <__setargv+0x1f5>
  4039f0:	8b 45 d0             	mov    -0x30(%ebp),%eax
  4039f3:	85 c0                	test   %eax,%eax
  4039f5:	75 59                	jne    403a50 <__setargv+0x260>
  4039f7:	89 0c 24             	mov    %ecx,(%esp)
  4039fa:	e8 c9 69 00 00       	call   40a3c8 <_isspace>
  4039ff:	85 c0                	test   %eax,%eax
  403a01:	74 4d                	je     403a50 <__setargv+0x260>
  403a03:	8b 4d cc             	mov    -0x34(%ebp),%ecx
  403a06:	85 c9                	test   %ecx,%ecx
  403a08:	75 09                	jne    403a13 <__setargv+0x223>
  403a0a:	39 7d c4             	cmp    %edi,-0x3c(%ebp)
  403a0d:	0f 83 ba 00 00 00    	jae    403acd <__setargv+0x2dd>
  403a13:	8d 45 d8             	lea    -0x28(%ebp),%eax
  403a16:	c6 07 00             	movb   $0x0,(%edi)
  403a19:	89 44 24 0c          	mov    %eax,0xc(%esp)
  403a1d:	c7 44 24 08 00 00 00 	movl   $0x0,0x8(%esp)
  403a24:	00 
  403a25:	8b 45 c8             	mov    -0x38(%ebp),%eax
  403a28:	89 44 24 04          	mov    %eax,0x4(%esp)
  403a2c:	8b 7d c4             	mov    -0x3c(%ebp),%edi
  403a2f:	89 3c 24             	mov    %edi,(%esp)
  403a32:	e8 59 15 00 00       	call   404f90 <___mingw_glob>
  403a37:	31 c0                	xor    %eax,%eax
  403a39:	83 4d c8 01          	orl    $0x1,-0x38(%ebp)
  403a3d:	89 7d d4             	mov    %edi,-0x2c(%ebp)
  403a40:	c7 45 cc 00 00 00 00 	movl   $0x0,-0x34(%ebp)
  403a47:	e9 1b fe ff ff       	jmp    403867 <__setargv+0x77>
  403a4c:	8d 74 26 00          	lea    0x0(%esi,%eiz,1),%esi
  403a50:	8d 47 01             	lea    0x1(%edi),%eax
  403a53:	89 45 d4             	mov    %eax,-0x2c(%ebp)
  403a56:	31 c0                	xor    %eax,%eax
  403a58:	88 1f                	mov    %bl,(%edi)
  403a5a:	e9 08 fe ff ff       	jmp    403867 <__setargv+0x77>
  403a5f:	90                   	nop
  403a60:	c6 00 7f             	movb   $0x7f,(%eax)
  403a63:	83 c0 01             	add    $0x1,%eax
  403a66:	e9 5b ff ff ff       	jmp    4039c6 <__setargv+0x1d6>
  403a6b:	90                   	nop
  403a6c:	8d 74 26 00          	lea    0x0(%esi,%eiz,1),%esi
  403a70:	f6 05 e4 b1 40 00 10 	testb  $0x10,0x40b1e4
  403a77:	0f 84 58 ff ff ff    	je     4039d5 <__setargv+0x1e5>
  403a7d:	89 c3                	mov    %eax,%ebx
  403a7f:	d1 fb                	sar    %ebx
  403a81:	74 73                	je     403af6 <__setargv+0x306>
  403a83:	8b 55 d4             	mov    -0x2c(%ebp),%edx
  403a86:	01 d3                	add    %edx,%ebx
  403a88:	83 c2 01             	add    $0x1,%edx
  403a8b:	39 da                	cmp    %ebx,%edx
  403a8d:	c6 42 ff 5c          	movb   $0x5c,-0x1(%edx)
  403a91:	75 f5                	jne    403a88 <__setargv+0x298>
  403a93:	a8 01                	test   $0x1,%al
  403a95:	75 0a                	jne    403aa1 <__setargv+0x2b1>
  403a97:	83 7d d0 22          	cmpl   $0x22,-0x30(%ebp)
  403a9b:	0f 85 2c fe ff ff    	jne    4038cd <__setargv+0xdd>
  403aa1:	8d 43 01             	lea    0x1(%ebx),%eax
  403aa4:	89 45 d4             	mov    %eax,-0x2c(%ebp)
  403aa7:	31 c0                	xor    %eax,%eax
  403aa9:	c6 03 27             	movb   $0x27,(%ebx)
  403aac:	c7 45 cc 01 00 00 00 	movl   $0x1,-0x34(%ebp)
  403ab3:	e9 af fd ff ff       	jmp    403867 <__setargv+0x77>
  403ab8:	83 c0 01             	add    $0x1,%eax
  403abb:	e9 a7 fd ff ff       	jmp    403867 <__setargv+0x77>
  403ac0:	e8 9b d7 ff ff       	call   401260 <__mingw32_init_mainargs>
  403ac5:	8d 65 f4             	lea    -0xc(%ebp),%esp
  403ac8:	5b                   	pop    %ebx
  403ac9:	5e                   	pop    %esi
  403aca:	5f                   	pop    %edi
  403acb:	5d                   	pop    %ebp
  403acc:	c3                   	ret    
  403acd:	89 7d d4             	mov    %edi,-0x2c(%ebp)
  403ad0:	31 c0                	xor    %eax,%eax
  403ad2:	e9 90 fd ff ff       	jmp    403867 <__setargv+0x77>
  403ad7:	8b 45 d4             	mov    -0x2c(%ebp),%eax
  403ada:	e9 d4 fe ff ff       	jmp    4039b3 <__setargv+0x1c3>
  403adf:	8b 7d d4             	mov    -0x2c(%ebp),%edi
  403ae2:	e9 09 ff ff ff       	jmp    4039f0 <__setargv+0x200>
  403ae7:	8b 5d d4             	mov    -0x2c(%ebp),%ebx
  403aea:	e9 cc fd ff ff       	jmp    4038bb <__setargv+0xcb>
  403aef:	89 d0                	mov    %edx,%eax
  403af1:	e9 15 fe ff ff       	jmp    40390b <__setargv+0x11b>
  403af6:	8b 5d d4             	mov    -0x2c(%ebp),%ebx
  403af9:	eb 98                	jmp    403a93 <__setargv+0x2a3>
  403afb:	90                   	nop
  403afc:	90                   	nop
  403afd:	90                   	nop
  403afe:	90                   	nop
  403aff:	90                   	nop

00403b00 <___report_error>:
  403b00:	56                   	push   %esi
  403b01:	53                   	push   %ebx
  403b02:	83 ec 14             	sub    $0x14,%esp
  403b05:	a1 d0 01 41 00       	mov    0x4101d0,%eax
  403b0a:	c7 44 24 08 17 00 00 	movl   $0x17,0x8(%esp)
  403b11:	00 
  403b12:	8d 74 24 24          	lea    0x24(%esp),%esi
  403b16:	c7 44 24 04 01 00 00 	movl   $0x1,0x4(%esp)
  403b1d:	00 
  403b1e:	c7 04 24 98 c0 40 00 	movl   $0x40c098,(%esp)
  403b25:	8d 58 40             	lea    0x40(%eax),%ebx
  403b28:	89 5c 24 0c          	mov    %ebx,0xc(%esp)
  403b2c:	e8 9f 68 00 00       	call   40a3d0 <_fwrite>
  403b31:	8b 44 24 20          	mov    0x20(%esp),%eax
  403b35:	89 74 24 08          	mov    %esi,0x8(%esp)
  403b39:	89 1c 24             	mov    %ebx,(%esp)
  403b3c:	89 44 24 04          	mov    %eax,0x4(%esp)
  403b40:	e8 93 68 00 00       	call   40a3d8 <_vfprintf>
  403b45:	e8 96 68 00 00       	call   40a3e0 <_abort>
  403b4a:	8d b6 00 00 00 00    	lea    0x0(%esi),%esi

00403b50 <___write_memory.part.0>:
  403b50:	55                   	push   %ebp
  403b51:	89 e5                	mov    %esp,%ebp
  403b53:	57                   	push   %edi
  403b54:	89 cf                	mov    %ecx,%edi
  403b56:	56                   	push   %esi
  403b57:	89 d6                	mov    %edx,%esi
  403b59:	53                   	push   %ebx
  403b5a:	89 c3                	mov    %eax,%ebx
  403b5c:	83 ec 4c             	sub    $0x4c,%esp
  403b5f:	8d 45 cc             	lea    -0x34(%ebp),%eax
  403b62:	c7 44 24 08 1c 00 00 	movl   $0x1c,0x8(%esp)
  403b69:	00 
  403b6a:	89 44 24 04          	mov    %eax,0x4(%esp)
  403b6e:	89 1c 24             	mov    %ebx,(%esp)
  403b71:	e8 12 69 00 00       	call   40a488 <_VirtualQuery@12>
  403b76:	83 ec 0c             	sub    $0xc,%esp
  403b79:	85 c0                	test   %eax,%eax
  403b7b:	0f 84 9a 00 00 00    	je     403c1b <___write_memory.part.0+0xcb>
  403b81:	8b 45 e0             	mov    -0x20(%ebp),%eax
  403b84:	83 f8 04             	cmp    $0x4,%eax
  403b87:	75 18                	jne    403ba1 <___write_memory.part.0+0x51>
  403b89:	89 7c 24 08          	mov    %edi,0x8(%esp)
  403b8d:	89 74 24 04          	mov    %esi,0x4(%esp)
  403b91:	89 1c 24             	mov    %ebx,(%esp)
  403b94:	e8 17 68 00 00       	call   40a3b0 <_memcpy>
  403b99:	8d 65 f4             	lea    -0xc(%ebp),%esp
  403b9c:	5b                   	pop    %ebx
  403b9d:	5e                   	pop    %esi
  403b9e:	5f                   	pop    %edi
  403b9f:	5d                   	pop    %ebp
  403ba0:	c3                   	ret    
  403ba1:	83 f8 40             	cmp    $0x40,%eax
  403ba4:	74 e3                	je     403b89 <___write_memory.part.0+0x39>
  403ba6:	8b 45 d8             	mov    -0x28(%ebp),%eax
  403ba9:	8d 55 c8             	lea    -0x38(%ebp),%edx
  403bac:	89 54 24 0c          	mov    %edx,0xc(%esp)
  403bb0:	c7 44 24 08 40 00 00 	movl   $0x40,0x8(%esp)
  403bb7:	00 
  403bb8:	89 55 c4             	mov    %edx,-0x3c(%ebp)
  403bbb:	89 44 24 04          	mov    %eax,0x4(%esp)
  403bbf:	8b 45 cc             	mov    -0x34(%ebp),%eax
  403bc2:	89 04 24             	mov    %eax,(%esp)
  403bc5:	e8 c6 68 00 00       	call   40a490 <_VirtualProtect@16>
  403bca:	8b 4d e0             	mov    -0x20(%ebp),%ecx
  403bcd:	89 4d c0             	mov    %ecx,-0x40(%ebp)
  403bd0:	83 ec 10             	sub    $0x10,%esp
  403bd3:	89 7c 24 08          	mov    %edi,0x8(%esp)
  403bd7:	89 74 24 04          	mov    %esi,0x4(%esp)
  403bdb:	89 1c 24             	mov    %ebx,(%esp)
  403bde:	e8 cd 67 00 00       	call   40a3b0 <_memcpy>
  403be3:	8b 4d c0             	mov    -0x40(%ebp),%ecx
  403be6:	83 f9 04             	cmp    $0x4,%ecx
  403be9:	74 ae                	je     403b99 <___write_memory.part.0+0x49>
  403beb:	83 f9 40             	cmp    $0x40,%ecx
  403bee:	74 a9                	je     403b99 <___write_memory.part.0+0x49>
  403bf0:	8b 45 c8             	mov    -0x38(%ebp),%eax
  403bf3:	8b 55 c4             	mov    -0x3c(%ebp),%edx
  403bf6:	89 44 24 08          	mov    %eax,0x8(%esp)
  403bfa:	8b 45 d8             	mov    -0x28(%ebp),%eax
  403bfd:	89 54 24 0c          	mov    %edx,0xc(%esp)
  403c01:	89 44 24 04          	mov    %eax,0x4(%esp)
  403c05:	8b 45 cc             	mov    -0x34(%ebp),%eax
  403c08:	89 04 24             	mov    %eax,(%esp)
  403c0b:	e8 80 68 00 00       	call   40a490 <_VirtualProtect@16>
  403c10:	83 ec 10             	sub    $0x10,%esp
  403c13:	8d 65 f4             	lea    -0xc(%ebp),%esp
  403c16:	5b                   	pop    %ebx
  403c17:	5e                   	pop    %esi
  403c18:	5f                   	pop    %edi
  403c19:	5d                   	pop    %ebp
  403c1a:	c3                   	ret    
  403c1b:	89 5c 24 08          	mov    %ebx,0x8(%esp)
  403c1f:	c7 44 24 04 1c 00 00 	movl   $0x1c,0x4(%esp)
  403c26:	00 
  403c27:	c7 04 24 b0 c0 40 00 	movl   $0x40c0b0,(%esp)
  403c2e:	e8 cd fe ff ff       	call   403b00 <___report_error>
  403c33:	8d b6 00 00 00 00    	lea    0x0(%esi),%esi
  403c39:	8d bc 27 00 00 00 00 	lea    0x0(%edi,%eiz,1),%edi

00403c40 <__pei386_runtime_relocator>:
  403c40:	a1 40 f0 40 00       	mov    0x40f040,%eax
  403c45:	85 c0                	test   %eax,%eax
  403c47:	74 07                	je     403c50 <__pei386_runtime_relocator+0x10>
  403c49:	c3                   	ret    
  403c4a:	8d b6 00 00 00 00    	lea    0x0(%esi),%esi
  403c50:	b8 60 c7 40 00       	mov    $0x40c760,%eax
  403c55:	2d 60 c7 40 00       	sub    $0x40c760,%eax
  403c5a:	83 f8 07             	cmp    $0x7,%eax
  403c5d:	c7 05 40 f0 40 00 01 	movl   $0x1,0x40f040
  403c64:	00 00 00 
  403c67:	7e e0                	jle    403c49 <__pei386_runtime_relocator+0x9>
  403c69:	57                   	push   %edi
  403c6a:	56                   	push   %esi
  403c6b:	53                   	push   %ebx
  403c6c:	83 ec 20             	sub    $0x20,%esp
  403c6f:	83 f8 0b             	cmp    $0xb,%eax
  403c72:	0f 8e de 00 00 00    	jle    403d56 <__pei386_runtime_relocator+0x116>
  403c78:	8b 35 60 c7 40 00    	mov    0x40c760,%esi
  403c7e:	85 f6                	test   %esi,%esi
  403c80:	0f 85 8a 00 00 00    	jne    403d10 <__pei386_runtime_relocator+0xd0>
  403c86:	8b 1d 64 c7 40 00    	mov    0x40c764,%ebx
  403c8c:	85 db                	test   %ebx,%ebx
  403c8e:	0f 85 7c 00 00 00    	jne    403d10 <__pei386_runtime_relocator+0xd0>
  403c94:	8b 0d 68 c7 40 00    	mov    0x40c768,%ecx
  403c9a:	bb 6c c7 40 00       	mov    $0x40c76c,%ebx
  403c9f:	85 c9                	test   %ecx,%ecx
  403ca1:	0f 84 b4 00 00 00    	je     403d5b <__pei386_runtime_relocator+0x11b>
  403ca7:	bb 60 c7 40 00       	mov    $0x40c760,%ebx
  403cac:	8b 43 08             	mov    0x8(%ebx),%eax
  403caf:	83 f8 01             	cmp    $0x1,%eax
  403cb2:	0f 85 49 01 00 00    	jne    403e01 <__pei386_runtime_relocator+0x1c1>
  403cb8:	83 c3 0c             	add    $0xc,%ebx
  403cbb:	81 fb 60 c7 40 00    	cmp    $0x40c760,%ebx
  403cc1:	0f 83 88 00 00 00    	jae    403d4f <__pei386_runtime_relocator+0x10f>
  403cc7:	0f b6 53 08          	movzbl 0x8(%ebx),%edx
  403ccb:	8b 73 04             	mov    0x4(%ebx),%esi
  403cce:	8b 0b                	mov    (%ebx),%ecx
  403cd0:	83 fa 10             	cmp    $0x10,%edx
  403cd3:	8d 86 00 00 40 00    	lea    0x400000(%esi),%eax
  403cd9:	8b b9 00 00 40 00    	mov    0x400000(%ecx),%edi
  403cdf:	0f 84 8b 00 00 00    	je     403d70 <__pei386_runtime_relocator+0x130>
  403ce5:	83 fa 20             	cmp    $0x20,%edx
  403ce8:	0f 84 f2 00 00 00    	je     403de0 <__pei386_runtime_relocator+0x1a0>
  403cee:	83 fa 08             	cmp    $0x8,%edx
  403cf1:	0f 84 af 00 00 00    	je     403da6 <__pei386_runtime_relocator+0x166>
  403cf7:	89 54 24 04          	mov    %edx,0x4(%esp)
  403cfb:	c7 04 24 18 c1 40 00 	movl   $0x40c118,(%esp)
  403d02:	c7 44 24 1c 00 00 00 	movl   $0x0,0x1c(%esp)
  403d09:	00 
  403d0a:	e8 f1 fd ff ff       	call   403b00 <___report_error>
  403d0f:	90                   	nop
  403d10:	bb 60 c7 40 00       	mov    $0x40c760,%ebx
  403d15:	81 fb 60 c7 40 00    	cmp    $0x40c760,%ebx
  403d1b:	73 32                	jae    403d4f <__pei386_runtime_relocator+0x10f>
  403d1d:	8d 76 00             	lea    0x0(%esi),%esi
  403d20:	8b 53 04             	mov    0x4(%ebx),%edx
  403d23:	b9 04 00 00 00       	mov    $0x4,%ecx
  403d28:	83 c3 08             	add    $0x8,%ebx
  403d2b:	8d 82 00 00 40 00    	lea    0x400000(%edx),%eax
  403d31:	8b 92 00 00 40 00    	mov    0x400000(%edx),%edx
  403d37:	03 53 f8             	add    -0x8(%ebx),%edx
  403d3a:	89 54 24 1c          	mov    %edx,0x1c(%esp)
  403d3e:	8d 54 24 1c          	lea    0x1c(%esp),%edx
  403d42:	e8 09 fe ff ff       	call   403b50 <___write_memory.part.0>
  403d47:	81 fb 60 c7 40 00    	cmp    $0x40c760,%ebx
  403d4d:	72 d1                	jb     403d20 <__pei386_runtime_relocator+0xe0>
  403d4f:	83 c4 20             	add    $0x20,%esp
  403d52:	5b                   	pop    %ebx
  403d53:	5e                   	pop    %esi
  403d54:	5f                   	pop    %edi
  403d55:	c3                   	ret    
  403d56:	bb 60 c7 40 00       	mov    $0x40c760,%ebx
  403d5b:	8b 13                	mov    (%ebx),%edx
  403d5d:	85 d2                	test   %edx,%edx
  403d5f:	75 b4                	jne    403d15 <__pei386_runtime_relocator+0xd5>
  403d61:	8b 43 04             	mov    0x4(%ebx),%eax
  403d64:	85 c0                	test   %eax,%eax
  403d66:	0f 84 40 ff ff ff    	je     403cac <__pei386_runtime_relocator+0x6c>
  403d6c:	eb a7                	jmp    403d15 <__pei386_runtime_relocator+0xd5>
  403d6e:	66 90                	xchg   %ax,%ax
  403d70:	0f b7 b6 00 00 40 00 	movzwl 0x400000(%esi),%esi
  403d77:	66 85 f6             	test   %si,%si
  403d7a:	0f b7 d6             	movzwl %si,%edx
  403d7d:	79 06                	jns    403d85 <__pei386_runtime_relocator+0x145>
  403d7f:	81 ca 00 00 ff ff    	or     $0xffff0000,%edx
  403d85:	29 ca                	sub    %ecx,%edx
  403d87:	b9 02 00 00 00       	mov    $0x2,%ecx
  403d8c:	81 ea 00 00 40 00    	sub    $0x400000,%edx
  403d92:	01 fa                	add    %edi,%edx
  403d94:	89 54 24 1c          	mov    %edx,0x1c(%esp)
  403d98:	8d 54 24 1c          	lea    0x1c(%esp),%edx
  403d9c:	e8 af fd ff ff       	call   403b50 <___write_memory.part.0>
  403da1:	e9 12 ff ff ff       	jmp    403cb8 <__pei386_runtime_relocator+0x78>
  403da6:	0f b6 10             	movzbl (%eax),%edx
  403da9:	84 d2                	test   %dl,%dl
  403dab:	0f b6 f2             	movzbl %dl,%esi
  403dae:	79 06                	jns    403db6 <__pei386_runtime_relocator+0x176>
  403db0:	81 ce 00 ff ff ff    	or     $0xffffff00,%esi
  403db6:	81 ee 00 00 40 00    	sub    $0x400000,%esi
  403dbc:	89 f2                	mov    %esi,%edx
  403dbe:	29 ca                	sub    %ecx,%edx
  403dc0:	b9 01 00 00 00       	mov    $0x1,%ecx
  403dc5:	01 fa                	add    %edi,%edx
  403dc7:	89 54 24 1c          	mov    %edx,0x1c(%esp)
  403dcb:	8d 54 24 1c          	lea    0x1c(%esp),%edx
  403dcf:	e8 7c fd ff ff       	call   403b50 <___write_memory.part.0>
  403dd4:	e9 df fe ff ff       	jmp    403cb8 <__pei386_runtime_relocator+0x78>
  403dd9:	8d b4 26 00 00 00 00 	lea    0x0(%esi,%eiz,1),%esi
  403de0:	81 c1 00 00 40 00    	add    $0x400000,%ecx
  403de6:	29 cf                	sub    %ecx,%edi
  403de8:	b9 04 00 00 00       	mov    $0x4,%ecx
  403ded:	03 38                	add    (%eax),%edi
  403def:	8d 54 24 1c          	lea    0x1c(%esp),%edx
  403df3:	89 7c 24 1c          	mov    %edi,0x1c(%esp)
  403df7:	e8 54 fd ff ff       	call   403b50 <___write_memory.part.0>
  403dfc:	e9 b7 fe ff ff       	jmp    403cb8 <__pei386_runtime_relocator+0x78>
  403e01:	89 44 24 04          	mov    %eax,0x4(%esp)
  403e05:	c7 04 24 e4 c0 40 00 	movl   $0x40c0e4,(%esp)
  403e0c:	e8 ef fc ff ff       	call   403b00 <___report_error>
  403e11:	90                   	nop
  403e12:	90                   	nop
  403e13:	90                   	nop
  403e14:	90                   	nop
  403e15:	90                   	nop
  403e16:	90                   	nop
  403e17:	90                   	nop
  403e18:	90                   	nop
  403e19:	90                   	nop
  403e1a:	90                   	nop
  403e1b:	90                   	nop
  403e1c:	90                   	nop
  403e1d:	90                   	nop
  403e1e:	90                   	nop
  403e1f:	90                   	nop

00403e20 <___do_global_dtors>:
  403e20:	a1 e8 b1 40 00       	mov    0x40b1e8,%eax
  403e25:	8b 00                	mov    (%eax),%eax
  403e27:	85 c0                	test   %eax,%eax
  403e29:	74 1f                	je     403e4a <___do_global_dtors+0x2a>
  403e2b:	83 ec 0c             	sub    $0xc,%esp
  403e2e:	66 90                	xchg   %ax,%ax
  403e30:	ff d0                	call   *%eax
  403e32:	a1 e8 b1 40 00       	mov    0x40b1e8,%eax
  403e37:	8d 50 04             	lea    0x4(%eax),%edx
  403e3a:	8b 40 04             	mov    0x4(%eax),%eax
  403e3d:	89 15 e8 b1 40 00    	mov    %edx,0x40b1e8
  403e43:	85 c0                	test   %eax,%eax
  403e45:	75 e9                	jne    403e30 <___do_global_dtors+0x10>
  403e47:	83 c4 0c             	add    $0xc,%esp
  403e4a:	f3 c3                	repz ret 
  403e4c:	8d 74 26 00          	lea    0x0(%esi,%eiz,1),%esi

00403e50 <___do_global_ctors>:
  403e50:	53                   	push   %ebx
  403e51:	83 ec 18             	sub    $0x18,%esp
  403e54:	8b 1d 40 a5 40 00    	mov    0x40a540,%ebx
  403e5a:	83 fb ff             	cmp    $0xffffffff,%ebx
  403e5d:	74 24                	je     403e83 <___do_global_ctors+0x33>
  403e5f:	85 db                	test   %ebx,%ebx
  403e61:	74 0f                	je     403e72 <___do_global_ctors+0x22>
  403e63:	ff 14 9d 40 a5 40 00 	call   *0x40a540(,%ebx,4)
  403e6a:	83 eb 01             	sub    $0x1,%ebx
  403e6d:	8d 76 00             	lea    0x0(%esi),%esi
  403e70:	75 f1                	jne    403e63 <___do_global_ctors+0x13>
  403e72:	c7 04 24 20 3e 40 00 	movl   $0x403e20,(%esp)
  403e79:	e8 62 d4 ff ff       	call   4012e0 <_atexit>
  403e7e:	83 c4 18             	add    $0x18,%esp
  403e81:	5b                   	pop    %ebx
  403e82:	c3                   	ret    
  403e83:	31 db                	xor    %ebx,%ebx
  403e85:	eb 02                	jmp    403e89 <___do_global_ctors+0x39>
  403e87:	89 c3                	mov    %eax,%ebx
  403e89:	8d 43 01             	lea    0x1(%ebx),%eax
  403e8c:	8b 14 85 40 a5 40 00 	mov    0x40a540(,%eax,4),%edx
  403e93:	85 d2                	test   %edx,%edx
  403e95:	75 f0                	jne    403e87 <___do_global_ctors+0x37>
  403e97:	eb c6                	jmp    403e5f <___do_global_ctors+0xf>
  403e99:	8d b4 26 00 00 00 00 	lea    0x0(%esi,%eiz,1),%esi

00403ea0 <___main>:
  403ea0:	8b 0d 44 f0 40 00    	mov    0x40f044,%ecx
  403ea6:	85 c9                	test   %ecx,%ecx
  403ea8:	74 06                	je     403eb0 <___main+0x10>
  403eaa:	f3 c3                	repz ret 
  403eac:	8d 74 26 00          	lea    0x0(%esi,%eiz,1),%esi
  403eb0:	c7 05 44 f0 40 00 01 	movl   $0x1,0x40f044
  403eb7:	00 00 00 
  403eba:	eb 94                	jmp    403e50 <___do_global_ctors>
  403ebc:	90                   	nop
  403ebd:	90                   	nop
  403ebe:	90                   	nop
  403ebf:	90                   	nop

00403ec0 <___mingwthr_run_key_dtors.part.0>:
  403ec0:	55                   	push   %ebp
  403ec1:	89 e5                	mov    %esp,%ebp
  403ec3:	56                   	push   %esi
  403ec4:	53                   	push   %ebx
  403ec5:	83 ec 10             	sub    $0x10,%esp
  403ec8:	c7 04 24 54 f0 40 00 	movl   $0x40f054,(%esp)
  403ecf:	e8 c4 65 00 00       	call   40a498 <_EnterCriticalSection@4>
  403ed4:	8b 1d 4c f0 40 00    	mov    0x40f04c,%ebx
  403eda:	83 ec 04             	sub    $0x4,%esp
  403edd:	85 db                	test   %ebx,%ebx
  403edf:	74 2b                	je     403f0c <___mingwthr_run_key_dtors.part.0+0x4c>
  403ee1:	8b 03                	mov    (%ebx),%eax
  403ee3:	89 04 24             	mov    %eax,(%esp)
  403ee6:	e8 b5 65 00 00       	call   40a4a0 <_TlsGetValue@4>
  403eeb:	83 ec 04             	sub    $0x4,%esp
  403eee:	89 c6                	mov    %eax,%esi
  403ef0:	e8 b3 65 00 00       	call   40a4a8 <_GetLastError@0>
  403ef5:	85 c0                	test   %eax,%eax
  403ef7:	75 0c                	jne    403f05 <___mingwthr_run_key_dtors.part.0+0x45>
  403ef9:	85 f6                	test   %esi,%esi
  403efb:	74 08                	je     403f05 <___mingwthr_run_key_dtors.part.0+0x45>
  403efd:	8b 43 04             	mov    0x4(%ebx),%eax
  403f00:	89 34 24             	mov    %esi,(%esp)
  403f03:	ff d0                	call   *%eax
  403f05:	8b 5b 08             	mov    0x8(%ebx),%ebx
  403f08:	85 db                	test   %ebx,%ebx
  403f0a:	75 d5                	jne    403ee1 <___mingwthr_run_key_dtors.part.0+0x21>
  403f0c:	c7 04 24 54 f0 40 00 	movl   $0x40f054,(%esp)
  403f13:	e8 98 65 00 00       	call   40a4b0 <_LeaveCriticalSection@4>
  403f18:	83 ec 04             	sub    $0x4,%esp
  403f1b:	8d 65 f8             	lea    -0x8(%ebp),%esp
  403f1e:	5b                   	pop    %ebx
  403f1f:	5e                   	pop    %esi
  403f20:	5d                   	pop    %ebp
  403f21:	c3                   	ret    
  403f22:	8d b4 26 00 00 00 00 	lea    0x0(%esi,%eiz,1),%esi
  403f29:	8d bc 27 00 00 00 00 	lea    0x0(%edi,%eiz,1),%edi

00403f30 <____w64_mingwthr_add_key_dtor>:
  403f30:	55                   	push   %ebp
  403f31:	89 e5                	mov    %esp,%ebp
  403f33:	56                   	push   %esi
  403f34:	31 f6                	xor    %esi,%esi
  403f36:	53                   	push   %ebx
  403f37:	83 ec 10             	sub    $0x10,%esp
  403f3a:	a1 50 f0 40 00       	mov    0x40f050,%eax
  403f3f:	85 c0                	test   %eax,%eax
  403f41:	75 0d                	jne    403f50 <____w64_mingwthr_add_key_dtor+0x20>
  403f43:	8d 65 f8             	lea    -0x8(%ebp),%esp
  403f46:	89 f0                	mov    %esi,%eax
  403f48:	5b                   	pop    %ebx
  403f49:	5e                   	pop    %esi
  403f4a:	5d                   	pop    %ebp
  403f4b:	c3                   	ret    
  403f4c:	8d 74 26 00          	lea    0x0(%esi,%eiz,1),%esi
  403f50:	c7 44 24 04 0c 00 00 	movl   $0xc,0x4(%esp)
  403f57:	00 
  403f58:	c7 04 24 01 00 00 00 	movl   $0x1,(%esp)
  403f5f:	e8 84 64 00 00       	call   40a3e8 <_calloc>
  403f64:	85 c0                	test   %eax,%eax
  403f66:	89 c3                	mov    %eax,%ebx
  403f68:	74 40                	je     403faa <____w64_mingwthr_add_key_dtor+0x7a>
  403f6a:	8b 45 08             	mov    0x8(%ebp),%eax
  403f6d:	c7 04 24 54 f0 40 00 	movl   $0x40f054,(%esp)
  403f74:	89 03                	mov    %eax,(%ebx)
  403f76:	8b 45 0c             	mov    0xc(%ebp),%eax
  403f79:	89 43 04             	mov    %eax,0x4(%ebx)
  403f7c:	e8 17 65 00 00       	call   40a498 <_EnterCriticalSection@4>
  403f81:	a1 4c f0 40 00       	mov    0x40f04c,%eax
  403f86:	89 1d 4c f0 40 00    	mov    %ebx,0x40f04c
  403f8c:	89 43 08             	mov    %eax,0x8(%ebx)
  403f8f:	83 ec 04             	sub    $0x4,%esp
  403f92:	c7 04 24 54 f0 40 00 	movl   $0x40f054,(%esp)
  403f99:	e8 12 65 00 00       	call   40a4b0 <_LeaveCriticalSection@4>
  403f9e:	89 f0                	mov    %esi,%eax
  403fa0:	83 ec 04             	sub    $0x4,%esp
  403fa3:	8d 65 f8             	lea    -0x8(%ebp),%esp
  403fa6:	5b                   	pop    %ebx
  403fa7:	5e                   	pop    %esi
  403fa8:	5d                   	pop    %ebp
  403fa9:	c3                   	ret    
  403faa:	be ff ff ff ff       	mov    $0xffffffff,%esi
  403faf:	eb 92                	jmp    403f43 <____w64_mingwthr_add_key_dtor+0x13>
  403fb1:	eb 0d                	jmp    403fc0 <____w64_mingwthr_remove_key_dtor>
  403fb3:	90                   	nop
  403fb4:	90                   	nop
  403fb5:	90                   	nop
  403fb6:	90                   	nop
  403fb7:	90                   	nop
  403fb8:	90                   	nop
  403fb9:	90                   	nop
  403fba:	90                   	nop
  403fbb:	90                   	nop
  403fbc:	90                   	nop
  403fbd:	90                   	nop
  403fbe:	90                   	nop
  403fbf:	90                   	nop

00403fc0 <____w64_mingwthr_remove_key_dtor>:
  403fc0:	55                   	push   %ebp
  403fc1:	89 e5                	mov    %esp,%ebp
  403fc3:	53                   	push   %ebx
  403fc4:	83 ec 14             	sub    $0x14,%esp
  403fc7:	a1 50 f0 40 00       	mov    0x40f050,%eax
  403fcc:	8b 5d 08             	mov    0x8(%ebp),%ebx
  403fcf:	85 c0                	test   %eax,%eax
  403fd1:	75 0d                	jne    403fe0 <____w64_mingwthr_remove_key_dtor+0x20>
  403fd3:	31 c0                	xor    %eax,%eax
  403fd5:	8b 5d fc             	mov    -0x4(%ebp),%ebx
  403fd8:	c9                   	leave  
  403fd9:	c3                   	ret    
  403fda:	8d b6 00 00 00 00    	lea    0x0(%esi),%esi
  403fe0:	c7 04 24 54 f0 40 00 	movl   $0x40f054,(%esp)
  403fe7:	e8 ac 64 00 00       	call   40a498 <_EnterCriticalSection@4>
  403fec:	8b 15 4c f0 40 00    	mov    0x40f04c,%edx
  403ff2:	83 ec 04             	sub    $0x4,%esp
  403ff5:	85 d2                	test   %edx,%edx
  403ff7:	74 17                	je     404010 <____w64_mingwthr_remove_key_dtor+0x50>
  403ff9:	8b 02                	mov    (%edx),%eax
  403ffb:	39 d8                	cmp    %ebx,%eax
  403ffd:	75 0a                	jne    404009 <____w64_mingwthr_remove_key_dtor+0x49>
  403fff:	eb 44                	jmp    404045 <____w64_mingwthr_remove_key_dtor+0x85>
  404001:	8b 08                	mov    (%eax),%ecx
  404003:	39 d9                	cmp    %ebx,%ecx
  404005:	74 1f                	je     404026 <____w64_mingwthr_remove_key_dtor+0x66>
  404007:	89 c2                	mov    %eax,%edx
  404009:	8b 42 08             	mov    0x8(%edx),%eax
  40400c:	85 c0                	test   %eax,%eax
  40400e:	75 f1                	jne    404001 <____w64_mingwthr_remove_key_dtor+0x41>
  404010:	c7 04 24 54 f0 40 00 	movl   $0x40f054,(%esp)
  404017:	e8 94 64 00 00       	call   40a4b0 <_LeaveCriticalSection@4>
  40401c:	83 ec 04             	sub    $0x4,%esp
  40401f:	31 c0                	xor    %eax,%eax
  404021:	8b 5d fc             	mov    -0x4(%ebp),%ebx
  404024:	c9                   	leave  
  404025:	c3                   	ret    
  404026:	8b 48 08             	mov    0x8(%eax),%ecx
  404029:	89 4a 08             	mov    %ecx,0x8(%edx)
  40402c:	89 04 24             	mov    %eax,(%esp)
  40402f:	e8 64 63 00 00       	call   40a398 <_free>
  404034:	c7 04 24 54 f0 40 00 	movl   $0x40f054,(%esp)
  40403b:	e8 70 64 00 00       	call   40a4b0 <_LeaveCriticalSection@4>
  404040:	83 ec 04             	sub    $0x4,%esp
  404043:	eb da                	jmp    40401f <____w64_mingwthr_remove_key_dtor+0x5f>
  404045:	8b 42 08             	mov    0x8(%edx),%eax
  404048:	a3 4c f0 40 00       	mov    %eax,0x40f04c
  40404d:	89 d0                	mov    %edx,%eax
  40404f:	eb db                	jmp    40402c <____w64_mingwthr_remove_key_dtor+0x6c>
  404051:	eb 0d                	jmp    404060 <___mingw_TLScallback>
  404053:	90                   	nop
  404054:	90                   	nop
  404055:	90                   	nop
  404056:	90                   	nop
  404057:	90                   	nop
  404058:	90                   	nop
  404059:	90                   	nop
  40405a:	90                   	nop
  40405b:	90                   	nop
  40405c:	90                   	nop
  40405d:	90                   	nop
  40405e:	90                   	nop
  40405f:	90                   	nop

00404060 <___mingw_TLScallback>:
  404060:	55                   	push   %ebp
  404061:	89 e5                	mov    %esp,%ebp
  404063:	83 ec 18             	sub    $0x18,%esp
  404066:	8b 45 0c             	mov    0xc(%ebp),%eax
  404069:	83 f8 01             	cmp    $0x1,%eax
  40406c:	74 45                	je     4040b3 <___mingw_TLScallback+0x53>
  40406e:	72 15                	jb     404085 <___mingw_TLScallback+0x25>
  404070:	83 f8 03             	cmp    $0x3,%eax
  404073:	75 09                	jne    40407e <___mingw_TLScallback+0x1e>
  404075:	a1 50 f0 40 00       	mov    0x40f050,%eax
  40407a:	85 c0                	test   %eax,%eax
  40407c:	75 63                	jne    4040e1 <___mingw_TLScallback+0x81>
  40407e:	b8 01 00 00 00       	mov    $0x1,%eax
  404083:	c9                   	leave  
  404084:	c3                   	ret    
  404085:	a1 50 f0 40 00       	mov    0x40f050,%eax
  40408a:	85 c0                	test   %eax,%eax
  40408c:	75 5a                	jne    4040e8 <___mingw_TLScallback+0x88>
  40408e:	a1 50 f0 40 00       	mov    0x40f050,%eax
  404093:	83 f8 01             	cmp    $0x1,%eax
  404096:	75 e6                	jne    40407e <___mingw_TLScallback+0x1e>
  404098:	c7 04 24 54 f0 40 00 	movl   $0x40f054,(%esp)
  40409f:	c7 05 50 f0 40 00 00 	movl   $0x0,0x40f050
  4040a6:	00 00 00 
  4040a9:	e8 0a 64 00 00       	call   40a4b8 <_DeleteCriticalSection@4>
  4040ae:	83 ec 04             	sub    $0x4,%esp
  4040b1:	eb cb                	jmp    40407e <___mingw_TLScallback+0x1e>
  4040b3:	a1 50 f0 40 00       	mov    0x40f050,%eax
  4040b8:	85 c0                	test   %eax,%eax
  4040ba:	74 14                	je     4040d0 <___mingw_TLScallback+0x70>
  4040bc:	c7 05 50 f0 40 00 01 	movl   $0x1,0x40f050
  4040c3:	00 00 00 
  4040c6:	b8 01 00 00 00       	mov    $0x1,%eax
  4040cb:	c9                   	leave  
  4040cc:	c3                   	ret    
  4040cd:	8d 76 00             	lea    0x0(%esi),%esi
  4040d0:	c7 04 24 54 f0 40 00 	movl   $0x40f054,(%esp)
  4040d7:	e8 e4 63 00 00       	call   40a4c0 <_InitializeCriticalSection@4>
  4040dc:	83 ec 04             	sub    $0x4,%esp
  4040df:	eb db                	jmp    4040bc <___mingw_TLScallback+0x5c>
  4040e1:	e8 da fd ff ff       	call   403ec0 <___mingwthr_run_key_dtors.part.0>
  4040e6:	eb 96                	jmp    40407e <___mingw_TLScallback+0x1e>
  4040e8:	90                   	nop
  4040e9:	8d b4 26 00 00 00 00 	lea    0x0(%esi,%eiz,1),%esi
  4040f0:	e8 cb fd ff ff       	call   403ec0 <___mingwthr_run_key_dtors.part.0>
  4040f5:	eb 97                	jmp    40408e <___mingw_TLScallback+0x2e>
  4040f7:	90                   	nop
  4040f8:	90                   	nop
  4040f9:	90                   	nop
  4040fa:	90                   	nop
  4040fb:	90                   	nop
  4040fc:	90                   	nop
  4040fd:	90                   	nop
  4040fe:	90                   	nop
  4040ff:	90                   	nop

00404100 <___umoddi3>:
  404100:	55                   	push   %ebp
  404101:	57                   	push   %edi
  404102:	56                   	push   %esi
  404103:	53                   	push   %ebx
  404104:	83 ec 1c             	sub    $0x1c,%esp
  404107:	8b 44 24 3c          	mov    0x3c(%esp),%eax
  40410b:	8b 4c 24 30          	mov    0x30(%esp),%ecx
  40410f:	8b 6c 24 34          	mov    0x34(%esp),%ebp
  404113:	8b 5c 24 38          	mov    0x38(%esp),%ebx
  404117:	85 c0                	test   %eax,%eax
  404119:	89 c2                	mov    %eax,%edx
  40411b:	89 4c 24 0c          	mov    %ecx,0xc(%esp)
  40411f:	89 ee                	mov    %ebp,%esi
  404121:	89 1c 24             	mov    %ebx,(%esp)
  404124:	89 4c 24 04          	mov    %ecx,0x4(%esp)
  404128:	89 6c 24 08          	mov    %ebp,0x8(%esp)
  40412c:	75 16                	jne    404144 <___umoddi3+0x44>
  40412e:	39 eb                	cmp    %ebp,%ebx
  404130:	76 4e                	jbe    404180 <___umoddi3+0x80>
  404132:	89 c8                	mov    %ecx,%eax
  404134:	89 ea                	mov    %ebp,%edx
  404136:	f7 f3                	div    %ebx
  404138:	89 d0                	mov    %edx,%eax
  40413a:	31 d2                	xor    %edx,%edx
  40413c:	83 c4 1c             	add    $0x1c,%esp
  40413f:	5b                   	pop    %ebx
  404140:	5e                   	pop    %esi
  404141:	5f                   	pop    %edi
  404142:	5d                   	pop    %ebp
  404143:	c3                   	ret    
  404144:	39 e8                	cmp    %ebp,%eax
  404146:	77 58                	ja     4041a0 <___umoddi3+0xa0>
  404148:	0f bd f8             	bsr    %eax,%edi
  40414b:	83 f7 1f             	xor    $0x1f,%edi
  40414e:	75 60                	jne    4041b0 <___umoddi3+0xb0>
  404150:	8b 7c 24 04          	mov    0x4(%esp),%edi
  404154:	39 3c 24             	cmp    %edi,(%esp)
  404157:	0f 87 e4 00 00 00    	ja     404241 <___umoddi3+0x141>
  40415d:	89 ef                	mov    %ebp,%edi
  40415f:	89 ce                	mov    %ecx,%esi
  404161:	29 de                	sub    %ebx,%esi
  404163:	19 c7                	sbb    %eax,%edi
  404165:	89 74 24 04          	mov    %esi,0x4(%esp)
  404169:	89 7c 24 08          	mov    %edi,0x8(%esp)
  40416d:	8b 44 24 04          	mov    0x4(%esp),%eax
  404171:	8b 54 24 08          	mov    0x8(%esp),%edx
  404175:	83 c4 1c             	add    $0x1c,%esp
  404178:	5b                   	pop    %ebx
  404179:	5e                   	pop    %esi
  40417a:	5f                   	pop    %edi
  40417b:	5d                   	pop    %ebp
  40417c:	c3                   	ret    
  40417d:	8d 76 00             	lea    0x0(%esi),%esi
  404180:	85 db                	test   %ebx,%ebx
  404182:	89 df                	mov    %ebx,%edi
  404184:	75 0b                	jne    404191 <___umoddi3+0x91>
  404186:	b8 01 00 00 00       	mov    $0x1,%eax
  40418b:	31 d2                	xor    %edx,%edx
  40418d:	f7 f3                	div    %ebx
  40418f:	89 c7                	mov    %eax,%edi
  404191:	89 e8                	mov    %ebp,%eax
  404193:	31 d2                	xor    %edx,%edx
  404195:	f7 f7                	div    %edi
  404197:	89 c8                	mov    %ecx,%eax
  404199:	f7 f7                	div    %edi
  40419b:	eb 9b                	jmp    404138 <___umoddi3+0x38>
  40419d:	8d 76 00             	lea    0x0(%esi),%esi
  4041a0:	89 c8                	mov    %ecx,%eax
  4041a2:	89 ea                	mov    %ebp,%edx
  4041a4:	83 c4 1c             	add    $0x1c,%esp
  4041a7:	5b                   	pop    %ebx
  4041a8:	5e                   	pop    %esi
  4041a9:	5f                   	pop    %edi
  4041aa:	5d                   	pop    %ebp
  4041ab:	c3                   	ret    
  4041ac:	8d 74 26 00          	lea    0x0(%esi,%eiz,1),%esi
  4041b0:	8b 2c 24             	mov    (%esp),%ebp
  4041b3:	bb 20 00 00 00       	mov    $0x20,%ebx
  4041b8:	89 f9                	mov    %edi,%ecx
  4041ba:	29 fb                	sub    %edi,%ebx
  4041bc:	d3 e2                	shl    %cl,%edx
  4041be:	89 d9                	mov    %ebx,%ecx
  4041c0:	89 e8                	mov    %ebp,%eax
  4041c2:	d3 e8                	shr    %cl,%eax
  4041c4:	89 f9                	mov    %edi,%ecx
  4041c6:	89 04 24             	mov    %eax,(%esp)
  4041c9:	89 e8                	mov    %ebp,%eax
  4041cb:	d3 e0                	shl    %cl,%eax
  4041cd:	89 d9                	mov    %ebx,%ecx
  4041cf:	89 c5                	mov    %eax,%ebp
  4041d1:	89 44 24 08          	mov    %eax,0x8(%esp)
  4041d5:	8b 44 24 0c          	mov    0xc(%esp),%eax
  4041d9:	09 14 24             	or     %edx,(%esp)
  4041dc:	89 f2                	mov    %esi,%edx
  4041de:	d3 ea                	shr    %cl,%edx
  4041e0:	89 f9                	mov    %edi,%ecx
  4041e2:	d3 e6                	shl    %cl,%esi
  4041e4:	89 d9                	mov    %ebx,%ecx
  4041e6:	d3 e8                	shr    %cl,%eax
  4041e8:	89 f9                	mov    %edi,%ecx
  4041ea:	09 f0                	or     %esi,%eax
  4041ec:	8b 74 24 0c          	mov    0xc(%esp),%esi
  4041f0:	f7 34 24             	divl   (%esp)
  4041f3:	d3 e6                	shl    %cl,%esi
  4041f5:	89 74 24 04          	mov    %esi,0x4(%esp)
  4041f9:	89 d6                	mov    %edx,%esi
  4041fb:	f7 e5                	mul    %ebp
  4041fd:	39 d6                	cmp    %edx,%esi
  4041ff:	89 c1                	mov    %eax,%ecx
  404201:	89 d5                	mov    %edx,%ebp
  404203:	72 2f                	jb     404234 <___umoddi3+0x134>
  404205:	39 44 24 04          	cmp    %eax,0x4(%esp)
  404209:	72 25                	jb     404230 <___umoddi3+0x130>
  40420b:	8b 44 24 04          	mov    0x4(%esp),%eax
  40420f:	29 c8                	sub    %ecx,%eax
  404211:	19 ee                	sbb    %ebp,%esi
  404213:	89 f9                	mov    %edi,%ecx
  404215:	89 f2                	mov    %esi,%edx
  404217:	d3 e8                	shr    %cl,%eax
  404219:	89 d9                	mov    %ebx,%ecx
  40421b:	d3 e2                	shl    %cl,%edx
  40421d:	89 f9                	mov    %edi,%ecx
  40421f:	d3 ee                	shr    %cl,%esi
  404221:	09 d0                	or     %edx,%eax
  404223:	89 f2                	mov    %esi,%edx
  404225:	83 c4 1c             	add    $0x1c,%esp
  404228:	5b                   	pop    %ebx
  404229:	5e                   	pop    %esi
  40422a:	5f                   	pop    %edi
  40422b:	5d                   	pop    %ebp
  40422c:	c3                   	ret    
  40422d:	8d 76 00             	lea    0x0(%esi),%esi
  404230:	39 d6                	cmp    %edx,%esi
  404232:	75 d7                	jne    40420b <___umoddi3+0x10b>
  404234:	89 d5                	mov    %edx,%ebp
  404236:	89 c1                	mov    %eax,%ecx
  404238:	2b 4c 24 08          	sub    0x8(%esp),%ecx
  40423c:	1b 2c 24             	sbb    (%esp),%ebp
  40423f:	eb ca                	jmp    40420b <___umoddi3+0x10b>
  404241:	3b 44 24 08          	cmp    0x8(%esp),%eax
  404245:	0f 82 12 ff ff ff    	jb     40415d <___umoddi3+0x5d>
  40424b:	e9 1d ff ff ff       	jmp    40416d <___umoddi3+0x6d>

00404250 <___udivdi3>:
  404250:	55                   	push   %ebp
  404251:	57                   	push   %edi
  404252:	56                   	push   %esi
  404253:	53                   	push   %ebx
  404254:	83 ec 14             	sub    $0x14,%esp
  404257:	8b 74 24 34          	mov    0x34(%esp),%esi
  40425b:	8b 7c 24 28          	mov    0x28(%esp),%edi
  40425f:	8b 6c 24 2c          	mov    0x2c(%esp),%ebp
  404263:	8b 4c 24 30          	mov    0x30(%esp),%ecx
  404267:	85 f6                	test   %esi,%esi
  404269:	89 3c 24             	mov    %edi,(%esp)
  40426c:	89 e8                	mov    %ebp,%eax
  40426e:	89 ca                	mov    %ecx,%edx
  404270:	75 2e                	jne    4042a0 <___udivdi3+0x50>
  404272:	39 e9                	cmp    %ebp,%ecx
  404274:	77 5c                	ja     4042d2 <___udivdi3+0x82>
  404276:	85 c9                	test   %ecx,%ecx
  404278:	89 cb                	mov    %ecx,%ebx
  40427a:	75 0b                	jne    404287 <___udivdi3+0x37>
  40427c:	b8 01 00 00 00       	mov    $0x1,%eax
  404281:	31 d2                	xor    %edx,%edx
  404283:	f7 f1                	div    %ecx
  404285:	89 c3                	mov    %eax,%ebx
  404287:	89 e8                	mov    %ebp,%eax
  404289:	31 d2                	xor    %edx,%edx
  40428b:	f7 f3                	div    %ebx
  40428d:	89 c5                	mov    %eax,%ebp
  40428f:	89 f8                	mov    %edi,%eax
  404291:	f7 f3                	div    %ebx
  404293:	89 ea                	mov    %ebp,%edx
  404295:	83 c4 14             	add    $0x14,%esp
  404298:	5b                   	pop    %ebx
  404299:	5e                   	pop    %esi
  40429a:	5f                   	pop    %edi
  40429b:	5d                   	pop    %ebp
  40429c:	c3                   	ret    
  40429d:	8d 76 00             	lea    0x0(%esi),%esi
  4042a0:	39 ee                	cmp    %ebp,%esi
  4042a2:	77 22                	ja     4042c6 <___udivdi3+0x76>
  4042a4:	0f bd de             	bsr    %esi,%ebx
  4042a7:	83 f3 1f             	xor    $0x1f,%ebx
  4042aa:	75 36                	jne    4042e2 <___udivdi3+0x92>
  4042ac:	3b 0c 24             	cmp    (%esp),%ecx
  4042af:	ba 00 00 00 00       	mov    $0x0,%edx
  4042b4:	0f 86 86 00 00 00    	jbe    404340 <___udivdi3+0xf0>
  4042ba:	39 ee                	cmp    %ebp,%esi
  4042bc:	0f 82 7e 00 00 00    	jb     404340 <___udivdi3+0xf0>
  4042c2:	31 c0                	xor    %eax,%eax
  4042c4:	eb cf                	jmp    404295 <___udivdi3+0x45>
  4042c6:	31 d2                	xor    %edx,%edx
  4042c8:	31 c0                	xor    %eax,%eax
  4042ca:	83 c4 14             	add    $0x14,%esp
  4042cd:	5b                   	pop    %ebx
  4042ce:	5e                   	pop    %esi
  4042cf:	5f                   	pop    %edi
  4042d0:	5d                   	pop    %ebp
  4042d1:	c3                   	ret    
  4042d2:	89 f8                	mov    %edi,%eax
  4042d4:	89 ea                	mov    %ebp,%edx
  4042d6:	f7 f1                	div    %ecx
  4042d8:	31 d2                	xor    %edx,%edx
  4042da:	83 c4 14             	add    $0x14,%esp
  4042dd:	5b                   	pop    %ebx
  4042de:	5e                   	pop    %esi
  4042df:	5f                   	pop    %edi
  4042e0:	5d                   	pop    %ebp
  4042e1:	c3                   	ret    
  4042e2:	bf 20 00 00 00       	mov    $0x20,%edi
  4042e7:	89 d9                	mov    %ebx,%ecx
  4042e9:	29 df                	sub    %ebx,%edi
  4042eb:	89 d5                	mov    %edx,%ebp
  4042ed:	d3 e6                	shl    %cl,%esi
  4042ef:	89 f9                	mov    %edi,%ecx
  4042f1:	d3 ed                	shr    %cl,%ebp
  4042f3:	89 d9                	mov    %ebx,%ecx
  4042f5:	d3 e2                	shl    %cl,%edx
  4042f7:	09 f5                	or     %esi,%ebp
  4042f9:	89 54 24 04          	mov    %edx,0x4(%esp)
  4042fd:	8b 14 24             	mov    (%esp),%edx
  404300:	89 f9                	mov    %edi,%ecx
  404302:	89 c6                	mov    %eax,%esi
  404304:	d3 ee                	shr    %cl,%esi
  404306:	89 d9                	mov    %ebx,%ecx
  404308:	d3 e0                	shl    %cl,%eax
  40430a:	89 f9                	mov    %edi,%ecx
  40430c:	d3 ea                	shr    %cl,%edx
  40430e:	89 d7                	mov    %edx,%edi
  404310:	89 f2                	mov    %esi,%edx
  404312:	09 c7                	or     %eax,%edi
  404314:	89 f8                	mov    %edi,%eax
  404316:	f7 f5                	div    %ebp
  404318:	89 d6                	mov    %edx,%esi
  40431a:	89 c7                	mov    %eax,%edi
  40431c:	f7 64 24 04          	mull   0x4(%esp)
  404320:	39 d6                	cmp    %edx,%esi
  404322:	72 2c                	jb     404350 <___udivdi3+0x100>
  404324:	8b 2c 24             	mov    (%esp),%ebp
  404327:	89 d9                	mov    %ebx,%ecx
  404329:	d3 e5                	shl    %cl,%ebp
  40432b:	39 c5                	cmp    %eax,%ebp
  40432d:	73 04                	jae    404333 <___udivdi3+0xe3>
  40432f:	39 d6                	cmp    %edx,%esi
  404331:	74 1d                	je     404350 <___udivdi3+0x100>
  404333:	89 f8                	mov    %edi,%eax
  404335:	31 d2                	xor    %edx,%edx
  404337:	e9 59 ff ff ff       	jmp    404295 <___udivdi3+0x45>
  40433c:	8d 74 26 00          	lea    0x0(%esi,%eiz,1),%esi
  404340:	b8 01 00 00 00       	mov    $0x1,%eax
  404345:	e9 4b ff ff ff       	jmp    404295 <___udivdi3+0x45>
  40434a:	8d b6 00 00 00 00    	lea    0x0(%esi),%esi
  404350:	8d 47 ff             	lea    -0x1(%edi),%eax
  404353:	31 d2                	xor    %edx,%edx
  404355:	83 c4 14             	add    $0x14,%esp
  404358:	5b                   	pop    %ebx
  404359:	5e                   	pop    %esi
  40435a:	5f                   	pop    %edi
  40435b:	5d                   	pop    %ebp
  40435c:	c3                   	ret    
  40435d:	90                   	nop
  40435e:	90                   	nop
  40435f:	90                   	nop

00404360 <___chkstk_ms>:
  404360:	51                   	push   %ecx
  404361:	50                   	push   %eax
  404362:	3d 00 10 00 00       	cmp    $0x1000,%eax
  404367:	8d 4c 24 0c          	lea    0xc(%esp),%ecx
  40436b:	72 15                	jb     404382 <___chkstk_ms+0x22>
  40436d:	81 e9 00 10 00 00    	sub    $0x1000,%ecx
  404373:	83 09 00             	orl    $0x0,(%ecx)
  404376:	2d 00 10 00 00       	sub    $0x1000,%eax
  40437b:	3d 00 10 00 00       	cmp    $0x1000,%eax
  404380:	77 eb                	ja     40436d <___chkstk_ms+0xd>
  404382:	29 c1                	sub    %eax,%ecx
  404384:	83 09 00             	orl    $0x0,(%ecx)
  404387:	58                   	pop    %eax
  404388:	59                   	pop    %ecx
  404389:	c3                   	ret    
  40438a:	90                   	nop
  40438b:	90                   	nop

0040438c <.text>:
  40438c:	66 90                	xchg   %ax,%ax
  40438e:	66 90                	xchg   %ax,%ax

00404390 <_is_glob_pattern>:
  404390:	57                   	push   %edi
  404391:	85 c0                	test   %eax,%eax
  404393:	56                   	push   %esi
  404394:	53                   	push   %ebx
  404395:	89 c3                	mov    %eax,%ebx
  404397:	74 44                	je     4043dd <_is_glob_pattern+0x4d>
  404399:	0f be 0b             	movsbl (%ebx),%ecx
  40439c:	89 d6                	mov    %edx,%esi
  40439e:	31 c0                	xor    %eax,%eax
  4043a0:	83 e6 20             	and    $0x20,%esi
  4043a3:	8d 53 01             	lea    0x1(%ebx),%edx
  4043a6:	85 c9                	test   %ecx,%ecx
  4043a8:	74 33                	je     4043dd <_is_glob_pattern+0x4d>
  4043aa:	8d b6 00 00 00 00    	lea    0x0(%esi),%esi
  4043b0:	85 f6                	test   %esi,%esi
  4043b2:	89 f7                	mov    %esi,%edi
  4043b4:	75 05                	jne    4043bb <_is_glob_pattern+0x2b>
  4043b6:	83 f9 7f             	cmp    $0x7f,%ecx
  4043b9:	74 45                	je     404400 <_is_glob_pattern+0x70>
  4043bb:	85 c0                	test   %eax,%eax
  4043bd:	75 26                	jne    4043e5 <_is_glob_pattern+0x55>
  4043bf:	83 f9 3f             	cmp    $0x3f,%ecx
  4043c2:	74 51                	je     404415 <_is_glob_pattern+0x85>
  4043c4:	83 f9 2a             	cmp    $0x2a,%ecx
  4043c7:	74 4c                	je     404415 <_is_glob_pattern+0x85>
  4043c9:	31 c0                	xor    %eax,%eax
  4043cb:	83 f9 5b             	cmp    $0x5b,%ecx
  4043ce:	0f 94 c0             	sete   %al
  4043d1:	89 d3                	mov    %edx,%ebx
  4043d3:	0f be 0b             	movsbl (%ebx),%ecx
  4043d6:	8d 53 01             	lea    0x1(%ebx),%edx
  4043d9:	85 c9                	test   %ecx,%ecx
  4043db:	75 d3                	jne    4043b0 <_is_glob_pattern+0x20>
  4043dd:	31 ff                	xor    %edi,%edi
  4043df:	89 f8                	mov    %edi,%eax
  4043e1:	5b                   	pop    %ebx
  4043e2:	5e                   	pop    %esi
  4043e3:	5f                   	pop    %edi
  4043e4:	c3                   	ret    
  4043e5:	83 f9 5d             	cmp    $0x5d,%ecx
  4043e8:	74 26                	je     404410 <_is_glob_pattern+0x80>
  4043ea:	83 f9 21             	cmp    $0x21,%ecx
  4043ed:	89 d3                	mov    %edx,%ebx
  4043ef:	0f 95 c1             	setne  %cl
  4043f2:	0f b6 c9             	movzbl %cl,%ecx
  4043f5:	01 c8                	add    %ecx,%eax
  4043f7:	eb da                	jmp    4043d3 <_is_glob_pattern+0x43>
  4043f9:	8d b4 26 00 00 00 00 	lea    0x0(%esi,%eiz,1),%esi
  404400:	80 7b 01 00          	cmpb   $0x0,0x1(%ebx)
  404404:	8d 53 02             	lea    0x2(%ebx),%edx
  404407:	75 b2                	jne    4043bb <_is_glob_pattern+0x2b>
  404409:	eb d4                	jmp    4043df <_is_glob_pattern+0x4f>
  40440b:	90                   	nop
  40440c:	8d 74 26 00          	lea    0x0(%esi,%eiz,1),%esi
  404410:	83 f8 01             	cmp    $0x1,%eax
  404413:	7e d5                	jle    4043ea <_is_glob_pattern+0x5a>
  404415:	bf 01 00 00 00       	mov    $0x1,%edi
  40441a:	89 f8                	mov    %edi,%eax
  40441c:	5b                   	pop    %ebx
  40441d:	5e                   	pop    %esi
  40441e:	5f                   	pop    %edi
  40441f:	c3                   	ret    

00404420 <_glob_in_set>:
  404420:	55                   	push   %ebp
  404421:	57                   	push   %edi
  404422:	56                   	push   %esi
  404423:	53                   	push   %ebx
  404424:	83 ec 04             	sub    $0x4,%esp
  404427:	0f b6 18             	movzbl (%eax),%ebx
  40442a:	89 0c 24             	mov    %ecx,(%esp)
  40442d:	0f be fb             	movsbl %bl,%edi
  404430:	83 ff 5d             	cmp    $0x5d,%edi
  404433:	0f 84 d7 00 00 00    	je     404510 <_glob_in_set+0xf0>
  404439:	83 ff 2d             	cmp    $0x2d,%edi
  40443c:	89 d9                	mov    %ebx,%ecx
  40443e:	75 2e                	jne    40446e <_glob_in_set+0x4e>
  404440:	e9 cb 00 00 00       	jmp    404510 <_glob_in_set+0xf0>
  404445:	85 db                	test   %ebx,%ebx
  404447:	0f 84 b3 00 00 00    	je     404500 <_glob_in_set+0xe0>
  40444d:	83 fb 5c             	cmp    $0x5c,%ebx
  404450:	0f 84 aa 00 00 00    	je     404500 <_glob_in_set+0xe0>
  404456:	83 fb 2f             	cmp    $0x2f,%ebx
  404459:	0f 84 a1 00 00 00    	je     404500 <_glob_in_set+0xe0>
  40445f:	89 df                	mov    %ebx,%edi
  404461:	0f b6 0e             	movzbl (%esi),%ecx
  404464:	89 f0                	mov    %esi,%eax
  404466:	39 d7                	cmp    %edx,%edi
  404468:	0f 84 ca 00 00 00    	je     404538 <_glob_in_set+0x118>
  40446e:	0f be d9             	movsbl %cl,%ebx
  404471:	83 fb 5d             	cmp    $0x5d,%ebx
  404474:	8d 70 01             	lea    0x1(%eax),%esi
  404477:	0f 84 83 00 00 00    	je     404500 <_glob_in_set+0xe0>
  40447d:	83 fb 2d             	cmp    $0x2d,%ebx
  404480:	75 c3                	jne    404445 <_glob_in_set+0x25>
  404482:	0f b6 58 01          	movzbl 0x1(%eax),%ebx
  404486:	80 fb 5d             	cmp    $0x5d,%bl
  404489:	0f 84 95 00 00 00    	je     404524 <_glob_in_set+0x104>
  40448f:	0f be eb             	movsbl %bl,%ebp
  404492:	85 ed                	test   %ebp,%ebp
  404494:	89 eb                	mov    %ebp,%ebx
  404496:	74 68                	je     404500 <_glob_in_set+0xe0>
  404498:	39 ef                	cmp    %ebp,%edi
  40449a:	8d 70 02             	lea    0x2(%eax),%esi
  40449d:	0f 8d 85 01 00 00    	jge    404628 <_glob_in_set+0x208>
  4044a3:	39 d7                	cmp    %edx,%edi
  4044a5:	8d 47 01             	lea    0x1(%edi),%eax
  4044a8:	75 14                	jne    4044be <_glob_in_set+0x9e>
  4044aa:	e9 c1 00 00 00       	jmp    404570 <_glob_in_set+0x150>
  4044af:	90                   	nop
  4044b0:	83 c0 01             	add    $0x1,%eax
  4044b3:	8d 78 ff             	lea    -0x1(%eax),%edi
  4044b6:	39 fa                	cmp    %edi,%edx
  4044b8:	0f 84 b2 00 00 00    	je     404570 <_glob_in_set+0x150>
  4044be:	39 c5                	cmp    %eax,%ebp
  4044c0:	7f ee                	jg     4044b0 <_glob_in_set+0x90>
  4044c2:	39 c5                	cmp    %eax,%ebp
  4044c4:	7d 87                	jge    40444d <_glob_in_set+0x2d>
  4044c6:	39 c2                	cmp    %eax,%edx
  4044c8:	74 15                	je     4044df <_glob_in_set+0xbf>
  4044ca:	83 c5 01             	add    $0x1,%ebp
  4044cd:	8d 76 00             	lea    0x0(%esi),%esi
  4044d0:	39 e8                	cmp    %ebp,%eax
  4044d2:	0f 84 75 ff ff ff    	je     40444d <_glob_in_set+0x2d>
  4044d8:	83 e8 01             	sub    $0x1,%eax
  4044db:	39 c2                	cmp    %eax,%edx
  4044dd:	75 f1                	jne    4044d0 <_glob_in_set+0xb0>
  4044df:	8b 0c 24             	mov    (%esp),%ecx
  4044e2:	83 e1 20             	and    $0x20,%ecx
  4044e5:	0f b6 06             	movzbl (%esi),%eax
  4044e8:	3c 5d                	cmp    $0x5d,%al
  4044ea:	0f 84 a3 00 00 00    	je     404593 <_glob_in_set+0x173>
  4044f0:	3c 7f                	cmp    $0x7f,%al
  4044f2:	0f 84 bd 00 00 00    	je     4045b5 <_glob_in_set+0x195>
  4044f8:	83 c6 01             	add    $0x1,%esi
  4044fb:	84 c0                	test   %al,%al
  4044fd:	75 e6                	jne    4044e5 <_glob_in_set+0xc5>
  4044ff:	90                   	nop
  404500:	83 c4 04             	add    $0x4,%esp
  404503:	31 c0                	xor    %eax,%eax
  404505:	5b                   	pop    %ebx
  404506:	5e                   	pop    %esi
  404507:	5f                   	pop    %edi
  404508:	5d                   	pop    %ebp
  404509:	c3                   	ret    
  40450a:	8d b6 00 00 00 00    	lea    0x0(%esi),%esi
  404510:	39 d7                	cmp    %edx,%edi
  404512:	0f 84 b8 00 00 00    	je     4045d0 <_glob_in_set+0x1b0>
  404518:	0f b6 48 01          	movzbl 0x1(%eax),%ecx
  40451c:	83 c0 01             	add    $0x1,%eax
  40451f:	e9 4a ff ff ff       	jmp    40446e <_glob_in_set+0x4e>
  404524:	bf 2d 00 00 00       	mov    $0x2d,%edi
  404529:	89 f0                	mov    %esi,%eax
  40452b:	39 d7                	cmp    %edx,%edi
  40452d:	b9 5d 00 00 00       	mov    $0x5d,%ecx
  404532:	0f 85 36 ff ff ff    	jne    40446e <_glob_in_set+0x4e>
  404538:	8b 14 24             	mov    (%esp),%edx
  40453b:	83 e2 20             	and    $0x20,%edx
  40453e:	eb 0a                	jmp    40454a <_glob_in_set+0x12a>
  404540:	83 c0 01             	add    $0x1,%eax
  404543:	84 c9                	test   %cl,%cl
  404545:	74 b9                	je     404500 <_glob_in_set+0xe0>
  404547:	0f b6 08             	movzbl (%eax),%ecx
  40454a:	80 f9 5d             	cmp    $0x5d,%cl
  40454d:	0f 84 c2 00 00 00    	je     404615 <_glob_in_set+0x1f5>
  404553:	80 f9 7f             	cmp    $0x7f,%cl
  404556:	75 e8                	jne    404540 <_glob_in_set+0x120>
  404558:	85 d2                	test   %edx,%edx
  40455a:	0f 85 c0 00 00 00    	jne    404620 <_glob_in_set+0x200>
  404560:	0f b6 48 01          	movzbl 0x1(%eax),%ecx
  404564:	83 c0 01             	add    $0x1,%eax
  404567:	eb d7                	jmp    404540 <_glob_in_set+0x120>
  404569:	8d b4 26 00 00 00 00 	lea    0x0(%esi,%eiz,1),%esi
  404570:	8b 0c 24             	mov    (%esp),%ecx
  404573:	83 e1 20             	and    $0x20,%ecx
  404576:	0f b6 06             	movzbl (%esi),%eax
  404579:	3c 5d                	cmp    $0x5d,%al
  40457b:	74 16                	je     404593 <_glob_in_set+0x173>
  40457d:	3c 7f                	cmp    $0x7f,%al
  40457f:	74 1f                	je     4045a0 <_glob_in_set+0x180>
  404581:	83 c6 01             	add    $0x1,%esi
  404584:	84 c0                	test   %al,%al
  404586:	0f 84 74 ff ff ff    	je     404500 <_glob_in_set+0xe0>
  40458c:	0f b6 06             	movzbl (%esi),%eax
  40458f:	3c 5d                	cmp    $0x5d,%al
  404591:	75 ea                	jne    40457d <_glob_in_set+0x15d>
  404593:	83 c4 04             	add    $0x4,%esp
  404596:	5b                   	pop    %ebx
  404597:	8d 46 01             	lea    0x1(%esi),%eax
  40459a:	5e                   	pop    %esi
  40459b:	5f                   	pop    %edi
  40459c:	5d                   	pop    %ebp
  40459d:	c3                   	ret    
  40459e:	66 90                	xchg   %ax,%ax
  4045a0:	85 c9                	test   %ecx,%ecx
  4045a2:	75 0c                	jne    4045b0 <_glob_in_set+0x190>
  4045a4:	0f b6 46 01          	movzbl 0x1(%esi),%eax
  4045a8:	83 c6 01             	add    $0x1,%esi
  4045ab:	eb d4                	jmp    404581 <_glob_in_set+0x161>
  4045ad:	8d 76 00             	lea    0x0(%esi),%esi
  4045b0:	83 c6 01             	add    $0x1,%esi
  4045b3:	eb c1                	jmp    404576 <_glob_in_set+0x156>
  4045b5:	85 c9                	test   %ecx,%ecx
  4045b7:	75 0c                	jne    4045c5 <_glob_in_set+0x1a5>
  4045b9:	0f b6 46 01          	movzbl 0x1(%esi),%eax
  4045bd:	83 c6 01             	add    $0x1,%esi
  4045c0:	e9 33 ff ff ff       	jmp    4044f8 <_glob_in_set+0xd8>
  4045c5:	83 c6 01             	add    $0x1,%esi
  4045c8:	e9 18 ff ff ff       	jmp    4044e5 <_glob_in_set+0xc5>
  4045cd:	8d 76 00             	lea    0x0(%esi),%esi
  4045d0:	8b 0c 24             	mov    (%esp),%ecx
  4045d3:	83 c0 01             	add    $0x1,%eax
  4045d6:	83 e1 20             	and    $0x20,%ecx
  4045d9:	8d b4 26 00 00 00 00 	lea    0x0(%esi,%eiz,1),%esi
  4045e0:	0f b6 10             	movzbl (%eax),%edx
  4045e3:	80 fa 5d             	cmp    $0x5d,%dl
  4045e6:	74 2d                	je     404615 <_glob_in_set+0x1f5>
  4045e8:	80 fa 7f             	cmp    $0x7f,%dl
  4045eb:	74 13                	je     404600 <_glob_in_set+0x1e0>
  4045ed:	83 c0 01             	add    $0x1,%eax
  4045f0:	84 d2                	test   %dl,%dl
  4045f2:	75 ec                	jne    4045e0 <_glob_in_set+0x1c0>
  4045f4:	e9 07 ff ff ff       	jmp    404500 <_glob_in_set+0xe0>
  4045f9:	8d b4 26 00 00 00 00 	lea    0x0(%esi,%eiz,1),%esi
  404600:	85 c9                	test   %ecx,%ecx
  404602:	75 0c                	jne    404610 <_glob_in_set+0x1f0>
  404604:	0f b6 50 01          	movzbl 0x1(%eax),%edx
  404608:	83 c0 01             	add    $0x1,%eax
  40460b:	eb e0                	jmp    4045ed <_glob_in_set+0x1cd>
  40460d:	8d 76 00             	lea    0x0(%esi),%esi
  404610:	83 c0 01             	add    $0x1,%eax
  404613:	eb cb                	jmp    4045e0 <_glob_in_set+0x1c0>
  404615:	83 c4 04             	add    $0x4,%esp
  404618:	83 c0 01             	add    $0x1,%eax
  40461b:	5b                   	pop    %ebx
  40461c:	5e                   	pop    %esi
  40461d:	5f                   	pop    %edi
  40461e:	5d                   	pop    %ebp
  40461f:	c3                   	ret    
  404620:	83 c0 01             	add    $0x1,%eax
  404623:	e9 1f ff ff ff       	jmp    404547 <_glob_in_set+0x127>
  404628:	89 f8                	mov    %edi,%eax
  40462a:	e9 93 fe ff ff       	jmp    4044c2 <_glob_in_set+0xa2>
  40462f:	90                   	nop

00404630 <_glob_initialise>:
  404630:	55                   	push   %ebp
  404631:	57                   	push   %edi
  404632:	56                   	push   %esi
  404633:	89 c6                	mov    %eax,%esi
  404635:	53                   	push   %ebx
  404636:	83 ec 1c             	sub    $0x1c,%esp
  404639:	85 c0                	test   %eax,%eax
  40463b:	74 47                	je     404684 <_glob_initialise+0x54>
  40463d:	8b 40 0c             	mov    0xc(%eax),%eax
  404640:	8d 78 01             	lea    0x1(%eax),%edi
  404643:	8d 2c bd 00 00 00 00 	lea    0x0(,%edi,4),%ebp
  40464a:	89 2c 24             	mov    %ebp,(%esp)
  40464d:	e8 56 5d 00 00       	call   40a3a8 <_malloc>
  404652:	89 c3                	mov    %eax,%ebx
  404654:	85 db                	test   %ebx,%ebx
  404656:	89 46 08             	mov    %eax,0x8(%esi)
  404659:	b8 03 00 00 00       	mov    $0x3,%eax
  40465e:	74 26                	je     404686 <_glob_initialise+0x56>
  404660:	85 ff                	test   %edi,%edi
  404662:	89 fa                	mov    %edi,%edx
  404664:	c7 46 04 00 00 00 00 	movl   $0x0,0x4(%esi)
  40466b:	7e 17                	jle    404684 <_glob_initialise+0x54>
  40466d:	8d 4d fc             	lea    -0x4(%ebp),%ecx
  404670:	eb 03                	jmp    404675 <_glob_initialise+0x45>
  404672:	8b 5e 08             	mov    0x8(%esi),%ebx
  404675:	c7 04 0b 00 00 00 00 	movl   $0x0,(%ebx,%ecx,1)
  40467c:	83 e9 04             	sub    $0x4,%ecx
  40467f:	83 ea 01             	sub    $0x1,%edx
  404682:	75 ee                	jne    404672 <_glob_initialise+0x42>
  404684:	31 c0                	xor    %eax,%eax
  404686:	83 c4 1c             	add    $0x1c,%esp
  404689:	5b                   	pop    %ebx
  40468a:	5e                   	pop    %esi
  40468b:	5f                   	pop    %edi
  40468c:	5d                   	pop    %ebp
  40468d:	c3                   	ret    
  40468e:	66 90                	xchg   %ax,%ax

00404690 <_glob_strcmp>:
  404690:	55                   	push   %ebp
  404691:	57                   	push   %edi
  404692:	89 c7                	mov    %eax,%edi
  404694:	56                   	push   %esi
  404695:	53                   	push   %ebx
  404696:	83 ec 2c             	sub    $0x2c,%esp
  404699:	80 3a 2e             	cmpb   $0x2e,(%edx)
  40469c:	89 4c 24 10          	mov    %ecx,0x10(%esp)
  4046a0:	0f 84 5a 01 00 00    	je     404800 <_glob_strcmp+0x170>
  4046a6:	0f b6 08             	movzbl (%eax),%ecx
  4046a9:	8b 74 24 10          	mov    0x10(%esp),%esi
  4046ad:	8d 6a 01             	lea    0x1(%edx),%ebp
  4046b0:	89 f0                	mov    %esi,%eax
  4046b2:	83 e0 20             	and    $0x20,%eax
  4046b5:	89 44 24 14          	mov    %eax,0x14(%esp)
  4046b9:	89 f0                	mov    %esi,%eax
  4046bb:	25 00 40 00 00       	and    $0x4000,%eax
  4046c0:	89 44 24 18          	mov    %eax,0x18(%esp)
  4046c4:	0f be d1             	movsbl %cl,%edx
  4046c7:	85 d2                	test   %edx,%edx
  4046c9:	8d 75 ff             	lea    -0x1(%ebp),%esi
  4046cc:	8d 47 01             	lea    0x1(%edi),%eax
  4046cf:	0f 84 70 01 00 00    	je     404845 <_glob_strcmp+0x1b5>
  4046d5:	80 f9 3f             	cmp    $0x3f,%cl
  4046d8:	0f 84 e4 00 00 00    	je     4047c2 <_glob_strcmp+0x132>
  4046de:	80 f9 5b             	cmp    $0x5b,%cl
  4046e1:	0f 84 ab 00 00 00    	je     404792 <_glob_strcmp+0x102>
  4046e7:	80 f9 2a             	cmp    $0x2a,%cl
  4046ea:	74 5c                	je     404748 <_glob_strcmp+0xb8>
  4046ec:	8b 4c 24 14          	mov    0x14(%esp),%ecx
  4046f0:	85 c9                	test   %ecx,%ecx
  4046f2:	0f 84 d8 00 00 00    	je     4047d0 <_glob_strcmp+0x140>
  4046f8:	89 c7                	mov    %eax,%edi
  4046fa:	0f be 5d ff          	movsbl -0x1(%ebp),%ebx
  4046fe:	84 db                	test   %bl,%bl
  404700:	0f 84 92 01 00 00    	je     404898 <_glob_strcmp+0x208>
  404706:	8b 44 24 18          	mov    0x18(%esp),%eax
  40470a:	85 c0                	test   %eax,%eax
  40470c:	0f 85 de 00 00 00    	jne    4047f0 <_glob_strcmp+0x160>
  404712:	89 14 24             	mov    %edx,(%esp)
  404715:	89 54 24 1c          	mov    %edx,0x1c(%esp)
  404719:	e8 d2 5c 00 00       	call   40a3f0 <_tolower>
  40471e:	89 1c 24             	mov    %ebx,(%esp)
  404721:	89 c6                	mov    %eax,%esi
  404723:	e8 c8 5c 00 00       	call   40a3f0 <_tolower>
  404728:	8b 54 24 1c          	mov    0x1c(%esp),%edx
  40472c:	29 c6                	sub    %eax,%esi
  40472e:	85 f6                	test   %esi,%esi
  404730:	0f 84 81 00 00 00    	je     4047b7 <_glob_strcmp+0x127>
  404736:	89 d0                	mov    %edx,%eax
  404738:	29 d8                	sub    %ebx,%eax
  40473a:	8d b6 00 00 00 00    	lea    0x0(%esi),%esi
  404740:	83 c4 2c             	add    $0x2c,%esp
  404743:	5b                   	pop    %ebx
  404744:	5e                   	pop    %esi
  404745:	5f                   	pop    %edi
  404746:	5d                   	pop    %ebp
  404747:	c3                   	ret    
  404748:	0f b6 57 01          	movzbl 0x1(%edi),%edx
  40474c:	89 c3                	mov    %eax,%ebx
  40474e:	80 fa 2a             	cmp    $0x2a,%dl
  404751:	75 0b                	jne    40475e <_glob_strcmp+0xce>
  404753:	83 c3 01             	add    $0x1,%ebx
  404756:	0f b6 13             	movzbl (%ebx),%edx
  404759:	80 fa 2a             	cmp    $0x2a,%dl
  40475c:	74 f5                	je     404753 <_glob_strcmp+0xc3>
  40475e:	31 c0                	xor    %eax,%eax
  404760:	84 d2                	test   %dl,%dl
  404762:	74 dc                	je     404740 <_glob_strcmp+0xb0>
  404764:	8b 7c 24 10          	mov    0x10(%esp),%edi
  404768:	81 cf 00 00 01 00    	or     $0x10000,%edi
  40476e:	eb 09                	jmp    404779 <_glob_strcmp+0xe9>
  404770:	83 c6 01             	add    $0x1,%esi
  404773:	80 7e ff 00          	cmpb   $0x0,-0x1(%esi)
  404777:	74 c7                	je     404740 <_glob_strcmp+0xb0>
  404779:	89 f9                	mov    %edi,%ecx
  40477b:	89 f2                	mov    %esi,%edx
  40477d:	89 d8                	mov    %ebx,%eax
  40477f:	e8 0c ff ff ff       	call   404690 <_glob_strcmp>
  404784:	85 c0                	test   %eax,%eax
  404786:	75 e8                	jne    404770 <_glob_strcmp+0xe0>
  404788:	83 c4 2c             	add    $0x2c,%esp
  40478b:	31 c0                	xor    %eax,%eax
  40478d:	5b                   	pop    %ebx
  40478e:	5e                   	pop    %esi
  40478f:	5f                   	pop    %edi
  404790:	5d                   	pop    %ebp
  404791:	c3                   	ret    
  404792:	0f be 55 ff          	movsbl -0x1(%ebp),%edx
  404796:	85 d2                	test   %edx,%edx
  404798:	0f 84 0b 01 00 00    	je     4048a9 <_glob_strcmp+0x219>
  40479e:	80 7f 01 21          	cmpb   $0x21,0x1(%edi)
  4047a2:	74 7c                	je     404820 <_glob_strcmp+0x190>
  4047a4:	8b 4c 24 10          	mov    0x10(%esp),%ecx
  4047a8:	e8 73 fc ff ff       	call   404420 <_glob_in_set>
  4047ad:	85 c0                	test   %eax,%eax
  4047af:	89 c7                	mov    %eax,%edi
  4047b1:	0f 84 d7 00 00 00    	je     40488e <_glob_strcmp+0x1fe>
  4047b7:	0f b6 0f             	movzbl (%edi),%ecx
  4047ba:	83 c5 01             	add    $0x1,%ebp
  4047bd:	e9 02 ff ff ff       	jmp    4046c4 <_glob_strcmp+0x34>
  4047c2:	80 7d ff 00          	cmpb   $0x0,-0x1(%ebp)
  4047c6:	0f 84 d3 00 00 00    	je     40489f <_glob_strcmp+0x20f>
  4047cc:	89 c7                	mov    %eax,%edi
  4047ce:	eb e7                	jmp    4047b7 <_glob_strcmp+0x127>
  4047d0:	83 fa 7f             	cmp    $0x7f,%edx
  4047d3:	0f 85 1f ff ff ff    	jne    4046f8 <_glob_strcmp+0x68>
  4047d9:	0f be 57 01          	movsbl 0x1(%edi),%edx
  4047dd:	83 c7 02             	add    $0x2,%edi
  4047e0:	85 d2                	test   %edx,%edx
  4047e2:	0f 85 12 ff ff ff    	jne    4046fa <_glob_strcmp+0x6a>
  4047e8:	e9 0b ff ff ff       	jmp    4046f8 <_glob_strcmp+0x68>
  4047ed:	8d 76 00             	lea    0x0(%esi),%esi
  4047f0:	89 d6                	mov    %edx,%esi
  4047f2:	29 de                	sub    %ebx,%esi
  4047f4:	e9 35 ff ff ff       	jmp    40472e <_glob_strcmp+0x9e>
  4047f9:	8d b4 26 00 00 00 00 	lea    0x0(%esi,%eiz,1),%esi
  404800:	0f be 00             	movsbl (%eax),%eax
  404803:	3c 2e                	cmp    $0x2e,%al
  404805:	74 32                	je     404839 <_glob_strcmp+0x1a9>
  404807:	89 c1                	mov    %eax,%ecx
  404809:	83 e8 2e             	sub    $0x2e,%eax
  40480c:	f7 44 24 10 00 00 01 	testl  $0x10000,0x10(%esp)
  404813:	00 
  404814:	0f 85 8f fe ff ff    	jne    4046a9 <_glob_strcmp+0x19>
  40481a:	e9 21 ff ff ff       	jmp    404740 <_glob_strcmp+0xb0>
  40481f:	90                   	nop
  404820:	8b 4c 24 10          	mov    0x10(%esp),%ecx
  404824:	8d 5f 02             	lea    0x2(%edi),%ebx
  404827:	89 d8                	mov    %ebx,%eax
  404829:	e8 f2 fb ff ff       	call   404420 <_glob_in_set>
  40482e:	85 c0                	test   %eax,%eax
  404830:	74 1d                	je     40484f <_glob_strcmp+0x1bf>
  404832:	89 df                	mov    %ebx,%edi
  404834:	e9 7e ff ff ff       	jmp    4047b7 <_glob_strcmp+0x127>
  404839:	b9 2e 00 00 00       	mov    $0x2e,%ecx
  40483e:	66 90                	xchg   %ax,%ax
  404840:	e9 64 fe ff ff       	jmp    4046a9 <_glob_strcmp+0x19>
  404845:	0f be 06             	movsbl (%esi),%eax
  404848:	f7 d8                	neg    %eax
  40484a:	e9 f1 fe ff ff       	jmp    404740 <_glob_strcmp+0xb0>
  40484f:	0f b6 47 02          	movzbl 0x2(%edi),%eax
  404853:	8b 54 24 14          	mov    0x14(%esp),%edx
  404857:	3c 5d                	cmp    $0x5d,%al
  404859:	75 0f                	jne    40486a <_glob_strcmp+0x1da>
  40485b:	eb 56                	jmp    4048b3 <_glob_strcmp+0x223>
  40485d:	8d 76 00             	lea    0x0(%esi),%esi
  404860:	83 c3 01             	add    $0x1,%ebx
  404863:	84 c0                	test   %al,%al
  404865:	74 27                	je     40488e <_glob_strcmp+0x1fe>
  404867:	0f b6 03             	movzbl (%ebx),%eax
  40486a:	3c 5d                	cmp    $0x5d,%al
  40486c:	74 16                	je     404884 <_glob_strcmp+0x1f4>
  40486e:	3c 7f                	cmp    $0x7f,%al
  404870:	75 ee                	jne    404860 <_glob_strcmp+0x1d0>
  404872:	85 d2                	test   %edx,%edx
  404874:	75 09                	jne    40487f <_glob_strcmp+0x1ef>
  404876:	0f b6 43 01          	movzbl 0x1(%ebx),%eax
  40487a:	83 c3 01             	add    $0x1,%ebx
  40487d:	eb e1                	jmp    404860 <_glob_strcmp+0x1d0>
  40487f:	83 c3 01             	add    $0x1,%ebx
  404882:	eb e3                	jmp    404867 <_glob_strcmp+0x1d7>
  404884:	83 c3 01             	add    $0x1,%ebx
  404887:	89 df                	mov    %ebx,%edi
  404889:	e9 29 ff ff ff       	jmp    4047b7 <_glob_strcmp+0x127>
  40488e:	b8 5d 00 00 00       	mov    $0x5d,%eax
  404893:	e9 a8 fe ff ff       	jmp    404740 <_glob_strcmp+0xb0>
  404898:	31 db                	xor    %ebx,%ebx
  40489a:	e9 97 fe ff ff       	jmp    404736 <_glob_strcmp+0xa6>
  40489f:	b8 3f 00 00 00       	mov    $0x3f,%eax
  4048a4:	e9 97 fe ff ff       	jmp    404740 <_glob_strcmp+0xb0>
  4048a9:	b8 5b 00 00 00       	mov    $0x5b,%eax
  4048ae:	e9 8d fe ff ff       	jmp    404740 <_glob_strcmp+0xb0>
  4048b3:	8d 5f 03             	lea    0x3(%edi),%ebx
  4048b6:	0f b6 47 03          	movzbl 0x3(%edi),%eax
  4048ba:	8b 54 24 14          	mov    0x14(%esp),%edx
  4048be:	eb aa                	jmp    40486a <_glob_strcmp+0x1da>

004048c0 <_glob_registry.part.1>:
  4048c0:	57                   	push   %edi
  4048c1:	89 c7                	mov    %eax,%edi
  4048c3:	56                   	push   %esi
  4048c4:	53                   	push   %ebx
  4048c5:	83 ec 10             	sub    $0x10,%esp
  4048c8:	8b 40 04             	mov    0x4(%eax),%eax
  4048cb:	8b 4f 0c             	mov    0xc(%edi),%ecx
  4048ce:	85 c0                	test   %eax,%eax
  4048d0:	8d 70 ff             	lea    -0x1(%eax),%esi
  4048d3:	8d 1c 8d 00 00 00 00 	lea    0x0(,%ecx,4),%ebx
  4048da:	7e 1d                	jle    4048f9 <_glob_registry.part.1+0x39>
  4048dc:	8d 74 26 00          	lea    0x0(%esi,%eiz,1),%esi
  4048e0:	8b 57 08             	mov    0x8(%edi),%edx
  4048e3:	83 ee 01             	sub    $0x1,%esi
  4048e6:	8b 14 1a             	mov    (%edx,%ebx,1),%edx
  4048e9:	83 c3 04             	add    $0x4,%ebx
  4048ec:	89 14 24             	mov    %edx,(%esp)
  4048ef:	e8 a4 5a 00 00       	call   40a398 <_free>
  4048f4:	83 fe ff             	cmp    $0xffffffff,%esi
  4048f7:	75 e7                	jne    4048e0 <_glob_registry.part.1+0x20>
  4048f9:	8b 47 08             	mov    0x8(%edi),%eax
  4048fc:	89 04 24             	mov    %eax,(%esp)
  4048ff:	e8 94 5a 00 00       	call   40a398 <_free>
  404904:	83 c4 10             	add    $0x10,%esp
  404907:	31 c0                	xor    %eax,%eax
  404909:	5b                   	pop    %ebx
  40490a:	5e                   	pop    %esi
  40490b:	5f                   	pop    %edi
  40490c:	c3                   	ret    
  40490d:	8d 76 00             	lea    0x0(%esi),%esi

00404910 <_glob_store_entry.part.2>:
  404910:	57                   	push   %edi
  404911:	56                   	push   %esi
  404912:	89 c6                	mov    %eax,%esi
  404914:	53                   	push   %ebx
  404915:	89 d3                	mov    %edx,%ebx
  404917:	83 ec 10             	sub    $0x10,%esp
  40491a:	8b 52 04             	mov    0x4(%edx),%edx
  40491d:	03 53 0c             	add    0xc(%ebx),%edx
  404920:	8d 04 95 08 00 00 00 	lea    0x8(,%edx,4),%eax
  404927:	89 44 24 04          	mov    %eax,0x4(%esp)
  40492b:	8b 43 08             	mov    0x8(%ebx),%eax
  40492e:	89 04 24             	mov    %eax,(%esp)
  404931:	e8 c2 5a 00 00       	call   40a3f8 <_realloc>
  404936:	85 c0                	test   %eax,%eax
  404938:	89 c2                	mov    %eax,%edx
  40493a:	74 29                	je     404965 <_glob_store_entry.part.2+0x55>
  40493c:	8b 7b 04             	mov    0x4(%ebx),%edi
  40493f:	89 43 08             	mov    %eax,0x8(%ebx)
  404942:	8b 43 0c             	mov    0xc(%ebx),%eax
  404945:	8d 4f 01             	lea    0x1(%edi),%ecx
  404948:	01 c7                	add    %eax,%edi
  40494a:	01 c8                	add    %ecx,%eax
  40494c:	89 4b 04             	mov    %ecx,0x4(%ebx)
  40494f:	89 34 ba             	mov    %esi,(%edx,%edi,4)
  404952:	8b 53 08             	mov    0x8(%ebx),%edx
  404955:	c7 04 82 00 00 00 00 	movl   $0x0,(%edx,%eax,4)
  40495c:	83 c4 10             	add    $0x10,%esp
  40495f:	31 c0                	xor    %eax,%eax
  404961:	5b                   	pop    %ebx
  404962:	5e                   	pop    %esi
  404963:	5f                   	pop    %edi
  404964:	c3                   	ret    
  404965:	83 c4 10             	add    $0x10,%esp
  404968:	b8 01 00 00 00       	mov    $0x1,%eax
  40496d:	5b                   	pop    %ebx
  40496e:	5e                   	pop    %esi
  40496f:	5f                   	pop    %edi
  404970:	c3                   	ret    
  404971:	eb 0d                	jmp    404980 <_glob_store_entry>
  404973:	90                   	nop
  404974:	90                   	nop
  404975:	90                   	nop
  404976:	90                   	nop
  404977:	90                   	nop
  404978:	90                   	nop
  404979:	90                   	nop
  40497a:	90                   	nop
  40497b:	90                   	nop
  40497c:	90                   	nop
  40497d:	90                   	nop
  40497e:	90                   	nop
  40497f:	90                   	nop

00404980 <_glob_store_entry>:
  404980:	85 c0                	test   %eax,%eax
  404982:	75 0c                	jne    404990 <_glob_store_entry+0x10>
  404984:	b8 01 00 00 00       	mov    $0x1,%eax
  404989:	c3                   	ret    
  40498a:	8d b6 00 00 00 00    	lea    0x0(%esi),%esi
  404990:	85 d2                	test   %edx,%edx
  404992:	74 f0                	je     404984 <_glob_store_entry+0x4>
  404994:	e9 77 ff ff ff       	jmp    404910 <_glob_store_entry.part.2>
  404999:	8d b4 26 00 00 00 00 	lea    0x0(%esi,%eiz,1),%esi

004049a0 <_glob_store_collated_entries>:
  4049a0:	56                   	push   %esi
  4049a1:	89 d6                	mov    %edx,%esi
  4049a3:	53                   	push   %ebx
  4049a4:	89 c3                	mov    %eax,%ebx
  4049a6:	83 ec 14             	sub    $0x14,%esp
  4049a9:	8b 00                	mov    (%eax),%eax
  4049ab:	85 c0                	test   %eax,%eax
  4049ad:	74 05                	je     4049b4 <_glob_store_collated_entries+0x14>
  4049af:	e8 ec ff ff ff       	call   4049a0 <_glob_store_collated_entries>
  4049b4:	8b 43 08             	mov    0x8(%ebx),%eax
  4049b7:	89 f2                	mov    %esi,%edx
  4049b9:	e8 c2 ff ff ff       	call   404980 <_glob_store_entry>
  4049be:	8b 43 04             	mov    0x4(%ebx),%eax
  4049c1:	85 c0                	test   %eax,%eax
  4049c3:	74 07                	je     4049cc <_glob_store_collated_entries+0x2c>
  4049c5:	89 f2                	mov    %esi,%edx
  4049c7:	e8 d4 ff ff ff       	call   4049a0 <_glob_store_collated_entries>
  4049cc:	89 1c 24             	mov    %ebx,(%esp)
  4049cf:	e8 c4 59 00 00       	call   40a398 <_free>
  4049d4:	83 c4 14             	add    $0x14,%esp
  4049d7:	5b                   	pop    %ebx
  4049d8:	5e                   	pop    %esi
  4049d9:	c3                   	ret    
  4049da:	8d b6 00 00 00 00    	lea    0x0(%esi),%esi

004049e0 <_glob_match>:
  4049e0:	55                   	push   %ebp
  4049e1:	89 e5                	mov    %esp,%ebp
  4049e3:	57                   	push   %edi
  4049e4:	56                   	push   %esi
  4049e5:	53                   	push   %ebx
  4049e6:	89 c3                	mov    %eax,%ebx
  4049e8:	83 ec 6c             	sub    $0x6c,%esp
  4049eb:	89 55 cc             	mov    %edx,-0x34(%ebp)
  4049ee:	89 4d a4             	mov    %ecx,-0x5c(%ebp)
  4049f1:	89 04 24             	mov    %eax,(%esp)
  4049f4:	e8 c7 59 00 00       	call   40a3c0 <_strlen>
  4049f9:	8d 50 01             	lea    0x1(%eax),%edx
  4049fc:	83 c0 10             	add    $0x10,%eax
  4049ff:	83 e0 f0             	and    $0xfffffff0,%eax
  404a02:	e8 59 f9 ff ff       	call   404360 <___chkstk_ms>
  404a07:	29 c4                	sub    %eax,%esp
  404a09:	8d 44 24 0c          	lea    0xc(%esp),%eax
  404a0d:	89 54 24 08          	mov    %edx,0x8(%esp)
  404a11:	89 5c 24 04          	mov    %ebx,0x4(%esp)
  404a15:	89 04 24             	mov    %eax,(%esp)
  404a18:	e8 93 59 00 00       	call   40a3b0 <_memcpy>
  404a1d:	89 04 24             	mov    %eax,(%esp)
  404a20:	e8 4b 06 00 00       	call   405070 <___mingw_dirname>
  404a25:	c7 45 e4 00 00 00 00 	movl   $0x0,-0x1c(%ebp)
  404a2c:	89 45 b8             	mov    %eax,-0x48(%ebp)
  404a2f:	8d 45 d8             	lea    -0x28(%ebp),%eax
  404a32:	e8 f9 fb ff ff       	call   404630 <_glob_initialise>
  404a37:	85 c0                	test   %eax,%eax
  404a39:	74 08                	je     404a43 <_glob_match+0x63>
  404a3b:	8d 65 f4             	lea    -0xc(%ebp),%esp
  404a3e:	5b                   	pop    %ebx
  404a3f:	5e                   	pop    %esi
  404a40:	5f                   	pop    %edi
  404a41:	5d                   	pop    %ebp
  404a42:	c3                   	ret    
  404a43:	8b 55 cc             	mov    -0x34(%ebp),%edx
  404a46:	8b 45 b8             	mov    -0x48(%ebp),%eax
  404a49:	e8 42 f9 ff ff       	call   404390 <_is_glob_pattern>
  404a4e:	85 c0                	test   %eax,%eax
  404a50:	0f 84 5a 02 00 00    	je     404cb0 <_glob_match+0x2d0>
  404a56:	8b 55 cc             	mov    -0x34(%ebp),%edx
  404a59:	8d 45 d8             	lea    -0x28(%ebp),%eax
  404a5c:	89 04 24             	mov    %eax,(%esp)
  404a5f:	8b 4d a4             	mov    -0x5c(%ebp),%ecx
  404a62:	8b 45 b8             	mov    -0x48(%ebp),%eax
  404a65:	80 ce 80             	or     $0x80,%dh
  404a68:	e8 73 ff ff ff       	call   4049e0 <_glob_match>
  404a6d:	85 c0                	test   %eax,%eax
  404a6f:	75 ca                	jne    404a3b <_glob_match+0x5b>
  404a71:	0f b6 43 01          	movzbl 0x1(%ebx),%eax
  404a75:	3c 5c                	cmp    $0x5c,%al
  404a77:	0f 84 5b 03 00 00    	je     404dd8 <_glob_match+0x3f8>
  404a7d:	3c 2f                	cmp    $0x2f,%al
  404a7f:	0f 84 53 03 00 00    	je     404dd8 <_glob_match+0x3f8>
  404a85:	8b 75 b8             	mov    -0x48(%ebp),%esi
  404a88:	bf 44 c1 40 00       	mov    $0x40c144,%edi
  404a8d:	b9 02 00 00 00       	mov    $0x2,%ecx
  404a92:	f3 a6                	repz cmpsb %es:(%edi),%ds:(%esi)
  404a94:	0f 85 3e 03 00 00    	jne    404dd8 <_glob_match+0x3f8>
  404a9a:	c6 45 a3 5c          	movb   $0x5c,-0x5d(%ebp)
  404a9e:	f6 45 cc 10          	testb  $0x10,-0x34(%ebp)
  404aa2:	89 5d c0             	mov    %ebx,-0x40(%ebp)
  404aa5:	c7 45 b8 00 00 00 00 	movl   $0x0,-0x48(%ebp)
  404aac:	0f 85 33 04 00 00    	jne    404ee5 <_glob_match+0x505>
  404ab2:	8b 45 e0             	mov    -0x20(%ebp),%eax
  404ab5:	89 45 c8             	mov    %eax,-0x38(%ebp)
  404ab8:	8b 00                	mov    (%eax),%eax
  404aba:	85 c0                	test   %eax,%eax
  404abc:	0f 84 71 04 00 00    	je     404f33 <_glob_match+0x553>
  404ac2:	8b 4d cc             	mov    -0x34(%ebp),%ecx
  404ac5:	c7 45 c4 02 00 00 00 	movl   $0x2,-0x3c(%ebp)
  404acc:	89 cf                	mov    %ecx,%edi
  404ace:	83 e7 04             	and    $0x4,%edi
  404ad1:	89 7d 98             	mov    %edi,-0x68(%ebp)
  404ad4:	89 cf                	mov    %ecx,%edi
  404ad6:	81 e7 00 80 00 00    	and    $0x8000,%edi
  404adc:	89 7d d0             	mov    %edi,-0x30(%ebp)
  404adf:	90                   	nop
  404ae0:	83 7d c4 01          	cmpl   $0x1,-0x3c(%ebp)
  404ae4:	0f 84 58 02 00 00    	je     404d42 <_glob_match+0x362>
  404aea:	89 04 24             	mov    %eax,(%esp)
  404aed:	e8 ee 0a 00 00       	call   4055e0 <___mingw_opendir>
  404af2:	85 c0                	test   %eax,%eax
  404af4:	89 45 d4             	mov    %eax,-0x2c(%ebp)
  404af7:	0f 84 76 03 00 00    	je     404e73 <_glob_match+0x493>
  404afd:	8b 45 b8             	mov    -0x48(%ebp),%eax
  404b00:	85 c0                	test   %eax,%eax
  404b02:	0f 84 bd 03 00 00    	je     404ec5 <_glob_match+0x4e5>
  404b08:	8b 45 c8             	mov    -0x38(%ebp),%eax
  404b0b:	8b 00                	mov    (%eax),%eax
  404b0d:	89 04 24             	mov    %eax,(%esp)
  404b10:	e8 ab 58 00 00       	call   40a3c0 <_strlen>
  404b15:	89 45 b4             	mov    %eax,-0x4c(%ebp)
  404b18:	8b 45 cc             	mov    -0x34(%ebp),%eax
  404b1b:	c7 45 bc 00 00 00 00 	movl   $0x0,-0x44(%ebp)
  404b22:	83 e0 40             	and    $0x40,%eax
  404b25:	89 45 a8             	mov    %eax,-0x58(%ebp)
  404b28:	8b 45 d4             	mov    -0x2c(%ebp),%eax
  404b2b:	89 04 24             	mov    %eax,(%esp)
  404b2e:	e8 4d 0c 00 00       	call   405780 <___mingw_readdir>
  404b33:	85 c0                	test   %eax,%eax
  404b35:	89 c6                	mov    %eax,%esi
  404b37:	0f 84 e8 01 00 00    	je     404d25 <_glob_match+0x345>
  404b3d:	8b 45 d0             	mov    -0x30(%ebp),%eax
  404b40:	85 c0                	test   %eax,%eax
  404b42:	74 06                	je     404b4a <_glob_match+0x16a>
  404b44:	83 7e 08 10          	cmpl   $0x10,0x8(%esi)
  404b48:	75 de                	jne    404b28 <_glob_match+0x148>
  404b4a:	8b 4d cc             	mov    -0x34(%ebp),%ecx
  404b4d:	8d 5e 0c             	lea    0xc(%esi),%ebx
  404b50:	8b 45 c0             	mov    -0x40(%ebp),%eax
  404b53:	89 da                	mov    %ebx,%edx
  404b55:	e8 36 fb ff ff       	call   404690 <_glob_strcmp>
  404b5a:	85 c0                	test   %eax,%eax
  404b5c:	75 ca                	jne    404b28 <_glob_match+0x148>
  404b5e:	0f b7 56 06          	movzwl 0x6(%esi),%edx
  404b62:	8b 4d b4             	mov    -0x4c(%ebp),%ecx
  404b65:	89 65 b0             	mov    %esp,-0x50(%ebp)
  404b68:	8d 44 11 11          	lea    0x11(%ecx,%edx,1),%eax
  404b6c:	83 e0 f0             	and    $0xfffffff0,%eax
  404b6f:	e8 ec f7 ff ff       	call   404360 <___chkstk_ms>
  404b74:	29 c4                	sub    %eax,%esp
  404b76:	31 c0                	xor    %eax,%eax
  404b78:	8d 7c 24 0c          	lea    0xc(%esp),%edi
  404b7c:	85 c9                	test   %ecx,%ecx
  404b7e:	89 7d ac             	mov    %edi,-0x54(%ebp)
  404b81:	0f 85 ed 01 00 00    	jne    404d74 <_glob_match+0x394>
  404b87:	83 c2 01             	add    $0x1,%edx
  404b8a:	01 f8                	add    %edi,%eax
  404b8c:	89 54 24 08          	mov    %edx,0x8(%esp)
  404b90:	89 5c 24 04          	mov    %ebx,0x4(%esp)
  404b94:	89 e3                	mov    %esp,%ebx
  404b96:	89 04 24             	mov    %eax,(%esp)
  404b99:	e8 12 58 00 00       	call   40a3b0 <_memcpy>
  404b9e:	89 3c 24             	mov    %edi,(%esp)
  404ba1:	e8 1a 58 00 00       	call   40a3c0 <_strlen>
  404ba6:	83 c0 10             	add    $0x10,%eax
  404ba9:	83 e0 f0             	and    $0xfffffff0,%eax
  404bac:	e8 af f7 ff ff       	call   404360 <___chkstk_ms>
  404bb1:	8b 75 ac             	mov    -0x54(%ebp),%esi
  404bb4:	29 c4                	sub    %eax,%esp
  404bb6:	8d 4c 24 0c          	lea    0xc(%esp),%ecx
  404bba:	89 ca                	mov    %ecx,%edx
  404bbc:	eb 0f                	jmp    404bcd <_glob_match+0x1ed>
  404bbe:	66 90                	xchg   %ax,%ax
  404bc0:	83 c2 01             	add    $0x1,%edx
  404bc3:	83 c6 01             	add    $0x1,%esi
  404bc6:	84 c0                	test   %al,%al
  404bc8:	88 42 ff             	mov    %al,-0x1(%edx)
  404bcb:	74 1b                	je     404be8 <_glob_match+0x208>
  404bcd:	0f b6 06             	movzbl (%esi),%eax
  404bd0:	3c 7f                	cmp    $0x7f,%al
  404bd2:	75 ec                	jne    404bc0 <_glob_match+0x1e0>
  404bd4:	0f b6 46 01          	movzbl 0x1(%esi),%eax
  404bd8:	83 c6 01             	add    $0x1,%esi
  404bdb:	83 c2 01             	add    $0x1,%edx
  404bde:	83 c6 01             	add    $0x1,%esi
  404be1:	84 c0                	test   %al,%al
  404be3:	88 42 ff             	mov    %al,-0x1(%edx)
  404be6:	75 e5                	jne    404bcd <_glob_match+0x1ed>
  404be8:	89 0c 24             	mov    %ecx,(%esp)
  404beb:	e8 18 59 00 00       	call   40a508 <_strdup>
  404bf0:	89 dc                	mov    %ebx,%esp
  404bf2:	85 c0                	test   %eax,%eax
  404bf4:	89 c6                	mov    %eax,%esi
  404bf6:	0f 84 c6 01 00 00    	je     404dc2 <_glob_match+0x3e2>
  404bfc:	31 c0                	xor    %eax,%eax
  404bfe:	83 7d c4 02          	cmpl   $0x2,-0x3c(%ebp)
  404c02:	0f 94 c0             	sete   %al
  404c05:	83 e8 01             	sub    $0x1,%eax
  404c08:	21 45 c4             	and    %eax,-0x3c(%ebp)
  404c0b:	8b 45 a8             	mov    -0x58(%ebp),%eax
  404c0e:	85 c0                	test   %eax,%eax
  404c10:	0f 85 9d 01 00 00    	jne    404db3 <_glob_match+0x3d3>
  404c16:	8b 5d bc             	mov    -0x44(%ebp),%ebx
  404c19:	85 db                	test   %ebx,%ebx
  404c1b:	0f 84 bb 02 00 00    	je     404edc <_glob_match+0x4fc>
  404c21:	8b 7d cc             	mov    -0x34(%ebp),%edi
  404c24:	81 e7 00 40 00 00    	and    $0x4000,%edi
  404c2a:	eb 18                	jmp    404c44 <_glob_match+0x264>
  404c2c:	8d 74 26 00          	lea    0x0(%esi,%eiz,1),%esi
  404c30:	e8 cb 57 00 00       	call   40a400 <_strcoll>
  404c35:	8b 0b                	mov    (%ebx),%ecx
  404c37:	8b 53 04             	mov    0x4(%ebx),%edx
  404c3a:	85 c0                	test   %eax,%eax
  404c3c:	7e 22                	jle    404c60 <_glob_match+0x280>
  404c3e:	85 d2                	test   %edx,%edx
  404c40:	74 24                	je     404c66 <_glob_match+0x286>
  404c42:	89 d3                	mov    %edx,%ebx
  404c44:	8b 43 08             	mov    0x8(%ebx),%eax
  404c47:	85 ff                	test   %edi,%edi
  404c49:	89 34 24             	mov    %esi,(%esp)
  404c4c:	89 44 24 04          	mov    %eax,0x4(%esp)
  404c50:	75 de                	jne    404c30 <_glob_match+0x250>
  404c52:	e8 b9 58 00 00       	call   40a510 <_stricoll>
  404c57:	8b 0b                	mov    (%ebx),%ecx
  404c59:	8b 53 04             	mov    0x4(%ebx),%edx
  404c5c:	85 c0                	test   %eax,%eax
  404c5e:	7f de                	jg     404c3e <_glob_match+0x25e>
  404c60:	89 ca                	mov    %ecx,%edx
  404c62:	85 d2                	test   %edx,%edx
  404c64:	75 dc                	jne    404c42 <_glob_match+0x262>
  404c66:	89 c1                	mov    %eax,%ecx
  404c68:	89 4d ac             	mov    %ecx,-0x54(%ebp)
  404c6b:	c7 04 24 0c 00 00 00 	movl   $0xc,(%esp)
  404c72:	e8 31 57 00 00       	call   40a3a8 <_malloc>
  404c77:	85 c0                	test   %eax,%eax
  404c79:	74 22                	je     404c9d <_glob_match+0x2bd>
  404c7b:	85 db                	test   %ebx,%ebx
  404c7d:	89 70 08             	mov    %esi,0x8(%eax)
  404c80:	c7 40 04 00 00 00 00 	movl   $0x0,0x4(%eax)
  404c87:	c7 00 00 00 00 00    	movl   $0x0,(%eax)
  404c8d:	74 0e                	je     404c9d <_glob_match+0x2bd>
  404c8f:	8b 4d ac             	mov    -0x54(%ebp),%ecx
  404c92:	85 c9                	test   %ecx,%ecx
  404c94:	0f 8e 16 02 00 00    	jle    404eb0 <_glob_match+0x4d0>
  404c9a:	89 43 04             	mov    %eax,0x4(%ebx)
  404c9d:	8b 7d bc             	mov    -0x44(%ebp),%edi
  404ca0:	85 ff                	test   %edi,%edi
  404ca2:	0f 84 15 02 00 00    	je     404ebd <_glob_match+0x4dd>
  404ca8:	8b 65 b0             	mov    -0x50(%ebp),%esp
  404cab:	e9 78 fe ff ff       	jmp    404b28 <_glob_match+0x148>
  404cb0:	8b 45 b8             	mov    -0x48(%ebp),%eax
  404cb3:	89 e6                	mov    %esp,%esi
  404cb5:	89 04 24             	mov    %eax,(%esp)
  404cb8:	e8 03 57 00 00       	call   40a3c0 <_strlen>
  404cbd:	83 c0 10             	add    $0x10,%eax
  404cc0:	83 e0 f0             	and    $0xfffffff0,%eax
  404cc3:	e8 98 f6 ff ff       	call   404360 <___chkstk_ms>
  404cc8:	8b 55 b8             	mov    -0x48(%ebp),%edx
  404ccb:	29 c4                	sub    %eax,%esp
  404ccd:	8d 7c 24 0c          	lea    0xc(%esp),%edi
  404cd1:	89 f9                	mov    %edi,%ecx
  404cd3:	eb 0d                	jmp    404ce2 <_glob_match+0x302>
  404cd5:	83 c1 01             	add    $0x1,%ecx
  404cd8:	83 c2 01             	add    $0x1,%edx
  404cdb:	84 c0                	test   %al,%al
  404cdd:	88 41 ff             	mov    %al,-0x1(%ecx)
  404ce0:	74 1b                	je     404cfd <_glob_match+0x31d>
  404ce2:	0f b6 02             	movzbl (%edx),%eax
  404ce5:	3c 7f                	cmp    $0x7f,%al
  404ce7:	75 ec                	jne    404cd5 <_glob_match+0x2f5>
  404ce9:	0f b6 42 01          	movzbl 0x1(%edx),%eax
  404ced:	83 c2 01             	add    $0x1,%edx
  404cf0:	83 c1 01             	add    $0x1,%ecx
  404cf3:	83 c2 01             	add    $0x1,%edx
  404cf6:	84 c0                	test   %al,%al
  404cf8:	88 41 ff             	mov    %al,-0x1(%ecx)
  404cfb:	75 e5                	jne    404ce2 <_glob_match+0x302>
  404cfd:	89 3c 24             	mov    %edi,(%esp)
  404d00:	e8 03 58 00 00       	call   40a508 <_strdup>
  404d05:	89 f4                	mov    %esi,%esp
  404d07:	89 c1                	mov    %eax,%ecx
  404d09:	b8 01 00 00 00       	mov    $0x1,%eax
  404d0e:	85 c9                	test   %ecx,%ecx
  404d10:	0f 84 25 fd ff ff    	je     404a3b <_glob_match+0x5b>
  404d16:	8d 55 d8             	lea    -0x28(%ebp),%edx
  404d19:	89 c8                	mov    %ecx,%eax
  404d1b:	e8 f0 fb ff ff       	call   404910 <_glob_store_entry.part.2>
  404d20:	e9 48 fd ff ff       	jmp    404a6d <_glob_match+0x8d>
  404d25:	8b 45 d4             	mov    -0x2c(%ebp),%eax
  404d28:	89 04 24             	mov    %eax,(%esp)
  404d2b:	e8 a0 0a 00 00       	call   4057d0 <___mingw_closedir>
  404d30:	8b 75 bc             	mov    -0x44(%ebp),%esi
  404d33:	85 f6                	test   %esi,%esi
  404d35:	74 0b                	je     404d42 <_glob_match+0x362>
  404d37:	8b 55 08             	mov    0x8(%ebp),%edx
  404d3a:	8b 45 bc             	mov    -0x44(%ebp),%eax
  404d3d:	e8 5e fc ff ff       	call   4049a0 <_glob_store_collated_entries>
  404d42:	83 45 c8 04          	addl   $0x4,-0x38(%ebp)
  404d46:	8b 7d c8             	mov    -0x38(%ebp),%edi
  404d49:	8b 47 fc             	mov    -0x4(%edi),%eax
  404d4c:	89 04 24             	mov    %eax,(%esp)
  404d4f:	e8 44 56 00 00       	call   40a398 <_free>
  404d54:	8b 07                	mov    (%edi),%eax
  404d56:	85 c0                	test   %eax,%eax
  404d58:	0f 85 82 fd ff ff    	jne    404ae0 <_glob_match+0x100>
  404d5e:	8b 45 e0             	mov    -0x20(%ebp),%eax
  404d61:	89 04 24             	mov    %eax,(%esp)
  404d64:	e8 2f 56 00 00       	call   40a398 <_free>
  404d69:	8b 45 c4             	mov    -0x3c(%ebp),%eax
  404d6c:	8d 65 f4             	lea    -0xc(%ebp),%esp
  404d6f:	5b                   	pop    %ebx
  404d70:	5e                   	pop    %esi
  404d71:	5f                   	pop    %edi
  404d72:	5d                   	pop    %ebp
  404d73:	c3                   	ret    
  404d74:	8b 45 c8             	mov    -0x38(%ebp),%eax
  404d77:	8b 75 b4             	mov    -0x4c(%ebp),%esi
  404d7a:	89 55 9c             	mov    %edx,-0x64(%ebp)
  404d7d:	8b 00                	mov    (%eax),%eax
  404d7f:	89 74 24 08          	mov    %esi,0x8(%esp)
  404d83:	89 3c 24             	mov    %edi,(%esp)
  404d86:	89 44 24 04          	mov    %eax,0x4(%esp)
  404d8a:	e8 21 56 00 00       	call   40a3b0 <_memcpy>
  404d8f:	0f b6 44 34 0b       	movzbl 0xb(%esp,%esi,1),%eax
  404d94:	8b 55 9c             	mov    -0x64(%ebp),%edx
  404d97:	3c 5c                	cmp    $0x5c,%al
  404d99:	74 35                	je     404dd0 <_glob_match+0x3f0>
  404d9b:	3c 2f                	cmp    $0x2f,%al
  404d9d:	74 31                	je     404dd0 <_glob_match+0x3f0>
  404d9f:	8b 75 b4             	mov    -0x4c(%ebp),%esi
  404da2:	0f b6 4d a3          	movzbl -0x5d(%ebp),%ecx
  404da6:	89 f0                	mov    %esi,%eax
  404da8:	83 c0 01             	add    $0x1,%eax
  404dab:	88 0c 37             	mov    %cl,(%edi,%esi,1)
  404dae:	e9 d4 fd ff ff       	jmp    404b87 <_glob_match+0x1a7>
  404db3:	8b 55 08             	mov    0x8(%ebp),%edx
  404db6:	89 f0                	mov    %esi,%eax
  404db8:	e8 c3 fb ff ff       	call   404980 <_glob_store_entry>
  404dbd:	e9 e6 fe ff ff       	jmp    404ca8 <_glob_match+0x2c8>
  404dc2:	c7 45 c4 03 00 00 00 	movl   $0x3,-0x3c(%ebp)
  404dc9:	e9 da fe ff ff       	jmp    404ca8 <_glob_match+0x2c8>
  404dce:	66 90                	xchg   %ax,%ax
  404dd0:	8b 45 b4             	mov    -0x4c(%ebp),%eax
  404dd3:	e9 af fd ff ff       	jmp    404b87 <_glob_match+0x1a7>
  404dd8:	8b 45 b8             	mov    -0x48(%ebp),%eax
  404ddb:	89 04 24             	mov    %eax,(%esp)
  404dde:	e8 dd 55 00 00       	call   40a3c0 <_strlen>
  404de3:	01 d8                	add    %ebx,%eax
  404de5:	39 c3                	cmp    %eax,%ebx
  404de7:	0f 83 94 01 00 00    	jae    404f81 <_glob_match+0x5a1>
  404ded:	0f b6 10             	movzbl (%eax),%edx
  404df0:	80 fa 2f             	cmp    $0x2f,%dl
  404df3:	0f 84 7d 01 00 00    	je     404f76 <_glob_match+0x596>
  404df9:	80 fa 5c             	cmp    $0x5c,%dl
  404dfc:	75 1d                	jne    404e1b <_glob_match+0x43b>
  404dfe:	66 90                	xchg   %ax,%ax
  404e00:	e9 71 01 00 00       	jmp    404f76 <_glob_match+0x596>
  404e05:	0f b6 40 ff          	movzbl -0x1(%eax),%eax
  404e09:	3c 5c                	cmp    $0x5c,%al
  404e0b:	0f 84 c0 00 00 00    	je     404ed1 <_glob_match+0x4f1>
  404e11:	3c 2f                	cmp    $0x2f,%al
  404e13:	0f 84 b8 00 00 00    	je     404ed1 <_glob_match+0x4f1>
  404e19:	89 d0                	mov    %edx,%eax
  404e1b:	8d 50 ff             	lea    -0x1(%eax),%edx
  404e1e:	39 da                	cmp    %ebx,%edx
  404e20:	75 e3                	jne    404e05 <_glob_match+0x425>
  404e22:	0f b6 40 ff          	movzbl -0x1(%eax),%eax
  404e26:	89 55 c0             	mov    %edx,-0x40(%ebp)
  404e29:	88 45 a3             	mov    %al,-0x5d(%ebp)
  404e2c:	80 7d a3 5c          	cmpb   $0x5c,-0x5d(%ebp)
  404e30:	0f 85 0c 01 00 00    	jne    404f42 <_glob_match+0x562>
  404e36:	8b 45 c0             	mov    -0x40(%ebp),%eax
  404e39:	0f b6 4d a3          	movzbl -0x5d(%ebp),%ecx
  404e3d:	83 c0 01             	add    $0x1,%eax
  404e40:	0f b6 10             	movzbl (%eax),%edx
  404e43:	80 fa 5c             	cmp    $0x5c,%dl
  404e46:	75 0d                	jne    404e55 <_glob_match+0x475>
  404e48:	83 c0 01             	add    $0x1,%eax
  404e4b:	89 d1                	mov    %edx,%ecx
  404e4d:	0f b6 10             	movzbl (%eax),%edx
  404e50:	80 fa 5c             	cmp    $0x5c,%dl
  404e53:	74 f3                	je     404e48 <_glob_match+0x468>
  404e55:	80 fa 2f             	cmp    $0x2f,%dl
  404e58:	74 ee                	je     404e48 <_glob_match+0x468>
  404e5a:	89 45 c0             	mov    %eax,-0x40(%ebp)
  404e5d:	88 4d a3             	mov    %cl,-0x5d(%ebp)
  404e60:	8b 45 b8             	mov    -0x48(%ebp),%eax
  404e63:	85 c0                	test   %eax,%eax
  404e65:	0f 85 47 fc ff ff    	jne    404ab2 <_glob_match+0xd2>
  404e6b:	8b 5d c0             	mov    -0x40(%ebp),%ebx
  404e6e:	e9 2b fc ff ff       	jmp    404a9e <_glob_match+0xbe>
  404e73:	8b 5d 98             	mov    -0x68(%ebp),%ebx
  404e76:	85 db                	test   %ebx,%ebx
  404e78:	75 28                	jne    404ea2 <_glob_match+0x4c2>
  404e7a:	8b 7d a4             	mov    -0x5c(%ebp),%edi
  404e7d:	85 ff                	test   %edi,%edi
  404e7f:	0f 84 bd fe ff ff    	je     404d42 <_glob_match+0x362>
  404e85:	e8 7e 55 00 00       	call   40a408 <__errno>
  404e8a:	8b 00                	mov    (%eax),%eax
  404e8c:	89 44 24 04          	mov    %eax,0x4(%esp)
  404e90:	8b 45 c8             	mov    -0x38(%ebp),%eax
  404e93:	8b 00                	mov    (%eax),%eax
  404e95:	89 04 24             	mov    %eax,(%esp)
  404e98:	ff d7                	call   *%edi
  404e9a:	85 c0                	test   %eax,%eax
  404e9c:	0f 84 a0 fe ff ff    	je     404d42 <_glob_match+0x362>
  404ea2:	c7 45 c4 01 00 00 00 	movl   $0x1,-0x3c(%ebp)
  404ea9:	e9 94 fe ff ff       	jmp    404d42 <_glob_match+0x362>
  404eae:	66 90                	xchg   %ax,%ax
  404eb0:	8b 7d bc             	mov    -0x44(%ebp),%edi
  404eb3:	89 03                	mov    %eax,(%ebx)
  404eb5:	85 ff                	test   %edi,%edi
  404eb7:	0f 85 eb fd ff ff    	jne    404ca8 <_glob_match+0x2c8>
  404ebd:	89 45 bc             	mov    %eax,-0x44(%ebp)
  404ec0:	e9 e3 fd ff ff       	jmp    404ca8 <_glob_match+0x2c8>
  404ec5:	c7 45 b4 00 00 00 00 	movl   $0x0,-0x4c(%ebp)
  404ecc:	e9 47 fc ff ff       	jmp    404b18 <_glob_match+0x138>
  404ed1:	89 55 c0             	mov    %edx,-0x40(%ebp)
  404ed4:	88 45 a3             	mov    %al,-0x5d(%ebp)
  404ed7:	e9 50 ff ff ff       	jmp    404e2c <_glob_match+0x44c>
  404edc:	31 db                	xor    %ebx,%ebx
  404ede:	31 c9                	xor    %ecx,%ecx
  404ee0:	e9 83 fd ff ff       	jmp    404c68 <_glob_match+0x288>
  404ee5:	8b 55 cc             	mov    -0x34(%ebp),%edx
  404ee8:	89 d8                	mov    %ebx,%eax
  404eea:	e8 a1 f4 ff ff       	call   404390 <_is_glob_pattern>
  404eef:	85 c0                	test   %eax,%eax
  404ef1:	0f 85 bb fb ff ff    	jne    404ab2 <_glob_match+0xd2>
  404ef7:	89 1c 24             	mov    %ebx,(%esp)
  404efa:	89 e6                	mov    %esp,%esi
  404efc:	e8 bf 54 00 00       	call   40a3c0 <_strlen>
  404f01:	83 c0 10             	add    $0x10,%eax
  404f04:	83 e0 f0             	and    $0xfffffff0,%eax
  404f07:	e8 54 f4 ff ff       	call   404360 <___chkstk_ms>
  404f0c:	29 c4                	sub    %eax,%esp
  404f0e:	8d 4c 24 0c          	lea    0xc(%esp),%ecx
  404f12:	89 ca                	mov    %ecx,%edx
  404f14:	eb 0d                	jmp    404f23 <_glob_match+0x543>
  404f16:	83 c2 01             	add    $0x1,%edx
  404f19:	83 c3 01             	add    $0x1,%ebx
  404f1c:	84 c0                	test   %al,%al
  404f1e:	88 42 ff             	mov    %al,-0x1(%edx)
  404f21:	74 32                	je     404f55 <_glob_match+0x575>
  404f23:	0f b6 03             	movzbl (%ebx),%eax
  404f26:	3c 7f                	cmp    $0x7f,%al
  404f28:	75 ec                	jne    404f16 <_glob_match+0x536>
  404f2a:	0f b6 43 01          	movzbl 0x1(%ebx),%eax
  404f2e:	83 c3 01             	add    $0x1,%ebx
  404f31:	eb e3                	jmp    404f16 <_glob_match+0x536>
  404f33:	8b 45 c8             	mov    -0x38(%ebp),%eax
  404f36:	c7 45 c4 02 00 00 00 	movl   $0x2,-0x3c(%ebp)
  404f3d:	e9 1f fe ff ff       	jmp    404d61 <_glob_match+0x381>
  404f42:	80 7d a3 2f          	cmpb   $0x2f,-0x5d(%ebp)
  404f46:	0f 84 ea fe ff ff    	je     404e36 <_glob_match+0x456>
  404f4c:	c6 45 a3 5c          	movb   $0x5c,-0x5d(%ebp)
  404f50:	e9 0b ff ff ff       	jmp    404e60 <_glob_match+0x480>
  404f55:	89 0c 24             	mov    %ecx,(%esp)
  404f58:	e8 ab 55 00 00       	call   40a508 <_strdup>
  404f5d:	8b 55 08             	mov    0x8(%ebp),%edx
  404f60:	89 f4                	mov    %esi,%esp
  404f62:	e8 19 fa ff ff       	call   404980 <_glob_store_entry>
  404f67:	8b 45 e0             	mov    -0x20(%ebp),%eax
  404f6a:	c7 45 c4 00 00 00 00 	movl   $0x0,-0x3c(%ebp)
  404f71:	e9 eb fd ff ff       	jmp    404d61 <_glob_match+0x381>
  404f76:	88 55 a3             	mov    %dl,-0x5d(%ebp)
  404f79:	89 45 c0             	mov    %eax,-0x40(%ebp)
  404f7c:	e9 ab fe ff ff       	jmp    404e2c <_glob_match+0x44c>
  404f81:	0f b6 08             	movzbl (%eax),%ecx
  404f84:	89 45 c0             	mov    %eax,-0x40(%ebp)
  404f87:	88 4d a3             	mov    %cl,-0x5d(%ebp)
  404f8a:	e9 9d fe ff ff       	jmp    404e2c <_glob_match+0x44c>
  404f8f:	90                   	nop

00404f90 <___mingw_glob>:
  404f90:	55                   	push   %ebp
  404f91:	89 e5                	mov    %esp,%ebp
  404f93:	57                   	push   %edi
  404f94:	56                   	push   %esi
  404f95:	53                   	push   %ebx
  404f96:	83 ec 1c             	sub    $0x1c,%esp
  404f99:	8b 75 14             	mov    0x14(%ebp),%esi
  404f9c:	8b 5d 08             	mov    0x8(%ebp),%ebx
  404f9f:	81 3e 46 c1 40 00    	cmpl   $0x40c146,(%esi)
  404fa5:	74 0d                	je     404fb4 <___mingw_glob+0x24>
  404fa7:	89 f0                	mov    %esi,%eax
  404fa9:	e8 82 f6 ff ff       	call   404630 <_glob_initialise>
  404fae:	c7 06 46 c1 40 00    	movl   $0x40c146,(%esi)
  404fb4:	89 34 24             	mov    %esi,(%esp)
  404fb7:	8b 4d 10             	mov    0x10(%ebp),%ecx
  404fba:	89 d8                	mov    %ebx,%eax
  404fbc:	8b 55 0c             	mov    0xc(%ebp),%edx
  404fbf:	e8 1c fa ff ff       	call   4049e0 <_glob_match>
  404fc4:	83 f8 02             	cmp    $0x2,%eax
  404fc7:	89 c7                	mov    %eax,%edi
  404fc9:	74 0a                	je     404fd5 <___mingw_glob+0x45>
  404fcb:	8d 65 f4             	lea    -0xc(%ebp),%esp
  404fce:	89 f8                	mov    %edi,%eax
  404fd0:	5b                   	pop    %ebx
  404fd1:	5e                   	pop    %esi
  404fd2:	5f                   	pop    %edi
  404fd3:	5d                   	pop    %ebp
  404fd4:	c3                   	ret    
  404fd5:	f6 45 0c 10          	testb  $0x10,0xc(%ebp)
  404fd9:	74 f0                	je     404fcb <___mingw_glob+0x3b>
  404fdb:	89 65 e4             	mov    %esp,-0x1c(%ebp)
  404fde:	89 1c 24             	mov    %ebx,(%esp)
  404fe1:	e8 da 53 00 00       	call   40a3c0 <_strlen>
  404fe6:	83 c0 10             	add    $0x10,%eax
  404fe9:	83 e0 f0             	and    $0xfffffff0,%eax
  404fec:	e8 6f f3 ff ff       	call   404360 <___chkstk_ms>
  404ff1:	29 c4                	sub    %eax,%esp
  404ff3:	8d 4c 24 04          	lea    0x4(%esp),%ecx
  404ff7:	89 ca                	mov    %ecx,%edx
  404ff9:	eb 12                	jmp    40500d <___mingw_glob+0x7d>
  404ffb:	90                   	nop
  404ffc:	8d 74 26 00          	lea    0x0(%esi,%eiz,1),%esi
  405000:	83 c2 01             	add    $0x1,%edx
  405003:	83 c3 01             	add    $0x1,%ebx
  405006:	84 c0                	test   %al,%al
  405008:	88 42 ff             	mov    %al,-0x1(%edx)
  40500b:	74 1b                	je     405028 <___mingw_glob+0x98>
  40500d:	0f b6 03             	movzbl (%ebx),%eax
  405010:	3c 7f                	cmp    $0x7f,%al
  405012:	75 ec                	jne    405000 <___mingw_glob+0x70>
  405014:	0f b6 43 01          	movzbl 0x1(%ebx),%eax
  405018:	83 c3 01             	add    $0x1,%ebx
  40501b:	83 c2 01             	add    $0x1,%edx
  40501e:	83 c3 01             	add    $0x1,%ebx
  405021:	84 c0                	test   %al,%al
  405023:	88 42 ff             	mov    %al,-0x1(%edx)
  405026:	75 e5                	jne    40500d <___mingw_glob+0x7d>
  405028:	89 0c 24             	mov    %ecx,(%esp)
  40502b:	e8 d8 54 00 00       	call   40a508 <_strdup>
  405030:	8b 65 e4             	mov    -0x1c(%ebp),%esp
  405033:	89 f2                	mov    %esi,%edx
  405035:	e8 46 f9 ff ff       	call   404980 <_glob_store_entry>
  40503a:	8d 65 f4             	lea    -0xc(%ebp),%esp
  40503d:	89 f8                	mov    %edi,%eax
  40503f:	5b                   	pop    %ebx
  405040:	5e                   	pop    %esi
  405041:	5f                   	pop    %edi
  405042:	5d                   	pop    %ebp
  405043:	c3                   	ret    
  405044:	8d b6 00 00 00 00    	lea    0x0(%esi),%esi
  40504a:	8d bf 00 00 00 00    	lea    0x0(%edi),%edi

00405050 <___mingw_globfree>:
  405050:	8b 44 24 04          	mov    0x4(%esp),%eax
  405054:	81 38 46 c1 40 00    	cmpl   $0x40c146,(%eax)
  40505a:	74 04                	je     405060 <___mingw_globfree+0x10>
  40505c:	f3 c3                	repz ret 
  40505e:	66 90                	xchg   %ax,%ax
  405060:	e9 5b f8 ff ff       	jmp    4048c0 <_glob_registry.part.1>
  405065:	90                   	nop
  405066:	90                   	nop
  405067:	90                   	nop
  405068:	90                   	nop
  405069:	90                   	nop
  40506a:	90                   	nop
  40506b:	90                   	nop
  40506c:	90                   	nop
  40506d:	90                   	nop
  40506e:	90                   	nop
  40506f:	90                   	nop

00405070 <___mingw_dirname>:
  405070:	55                   	push   %ebp
  405071:	89 e5                	mov    %esp,%ebp
  405073:	57                   	push   %edi
  405074:	56                   	push   %esi
  405075:	53                   	push   %ebx
  405076:	83 ec 3c             	sub    $0x3c,%esp
  405079:	8b 75 08             	mov    0x8(%ebp),%esi
  40507c:	c7 44 24 04 00 00 00 	movl   $0x0,0x4(%esp)
  405083:	00 
  405084:	c7 04 24 02 00 00 00 	movl   $0x2,(%esp)
  40508b:	e8 80 53 00 00       	call   40a410 <_setlocale>
  405090:	85 c0                	test   %eax,%eax
  405092:	89 c3                	mov    %eax,%ebx
  405094:	74 0a                	je     4050a0 <___mingw_dirname+0x30>
  405096:	89 04 24             	mov    %eax,(%esp)
  405099:	e8 6a 54 00 00       	call   40a508 <_strdup>
  40509e:	89 c3                	mov    %eax,%ebx
  4050a0:	c7 44 24 04 58 c1 40 	movl   $0x40c158,0x4(%esp)
  4050a7:	00 
  4050a8:	c7 04 24 02 00 00 00 	movl   $0x2,(%esp)
  4050af:	e8 5c 53 00 00       	call   40a410 <_setlocale>
  4050b4:	85 f6                	test   %esi,%esi
  4050b6:	74 05                	je     4050bd <___mingw_dirname+0x4d>
  4050b8:	80 3e 00             	cmpb   $0x0,(%esi)
  4050bb:	75 73                	jne    405130 <___mingw_dirname+0xc0>
  4050bd:	c7 44 24 08 00 00 00 	movl   $0x0,0x8(%esp)
  4050c4:	00 
  4050c5:	c7 44 24 04 5a c1 40 	movl   $0x40c15a,0x4(%esp)
  4050cc:	00 
  4050cd:	c7 04 24 00 00 00 00 	movl   $0x0,(%esp)
  4050d4:	e8 3f 53 00 00       	call   40a418 <_wcstombs>
  4050d9:	8d 70 01             	lea    0x1(%eax),%esi
  4050dc:	89 74 24 04          	mov    %esi,0x4(%esp)
  4050e0:	a1 70 f0 40 00       	mov    0x40f070,%eax
  4050e5:	89 04 24             	mov    %eax,(%esp)
  4050e8:	e8 0b 53 00 00       	call   40a3f8 <_realloc>
  4050ed:	a3 70 f0 40 00       	mov    %eax,0x40f070
  4050f2:	89 74 24 08          	mov    %esi,0x8(%esp)
  4050f6:	c7 44 24 04 5a c1 40 	movl   $0x40c15a,0x4(%esp)
  4050fd:	00 
  4050fe:	89 04 24             	mov    %eax,(%esp)
  405101:	e8 12 53 00 00       	call   40a418 <_wcstombs>
  405106:	89 5c 24 04          	mov    %ebx,0x4(%esp)
  40510a:	c7 04 24 02 00 00 00 	movl   $0x2,(%esp)
  405111:	e8 fa 52 00 00       	call   40a410 <_setlocale>
  405116:	89 1c 24             	mov    %ebx,(%esp)
  405119:	e8 7a 52 00 00       	call   40a398 <_free>
  40511e:	a1 70 f0 40 00       	mov    0x40f070,%eax
  405123:	8d 65 f4             	lea    -0xc(%ebp),%esp
  405126:	5b                   	pop    %ebx
  405127:	5e                   	pop    %esi
  405128:	5f                   	pop    %edi
  405129:	5d                   	pop    %ebp
  40512a:	c3                   	ret    
  40512b:	90                   	nop
  40512c:	8d 74 26 00          	lea    0x0(%esi,%eiz,1),%esi
  405130:	89 65 d4             	mov    %esp,-0x2c(%ebp)
  405133:	c7 44 24 08 00 00 00 	movl   $0x0,0x8(%esp)
  40513a:	00 
  40513b:	89 74 24 04          	mov    %esi,0x4(%esp)
  40513f:	c7 04 24 00 00 00 00 	movl   $0x0,(%esp)
  405146:	e8 d5 52 00 00       	call   40a420 <_mbstowcs>
  40514b:	89 c2                	mov    %eax,%edx
  40514d:	8d 44 00 12          	lea    0x12(%eax,%eax,1),%eax
  405151:	83 e0 f0             	and    $0xfffffff0,%eax
  405154:	e8 07 f2 ff ff       	call   404360 <___chkstk_ms>
  405159:	29 c4                	sub    %eax,%esp
  40515b:	8d 44 24 0d          	lea    0xd(%esp),%eax
  40515f:	89 45 e4             	mov    %eax,-0x1c(%ebp)
  405162:	d1 6d e4             	shrl   -0x1c(%ebp)
  405165:	8b 45 e4             	mov    -0x1c(%ebp),%eax
  405168:	01 c0                	add    %eax,%eax
  40516a:	89 45 e0             	mov    %eax,-0x20(%ebp)
  40516d:	89 c7                	mov    %eax,%edi
  40516f:	89 54 24 08          	mov    %edx,0x8(%esp)
  405173:	89 74 24 04          	mov    %esi,0x4(%esp)
  405177:	89 04 24             	mov    %eax,(%esp)
  40517a:	e8 a1 52 00 00       	call   40a420 <_mbstowcs>
  40517f:	31 c9                	xor    %ecx,%ecx
  405181:	66 89 0c 47          	mov    %cx,(%edi,%eax,2)
  405185:	83 f8 01             	cmp    $0x1,%eax
  405188:	89 45 d0             	mov    %eax,-0x30(%ebp)
  40518b:	8b 45 e4             	mov    -0x1c(%ebp),%eax
  40518e:	0f b7 04 00          	movzwl (%eax,%eax,1),%eax
  405192:	66 89 45 da          	mov    %ax,-0x26(%ebp)
  405196:	0f 86 f2 00 00 00    	jbe    40528e <___mingw_dirname+0x21e>
  40519c:	66 83 f8 5c          	cmp    $0x5c,%ax
  4051a0:	74 0a                	je     4051ac <___mingw_dirname+0x13c>
  4051a2:	66 83 f8 2f          	cmp    $0x2f,%ax
  4051a6:	0f 85 0a 01 00 00    	jne    4052b6 <___mingw_dirname+0x246>
  4051ac:	8b 7d e0             	mov    -0x20(%ebp),%edi
  4051af:	89 7d dc             	mov    %edi,-0x24(%ebp)
  4051b2:	8b 7d e4             	mov    -0x1c(%ebp),%edi
  4051b5:	66 3b 44 3f 02       	cmp    0x2(%edi,%edi,1),%ax
  4051ba:	0f 84 4f 02 00 00    	je     40540f <___mingw_dirname+0x39f>
  4051c0:	0f b7 45 da          	movzwl -0x26(%ebp),%eax
  4051c4:	66 85 c0             	test   %ax,%ax
  4051c7:	0f 84 fa 01 00 00    	je     4053c7 <___mingw_dirname+0x357>
  4051cd:	8b 55 dc             	mov    -0x24(%ebp),%edx
  4051d0:	89 d7                	mov    %edx,%edi
  4051d2:	eb 14                	jmp    4051e8 <___mingw_dirname+0x178>
  4051d4:	66 83 f8 2f          	cmp    $0x2f,%ax
  4051d8:	74 20                	je     4051fa <___mingw_dirname+0x18a>
  4051da:	0f b7 42 02          	movzwl 0x2(%edx),%eax
  4051de:	8d 4a 02             	lea    0x2(%edx),%ecx
  4051e1:	66 85 c0             	test   %ax,%ax
  4051e4:	74 36                	je     40521c <___mingw_dirname+0x1ac>
  4051e6:	89 ca                	mov    %ecx,%edx
  4051e8:	66 83 f8 5c          	cmp    $0x5c,%ax
  4051ec:	75 e6                	jne    4051d4 <___mingw_dirname+0x164>
  4051ee:	0f b7 02             	movzwl (%edx),%eax
  4051f1:	66 83 f8 5c          	cmp    $0x5c,%ax
  4051f5:	75 0c                	jne    405203 <___mingw_dirname+0x193>
  4051f7:	83 c2 02             	add    $0x2,%edx
  4051fa:	0f b7 02             	movzwl (%edx),%eax
  4051fd:	66 83 f8 5c          	cmp    $0x5c,%ax
  405201:	74 f4                	je     4051f7 <___mingw_dirname+0x187>
  405203:	66 83 f8 2f          	cmp    $0x2f,%ax
  405207:	74 ee                	je     4051f7 <___mingw_dirname+0x187>
  405209:	66 85 c0             	test   %ax,%ax
  40520c:	74 0e                	je     40521c <___mingw_dirname+0x1ac>
  40520e:	0f b7 42 02          	movzwl 0x2(%edx),%eax
  405212:	89 d7                	mov    %edx,%edi
  405214:	8d 4a 02             	lea    0x2(%edx),%ecx
  405217:	66 85 c0             	test   %ax,%ax
  40521a:	75 ca                	jne    4051e6 <___mingw_dirname+0x176>
  40521c:	8b 4d dc             	mov    -0x24(%ebp),%ecx
  40521f:	39 f9                	cmp    %edi,%ecx
  405221:	72 7e                	jb     4052a1 <___mingw_dirname+0x231>
  405223:	66 83 7d da 5c       	cmpw   $0x5c,-0x26(%ebp)
  405228:	74 0b                	je     405235 <___mingw_dirname+0x1c5>
  40522a:	66 83 7d da 2f       	cmpw   $0x2f,-0x26(%ebp)
  40522f:	0f 85 ba 01 00 00    	jne    4053ef <___mingw_dirname+0x37f>
  405235:	8b 45 dc             	mov    -0x24(%ebp),%eax
  405238:	83 c0 02             	add    $0x2,%eax
  40523b:	31 d2                	xor    %edx,%edx
  40523d:	66 89 10             	mov    %dx,(%eax)
  405240:	c7 44 24 08 00 00 00 	movl   $0x0,0x8(%esp)
  405247:	00 
  405248:	8b 45 e0             	mov    -0x20(%ebp),%eax
  40524b:	c7 04 24 00 00 00 00 	movl   $0x0,(%esp)
  405252:	89 44 24 04          	mov    %eax,0x4(%esp)
  405256:	e8 bd 51 00 00       	call   40a418 <_wcstombs>
  40525b:	8d 78 01             	lea    0x1(%eax),%edi
  40525e:	89 7c 24 04          	mov    %edi,0x4(%esp)
  405262:	a1 70 f0 40 00       	mov    0x40f070,%eax
  405267:	89 04 24             	mov    %eax,(%esp)
  40526a:	e8 89 51 00 00       	call   40a3f8 <_realloc>
  40526f:	a3 70 f0 40 00       	mov    %eax,0x40f070
  405274:	89 c6                	mov    %eax,%esi
  405276:	89 7c 24 08          	mov    %edi,0x8(%esp)
  40527a:	8b 45 e0             	mov    -0x20(%ebp),%eax
  40527d:	89 34 24             	mov    %esi,(%esp)
  405280:	89 44 24 04          	mov    %eax,0x4(%esp)
  405284:	e8 8f 51 00 00       	call   40a418 <_wcstombs>
  405289:	e9 e9 00 00 00       	jmp    405377 <___mingw_dirname+0x307>
  40528e:	8b 45 e0             	mov    -0x20(%ebp),%eax
  405291:	89 45 dc             	mov    %eax,-0x24(%ebp)
  405294:	e9 27 ff ff ff       	jmp    4051c0 <___mingw_dirname+0x150>
  405299:	66 83 fa 2f          	cmp    $0x2f,%dx
  40529d:	75 46                	jne    4052e5 <___mingw_dirname+0x275>
  40529f:	89 c7                	mov    %eax,%edi
  4052a1:	8d 47 fe             	lea    -0x2(%edi),%eax
  4052a4:	39 c1                	cmp    %eax,%ecx
  4052a6:	73 3d                	jae    4052e5 <___mingw_dirname+0x275>
  4052a8:	0f b7 57 fe          	movzwl -0x2(%edi),%edx
  4052ac:	66 83 fa 5c          	cmp    $0x5c,%dx
  4052b0:	75 e7                	jne    405299 <___mingw_dirname+0x229>
  4052b2:	89 c7                	mov    %eax,%edi
  4052b4:	eb eb                	jmp    4052a1 <___mingw_dirname+0x231>
  4052b6:	8b 45 e0             	mov    -0x20(%ebp),%eax
  4052b9:	89 45 dc             	mov    %eax,-0x24(%ebp)
  4052bc:	8b 45 e4             	mov    -0x1c(%ebp),%eax
  4052bf:	66 83 7c 00 02 3a    	cmpw   $0x3a,0x2(%eax,%eax,1)
  4052c5:	0f 85 f5 fe ff ff    	jne    4051c0 <___mingw_dirname+0x150>
  4052cb:	8b 45 e0             	mov    -0x20(%ebp),%eax
  4052ce:	83 c0 04             	add    $0x4,%eax
  4052d1:	89 45 dc             	mov    %eax,-0x24(%ebp)
  4052d4:	8b 45 e4             	mov    -0x1c(%ebp),%eax
  4052d7:	0f b7 44 00 04       	movzwl 0x4(%eax,%eax,1),%eax
  4052dc:	66 89 45 da          	mov    %ax,-0x26(%ebp)
  4052e0:	e9 db fe ff ff       	jmp    4051c0 <___mingw_dirname+0x150>
  4052e5:	39 45 dc             	cmp    %eax,-0x24(%ebp)
  4052e8:	0f 84 37 01 00 00    	je     405425 <___mingw_dirname+0x3b5>
  4052ee:	31 d2                	xor    %edx,%edx
  4052f0:	66 89 50 02          	mov    %dx,0x2(%eax)
  4052f4:	8b 45 e4             	mov    -0x1c(%ebp),%eax
  4052f7:	0f b7 14 00          	movzwl (%eax,%eax,1),%edx
  4052fb:	8b 45 e0             	mov    -0x20(%ebp),%eax
  4052fe:	66 83 fa 5c          	cmp    $0x5c,%dx
  405302:	0f 85 c7 00 00 00    	jne    4053cf <___mingw_dirname+0x35f>
  405308:	83 c0 02             	add    $0x2,%eax
  40530b:	0f b7 08             	movzwl (%eax),%ecx
  40530e:	66 83 f9 5c          	cmp    $0x5c,%cx
  405312:	74 f4                	je     405308 <___mingw_dirname+0x298>
  405314:	66 83 f9 2f          	cmp    $0x2f,%cx
  405318:	74 ee                	je     405308 <___mingw_dirname+0x298>
  40531a:	89 c1                	mov    %eax,%ecx
  40531c:	2b 4d e0             	sub    -0x20(%ebp),%ecx
  40531f:	83 f9 05             	cmp    $0x5,%ecx
  405322:	0f 8e b1 00 00 00    	jle    4053d9 <___mingw_dirname+0x369>
  405328:	8b 45 e0             	mov    -0x20(%ebp),%eax
  40532b:	89 c1                	mov    %eax,%ecx
  40532d:	66 85 d2             	test   %dx,%dx
  405330:	74 21                	je     405353 <___mingw_dirname+0x2e3>
  405332:	83 c1 02             	add    $0x2,%ecx
  405335:	66 83 fa 2f          	cmp    $0x2f,%dx
  405339:	66 89 51 fe          	mov    %dx,-0x2(%ecx)
  40533d:	74 63                	je     4053a2 <___mingw_dirname+0x332>
  40533f:	66 83 38 5c          	cmpw   $0x5c,(%eax)
  405343:	8d 78 02             	lea    0x2(%eax),%edi
  405346:	74 58                	je     4053a0 <___mingw_dirname+0x330>
  405348:	0f b7 50 02          	movzwl 0x2(%eax),%edx
  40534c:	89 f8                	mov    %edi,%eax
  40534e:	66 85 d2             	test   %dx,%dx
  405351:	75 df                	jne    405332 <___mingw_dirname+0x2c2>
  405353:	8b 45 d0             	mov    -0x30(%ebp),%eax
  405356:	31 ff                	xor    %edi,%edi
  405358:	66 89 39             	mov    %di,(%ecx)
  40535b:	89 44 24 08          	mov    %eax,0x8(%esp)
  40535f:	8b 45 e0             	mov    -0x20(%ebp),%eax
  405362:	89 34 24             	mov    %esi,(%esp)
  405365:	89 44 24 04          	mov    %eax,0x4(%esp)
  405369:	e8 aa 50 00 00       	call   40a418 <_wcstombs>
  40536e:	83 f8 ff             	cmp    $0xffffffff,%eax
  405371:	74 04                	je     405377 <___mingw_dirname+0x307>
  405373:	c6 04 06 00          	movb   $0x0,(%esi,%eax,1)
  405377:	89 5c 24 04          	mov    %ebx,0x4(%esp)
  40537b:	c7 04 24 02 00 00 00 	movl   $0x2,(%esp)
  405382:	e8 89 50 00 00       	call   40a410 <_setlocale>
  405387:	89 1c 24             	mov    %ebx,(%esp)
  40538a:	e8 09 50 00 00       	call   40a398 <_free>
  40538f:	8b 65 d4             	mov    -0x2c(%ebp),%esp
  405392:	8d 65 f4             	lea    -0xc(%ebp),%esp
  405395:	5b                   	pop    %ebx
  405396:	89 f0                	mov    %esi,%eax
  405398:	5e                   	pop    %esi
  405399:	5f                   	pop    %edi
  40539a:	5d                   	pop    %ebp
  40539b:	c3                   	ret    
  40539c:	8d 74 26 00          	lea    0x0(%esi,%eiz,1),%esi
  4053a0:	89 f8                	mov    %edi,%eax
  4053a2:	0f b7 10             	movzwl (%eax),%edx
  4053a5:	66 83 fa 2f          	cmp    $0x2f,%dx
  4053a9:	75 59                	jne    405404 <___mingw_dirname+0x394>
  4053ab:	90                   	nop
  4053ac:	8d 74 26 00          	lea    0x0(%esi,%eiz,1),%esi
  4053b0:	83 c0 02             	add    $0x2,%eax
  4053b3:	0f b7 10             	movzwl (%eax),%edx
  4053b6:	66 83 fa 5c          	cmp    $0x5c,%dx
  4053ba:	74 f4                	je     4053b0 <___mingw_dirname+0x340>
  4053bc:	66 83 fa 2f          	cmp    $0x2f,%dx
  4053c0:	74 ee                	je     4053b0 <___mingw_dirname+0x340>
  4053c2:	e9 66 ff ff ff       	jmp    40532d <___mingw_dirname+0x2bd>
  4053c7:	8b 65 d4             	mov    -0x2c(%ebp),%esp
  4053ca:	e9 ee fc ff ff       	jmp    4050bd <___mingw_dirname+0x4d>
  4053cf:	66 83 fa 2f          	cmp    $0x2f,%dx
  4053d3:	0f 84 2f ff ff ff    	je     405308 <___mingw_dirname+0x298>
  4053d9:	8b 7d e4             	mov    -0x1c(%ebp),%edi
  4053dc:	66 39 54 3f 02       	cmp    %dx,0x2(%edi,%edi,1)
  4053e1:	0f 85 41 ff ff ff    	jne    405328 <___mingw_dirname+0x2b8>
  4053e7:	0f b7 10             	movzwl (%eax),%edx
  4053ea:	e9 3c ff ff ff       	jmp    40532b <___mingw_dirname+0x2bb>
  4053ef:	8b 7d dc             	mov    -0x24(%ebp),%edi
  4053f2:	b9 2e 00 00 00       	mov    $0x2e,%ecx
  4053f7:	89 f8                	mov    %edi,%eax
  4053f9:	83 c0 02             	add    $0x2,%eax
  4053fc:	66 89 0f             	mov    %cx,(%edi)
  4053ff:	e9 37 fe ff ff       	jmp    40523b <___mingw_dirname+0x1cb>
  405404:	66 83 fa 5c          	cmp    $0x5c,%dx
  405408:	74 a6                	je     4053b0 <___mingw_dirname+0x340>
  40540a:	e9 1e ff ff ff       	jmp    40532d <___mingw_dirname+0x2bd>
  40540f:	66 83 7c 3f 04 00    	cmpw   $0x0,0x4(%edi,%edi,1)
  405415:	0f 85 a5 fd ff ff    	jne    4051c0 <___mingw_dirname+0x150>
  40541b:	90                   	nop
  40541c:	8d 74 26 00          	lea    0x0(%esi,%eiz,1),%esi
  405420:	e9 52 ff ff ff       	jmp    405377 <___mingw_dirname+0x307>
  405425:	66 83 7d da 5c       	cmpw   $0x5c,-0x26(%ebp)
  40542a:	74 0e                	je     40543a <___mingw_dirname+0x3ca>
  40542c:	66 83 7d da 2f       	cmpw   $0x2f,-0x26(%ebp)
  405431:	8b 45 dc             	mov    -0x24(%ebp),%eax
  405434:	0f 85 b4 fe ff ff    	jne    4052ee <___mingw_dirname+0x27e>
  40543a:	8b 45 dc             	mov    -0x24(%ebp),%eax
  40543d:	0f b7 4d da          	movzwl -0x26(%ebp),%ecx
  405441:	66 39 48 02          	cmp    %cx,0x2(%eax)
  405445:	0f 85 a3 fe ff ff    	jne    4052ee <___mingw_dirname+0x27e>
  40544b:	0f b7 50 04          	movzwl 0x4(%eax),%edx
  40544f:	66 83 fa 2f          	cmp    $0x2f,%dx
  405453:	0f 84 95 fe ff ff    	je     4052ee <___mingw_dirname+0x27e>
  405459:	66 83 fa 5c          	cmp    $0x5c,%dx
  40545d:	89 f8                	mov    %edi,%eax
  40545f:	0f 85 89 fe ff ff    	jne    4052ee <___mingw_dirname+0x27e>
  405465:	8b 45 dc             	mov    -0x24(%ebp),%eax
  405468:	e9 81 fe ff ff       	jmp    4052ee <___mingw_dirname+0x27e>
  40546d:	90                   	nop
  40546e:	90                   	nop
  40546f:	90                   	nop

00405470 <_dirent_findnext>:
  405470:	55                   	push   %ebp
  405471:	89 e5                	mov    %esp,%ebp
  405473:	56                   	push   %esi
  405474:	89 d6                	mov    %edx,%esi
  405476:	53                   	push   %ebx
  405477:	81 ec 50 01 00 00    	sub    $0x150,%esp
  40547d:	8d 95 b8 fe ff ff    	lea    -0x148(%ebp),%edx
  405483:	89 54 24 04          	mov    %edx,0x4(%esp)
  405487:	89 04 24             	mov    %eax,(%esp)
  40548a:	e8 39 50 00 00       	call   40a4c8 <_FindNextFileA@8>
  40548f:	83 ec 08             	sub    $0x8,%esp
  405492:	85 c0                	test   %eax,%eax
  405494:	89 c3                	mov    %eax,%ebx
  405496:	75 20                	jne    4054b8 <_dirent_findnext+0x48>
  405498:	e8 0b 50 00 00       	call   40a4a8 <_GetLastError@0>
  40549d:	31 db                	xor    %ebx,%ebx
  40549f:	83 f8 12             	cmp    $0x12,%eax
  4054a2:	74 0b                	je     4054af <_dirent_findnext+0x3f>
  4054a4:	e8 5f 4f 00 00       	call   40a408 <__errno>
  4054a9:	c7 00 02 00 00 00    	movl   $0x2,(%eax)
  4054af:	8d 65 f8             	lea    -0x8(%ebp),%esp
  4054b2:	89 d8                	mov    %ebx,%eax
  4054b4:	5b                   	pop    %ebx
  4054b5:	5e                   	pop    %esi
  4054b6:	5d                   	pop    %ebp
  4054b7:	c3                   	ret    
  4054b8:	8d 85 e4 fe ff ff    	lea    -0x11c(%ebp),%eax
  4054be:	89 44 24 0c          	mov    %eax,0xc(%esp)
  4054c2:	8d 46 0c             	lea    0xc(%esi),%eax
  4054c5:	c7 44 24 08 60 c1 40 	movl   $0x40c160,0x8(%esp)
  4054cc:	00 
  4054cd:	c7 44 24 04 04 01 00 	movl   $0x104,0x4(%esp)
  4054d4:	00 
  4054d5:	89 04 24             	mov    %eax,(%esp)
  4054d8:	e8 43 04 00 00       	call   405920 <___mingw_snprintf>
  4054dd:	66 89 46 06          	mov    %ax,0x6(%esi)
  4054e1:	8b 85 b8 fe ff ff    	mov    -0x148(%ebp),%eax
  4054e7:	24 58                	and    $0x58,%al
  4054e9:	83 f8 10             	cmp    $0x10,%eax
  4054ec:	76 12                	jbe    405500 <_dirent_findnext+0x90>
  4054ee:	c7 46 08 18 00 00 00 	movl   $0x18,0x8(%esi)
  4054f5:	8d 65 f8             	lea    -0x8(%ebp),%esp
  4054f8:	89 d8                	mov    %ebx,%eax
  4054fa:	5b                   	pop    %ebx
  4054fb:	5e                   	pop    %esi
  4054fc:	5d                   	pop    %ebp
  4054fd:	c3                   	ret    
  4054fe:	66 90                	xchg   %ax,%ax
  405500:	89 46 08             	mov    %eax,0x8(%esi)
  405503:	8d 65 f8             	lea    -0x8(%ebp),%esp
  405506:	89 d8                	mov    %ebx,%eax
  405508:	5b                   	pop    %ebx
  405509:	5e                   	pop    %esi
  40550a:	5d                   	pop    %ebp
  40550b:	c3                   	ret    
  40550c:	8d 74 26 00          	lea    0x0(%esi,%eiz,1),%esi

00405510 <_dirent_findfirst>:
  405510:	55                   	push   %ebp
  405511:	89 e5                	mov    %esp,%ebp
  405513:	56                   	push   %esi
  405514:	53                   	push   %ebx
  405515:	89 d3                	mov    %edx,%ebx
  405517:	81 ec 50 01 00 00    	sub    $0x150,%esp
  40551d:	8d 95 b8 fe ff ff    	lea    -0x148(%ebp),%edx
  405523:	89 54 24 04          	mov    %edx,0x4(%esp)
  405527:	89 04 24             	mov    %eax,(%esp)
  40552a:	e8 a1 4f 00 00       	call   40a4d0 <_FindFirstFileA@8>
  40552f:	83 ec 08             	sub    $0x8,%esp
  405532:	83 f8 ff             	cmp    $0xffffffff,%eax
  405535:	89 c6                	mov    %eax,%esi
  405537:	74 4a                	je     405583 <_dirent_findfirst+0x73>
  405539:	8d 85 e4 fe ff ff    	lea    -0x11c(%ebp),%eax
  40553f:	89 44 24 0c          	mov    %eax,0xc(%esp)
  405543:	8d 43 0c             	lea    0xc(%ebx),%eax
  405546:	c7 44 24 08 60 c1 40 	movl   $0x40c160,0x8(%esp)
  40554d:	00 
  40554e:	c7 44 24 04 04 01 00 	movl   $0x104,0x4(%esp)
  405555:	00 
  405556:	89 04 24             	mov    %eax,(%esp)
  405559:	e8 c2 03 00 00       	call   405920 <___mingw_snprintf>
  40555e:	8b 8d b8 fe ff ff    	mov    -0x148(%ebp),%ecx
  405564:	80 e1 58             	and    $0x58,%cl
  405567:	83 f9 10             	cmp    $0x10,%ecx
  40556a:	66 89 43 06          	mov    %ax,0x6(%ebx)
  40556e:	89 4b 08             	mov    %ecx,0x8(%ebx)
  405571:	76 07                	jbe    40557a <_dirent_findfirst+0x6a>
  405573:	c7 43 08 18 00 00 00 	movl   $0x18,0x8(%ebx)
  40557a:	8d 65 f8             	lea    -0x8(%ebp),%esp
  40557d:	89 f0                	mov    %esi,%eax
  40557f:	5b                   	pop    %ebx
  405580:	5e                   	pop    %esi
  405581:	5d                   	pop    %ebp
  405582:	c3                   	ret    
  405583:	e8 80 4e 00 00       	call   40a408 <__errno>
  405588:	89 c3                	mov    %eax,%ebx
  40558a:	e8 19 4f 00 00       	call   40a4a8 <_GetLastError@0>
  40558f:	83 f8 03             	cmp    $0x3,%eax
  405592:	89 03                	mov    %eax,(%ebx)
  405594:	74 2a                	je     4055c0 <_dirent_findfirst+0xb0>
  405596:	e8 6d 4e 00 00       	call   40a408 <__errno>
  40559b:	81 38 0b 01 00 00    	cmpl   $0x10b,(%eax)
  4055a1:	74 2d                	je     4055d0 <_dirent_findfirst+0xc0>
  4055a3:	e8 60 4e 00 00       	call   40a408 <__errno>
  4055a8:	83 38 02             	cmpl   $0x2,(%eax)
  4055ab:	74 cd                	je     40557a <_dirent_findfirst+0x6a>
  4055ad:	8d 76 00             	lea    0x0(%esi),%esi
  4055b0:	e8 53 4e 00 00       	call   40a408 <__errno>
  4055b5:	c7 00 16 00 00 00    	movl   $0x16,(%eax)
  4055bb:	eb bd                	jmp    40557a <_dirent_findfirst+0x6a>
  4055bd:	8d 76 00             	lea    0x0(%esi),%esi
  4055c0:	e8 43 4e 00 00       	call   40a408 <__errno>
  4055c5:	c7 00 02 00 00 00    	movl   $0x2,(%eax)
  4055cb:	eb ad                	jmp    40557a <_dirent_findfirst+0x6a>
  4055cd:	8d 76 00             	lea    0x0(%esi),%esi
  4055d0:	e8 33 4e 00 00       	call   40a408 <__errno>
  4055d5:	c7 00 14 00 00 00    	movl   $0x14,(%eax)
  4055db:	eb 9d                	jmp    40557a <_dirent_findfirst+0x6a>
  4055dd:	8d 76 00             	lea    0x0(%esi),%esi

004055e0 <___mingw_opendir>:
  4055e0:	55                   	push   %ebp
  4055e1:	57                   	push   %edi
  4055e2:	56                   	push   %esi
  4055e3:	53                   	push   %ebx
  4055e4:	81 ec 2c 01 00 00    	sub    $0x12c,%esp
  4055ea:	8b 84 24 40 01 00 00 	mov    0x140(%esp),%eax
  4055f1:	85 c0                	test   %eax,%eax
  4055f3:	0f 84 67 01 00 00    	je     405760 <___mingw_opendir+0x180>
  4055f9:	80 38 00             	cmpb   $0x0,(%eax)
  4055fc:	0f 84 40 01 00 00    	je     405742 <___mingw_opendir+0x162>
  405602:	8d 7c 24 1c          	lea    0x1c(%esp),%edi
  405606:	c7 44 24 08 04 01 00 	movl   $0x104,0x8(%esp)
  40560d:	00 
  40560e:	89 fb                	mov    %edi,%ebx
  405610:	89 44 24 04          	mov    %eax,0x4(%esp)
  405614:	89 3c 24             	mov    %edi,(%esp)
  405617:	e8 0c 4e 00 00       	call   40a428 <__fullpath>
  40561c:	80 7c 24 1c 00       	cmpb   $0x0,0x1c(%esp)
  405621:	74 5d                	je     405680 <___mingw_opendir+0xa0>
  405623:	8b 13                	mov    (%ebx),%edx
  405625:	83 c3 04             	add    $0x4,%ebx
  405628:	8d 82 ff fe fe fe    	lea    -0x1010101(%edx),%eax
  40562e:	f7 d2                	not    %edx
  405630:	21 d0                	and    %edx,%eax
  405632:	25 80 80 80 80       	and    $0x80808080,%eax
  405637:	74 ea                	je     405623 <___mingw_opendir+0x43>
  405639:	a9 80 80 00 00       	test   $0x8080,%eax
  40563e:	0f 84 df 00 00 00    	je     405723 <___mingw_opendir+0x143>
  405644:	00 c0                	add    %al,%al
  405646:	83 db 03             	sbb    $0x3,%ebx
  405649:	29 fb                	sub    %edi,%ebx
  40564b:	0f b6 44 1c 1b       	movzbl 0x1b(%esp,%ebx,1),%eax
  405650:	3c 5c                	cmp    $0x5c,%al
  405652:	74 50                	je     4056a4 <___mingw_opendir+0xc4>
  405654:	3c 2f                	cmp    $0x2f,%al
  405656:	74 4c                	je     4056a4 <___mingw_opendir+0xc4>
  405658:	b9 5c 00 00 00       	mov    $0x5c,%ecx
  40565d:	66 89 0c 1f          	mov    %cx,(%edi,%ebx,1)
  405661:	89 fb                	mov    %edi,%ebx
  405663:	8b 13                	mov    (%ebx),%edx
  405665:	83 c3 04             	add    $0x4,%ebx
  405668:	8d 82 ff fe fe fe    	lea    -0x1010101(%edx),%eax
  40566e:	f7 d2                	not    %edx
  405670:	21 d0                	and    %edx,%eax
  405672:	25 80 80 80 80       	and    $0x80808080,%eax
  405677:	74 ea                	je     405663 <___mingw_opendir+0x83>
  405679:	eb 1b                	jmp    405696 <___mingw_opendir+0xb6>
  40567b:	90                   	nop
  40567c:	8d 74 26 00          	lea    0x0(%esi,%eiz,1),%esi
  405680:	8b 13                	mov    (%ebx),%edx
  405682:	83 c3 04             	add    $0x4,%ebx
  405685:	8d 82 ff fe fe fe    	lea    -0x1010101(%edx),%eax
  40568b:	f7 d2                	not    %edx
  40568d:	21 d0                	and    %edx,%eax
  40568f:	25 80 80 80 80       	and    $0x80808080,%eax
  405694:	74 ea                	je     405680 <___mingw_opendir+0xa0>
  405696:	a9 80 80 00 00       	test   $0x8080,%eax
  40569b:	74 7b                	je     405718 <___mingw_opendir+0x138>
  40569d:	00 c0                	add    %al,%al
  40569f:	83 db 03             	sbb    $0x3,%ebx
  4056a2:	29 fb                	sub    %edi,%ebx
  4056a4:	ba 2a 00 00 00       	mov    $0x2a,%edx
  4056a9:	8d 83 1d 01 00 00    	lea    0x11d(%ebx),%eax
  4056af:	66 89 14 1f          	mov    %dx,(%edi,%ebx,1)
  4056b3:	89 04 24             	mov    %eax,(%esp)
  4056b6:	e8 ed 4c 00 00       	call   40a3a8 <_malloc>
  4056bb:	85 c0                	test   %eax,%eax
  4056bd:	89 c6                	mov    %eax,%esi
  4056bf:	0f 84 8c 00 00 00    	je     405751 <___mingw_opendir+0x171>
  4056c5:	8d a8 18 01 00 00    	lea    0x118(%eax),%ebp
  4056cb:	83 c3 02             	add    $0x2,%ebx
  4056ce:	89 5c 24 08          	mov    %ebx,0x8(%esp)
  4056d2:	89 7c 24 04          	mov    %edi,0x4(%esp)
  4056d6:	89 2c 24             	mov    %ebp,(%esp)
  4056d9:	e8 d2 4c 00 00       	call   40a3b0 <_memcpy>
  4056de:	89 f2                	mov    %esi,%edx
  4056e0:	89 e8                	mov    %ebp,%eax
  4056e2:	e8 29 fe ff ff       	call   405510 <_dirent_findfirst>
  4056e7:	83 f8 ff             	cmp    $0xffffffff,%eax
  4056ea:	89 86 10 01 00 00    	mov    %eax,0x110(%esi)
  4056f0:	74 7d                	je     40576f <___mingw_opendir+0x18f>
  4056f2:	b8 10 01 00 00       	mov    $0x110,%eax
  4056f7:	66 89 46 04          	mov    %ax,0x4(%esi)
  4056fb:	89 f0                	mov    %esi,%eax
  4056fd:	c7 86 14 01 00 00 00 	movl   $0x0,0x114(%esi)
  405704:	00 00 00 
  405707:	c7 06 00 00 00 00    	movl   $0x0,(%esi)
  40570d:	81 c4 2c 01 00 00    	add    $0x12c,%esp
  405713:	5b                   	pop    %ebx
  405714:	5e                   	pop    %esi
  405715:	5f                   	pop    %edi
  405716:	5d                   	pop    %ebp
  405717:	c3                   	ret    
  405718:	c1 e8 10             	shr    $0x10,%eax
  40571b:	83 c3 02             	add    $0x2,%ebx
  40571e:	e9 7a ff ff ff       	jmp    40569d <___mingw_opendir+0xbd>
  405723:	c1 e8 10             	shr    $0x10,%eax
  405726:	83 c3 02             	add    $0x2,%ebx
  405729:	00 c0                	add    %al,%al
  40572b:	83 db 03             	sbb    $0x3,%ebx
  40572e:	29 fb                	sub    %edi,%ebx
  405730:	0f b6 44 1c 1b       	movzbl 0x1b(%esp,%ebx,1),%eax
  405735:	3c 5c                	cmp    $0x5c,%al
  405737:	0f 84 67 ff ff ff    	je     4056a4 <___mingw_opendir+0xc4>
  40573d:	e9 12 ff ff ff       	jmp    405654 <___mingw_opendir+0x74>
  405742:	e8 c1 4c 00 00       	call   40a408 <__errno>
  405747:	c7 00 02 00 00 00    	movl   $0x2,(%eax)
  40574d:	31 c0                	xor    %eax,%eax
  40574f:	eb bc                	jmp    40570d <___mingw_opendir+0x12d>
  405751:	e8 b2 4c 00 00       	call   40a408 <__errno>
  405756:	c7 00 0c 00 00 00    	movl   $0xc,(%eax)
  40575c:	31 c0                	xor    %eax,%eax
  40575e:	eb ad                	jmp    40570d <___mingw_opendir+0x12d>
  405760:	e8 a3 4c 00 00       	call   40a408 <__errno>
  405765:	c7 00 16 00 00 00    	movl   $0x16,(%eax)
  40576b:	31 c0                	xor    %eax,%eax
  40576d:	eb 9e                	jmp    40570d <___mingw_opendir+0x12d>
  40576f:	89 34 24             	mov    %esi,(%esp)
  405772:	e8 21 4c 00 00       	call   40a398 <_free>
  405777:	31 c0                	xor    %eax,%eax
  405779:	eb 92                	jmp    40570d <___mingw_opendir+0x12d>
  40577b:	90                   	nop
  40577c:	8d 74 26 00          	lea    0x0(%esi,%eiz,1),%esi

00405780 <___mingw_readdir>:
  405780:	53                   	push   %ebx
  405781:	83 ec 08             	sub    $0x8,%esp
  405784:	8b 5c 24 10          	mov    0x10(%esp),%ebx
  405788:	85 db                	test   %ebx,%ebx
  40578a:	74 2b                	je     4057b7 <___mingw_readdir+0x37>
  40578c:	8b 83 14 01 00 00    	mov    0x114(%ebx),%eax
  405792:	8d 50 01             	lea    0x1(%eax),%edx
  405795:	85 c0                	test   %eax,%eax
  405797:	89 93 14 01 00 00    	mov    %edx,0x114(%ebx)
  40579d:	7e 11                	jle    4057b0 <___mingw_readdir+0x30>
  40579f:	8b 83 10 01 00 00    	mov    0x110(%ebx),%eax
  4057a5:	89 da                	mov    %ebx,%edx
  4057a7:	e8 c4 fc ff ff       	call   405470 <_dirent_findnext>
  4057ac:	85 c0                	test   %eax,%eax
  4057ae:	74 02                	je     4057b2 <___mingw_readdir+0x32>
  4057b0:	89 d8                	mov    %ebx,%eax
  4057b2:	83 c4 08             	add    $0x8,%esp
  4057b5:	5b                   	pop    %ebx
  4057b6:	c3                   	ret    
  4057b7:	e8 4c 4c 00 00       	call   40a408 <__errno>
  4057bc:	c7 00 09 00 00 00    	movl   $0x9,(%eax)
  4057c2:	31 c0                	xor    %eax,%eax
  4057c4:	eb ec                	jmp    4057b2 <___mingw_readdir+0x32>
  4057c6:	8d 76 00             	lea    0x0(%esi),%esi
  4057c9:	8d bc 27 00 00 00 00 	lea    0x0(%edi,%eiz,1),%edi

004057d0 <___mingw_closedir>:
  4057d0:	55                   	push   %ebp
  4057d1:	89 e5                	mov    %esp,%ebp
  4057d3:	53                   	push   %ebx
  4057d4:	83 ec 14             	sub    $0x14,%esp
  4057d7:	8b 5d 08             	mov    0x8(%ebp),%ebx
  4057da:	85 db                	test   %ebx,%ebx
  4057dc:	74 24                	je     405802 <___mingw_closedir+0x32>
  4057de:	8b 83 10 01 00 00    	mov    0x110(%ebx),%eax
  4057e4:	89 04 24             	mov    %eax,(%esp)
  4057e7:	e8 ec 4c 00 00       	call   40a4d8 <_FindClose@4>
  4057ec:	83 ec 04             	sub    $0x4,%esp
  4057ef:	85 c0                	test   %eax,%eax
  4057f1:	74 0f                	je     405802 <___mingw_closedir+0x32>
  4057f3:	89 1c 24             	mov    %ebx,(%esp)
  4057f6:	e8 9d 4b 00 00       	call   40a398 <_free>
  4057fb:	31 c0                	xor    %eax,%eax
  4057fd:	8b 5d fc             	mov    -0x4(%ebp),%ebx
  405800:	c9                   	leave  
  405801:	c3                   	ret    
  405802:	e8 01 4c 00 00       	call   40a408 <__errno>
  405807:	c7 00 09 00 00 00    	movl   $0x9,(%eax)
  40580d:	b8 ff ff ff ff       	mov    $0xffffffff,%eax
  405812:	eb e9                	jmp    4057fd <___mingw_closedir+0x2d>
  405814:	8d b6 00 00 00 00    	lea    0x0(%esi),%esi
  40581a:	8d bf 00 00 00 00    	lea    0x0(%edi),%edi

00405820 <___mingw_rewinddir>:
  405820:	55                   	push   %ebp
  405821:	89 e5                	mov    %esp,%ebp
  405823:	53                   	push   %ebx
  405824:	83 ec 14             	sub    $0x14,%esp
  405827:	8b 5d 08             	mov    0x8(%ebp),%ebx
  40582a:	85 db                	test   %ebx,%ebx
  40582c:	74 15                	je     405843 <___mingw_rewinddir+0x23>
  40582e:	8b 83 10 01 00 00    	mov    0x110(%ebx),%eax
  405834:	89 04 24             	mov    %eax,(%esp)
  405837:	e8 9c 4c 00 00       	call   40a4d8 <_FindClose@4>
  40583c:	83 ec 04             	sub    $0x4,%esp
  40583f:	85 c0                	test   %eax,%eax
  405841:	75 10                	jne    405853 <___mingw_rewinddir+0x33>
  405843:	e8 c0 4b 00 00       	call   40a408 <__errno>
  405848:	c7 00 09 00 00 00    	movl   $0x9,(%eax)
  40584e:	8b 5d fc             	mov    -0x4(%ebp),%ebx
  405851:	c9                   	leave  
  405852:	c3                   	ret    
  405853:	8d 83 18 01 00 00    	lea    0x118(%ebx),%eax
  405859:	89 da                	mov    %ebx,%edx
  40585b:	e8 b0 fc ff ff       	call   405510 <_dirent_findfirst>
  405860:	83 f8 ff             	cmp    $0xffffffff,%eax
  405863:	89 83 10 01 00 00    	mov    %eax,0x110(%ebx)
  405869:	74 e3                	je     40584e <___mingw_rewinddir+0x2e>
  40586b:	c7 83 14 01 00 00 00 	movl   $0x0,0x114(%ebx)
  405872:	00 00 00 
  405875:	8b 5d fc             	mov    -0x4(%ebp),%ebx
  405878:	c9                   	leave  
  405879:	c3                   	ret    
  40587a:	8d b6 00 00 00 00    	lea    0x0(%esi),%esi

00405880 <___mingw_telldir>:
  405880:	83 ec 0c             	sub    $0xc,%esp
  405883:	8b 44 24 10          	mov    0x10(%esp),%eax
  405887:	85 c0                	test   %eax,%eax
  405889:	74 0a                	je     405895 <___mingw_telldir+0x15>
  40588b:	8b 80 14 01 00 00    	mov    0x114(%eax),%eax
  405891:	83 c4 0c             	add    $0xc,%esp
  405894:	c3                   	ret    
  405895:	e8 6e 4b 00 00       	call   40a408 <__errno>
  40589a:	c7 00 09 00 00 00    	movl   $0x9,(%eax)
  4058a0:	b8 ff ff ff ff       	mov    $0xffffffff,%eax
  4058a5:	eb ea                	jmp    405891 <___mingw_telldir+0x11>
  4058a7:	89 f6                	mov    %esi,%esi
  4058a9:	8d bc 27 00 00 00 00 	lea    0x0(%edi,%eiz,1),%edi

004058b0 <___mingw_seekdir>:
  4058b0:	56                   	push   %esi
  4058b1:	53                   	push   %ebx
  4058b2:	83 ec 14             	sub    $0x14,%esp
  4058b5:	8b 74 24 24          	mov    0x24(%esp),%esi
  4058b9:	8b 5c 24 20          	mov    0x20(%esp),%ebx
  4058bd:	85 f6                	test   %esi,%esi
  4058bf:	78 41                	js     405902 <___mingw_seekdir+0x52>
  4058c1:	89 1c 24             	mov    %ebx,(%esp)
  4058c4:	e8 57 ff ff ff       	call   405820 <___mingw_rewinddir>
  4058c9:	85 f6                	test   %esi,%esi
  4058cb:	74 2f                	je     4058fc <___mingw_seekdir+0x4c>
  4058cd:	83 bb 10 01 00 00 ff 	cmpl   $0xffffffff,0x110(%ebx)
  4058d4:	75 13                	jne    4058e9 <___mingw_seekdir+0x39>
  4058d6:	eb 24                	jmp    4058fc <___mingw_seekdir+0x4c>
  4058d8:	8b 83 10 01 00 00    	mov    0x110(%ebx),%eax
  4058de:	89 da                	mov    %ebx,%edx
  4058e0:	e8 8b fb ff ff       	call   405470 <_dirent_findnext>
  4058e5:	85 c0                	test   %eax,%eax
  4058e7:	74 13                	je     4058fc <___mingw_seekdir+0x4c>
  4058e9:	8b 83 14 01 00 00    	mov    0x114(%ebx),%eax
  4058ef:	83 c0 01             	add    $0x1,%eax
  4058f2:	39 c6                	cmp    %eax,%esi
  4058f4:	89 83 14 01 00 00    	mov    %eax,0x114(%ebx)
  4058fa:	7f dc                	jg     4058d8 <___mingw_seekdir+0x28>
  4058fc:	83 c4 14             	add    $0x14,%esp
  4058ff:	5b                   	pop    %ebx
  405900:	5e                   	pop    %esi
  405901:	c3                   	ret    
  405902:	e8 01 4b 00 00       	call   40a408 <__errno>
  405907:	c7 00 16 00 00 00    	movl   $0x16,(%eax)
  40590d:	83 c4 14             	add    $0x14,%esp
  405910:	5b                   	pop    %ebx
  405911:	5e                   	pop    %esi
  405912:	c3                   	ret    
  405913:	90                   	nop
  405914:	90                   	nop
  405915:	90                   	nop
  405916:	90                   	nop
  405917:	90                   	nop
  405918:	90                   	nop
  405919:	90                   	nop
  40591a:	90                   	nop
  40591b:	90                   	nop
  40591c:	90                   	nop
  40591d:	90                   	nop
  40591e:	90                   	nop
  40591f:	90                   	nop

00405920 <___mingw_snprintf>:
  405920:	83 ec 1c             	sub    $0x1c,%esp
  405923:	8d 44 24 2c          	lea    0x2c(%esp),%eax
  405927:	89 44 24 0c          	mov    %eax,0xc(%esp)
  40592b:	8b 44 24 28          	mov    0x28(%esp),%eax
  40592f:	89 44 24 08          	mov    %eax,0x8(%esp)
  405933:	8b 44 24 24          	mov    0x24(%esp),%eax
  405937:	89 44 24 04          	mov    %eax,0x4(%esp)
  40593b:	8b 44 24 20          	mov    0x20(%esp),%eax
  40593f:	89 04 24             	mov    %eax,(%esp)
  405942:	e8 09 00 00 00       	call   405950 <___mingw_vsnprintf>
  405947:	83 c4 1c             	add    $0x1c,%esp
  40594a:	c3                   	ret    
  40594b:	90                   	nop
  40594c:	90                   	nop
  40594d:	90                   	nop
  40594e:	90                   	nop
  40594f:	90                   	nop

00405950 <___mingw_vsnprintf>:
  405950:	56                   	push   %esi
  405951:	53                   	push   %ebx
  405952:	83 ec 24             	sub    $0x24,%esp
  405955:	8b 44 24 34          	mov    0x34(%esp),%eax
  405959:	8b 5c 24 30          	mov    0x30(%esp),%ebx
  40595d:	8b 54 24 38          	mov    0x38(%esp),%edx
  405961:	8b 4c 24 3c          	mov    0x3c(%esp),%ecx
  405965:	85 c0                	test   %eax,%eax
  405967:	74 37                	je     4059a0 <___mingw_vsnprintf+0x50>
  405969:	8d 70 ff             	lea    -0x1(%eax),%esi
  40596c:	89 54 24 0c          	mov    %edx,0xc(%esp)
  405970:	89 4c 24 10          	mov    %ecx,0x10(%esp)
  405974:	89 74 24 08          	mov    %esi,0x8(%esp)
  405978:	89 5c 24 04          	mov    %ebx,0x4(%esp)
  40597c:	c7 04 24 00 00 00 00 	movl   $0x0,(%esp)
  405983:	e8 e8 15 00 00       	call   406f70 <___mingw_pformat>
  405988:	39 f0                	cmp    %esi,%eax
  40598a:	89 c2                	mov    %eax,%edx
  40598c:	77 0a                	ja     405998 <___mingw_vsnprintf+0x48>
  40598e:	c6 04 13 00          	movb   $0x0,(%ebx,%edx,1)
  405992:	83 c4 24             	add    $0x24,%esp
  405995:	5b                   	pop    %ebx
  405996:	5e                   	pop    %esi
  405997:	c3                   	ret    
  405998:	89 f2                	mov    %esi,%edx
  40599a:	eb f2                	jmp    40598e <___mingw_vsnprintf+0x3e>
  40599c:	8d 74 26 00          	lea    0x0(%esi,%eiz,1),%esi
  4059a0:	89 5c 24 04          	mov    %ebx,0x4(%esp)
  4059a4:	89 4c 24 10          	mov    %ecx,0x10(%esp)
  4059a8:	89 54 24 0c          	mov    %edx,0xc(%esp)
  4059ac:	c7 44 24 08 00 00 00 	movl   $0x0,0x8(%esp)
  4059b3:	00 
  4059b4:	c7 04 24 00 00 00 00 	movl   $0x0,(%esp)
  4059bb:	e8 b0 15 00 00       	call   406f70 <___mingw_pformat>
  4059c0:	83 c4 24             	add    $0x24,%esp
  4059c3:	5b                   	pop    %ebx
  4059c4:	5e                   	pop    %esi
  4059c5:	c3                   	ret    
  4059c6:	90                   	nop
  4059c7:	90                   	nop
  4059c8:	90                   	nop
  4059c9:	90                   	nop
  4059ca:	90                   	nop
  4059cb:	90                   	nop
  4059cc:	90                   	nop
  4059cd:	90                   	nop
  4059ce:	90                   	nop
  4059cf:	90                   	nop

004059d0 <___pformat_cvt>:
  4059d0:	53                   	push   %ebx
  4059d1:	89 c1                	mov    %eax,%ecx
  4059d3:	83 ec 48             	sub    $0x48,%esp
  4059d6:	8b 44 24 50          	mov    0x50(%esp),%eax
  4059da:	89 44 24 20          	mov    %eax,0x20(%esp)
  4059de:	8b 44 24 54          	mov    0x54(%esp),%eax
  4059e2:	89 44 24 24          	mov    %eax,0x24(%esp)
  4059e6:	8b 44 24 58          	mov    0x58(%esp),%eax
  4059ea:	89 44 24 28          	mov    %eax,0x28(%esp)
  4059ee:	8b 44 24 5c          	mov    0x5c(%esp),%eax
  4059f2:	db 6c 24 20          	fldt   0x20(%esp)
  4059f6:	89 44 24 2c          	mov    %eax,0x2c(%esp)
  4059fa:	d9 e5                	fxam   
  4059fc:	9b df e0             	fstsw  %ax
  4059ff:	dd d8                	fstp   %st(0)
  405a01:	f6 c4 01             	test   $0x1,%ah
  405a04:	74 1a                	je     405a20 <___pformat_cvt+0x50>
  405a06:	f6 c4 04             	test   $0x4,%ah
  405a09:	0f 84 91 00 00 00    	je     405aa0 <___pformat_cvt+0xd0>
  405a0f:	c7 44 24 38 03 00 00 	movl   $0x3,0x38(%esp)
  405a16:	00 
  405a17:	0f b7 54 24 28       	movzwl 0x28(%esp),%edx
  405a1c:	31 c0                	xor    %eax,%eax
  405a1e:	eb 14                	jmp    405a34 <___pformat_cvt+0x64>
  405a20:	f6 c4 04             	test   $0x4,%ah
  405a23:	75 5c                	jne    405a81 <___pformat_cvt+0xb1>
  405a25:	0f b7 54 24 28       	movzwl 0x28(%esp),%edx
  405a2a:	31 c0                	xor    %eax,%eax
  405a2c:	c7 44 24 38 00 00 00 	movl   $0x0,0x38(%esp)
  405a33:	00 
  405a34:	81 e2 00 80 00 00    	and    $0x8000,%edx
  405a3a:	8b 5c 24 68          	mov    0x68(%esp),%ebx
  405a3e:	89 13                	mov    %edx,(%ebx)
  405a40:	8d 54 24 3c          	lea    0x3c(%esp),%edx
  405a44:	89 54 24 1c          	mov    %edx,0x1c(%esp)
  405a48:	8b 54 24 64          	mov    0x64(%esp),%edx
  405a4c:	89 4c 24 10          	mov    %ecx,0x10(%esp)
  405a50:	89 44 24 04          	mov    %eax,0x4(%esp)
  405a54:	c7 04 24 ec b1 40 00 	movl   $0x40b1ec,(%esp)
  405a5b:	89 54 24 18          	mov    %edx,0x18(%esp)
  405a5f:	8b 54 24 60          	mov    0x60(%esp),%edx
  405a63:	89 54 24 14          	mov    %edx,0x14(%esp)
  405a67:	8d 54 24 38          	lea    0x38(%esp),%edx
  405a6b:	89 54 24 0c          	mov    %edx,0xc(%esp)
  405a6f:	8d 54 24 20          	lea    0x20(%esp),%edx
  405a73:	89 54 24 08          	mov    %edx,0x8(%esp)
  405a77:	e8 64 1e 00 00       	call   4078e0 <___gdtoa>
  405a7c:	83 c4 48             	add    $0x48,%esp
  405a7f:	5b                   	pop    %ebx
  405a80:	c3                   	ret    
  405a81:	f6 c4 40             	test   $0x40,%ah
  405a84:	74 2a                	je     405ab0 <___pformat_cvt+0xe0>
  405a86:	c7 44 24 38 02 00 00 	movl   $0x2,0x38(%esp)
  405a8d:	00 
  405a8e:	0f b7 54 24 28       	movzwl 0x28(%esp),%edx
  405a93:	b8 c3 bf ff ff       	mov    $0xffffbfc3,%eax
  405a98:	eb 9a                	jmp    405a34 <___pformat_cvt+0x64>
  405a9a:	8d b6 00 00 00 00    	lea    0x0(%esi),%esi
  405aa0:	c7 44 24 38 04 00 00 	movl   $0x4,0x38(%esp)
  405aa7:	00 
  405aa8:	31 c0                	xor    %eax,%eax
  405aaa:	31 d2                	xor    %edx,%edx
  405aac:	eb 8c                	jmp    405a3a <___pformat_cvt+0x6a>
  405aae:	66 90                	xchg   %ax,%ax
  405ab0:	0f b7 54 24 28       	movzwl 0x28(%esp),%edx
  405ab5:	c7 44 24 38 01 00 00 	movl   $0x1,0x38(%esp)
  405abc:	00 
  405abd:	89 d0                	mov    %edx,%eax
  405abf:	25 ff 7f 00 00       	and    $0x7fff,%eax
  405ac4:	2d 3e 40 00 00       	sub    $0x403e,%eax
  405ac9:	e9 66 ff ff ff       	jmp    405a34 <___pformat_cvt+0x64>
  405ace:	66 90                	xchg   %ax,%ax

00405ad0 <___pformat_putc>:
  405ad0:	53                   	push   %ebx
  405ad1:	83 ec 18             	sub    $0x18,%esp
  405ad4:	8b 4a 04             	mov    0x4(%edx),%ecx
  405ad7:	f6 c5 20             	test   $0x20,%ch
  405ada:	75 08                	jne    405ae4 <___pformat_putc+0x14>
  405adc:	8b 5a 18             	mov    0x18(%edx),%ebx
  405adf:	39 5a 1c             	cmp    %ebx,0x1c(%edx)
  405ae2:	7e 10                	jle    405af4 <___pformat_putc+0x24>
  405ae4:	80 e5 10             	and    $0x10,%ch
  405ae7:	75 17                	jne    405b00 <___pformat_putc+0x30>
  405ae9:	8b 1a                	mov    (%edx),%ebx
  405aeb:	8b 4a 18             	mov    0x18(%edx),%ecx
  405aee:	88 04 0b             	mov    %al,(%ebx,%ecx,1)
  405af1:	8b 5a 18             	mov    0x18(%edx),%ebx
  405af4:	83 c3 01             	add    $0x1,%ebx
  405af7:	89 5a 18             	mov    %ebx,0x18(%edx)
  405afa:	83 c4 18             	add    $0x18,%esp
  405afd:	5b                   	pop    %ebx
  405afe:	c3                   	ret    
  405aff:	90                   	nop
  405b00:	8b 0a                	mov    (%edx),%ecx
  405b02:	89 04 24             	mov    %eax,(%esp)
  405b05:	89 54 24 0c          	mov    %edx,0xc(%esp)
  405b09:	89 4c 24 04          	mov    %ecx,0x4(%esp)
  405b0d:	e8 1e 49 00 00       	call   40a430 <_fputc>
  405b12:	8b 54 24 0c          	mov    0xc(%esp),%edx
  405b16:	8b 5a 18             	mov    0x18(%edx),%ebx
  405b19:	83 c3 01             	add    $0x1,%ebx
  405b1c:	89 5a 18             	mov    %ebx,0x18(%edx)
  405b1f:	83 c4 18             	add    $0x18,%esp
  405b22:	5b                   	pop    %ebx
  405b23:	c3                   	ret    
  405b24:	8d b6 00 00 00 00    	lea    0x0(%esi),%esi
  405b2a:	8d bf 00 00 00 00    	lea    0x0(%edi),%edi

00405b30 <___pformat_wputchars>:
  405b30:	55                   	push   %ebp
  405b31:	57                   	push   %edi
  405b32:	56                   	push   %esi
  405b33:	89 d6                	mov    %edx,%esi
  405b35:	53                   	push   %ebx
  405b36:	89 cb                	mov    %ecx,%ebx
  405b38:	83 ec 4c             	sub    $0x4c,%esp
  405b3b:	89 44 24 18          	mov    %eax,0x18(%esp)
  405b3f:	8d 6c 24 30          	lea    0x30(%esp),%ebp
  405b43:	8d 44 24 2c          	lea    0x2c(%esp),%eax
  405b47:	89 44 24 08          	mov    %eax,0x8(%esp)
  405b4b:	c7 44 24 04 00 00 00 	movl   $0x0,0x4(%esp)
  405b52:	00 
  405b53:	89 2c 24             	mov    %ebp,(%esp)
  405b56:	e8 b5 32 00 00       	call   408e10 <_wcrtomb>
  405b5b:	8b 43 0c             	mov    0xc(%ebx),%eax
  405b5e:	85 c0                	test   %eax,%eax
  405b60:	78 08                	js     405b6a <___pformat_wputchars+0x3a>
  405b62:	39 c6                	cmp    %eax,%esi
  405b64:	0f 8f c7 00 00 00    	jg     405c31 <___pformat_wputchars+0x101>
  405b6a:	8b 43 08             	mov    0x8(%ebx),%eax
  405b6d:	39 c6                	cmp    %eax,%esi
  405b6f:	0f 8d 8c 00 00 00    	jge    405c01 <___pformat_wputchars+0xd1>
  405b75:	29 f0                	sub    %esi,%eax
  405b77:	85 c0                	test   %eax,%eax
  405b79:	89 43 08             	mov    %eax,0x8(%ebx)
  405b7c:	7e 0a                	jle    405b88 <___pformat_wputchars+0x58>
  405b7e:	f6 43 05 04          	testb  $0x4,0x5(%ebx)
  405b82:	0f 84 85 00 00 00    	je     405c0d <___pformat_wputchars+0xdd>
  405b88:	89 74 24 1c          	mov    %esi,0x1c(%esp)
  405b8c:	8d 74 26 00          	lea    0x0(%esi,%eiz,1),%esi
  405b90:	8b 44 24 1c          	mov    0x1c(%esp),%eax
  405b94:	85 c0                	test   %eax,%eax
  405b96:	7e 54                	jle    405bec <___pformat_wputchars+0xbc>
  405b98:	83 44 24 18 02       	addl   $0x2,0x18(%esp)
  405b9d:	8d 44 24 2c          	lea    0x2c(%esp),%eax
  405ba1:	89 44 24 08          	mov    %eax,0x8(%esp)
  405ba5:	8b 44 24 18          	mov    0x18(%esp),%eax
  405ba9:	0f b7 40 fe          	movzwl -0x2(%eax),%eax
  405bad:	89 2c 24             	mov    %ebp,(%esp)
  405bb0:	89 44 24 04          	mov    %eax,0x4(%esp)
  405bb4:	e8 57 32 00 00       	call   408e10 <_wcrtomb>
  405bb9:	85 c0                	test   %eax,%eax
  405bbb:	7e 2f                	jle    405bec <___pformat_wputchars+0xbc>
  405bbd:	8d 74 05 00          	lea    0x0(%ebp,%eax,1),%esi
  405bc1:	89 ef                	mov    %ebp,%edi
  405bc3:	83 c7 01             	add    $0x1,%edi
  405bc6:	0f be 47 ff          	movsbl -0x1(%edi),%eax
  405bca:	89 da                	mov    %ebx,%edx
  405bcc:	e8 ff fe ff ff       	call   405ad0 <___pformat_putc>
  405bd1:	39 f7                	cmp    %esi,%edi
  405bd3:	75 ee                	jne    405bc3 <___pformat_wputchars+0x93>
  405bd5:	83 6c 24 1c 01       	subl   $0x1,0x1c(%esp)
  405bda:	eb b4                	jmp    405b90 <___pformat_wputchars+0x60>
  405bdc:	8d 74 26 00          	lea    0x0(%esi,%eiz,1),%esi
  405be0:	89 da                	mov    %ebx,%edx
  405be2:	b8 20 00 00 00       	mov    $0x20,%eax
  405be7:	e8 e4 fe ff ff       	call   405ad0 <___pformat_putc>
  405bec:	8b 43 08             	mov    0x8(%ebx),%eax
  405bef:	8d 50 ff             	lea    -0x1(%eax),%edx
  405bf2:	85 c0                	test   %eax,%eax
  405bf4:	89 53 08             	mov    %edx,0x8(%ebx)
  405bf7:	7f e7                	jg     405be0 <___pformat_wputchars+0xb0>
  405bf9:	83 c4 4c             	add    $0x4c,%esp
  405bfc:	5b                   	pop    %ebx
  405bfd:	5e                   	pop    %esi
  405bfe:	5f                   	pop    %edi
  405bff:	5d                   	pop    %ebp
  405c00:	c3                   	ret    
  405c01:	c7 43 08 ff ff ff ff 	movl   $0xffffffff,0x8(%ebx)
  405c08:	e9 7b ff ff ff       	jmp    405b88 <___pformat_wputchars+0x58>
  405c0d:	83 e8 01             	sub    $0x1,%eax
  405c10:	89 43 08             	mov    %eax,0x8(%ebx)
  405c13:	89 da                	mov    %ebx,%edx
  405c15:	b8 20 00 00 00       	mov    $0x20,%eax
  405c1a:	e8 b1 fe ff ff       	call   405ad0 <___pformat_putc>
  405c1f:	8b 43 08             	mov    0x8(%ebx),%eax
  405c22:	8d 50 ff             	lea    -0x1(%eax),%edx
  405c25:	85 c0                	test   %eax,%eax
  405c27:	89 53 08             	mov    %edx,0x8(%ebx)
  405c2a:	75 e7                	jne    405c13 <___pformat_wputchars+0xe3>
  405c2c:	e9 57 ff ff ff       	jmp    405b88 <___pformat_wputchars+0x58>
  405c31:	89 c6                	mov    %eax,%esi
  405c33:	e9 32 ff ff ff       	jmp    405b6a <___pformat_wputchars+0x3a>
  405c38:	90                   	nop
  405c39:	8d b4 26 00 00 00 00 	lea    0x0(%esi,%eiz,1),%esi

00405c40 <___pformat_putchars>:
  405c40:	57                   	push   %edi
  405c41:	89 c7                	mov    %eax,%edi
  405c43:	8b 41 0c             	mov    0xc(%ecx),%eax
  405c46:	56                   	push   %esi
  405c47:	89 d6                	mov    %edx,%esi
  405c49:	53                   	push   %ebx
  405c4a:	89 cb                	mov    %ecx,%ebx
  405c4c:	85 c0                	test   %eax,%eax
  405c4e:	78 08                	js     405c58 <___pformat_putchars+0x18>
  405c50:	39 c2                	cmp    %eax,%edx
  405c52:	0f 8f 88 00 00 00    	jg     405ce0 <___pformat_putchars+0xa0>
  405c58:	8b 43 08             	mov    0x8(%ebx),%eax
  405c5b:	39 c6                	cmp    %eax,%esi
  405c5d:	7d 71                	jge    405cd0 <___pformat_putchars+0x90>
  405c5f:	29 f0                	sub    %esi,%eax
  405c61:	85 c0                	test   %eax,%eax
  405c63:	89 43 08             	mov    %eax,0x8(%ebx)
  405c66:	7e 25                	jle    405c8d <___pformat_putchars+0x4d>
  405c68:	f6 43 05 04          	testb  $0x4,0x5(%ebx)
  405c6c:	75 1f                	jne    405c8d <___pformat_putchars+0x4d>
  405c6e:	83 e8 01             	sub    $0x1,%eax
  405c71:	89 43 08             	mov    %eax,0x8(%ebx)
  405c74:	89 da                	mov    %ebx,%edx
  405c76:	b8 20 00 00 00       	mov    $0x20,%eax
  405c7b:	e8 50 fe ff ff       	call   405ad0 <___pformat_putc>
  405c80:	8b 43 08             	mov    0x8(%ebx),%eax
  405c83:	8d 50 ff             	lea    -0x1(%eax),%edx
  405c86:	85 c0                	test   %eax,%eax
  405c88:	89 53 08             	mov    %edx,0x8(%ebx)
  405c8b:	75 e7                	jne    405c74 <___pformat_putchars+0x34>
  405c8d:	85 f6                	test   %esi,%esi
  405c8f:	74 2c                	je     405cbd <___pformat_putchars+0x7d>
  405c91:	83 c7 01             	add    $0x1,%edi
  405c94:	0f be 47 ff          	movsbl -0x1(%edi),%eax
  405c98:	89 da                	mov    %ebx,%edx
  405c9a:	e8 31 fe ff ff       	call   405ad0 <___pformat_putc>
  405c9f:	83 ee 01             	sub    $0x1,%esi
  405ca2:	75 ed                	jne    405c91 <___pformat_putchars+0x51>
  405ca4:	8b 43 08             	mov    0x8(%ebx),%eax
  405ca7:	8d 50 ff             	lea    -0x1(%eax),%edx
  405caa:	85 c0                	test   %eax,%eax
  405cac:	89 53 08             	mov    %edx,0x8(%ebx)
  405caf:	7e 19                	jle    405cca <___pformat_putchars+0x8a>
  405cb1:	89 da                	mov    %ebx,%edx
  405cb3:	b8 20 00 00 00       	mov    $0x20,%eax
  405cb8:	e8 13 fe ff ff       	call   405ad0 <___pformat_putc>
  405cbd:	8b 43 08             	mov    0x8(%ebx),%eax
  405cc0:	8d 50 ff             	lea    -0x1(%eax),%edx
  405cc3:	85 c0                	test   %eax,%eax
  405cc5:	89 53 08             	mov    %edx,0x8(%ebx)
  405cc8:	7f e7                	jg     405cb1 <___pformat_putchars+0x71>
  405cca:	5b                   	pop    %ebx
  405ccb:	5e                   	pop    %esi
  405ccc:	5f                   	pop    %edi
  405ccd:	c3                   	ret    
  405cce:	66 90                	xchg   %ax,%ax
  405cd0:	c7 43 08 ff ff ff ff 	movl   $0xffffffff,0x8(%ebx)
  405cd7:	eb b4                	jmp    405c8d <___pformat_putchars+0x4d>
  405cd9:	8d b4 26 00 00 00 00 	lea    0x0(%esi,%eiz,1),%esi
  405ce0:	89 c6                	mov    %eax,%esi
  405ce2:	e9 71 ff ff ff       	jmp    405c58 <___pformat_putchars+0x18>
  405ce7:	89 f6                	mov    %esi,%esi
  405ce9:	8d bc 27 00 00 00 00 	lea    0x0(%edi,%eiz,1),%edi

00405cf0 <___pformat_emit_inf_or_nan>:
  405cf0:	55                   	push   %ebp
  405cf1:	57                   	push   %edi
  405cf2:	56                   	push   %esi
  405cf3:	53                   	push   %ebx
  405cf4:	83 ec 1c             	sub    $0x1c,%esp
  405cf7:	85 c0                	test   %eax,%eax
  405cf9:	c7 41 0c ff ff ff ff 	movl   $0xffffffff,0xc(%ecx)
  405d00:	74 3e                	je     405d40 <___pformat_emit_inf_or_nan+0x50>
  405d02:	8b 69 04             	mov    0x4(%ecx),%ebp
  405d05:	8d 7c 24 0d          	lea    0xd(%esp),%edi
  405d09:	c6 44 24 0c 2d       	movb   $0x2d,0xc(%esp)
  405d0e:	8d 44 24 0c          	lea    0xc(%esp),%eax
  405d12:	83 e5 20             	and    $0x20,%ebp
  405d15:	31 f6                	xor    %esi,%esi
  405d17:	0f b6 1c 32          	movzbl (%edx,%esi,1),%ebx
  405d1b:	83 e3 df             	and    $0xffffffdf,%ebx
  405d1e:	09 eb                	or     %ebp,%ebx
  405d20:	88 1c 37             	mov    %bl,(%edi,%esi,1)
  405d23:	83 c6 01             	add    $0x1,%esi
  405d26:	83 fe 03             	cmp    $0x3,%esi
  405d29:	75 ec                	jne    405d17 <___pformat_emit_inf_or_nan+0x27>
  405d2b:	8d 57 03             	lea    0x3(%edi),%edx
  405d2e:	29 c2                	sub    %eax,%edx
  405d30:	e8 0b ff ff ff       	call   405c40 <___pformat_putchars>
  405d35:	83 c4 1c             	add    $0x1c,%esp
  405d38:	5b                   	pop    %ebx
  405d39:	5e                   	pop    %esi
  405d3a:	5f                   	pop    %edi
  405d3b:	5d                   	pop    %ebp
  405d3c:	c3                   	ret    
  405d3d:	8d 76 00             	lea    0x0(%esi),%esi
  405d40:	8b 69 04             	mov    0x4(%ecx),%ebp
  405d43:	f7 c5 00 01 00 00    	test   $0x100,%ebp
  405d49:	74 15                	je     405d60 <___pformat_emit_inf_or_nan+0x70>
  405d4b:	c6 44 24 0c 2b       	movb   $0x2b,0xc(%esp)
  405d50:	8d 7c 24 0d          	lea    0xd(%esp),%edi
  405d54:	8d 44 24 0c          	lea    0xc(%esp),%eax
  405d58:	eb b8                	jmp    405d12 <___pformat_emit_inf_or_nan+0x22>
  405d5a:	8d b6 00 00 00 00    	lea    0x0(%esi),%esi
  405d60:	f7 c5 40 00 00 00    	test   $0x40,%ebp
  405d66:	74 0f                	je     405d77 <___pformat_emit_inf_or_nan+0x87>
  405d68:	c6 44 24 0c 20       	movb   $0x20,0xc(%esp)
  405d6d:	8d 7c 24 0d          	lea    0xd(%esp),%edi
  405d71:	8d 44 24 0c          	lea    0xc(%esp),%eax
  405d75:	eb 9b                	jmp    405d12 <___pformat_emit_inf_or_nan+0x22>
  405d77:	8d 44 24 0c          	lea    0xc(%esp),%eax
  405d7b:	89 c7                	mov    %eax,%edi
  405d7d:	eb 93                	jmp    405d12 <___pformat_emit_inf_or_nan+0x22>
  405d7f:	90                   	nop

00405d80 <___pformat_int>:
  405d80:	55                   	push   %ebp
  405d81:	89 e5                	mov    %esp,%ebp
  405d83:	57                   	push   %edi
  405d84:	89 d7                	mov    %edx,%edi
  405d86:	56                   	push   %esi
  405d87:	89 c6                	mov    %eax,%esi
  405d89:	53                   	push   %ebx
  405d8a:	89 cb                	mov    %ecx,%ebx
  405d8c:	83 ec 2c             	sub    $0x2c,%esp
  405d8f:	89 55 dc             	mov    %edx,-0x24(%ebp)
  405d92:	8b 51 0c             	mov    0xc(%ecx),%edx
  405d95:	89 45 d8             	mov    %eax,-0x28(%ebp)
  405d98:	8b 49 08             	mov    0x8(%ecx),%ecx
  405d9b:	89 d0                	mov    %edx,%eax
  405d9d:	c1 f8 1f             	sar    $0x1f,%eax
  405da0:	f7 d0                	not    %eax
  405da2:	21 d0                	and    %edx,%eax
  405da4:	83 c0 17             	add    $0x17,%eax
  405da7:	39 c8                	cmp    %ecx,%eax
  405da9:	7d 02                	jge    405dad <___pformat_int+0x2d>
  405dab:	89 c8                	mov    %ecx,%eax
  405dad:	83 c0 0f             	add    $0xf,%eax
  405db0:	83 e0 f0             	and    $0xfffffff0,%eax
  405db3:	e8 a8 e5 ff ff       	call   404360 <___chkstk_ms>
  405db8:	29 c4                	sub    %eax,%esp
  405dba:	8d 44 24 10          	lea    0x10(%esp),%eax
  405dbe:	89 45 e4             	mov    %eax,-0x1c(%ebp)
  405dc1:	8b 43 04             	mov    0x4(%ebx),%eax
  405dc4:	a8 80                	test   $0x80,%al
  405dc6:	74 0d                	je     405dd5 <___pformat_int+0x55>
  405dc8:	85 ff                	test   %edi,%edi
  405dca:	0f 88 b0 01 00 00    	js     405f80 <___pformat_int+0x200>
  405dd0:	24 7f                	and    $0x7f,%al
  405dd2:	89 43 04             	mov    %eax,0x4(%ebx)
  405dd5:	8b 4d dc             	mov    -0x24(%ebp),%ecx
  405dd8:	8b 7d d8             	mov    -0x28(%ebp),%edi
  405ddb:	8b 75 e4             	mov    -0x1c(%ebp),%esi
  405dde:	89 c8                	mov    %ecx,%eax
  405de0:	09 f8                	or     %edi,%eax
  405de2:	74 5d                	je     405e41 <___pformat_int+0xc1>
  405de4:	89 5d d8             	mov    %ebx,-0x28(%ebp)
  405de7:	89 cb                	mov    %ecx,%ebx
  405de9:	8d b4 26 00 00 00 00 	lea    0x0(%esi,%eiz,1),%esi
  405df0:	89 3c 24             	mov    %edi,(%esp)
  405df3:	83 c6 01             	add    $0x1,%esi
  405df6:	89 5c 24 04          	mov    %ebx,0x4(%esp)
  405dfa:	c7 44 24 08 0a 00 00 	movl   $0xa,0x8(%esp)
  405e01:	00 
  405e02:	c7 44 24 0c 00 00 00 	movl   $0x0,0xc(%esp)
  405e09:	00 
  405e0a:	e8 f1 e2 ff ff       	call   404100 <___umoddi3>
  405e0f:	83 c0 30             	add    $0x30,%eax
  405e12:	88 46 ff             	mov    %al,-0x1(%esi)
  405e15:	89 3c 24             	mov    %edi,(%esp)
  405e18:	89 5c 24 04          	mov    %ebx,0x4(%esp)
  405e1c:	c7 44 24 08 0a 00 00 	movl   $0xa,0x8(%esp)
  405e23:	00 
  405e24:	c7 44 24 0c 00 00 00 	movl   $0x0,0xc(%esp)
  405e2b:	00 
  405e2c:	e8 1f e4 ff ff       	call   404250 <___udivdi3>
  405e31:	89 c7                	mov    %eax,%edi
  405e33:	89 d0                	mov    %edx,%eax
  405e35:	09 f8                	or     %edi,%eax
  405e37:	89 d3                	mov    %edx,%ebx
  405e39:	75 b5                	jne    405df0 <___pformat_int+0x70>
  405e3b:	8b 5d d8             	mov    -0x28(%ebp),%ebx
  405e3e:	8b 53 0c             	mov    0xc(%ebx),%edx
  405e41:	85 d2                	test   %edx,%edx
  405e43:	89 f7                	mov    %esi,%edi
  405e45:	7e 19                	jle    405e60 <___pformat_int+0xe0>
  405e47:	8b 45 e4             	mov    -0x1c(%ebp),%eax
  405e4a:	29 f0                	sub    %esi,%eax
  405e4c:	01 c2                	add    %eax,%edx
  405e4e:	85 d2                	test   %edx,%edx
  405e50:	7e 0e                	jle    405e60 <___pformat_int+0xe0>
  405e52:	8d 3c 16             	lea    (%esi,%edx,1),%edi
  405e55:	83 c6 01             	add    $0x1,%esi
  405e58:	39 fe                	cmp    %edi,%esi
  405e5a:	c6 46 ff 30          	movb   $0x30,-0x1(%esi)
  405e5e:	75 f5                	jne    405e55 <___pformat_int+0xd5>
  405e60:	3b 7d e4             	cmp    -0x1c(%ebp),%edi
  405e63:	0f 84 29 01 00 00    	je     405f92 <___pformat_int+0x212>
  405e69:	8b 43 08             	mov    0x8(%ebx),%eax
  405e6c:	85 c0                	test   %eax,%eax
  405e6e:	7e 59                	jle    405ec9 <___pformat_int+0x149>
  405e70:	8b 55 e4             	mov    -0x1c(%ebp),%edx
  405e73:	29 fa                	sub    %edi,%edx
  405e75:	01 c2                	add    %eax,%edx
  405e77:	8b 43 04             	mov    0x4(%ebx),%eax
  405e7a:	85 d2                	test   %edx,%edx
  405e7c:	89 53 08             	mov    %edx,0x8(%ebx)
  405e7f:	7e 4b                	jle    405ecc <___pformat_int+0x14c>
  405e81:	a9 c0 01 00 00       	test   $0x1c0,%eax
  405e86:	74 06                	je     405e8e <___pformat_int+0x10e>
  405e88:	83 ea 01             	sub    $0x1,%edx
  405e8b:	89 53 08             	mov    %edx,0x8(%ebx)
  405e8e:	8b 53 0c             	mov    0xc(%ebx),%edx
  405e91:	85 d2                	test   %edx,%edx
  405e93:	0f 88 a7 00 00 00    	js     405f40 <___pformat_int+0x1c0>
  405e99:	f6 c4 04             	test   $0x4,%ah
  405e9c:	75 2e                	jne    405ecc <___pformat_int+0x14c>
  405e9e:	8b 53 08             	mov    0x8(%ebx),%edx
  405ea1:	8d 4a ff             	lea    -0x1(%edx),%ecx
  405ea4:	85 d2                	test   %edx,%edx
  405ea6:	89 4b 08             	mov    %ecx,0x8(%ebx)
  405ea9:	7e 21                	jle    405ecc <___pformat_int+0x14c>
  405eab:	90                   	nop
  405eac:	8d 74 26 00          	lea    0x0(%esi,%eiz,1),%esi
  405eb0:	89 da                	mov    %ebx,%edx
  405eb2:	b8 20 00 00 00       	mov    $0x20,%eax
  405eb7:	e8 14 fc ff ff       	call   405ad0 <___pformat_putc>
  405ebc:	8b 43 08             	mov    0x8(%ebx),%eax
  405ebf:	8d 50 ff             	lea    -0x1(%eax),%edx
  405ec2:	85 c0                	test   %eax,%eax
  405ec4:	89 53 08             	mov    %edx,0x8(%ebx)
  405ec7:	7f e7                	jg     405eb0 <___pformat_int+0x130>
  405ec9:	8b 43 04             	mov    0x4(%ebx),%eax
  405ecc:	a8 80                	test   $0x80,%al
  405ece:	74 51                	je     405f21 <___pformat_int+0x1a1>
  405ed0:	8d 77 01             	lea    0x1(%edi),%esi
  405ed3:	c6 07 2d             	movb   $0x2d,(%edi)
  405ed6:	39 75 e4             	cmp    %esi,-0x1c(%ebp)
  405ed9:	8b 7d e4             	mov    -0x1c(%ebp),%edi
  405edc:	73 2e                	jae    405f0c <___pformat_int+0x18c>
  405ede:	66 90                	xchg   %ax,%ax
  405ee0:	83 ee 01             	sub    $0x1,%esi
  405ee3:	0f be 06             	movsbl (%esi),%eax
  405ee6:	89 da                	mov    %ebx,%edx
  405ee8:	e8 e3 fb ff ff       	call   405ad0 <___pformat_putc>
  405eed:	39 fe                	cmp    %edi,%esi
  405eef:	75 ef                	jne    405ee0 <___pformat_int+0x160>
  405ef1:	8b 43 08             	mov    0x8(%ebx),%eax
  405ef4:	8d 50 ff             	lea    -0x1(%eax),%edx
  405ef7:	85 c0                	test   %eax,%eax
  405ef9:	89 53 08             	mov    %edx,0x8(%ebx)
  405efc:	7e 1b                	jle    405f19 <___pformat_int+0x199>
  405efe:	66 90                	xchg   %ax,%ax
  405f00:	89 da                	mov    %ebx,%edx
  405f02:	b8 20 00 00 00       	mov    $0x20,%eax
  405f07:	e8 c4 fb ff ff       	call   405ad0 <___pformat_putc>
  405f0c:	8b 43 08             	mov    0x8(%ebx),%eax
  405f0f:	8d 50 ff             	lea    -0x1(%eax),%edx
  405f12:	85 c0                	test   %eax,%eax
  405f14:	89 53 08             	mov    %edx,0x8(%ebx)
  405f17:	7f e7                	jg     405f00 <___pformat_int+0x180>
  405f19:	8d 65 f4             	lea    -0xc(%ebp),%esp
  405f1c:	5b                   	pop    %ebx
  405f1d:	5e                   	pop    %esi
  405f1e:	5f                   	pop    %edi
  405f1f:	5d                   	pop    %ebp
  405f20:	c3                   	ret    
  405f21:	f6 c4 01             	test   $0x1,%ah
  405f24:	74 0a                	je     405f30 <___pformat_int+0x1b0>
  405f26:	8d 77 01             	lea    0x1(%edi),%esi
  405f29:	c6 07 2b             	movb   $0x2b,(%edi)
  405f2c:	eb a8                	jmp    405ed6 <___pformat_int+0x156>
  405f2e:	66 90                	xchg   %ax,%ax
  405f30:	a8 40                	test   $0x40,%al
  405f32:	89 fe                	mov    %edi,%esi
  405f34:	74 a0                	je     405ed6 <___pformat_int+0x156>
  405f36:	83 c6 01             	add    $0x1,%esi
  405f39:	c6 07 20             	movb   $0x20,(%edi)
  405f3c:	eb 98                	jmp    405ed6 <___pformat_int+0x156>
  405f3e:	66 90                	xchg   %ax,%ax
  405f40:	89 c2                	mov    %eax,%edx
  405f42:	81 e2 00 06 00 00    	and    $0x600,%edx
  405f48:	81 fa 00 02 00 00    	cmp    $0x200,%edx
  405f4e:	0f 85 45 ff ff ff    	jne    405e99 <___pformat_int+0x119>
  405f54:	8b 53 08             	mov    0x8(%ebx),%edx
  405f57:	8d 4a ff             	lea    -0x1(%edx),%ecx
  405f5a:	85 d2                	test   %edx,%edx
  405f5c:	89 4b 08             	mov    %ecx,0x8(%ebx)
  405f5f:	0f 8e 67 ff ff ff    	jle    405ecc <___pformat_int+0x14c>
  405f65:	83 c7 01             	add    $0x1,%edi
  405f68:	c6 47 ff 30          	movb   $0x30,-0x1(%edi)
  405f6c:	8b 43 08             	mov    0x8(%ebx),%eax
  405f6f:	8d 50 ff             	lea    -0x1(%eax),%edx
  405f72:	85 c0                	test   %eax,%eax
  405f74:	89 53 08             	mov    %edx,0x8(%ebx)
  405f77:	7f ec                	jg     405f65 <___pformat_int+0x1e5>
  405f79:	e9 4b ff ff ff       	jmp    405ec9 <___pformat_int+0x149>
  405f7e:	66 90                	xchg   %ax,%ax
  405f80:	f7 de                	neg    %esi
  405f82:	83 d7 00             	adc    $0x0,%edi
  405f85:	f7 df                	neg    %edi
  405f87:	89 75 d8             	mov    %esi,-0x28(%ebp)
  405f8a:	89 7d dc             	mov    %edi,-0x24(%ebp)
  405f8d:	e9 43 fe ff ff       	jmp    405dd5 <___pformat_int+0x55>
  405f92:	8b 4b 0c             	mov    0xc(%ebx),%ecx
  405f95:	85 c9                	test   %ecx,%ecx
  405f97:	0f 84 cc fe ff ff    	je     405e69 <___pformat_int+0xe9>
  405f9d:	c6 07 30             	movb   $0x30,(%edi)
  405fa0:	83 c7 01             	add    $0x1,%edi
  405fa3:	e9 c1 fe ff ff       	jmp    405e69 <___pformat_int+0xe9>
  405fa8:	90                   	nop
  405fa9:	8d b4 26 00 00 00 00 	lea    0x0(%esi,%eiz,1),%esi

00405fb0 <___pformat_xint>:
  405fb0:	55                   	push   %ebp
  405fb1:	89 e5                	mov    %esp,%ebp
  405fb3:	57                   	push   %edi
  405fb4:	89 cf                	mov    %ecx,%edi
  405fb6:	56                   	push   %esi
  405fb7:	89 d6                	mov    %edx,%esi
  405fb9:	53                   	push   %ebx
  405fba:	83 ec 2c             	sub    $0x2c,%esp
  405fbd:	89 55 dc             	mov    %edx,-0x24(%ebp)
  405fc0:	31 d2                	xor    %edx,%edx
  405fc2:	83 f8 6f             	cmp    $0x6f,%eax
  405fc5:	0f 94 c2             	sete   %dl
  405fc8:	83 ea 01             	sub    $0x1,%edx
  405fcb:	83 e2 fa             	and    $0xfffffffa,%edx
  405fce:	89 4d d4             	mov    %ecx,-0x2c(%ebp)
  405fd1:	31 c9                	xor    %ecx,%ecx
  405fd3:	83 f8 6f             	cmp    $0x6f,%eax
  405fd6:	0f 95 c1             	setne  %cl
  405fd9:	89 45 d8             	mov    %eax,-0x28(%ebp)
  405fdc:	89 c8                	mov    %ecx,%eax
  405fde:	89 45 e4             	mov    %eax,-0x1c(%ebp)
  405fe1:	8b 45 08             	mov    0x8(%ebp),%eax
  405fe4:	8d 1c cd 07 00 00 00 	lea    0x7(,%ecx,8),%ebx
  405feb:	89 5d d0             	mov    %ebx,-0x30(%ebp)
  405fee:	8b 4d 08             	mov    0x8(%ebp),%ecx
  405ff1:	83 45 e4 03          	addl   $0x3,-0x1c(%ebp)
  405ff5:	8b 58 0c             	mov    0xc(%eax),%ebx
  405ff8:	8b 49 08             	mov    0x8(%ecx),%ecx
  405ffb:	89 d8                	mov    %ebx,%eax
  405ffd:	c1 f8 1f             	sar    $0x1f,%eax
  406000:	f7 d0                	not    %eax
  406002:	21 d8                	and    %ebx,%eax
  406004:	8d 44 02 18          	lea    0x18(%edx,%eax,1),%eax
  406008:	39 c8                	cmp    %ecx,%eax
  40600a:	7d 02                	jge    40600e <___pformat_xint+0x5e>
  40600c:	89 c8                	mov    %ecx,%eax
  40600e:	83 c0 0f             	add    $0xf,%eax
  406011:	83 e0 f0             	and    $0xfffffff0,%eax
  406014:	e8 47 e3 ff ff       	call   404360 <___chkstk_ms>
  406019:	29 c4                	sub    %eax,%esp
  40601b:	8b 45 d4             	mov    -0x2c(%ebp),%eax
  40601e:	0b 45 dc             	or     -0x24(%ebp),%eax
  406021:	89 65 e0             	mov    %esp,-0x20(%ebp)
  406024:	0f 84 4a 02 00 00    	je     406274 <___pformat_xint+0x2c4>
  40602a:	0f b6 4d d8          	movzbl -0x28(%ebp),%ecx
  40602e:	89 e0                	mov    %esp,%eax
  406030:	0f b6 5d d0          	movzbl -0x30(%ebp),%ebx
  406034:	83 e1 20             	and    $0x20,%ecx
  406037:	88 4d dc             	mov    %cl,-0x24(%ebp)
  40603a:	eb 1f                	jmp    40605b <___pformat_xint+0xab>
  40603c:	8d 74 26 00          	lea    0x0(%esi,%eiz,1),%esi
  406040:	88 48 ff             	mov    %cl,-0x1(%eax)
  406043:	0f b6 4d e4          	movzbl -0x1c(%ebp),%ecx
  406047:	0f ad fe             	shrd   %cl,%edi,%esi
  40604a:	d3 ef                	shr    %cl,%edi
  40604c:	f6 c1 20             	test   $0x20,%cl
  40604f:	74 04                	je     406055 <___pformat_xint+0xa5>
  406051:	89 fe                	mov    %edi,%esi
  406053:	31 ff                	xor    %edi,%edi
  406055:	89 f9                	mov    %edi,%ecx
  406057:	09 f1                	or     %esi,%ecx
  406059:	74 1a                	je     406075 <___pformat_xint+0xc5>
  40605b:	89 f2                	mov    %esi,%edx
  40605d:	83 c0 01             	add    $0x1,%eax
  406060:	21 da                	and    %ebx,%edx
  406062:	8d 4a 30             	lea    0x30(%edx),%ecx
  406065:	80 f9 39             	cmp    $0x39,%cl
  406068:	7e d6                	jle    406040 <___pformat_xint+0x90>
  40606a:	83 c2 37             	add    $0x37,%edx
  40606d:	0a 55 dc             	or     -0x24(%ebp),%dl
  406070:	88 50 ff             	mov    %dl,-0x1(%eax)
  406073:	eb ce                	jmp    406043 <___pformat_xint+0x93>
  406075:	39 45 e0             	cmp    %eax,-0x20(%ebp)
  406078:	0f 84 f0 01 00 00    	je     40626e <___pformat_xint+0x2be>
  40607e:	8b 7d 08             	mov    0x8(%ebp),%edi
  406081:	8b 5f 0c             	mov    0xc(%edi),%ebx
  406084:	85 db                	test   %ebx,%ebx
  406086:	0f 8e a5 01 00 00    	jle    406231 <___pformat_xint+0x281>
  40608c:	8b 4d e0             	mov    -0x20(%ebp),%ecx
  40608f:	29 c1                	sub    %eax,%ecx
  406091:	01 cb                	add    %ecx,%ebx
  406093:	85 db                	test   %ebx,%ebx
  406095:	0f 8e 96 01 00 00    	jle    406231 <___pformat_xint+0x281>
  40609b:	8d 3c 18             	lea    (%eax,%ebx,1),%edi
  40609e:	66 90                	xchg   %ax,%ax
  4060a0:	83 c0 01             	add    $0x1,%eax
  4060a3:	39 f8                	cmp    %edi,%eax
  4060a5:	c6 40 ff 30          	movb   $0x30,-0x1(%eax)
  4060a9:	75 f5                	jne    4060a0 <___pformat_xint+0xf0>
  4060ab:	3b 7d e0             	cmp    -0x20(%ebp),%edi
  4060ae:	0f 84 a1 01 00 00    	je     406255 <___pformat_xint+0x2a5>
  4060b4:	8b 45 08             	mov    0x8(%ebp),%eax
  4060b7:	8b 70 08             	mov    0x8(%eax),%esi
  4060ba:	89 f8                	mov    %edi,%eax
  4060bc:	2b 45 e0             	sub    -0x20(%ebp),%eax
  4060bf:	39 c6                	cmp    %eax,%esi
  4060c1:	0f 8e a9 00 00 00    	jle    406170 <___pformat_xint+0x1c0>
  4060c7:	29 c6                	sub    %eax,%esi
  4060c9:	8b 45 08             	mov    0x8(%ebp),%eax
  4060cc:	85 f6                	test   %esi,%esi
  4060ce:	89 70 08             	mov    %esi,0x8(%eax)
  4060d1:	7e 21                	jle    4060f4 <___pformat_xint+0x144>
  4060d3:	83 7d d8 6f          	cmpl   $0x6f,-0x28(%ebp)
  4060d7:	74 0d                	je     4060e6 <___pformat_xint+0x136>
  4060d9:	8b 45 08             	mov    0x8(%ebp),%eax
  4060dc:	f6 40 05 08          	testb  $0x8,0x5(%eax)
  4060e0:	0f 85 00 01 00 00    	jne    4061e6 <___pformat_xint+0x236>
  4060e6:	8b 45 08             	mov    0x8(%ebp),%eax
  4060e9:	8b 58 0c             	mov    0xc(%eax),%ebx
  4060ec:	85 db                	test   %ebx,%ebx
  4060ee:	0f 88 09 01 00 00    	js     4061fd <___pformat_xint+0x24d>
  4060f4:	8d 46 ff             	lea    -0x1(%esi),%eax
  4060f7:	89 45 e4             	mov    %eax,-0x1c(%ebp)
  4060fa:	8b 45 e4             	mov    -0x1c(%ebp),%eax
  4060fd:	83 7d d8 6f          	cmpl   $0x6f,-0x28(%ebp)
  406101:	89 c3                	mov    %eax,%ebx
  406103:	74 0d                	je     406112 <___pformat_xint+0x162>
  406105:	8b 45 08             	mov    0x8(%ebp),%eax
  406108:	f6 40 05 08          	testb  $0x8,0x5(%eax)
  40610c:	0f 85 be 00 00 00    	jne    4061d0 <___pformat_xint+0x220>
  406112:	85 f6                	test   %esi,%esi
  406114:	7e 09                	jle    40611f <___pformat_xint+0x16f>
  406116:	8b 45 08             	mov    0x8(%ebp),%eax
  406119:	f6 40 05 04          	testb  $0x4,0x5(%eax)
  40611d:	74 71                	je     406190 <___pformat_xint+0x1e0>
  40611f:	3b 7d e0             	cmp    -0x20(%ebp),%edi
  406122:	76 25                	jbe    406149 <___pformat_xint+0x199>
  406124:	89 75 e4             	mov    %esi,-0x1c(%ebp)
  406127:	8b 75 e0             	mov    -0x20(%ebp),%esi
  40612a:	89 5d e0             	mov    %ebx,-0x20(%ebp)
  40612d:	89 fb                	mov    %edi,%ebx
  40612f:	8b 7d 08             	mov    0x8(%ebp),%edi
  406132:	83 eb 01             	sub    $0x1,%ebx
  406135:	0f be 03             	movsbl (%ebx),%eax
  406138:	89 fa                	mov    %edi,%edx
  40613a:	e8 91 f9 ff ff       	call   405ad0 <___pformat_putc>
  40613f:	39 f3                	cmp    %esi,%ebx
  406141:	75 ef                	jne    406132 <___pformat_xint+0x182>
  406143:	8b 75 e4             	mov    -0x1c(%ebp),%esi
  406146:	8b 5d e0             	mov    -0x20(%ebp),%ebx
  406149:	85 f6                	test   %esi,%esi
  40614b:	7e 19                	jle    406166 <___pformat_xint+0x1b6>
  40614d:	8b 75 08             	mov    0x8(%ebp),%esi
  406150:	b8 20 00 00 00       	mov    $0x20,%eax
  406155:	83 eb 01             	sub    $0x1,%ebx
  406158:	89 f2                	mov    %esi,%edx
  40615a:	e8 71 f9 ff ff       	call   405ad0 <___pformat_putc>
  40615f:	8d 43 01             	lea    0x1(%ebx),%eax
  406162:	85 c0                	test   %eax,%eax
  406164:	7f ea                	jg     406150 <___pformat_xint+0x1a0>
  406166:	8d 65 f4             	lea    -0xc(%ebp),%esp
  406169:	5b                   	pop    %ebx
  40616a:	5e                   	pop    %esi
  40616b:	5f                   	pop    %edi
  40616c:	5d                   	pop    %ebp
  40616d:	c3                   	ret    
  40616e:	66 90                	xchg   %ax,%ax
  406170:	8b 45 08             	mov    0x8(%ebp),%eax
  406173:	be ff ff ff ff       	mov    $0xffffffff,%esi
  406178:	c7 45 e4 fe ff ff ff 	movl   $0xfffffffe,-0x1c(%ebp)
  40617f:	c7 40 08 ff ff ff ff 	movl   $0xffffffff,0x8(%eax)
  406186:	e9 6f ff ff ff       	jmp    4060fa <___pformat_xint+0x14a>
  40618b:	90                   	nop
  40618c:	8d 74 26 00          	lea    0x0(%esi,%eiz,1),%esi
  406190:	8b 5d e4             	mov    -0x1c(%ebp),%ebx
  406193:	89 c6                	mov    %eax,%esi
  406195:	b8 20 00 00 00       	mov    $0x20,%eax
  40619a:	83 eb 01             	sub    $0x1,%ebx
  40619d:	89 f2                	mov    %esi,%edx
  40619f:	e8 2c f9 ff ff       	call   405ad0 <___pformat_putc>
  4061a4:	8d 43 01             	lea    0x1(%ebx),%eax
  4061a7:	85 c0                	test   %eax,%eax
  4061a9:	7f ea                	jg     406195 <___pformat_xint+0x1e5>
  4061ab:	8b 4d e4             	mov    -0x1c(%ebp),%ecx
  4061ae:	89 c8                	mov    %ecx,%eax
  4061b0:	c1 f8 1f             	sar    $0x1f,%eax
  4061b3:	f7 d0                	not    %eax
  4061b5:	8d 71 ff             	lea    -0x1(%ecx),%esi
  4061b8:	21 c8                	and    %ecx,%eax
  4061ba:	29 c6                	sub    %eax,%esi
  4061bc:	8d 5e ff             	lea    -0x1(%esi),%ebx
  4061bf:	e9 5b ff ff ff       	jmp    40611f <___pformat_xint+0x16f>
  4061c4:	83 ee 03             	sub    $0x3,%esi
  4061c7:	89 75 e4             	mov    %esi,-0x1c(%ebp)
  4061ca:	89 c6                	mov    %eax,%esi
  4061cc:	8d 74 26 00          	lea    0x0(%esi,%eiz,1),%esi
  4061d0:	0f b6 45 d8          	movzbl -0x28(%ebp),%eax
  4061d4:	83 c7 02             	add    $0x2,%edi
  4061d7:	c6 47 ff 30          	movb   $0x30,-0x1(%edi)
  4061db:	8b 5d e4             	mov    -0x1c(%ebp),%ebx
  4061de:	88 47 fe             	mov    %al,-0x2(%edi)
  4061e1:	e9 2c ff ff ff       	jmp    406112 <___pformat_xint+0x162>
  4061e6:	8d 46 fe             	lea    -0x2(%esi),%eax
  4061e9:	85 c0                	test   %eax,%eax
  4061eb:	7e d7                	jle    4061c4 <___pformat_xint+0x214>
  4061ed:	89 c6                	mov    %eax,%esi
  4061ef:	8b 45 08             	mov    0x8(%ebp),%eax
  4061f2:	8b 58 0c             	mov    0xc(%eax),%ebx
  4061f5:	85 db                	test   %ebx,%ebx
  4061f7:	0f 89 f7 fe ff ff    	jns    4060f4 <___pformat_xint+0x144>
  4061fd:	8b 45 08             	mov    0x8(%ebp),%eax
  406200:	8b 40 04             	mov    0x4(%eax),%eax
  406203:	25 00 06 00 00       	and    $0x600,%eax
  406208:	3d 00 02 00 00       	cmp    $0x200,%eax
  40620d:	0f 85 e1 fe ff ff    	jne    4060f4 <___pformat_xint+0x144>
  406213:	01 fe                	add    %edi,%esi
  406215:	83 c7 01             	add    $0x1,%edi
  406218:	39 f7                	cmp    %esi,%edi
  40621a:	c6 47 ff 30          	movb   $0x30,-0x1(%edi)
  40621e:	75 f5                	jne    406215 <___pformat_xint+0x265>
  406220:	c7 45 e4 fe ff ff ff 	movl   $0xfffffffe,-0x1c(%ebp)
  406227:	be ff ff ff ff       	mov    $0xffffffff,%esi
  40622c:	e9 c9 fe ff ff       	jmp    4060fa <___pformat_xint+0x14a>
  406231:	83 7d d8 6f          	cmpl   $0x6f,-0x28(%ebp)
  406235:	89 c7                	mov    %eax,%edi
  406237:	0f 85 6e fe ff ff    	jne    4060ab <___pformat_xint+0xfb>
  40623d:	8b 75 08             	mov    0x8(%ebp),%esi
  406240:	f6 46 05 08          	testb  $0x8,0x5(%esi)
  406244:	0f 84 61 fe ff ff    	je     4060ab <___pformat_xint+0xfb>
  40624a:	83 c7 01             	add    $0x1,%edi
  40624d:	c6 00 30             	movb   $0x30,(%eax)
  406250:	e9 56 fe ff ff       	jmp    4060ab <___pformat_xint+0xfb>
  406255:	8b 45 08             	mov    0x8(%ebp),%eax
  406258:	8b 70 0c             	mov    0xc(%eax),%esi
  40625b:	85 f6                	test   %esi,%esi
  40625d:	0f 84 51 fe ff ff    	je     4060b4 <___pformat_xint+0x104>
  406263:	c6 07 30             	movb   $0x30,(%edi)
  406266:	83 c7 01             	add    $0x1,%edi
  406269:	e9 46 fe ff ff       	jmp    4060b4 <___pformat_xint+0x104>
  40626e:	8b 45 08             	mov    0x8(%ebp),%eax
  406271:	8b 58 0c             	mov    0xc(%eax),%ebx
  406274:	8b 45 08             	mov    0x8(%ebp),%eax
  406277:	81 60 04 ff f7 ff ff 	andl   $0xfffff7ff,0x4(%eax)
  40627e:	8b 45 e0             	mov    -0x20(%ebp),%eax
  406281:	e9 fe fd ff ff       	jmp    406084 <___pformat_xint+0xd4>
  406286:	8d 76 00             	lea    0x0(%esi),%esi
  406289:	8d bc 27 00 00 00 00 	lea    0x0(%edi,%eiz,1),%edi

00406290 <___pformat_emit_float>:
  406290:	55                   	push   %ebp
  406291:	89 e5                	mov    %esp,%ebp
  406293:	57                   	push   %edi
  406294:	56                   	push   %esi
  406295:	89 d6                	mov    %edx,%esi
  406297:	53                   	push   %ebx
  406298:	89 cb                	mov    %ecx,%ebx
  40629a:	83 ec 3c             	sub    $0x3c,%esp
  40629d:	8b 7d 08             	mov    0x8(%ebp),%edi
  4062a0:	85 c9                	test   %ecx,%ecx
  4062a2:	89 45 d4             	mov    %eax,-0x2c(%ebp)
  4062a5:	8b 47 08             	mov    0x8(%edi),%eax
  4062a8:	0f 8e 7a 02 00 00    	jle    406528 <___pformat_emit_float+0x298>
  4062ae:	39 c1                	cmp    %eax,%ecx
  4062b0:	0f 8d 3a 01 00 00    	jge    4063f0 <___pformat_emit_float+0x160>
  4062b6:	29 c8                	sub    %ecx,%eax
  4062b8:	89 47 08             	mov    %eax,0x8(%edi)
  4062bb:	85 c0                	test   %eax,%eax
  4062bd:	0f 88 2d 01 00 00    	js     4063f0 <___pformat_emit_float+0x160>
  4062c3:	8b 57 0c             	mov    0xc(%edi),%edx
  4062c6:	39 c2                	cmp    %eax,%edx
  4062c8:	0f 8d 22 01 00 00    	jge    4063f0 <___pformat_emit_float+0x160>
  4062ce:	29 d0                	sub    %edx,%eax
  4062d0:	85 c0                	test   %eax,%eax
  4062d2:	89 47 08             	mov    %eax,0x8(%edi)
  4062d5:	0f 8e 1c 01 00 00    	jle    4063f7 <___pformat_emit_float+0x167>
  4062db:	85 d2                	test   %edx,%edx
  4062dd:	0f 8e ad 02 00 00    	jle    406590 <___pformat_emit_float+0x300>
  4062e3:	83 e8 01             	sub    $0x1,%eax
  4062e6:	85 c0                	test   %eax,%eax
  4062e8:	89 47 08             	mov    %eax,0x8(%edi)
  4062eb:	0f 84 06 01 00 00    	je     4063f7 <___pformat_emit_float+0x167>
  4062f1:	8b 55 d4             	mov    -0x2c(%ebp),%edx
  4062f4:	85 d2                	test   %edx,%edx
  4062f6:	0f 85 ba 01 00 00    	jne    4064b6 <___pformat_emit_float+0x226>
  4062fc:	8b 57 04             	mov    0x4(%edi),%edx
  4062ff:	f7 c2 c0 01 00 00    	test   $0x1c0,%edx
  406305:	0f 85 ab 01 00 00    	jne    4064b6 <___pformat_emit_float+0x226>
  40630b:	80 e6 06             	and    $0x6,%dh
  40630e:	0f 85 e3 00 00 00    	jne    4063f7 <___pformat_emit_float+0x167>
  406314:	eb 0c                	jmp    406322 <___pformat_emit_float+0x92>
  406316:	89 fa                	mov    %edi,%edx
  406318:	b8 20 00 00 00       	mov    $0x20,%eax
  40631d:	e8 ae f7 ff ff       	call   405ad0 <___pformat_putc>
  406322:	8b 47 08             	mov    0x8(%edi),%eax
  406325:	8d 50 ff             	lea    -0x1(%eax),%edx
  406328:	85 c0                	test   %eax,%eax
  40632a:	89 57 08             	mov    %edx,0x8(%edi)
  40632d:	7f e7                	jg     406316 <___pformat_emit_float+0x86>
  40632f:	8b 45 d4             	mov    -0x2c(%ebp),%eax
  406332:	85 c0                	test   %eax,%eax
  406334:	0f 84 c8 00 00 00    	je     406402 <___pformat_emit_float+0x172>
  40633a:	89 fa                	mov    %edi,%edx
  40633c:	b8 2d 00 00 00       	mov    $0x2d,%eax
  406341:	e8 8a f7 ff ff       	call   405ad0 <___pformat_putc>
  406346:	8b 57 08             	mov    0x8(%edi),%edx
  406349:	85 d2                	test   %edx,%edx
  40634b:	7e 13                	jle    406360 <___pformat_emit_float+0xd0>
  40634d:	8b 47 04             	mov    0x4(%edi),%eax
  406350:	25 00 06 00 00       	and    $0x600,%eax
  406355:	3d 00 02 00 00       	cmp    $0x200,%eax
  40635a:	0f 84 f1 01 00 00    	je     406551 <___pformat_emit_float+0x2c1>
  406360:	85 db                	test   %ebx,%ebx
  406362:	0f 8e 10 02 00 00    	jle    406578 <___pformat_emit_float+0x2e8>
  406368:	0f b6 16             	movzbl (%esi),%edx
  40636b:	b8 30 00 00 00       	mov    $0x30,%eax
  406370:	84 d2                	test   %dl,%dl
  406372:	74 06                	je     40637a <___pformat_emit_float+0xea>
  406374:	83 c6 01             	add    $0x1,%esi
  406377:	0f be c2             	movsbl %dl,%eax
  40637a:	89 fa                	mov    %edi,%edx
  40637c:	e8 4f f7 ff ff       	call   405ad0 <___pformat_putc>
  406381:	83 eb 01             	sub    $0x1,%ebx
  406384:	75 e2                	jne    406368 <___pformat_emit_float+0xd8>
  406386:	8b 47 0c             	mov    0xc(%edi),%eax
  406389:	85 c0                	test   %eax,%eax
  40638b:	0f 8e 3f 01 00 00    	jle    4064d0 <___pformat_emit_float+0x240>
  406391:	83 7f 10 fd          	cmpl   $0xfffffffd,0x10(%edi)
  406395:	0f 84 49 01 00 00    	je     4064e4 <___pformat_emit_float+0x254>
  40639b:	0f b7 57 14          	movzwl 0x14(%edi),%edx
  40639f:	66 85 d2             	test   %dx,%dx
  4063a2:	0f 85 7f 00 00 00    	jne    406427 <___pformat_emit_float+0x197>
  4063a8:	b8 2e 00 00 00       	mov    $0x2e,%eax
  4063ad:	89 fa                	mov    %edi,%edx
  4063af:	e8 1c f7 ff ff       	call   405ad0 <___pformat_putc>
  4063b4:	8b 47 0c             	mov    0xc(%edi),%eax
  4063b7:	85 db                	test   %ebx,%ebx
  4063b9:	74 21                	je     4063dc <___pformat_emit_float+0x14c>
  4063bb:	e9 d8 00 00 00       	jmp    406498 <___pformat_emit_float+0x208>
  4063c0:	0f b6 16             	movzbl (%esi),%edx
  4063c3:	b8 30 00 00 00       	mov    $0x30,%eax
  4063c8:	84 d2                	test   %dl,%dl
  4063ca:	74 06                	je     4063d2 <___pformat_emit_float+0x142>
  4063cc:	83 c6 01             	add    $0x1,%esi
  4063cf:	0f be c2             	movsbl %dl,%eax
  4063d2:	89 fa                	mov    %edi,%edx
  4063d4:	e8 f7 f6 ff ff       	call   405ad0 <___pformat_putc>
  4063d9:	8b 47 0c             	mov    0xc(%edi),%eax
  4063dc:	8d 50 ff             	lea    -0x1(%eax),%edx
  4063df:	85 c0                	test   %eax,%eax
  4063e1:	89 57 0c             	mov    %edx,0xc(%edi)
  4063e4:	7f da                	jg     4063c0 <___pformat_emit_float+0x130>
  4063e6:	8d 65 f4             	lea    -0xc(%ebp),%esp
  4063e9:	5b                   	pop    %ebx
  4063ea:	5e                   	pop    %esi
  4063eb:	5f                   	pop    %edi
  4063ec:	5d                   	pop    %ebp
  4063ed:	c3                   	ret    
  4063ee:	66 90                	xchg   %ax,%ax
  4063f0:	c7 47 08 ff ff ff ff 	movl   $0xffffffff,0x8(%edi)
  4063f7:	8b 45 d4             	mov    -0x2c(%ebp),%eax
  4063fa:	85 c0                	test   %eax,%eax
  4063fc:	0f 85 38 ff ff ff    	jne    40633a <___pformat_emit_float+0xaa>
  406402:	8b 47 04             	mov    0x4(%edi),%eax
  406405:	f6 c4 01             	test   $0x1,%ah
  406408:	0f 85 32 01 00 00    	jne    406540 <___pformat_emit_float+0x2b0>
  40640e:	a8 40                	test   $0x40,%al
  406410:	0f 84 30 ff ff ff    	je     406346 <___pformat_emit_float+0xb6>
  406416:	89 fa                	mov    %edi,%edx
  406418:	b8 20 00 00 00       	mov    $0x20,%eax
  40641d:	e8 ae f6 ff ff       	call   405ad0 <___pformat_putc>
  406422:	e9 1f ff ff ff       	jmp    406346 <___pformat_emit_float+0xb6>
  406427:	8b 47 10             	mov    0x10(%edi),%eax
  40642a:	89 65 d4             	mov    %esp,-0x2c(%ebp)
  40642d:	83 c0 0f             	add    $0xf,%eax
  406430:	83 e0 f0             	and    $0xfffffff0,%eax
  406433:	e8 28 df ff ff       	call   404360 <___chkstk_ms>
  406438:	29 c4                	sub    %eax,%esp
  40643a:	8d 4c 24 10          	lea    0x10(%esp),%ecx
  40643e:	8d 45 e4             	lea    -0x1c(%ebp),%eax
  406441:	c7 45 e4 00 00 00 00 	movl   $0x0,-0x1c(%ebp)
  406448:	89 44 24 08          	mov    %eax,0x8(%esp)
  40644c:	89 54 24 04          	mov    %edx,0x4(%esp)
  406450:	89 0c 24             	mov    %ecx,(%esp)
  406453:	89 4d d0             	mov    %ecx,-0x30(%ebp)
  406456:	e8 b5 29 00 00       	call   408e10 <_wcrtomb>
  40645b:	85 c0                	test   %eax,%eax
  40645d:	0f 8e 42 01 00 00    	jle    4065a5 <___pformat_emit_float+0x315>
  406463:	8b 4d d0             	mov    -0x30(%ebp),%ecx
  406466:	89 5d cc             	mov    %ebx,-0x34(%ebp)
  406469:	89 75 d0             	mov    %esi,-0x30(%ebp)
  40646c:	01 c8                	add    %ecx,%eax
  40646e:	89 cb                	mov    %ecx,%ebx
  406470:	89 c6                	mov    %eax,%esi
  406472:	83 c3 01             	add    $0x1,%ebx
  406475:	0f be 43 ff          	movsbl -0x1(%ebx),%eax
  406479:	89 fa                	mov    %edi,%edx
  40647b:	e8 50 f6 ff ff       	call   405ad0 <___pformat_putc>
  406480:	39 f3                	cmp    %esi,%ebx
  406482:	75 ee                	jne    406472 <___pformat_emit_float+0x1e2>
  406484:	8b 75 d0             	mov    -0x30(%ebp),%esi
  406487:	8b 5d cc             	mov    -0x34(%ebp),%ebx
  40648a:	85 db                	test   %ebx,%ebx
  40648c:	8b 65 d4             	mov    -0x2c(%ebp),%esp
  40648f:	8b 47 0c             	mov    0xc(%edi),%eax
  406492:	0f 84 44 ff ff ff    	je     4063dc <___pformat_emit_float+0x14c>
  406498:	01 d8                	add    %ebx,%eax
  40649a:	89 47 0c             	mov    %eax,0xc(%edi)
  40649d:	8d 76 00             	lea    0x0(%esi),%esi
  4064a0:	89 fa                	mov    %edi,%edx
  4064a2:	b8 30 00 00 00       	mov    $0x30,%eax
  4064a7:	e8 24 f6 ff ff       	call   405ad0 <___pformat_putc>
  4064ac:	83 c3 01             	add    $0x1,%ebx
  4064af:	78 ef                	js     4064a0 <___pformat_emit_float+0x210>
  4064b1:	e9 23 ff ff ff       	jmp    4063d9 <___pformat_emit_float+0x149>
  4064b6:	83 e8 01             	sub    $0x1,%eax
  4064b9:	85 c0                	test   %eax,%eax
  4064bb:	89 47 08             	mov    %eax,0x8(%edi)
  4064be:	0f 84 33 ff ff ff    	je     4063f7 <___pformat_emit_float+0x167>
  4064c4:	8b 57 04             	mov    0x4(%edi),%edx
  4064c7:	e9 3f fe ff ff       	jmp    40630b <___pformat_emit_float+0x7b>
  4064cc:	8d 74 26 00          	lea    0x0(%esi,%eiz,1),%esi
  4064d0:	f6 47 05 08          	testb  $0x8,0x5(%edi)
  4064d4:	0f 84 dd fe ff ff    	je     4063b7 <___pformat_emit_float+0x127>
  4064da:	83 7f 10 fd          	cmpl   $0xfffffffd,0x10(%edi)
  4064de:	0f 85 b7 fe ff ff    	jne    40639b <___pformat_emit_float+0x10b>
  4064e4:	c7 45 e4 00 00 00 00 	movl   $0x0,-0x1c(%ebp)
  4064eb:	e8 48 3f 00 00       	call   40a438 <_localeconv>
  4064f0:	8d 55 e4             	lea    -0x1c(%ebp),%edx
  4064f3:	89 54 24 0c          	mov    %edx,0xc(%esp)
  4064f7:	c7 44 24 08 10 00 00 	movl   $0x10,0x8(%esp)
  4064fe:	00 
  4064ff:	8b 00                	mov    (%eax),%eax
  406501:	89 44 24 04          	mov    %eax,0x4(%esp)
  406505:	8d 45 e2             	lea    -0x1e(%ebp),%eax
  406508:	89 04 24             	mov    %eax,(%esp)
  40650b:	e8 50 2c 00 00       	call   409160 <_mbrtowc>
  406510:	85 c0                	test   %eax,%eax
  406512:	0f 8e 9e 00 00 00    	jle    4065b6 <___pformat_emit_float+0x326>
  406518:	0f b7 55 e2          	movzwl -0x1e(%ebp),%edx
  40651c:	66 89 57 14          	mov    %dx,0x14(%edi)
  406520:	89 47 10             	mov    %eax,0x10(%edi)
  406523:	e9 77 fe ff ff       	jmp    40639f <___pformat_emit_float+0x10f>
  406528:	85 c0                	test   %eax,%eax
  40652a:	0f 8e 8b fd ff ff    	jle    4062bb <___pformat_emit_float+0x2b>
  406530:	83 e8 01             	sub    $0x1,%eax
  406533:	89 47 08             	mov    %eax,0x8(%edi)
  406536:	e9 88 fd ff ff       	jmp    4062c3 <___pformat_emit_float+0x33>
  40653b:	90                   	nop
  40653c:	8d 74 26 00          	lea    0x0(%esi,%eiz,1),%esi
  406540:	89 fa                	mov    %edi,%edx
  406542:	b8 2b 00 00 00       	mov    $0x2b,%eax
  406547:	e8 84 f5 ff ff       	call   405ad0 <___pformat_putc>
  40654c:	e9 f5 fd ff ff       	jmp    406346 <___pformat_emit_float+0xb6>
  406551:	83 ea 01             	sub    $0x1,%edx
  406554:	89 57 08             	mov    %edx,0x8(%edi)
  406557:	89 fa                	mov    %edi,%edx
  406559:	b8 30 00 00 00       	mov    $0x30,%eax
  40655e:	e8 6d f5 ff ff       	call   405ad0 <___pformat_putc>
  406563:	8b 47 08             	mov    0x8(%edi),%eax
  406566:	8d 50 ff             	lea    -0x1(%eax),%edx
  406569:	85 c0                	test   %eax,%eax
  40656b:	89 57 08             	mov    %edx,0x8(%edi)
  40656e:	7f e7                	jg     406557 <___pformat_emit_float+0x2c7>
  406570:	85 db                	test   %ebx,%ebx
  406572:	0f 8f f0 fd ff ff    	jg     406368 <___pformat_emit_float+0xd8>
  406578:	89 fa                	mov    %edi,%edx
  40657a:	b8 30 00 00 00       	mov    $0x30,%eax
  40657f:	e8 4c f5 ff ff       	call   405ad0 <___pformat_putc>
  406584:	e9 fd fd ff ff       	jmp    406386 <___pformat_emit_float+0xf6>
  406589:	8d b4 26 00 00 00 00 	lea    0x0(%esi,%eiz,1),%esi
  406590:	f6 47 05 08          	testb  $0x8,0x5(%edi)
  406594:	0f 84 57 fd ff ff    	je     4062f1 <___pformat_emit_float+0x61>
  40659a:	8d b6 00 00 00 00    	lea    0x0(%esi),%esi
  4065a0:	e9 3e fd ff ff       	jmp    4062e3 <___pformat_emit_float+0x53>
  4065a5:	89 fa                	mov    %edi,%edx
  4065a7:	b8 2e 00 00 00       	mov    $0x2e,%eax
  4065ac:	e8 1f f5 ff ff       	call   405ad0 <___pformat_putc>
  4065b1:	e9 d4 fe ff ff       	jmp    40648a <___pformat_emit_float+0x1fa>
  4065b6:	0f b7 57 14          	movzwl 0x14(%edi),%edx
  4065ba:	e9 61 ff ff ff       	jmp    406520 <___pformat_emit_float+0x290>
  4065bf:	90                   	nop

004065c0 <___pformat_emit_efloat>:
  4065c0:	55                   	push   %ebp
  4065c1:	83 e9 01             	sub    $0x1,%ecx
  4065c4:	57                   	push   %edi
  4065c5:	89 d5                	mov    %edx,%ebp
  4065c7:	56                   	push   %esi
  4065c8:	be 01 00 00 00       	mov    $0x1,%esi
  4065cd:	53                   	push   %ebx
  4065ce:	bb 67 66 66 66       	mov    $0x66666667,%ebx
  4065d3:	83 ec 1c             	sub    $0x1c,%esp
  4065d6:	89 44 24 04          	mov    %eax,0x4(%esp)
  4065da:	89 c8                	mov    %ecx,%eax
  4065dc:	8b 7c 24 30          	mov    0x30(%esp),%edi
  4065e0:	c1 f8 1f             	sar    $0x1f,%eax
  4065e3:	89 44 24 0c          	mov    %eax,0xc(%esp)
  4065e7:	89 c8                	mov    %ecx,%eax
  4065e9:	f7 eb                	imul   %ebx
  4065eb:	89 4c 24 08          	mov    %ecx,0x8(%esp)
  4065ef:	c1 f9 1f             	sar    $0x1f,%ecx
  4065f2:	c1 fa 02             	sar    $0x2,%edx
  4065f5:	89 d3                	mov    %edx,%ebx
  4065f7:	29 cb                	sub    %ecx,%ebx
  4065f9:	74 18                	je     406613 <___pformat_emit_efloat+0x53>
  4065fb:	b9 67 66 66 66       	mov    $0x66666667,%ecx
  406600:	89 d8                	mov    %ebx,%eax
  406602:	83 c6 01             	add    $0x1,%esi
  406605:	f7 e9                	imul   %ecx
  406607:	c1 fb 1f             	sar    $0x1f,%ebx
  40660a:	c1 fa 02             	sar    $0x2,%edx
  40660d:	29 da                	sub    %ebx,%edx
  40660f:	89 d3                	mov    %edx,%ebx
  406611:	75 ed                	jne    406600 <___pformat_emit_efloat+0x40>
  406613:	8b 47 20             	mov    0x20(%edi),%eax
  406616:	39 c6                	cmp    %eax,%esi
  406618:	7d 02                	jge    40661c <___pformat_emit_efloat+0x5c>
  40661a:	89 c6                	mov    %eax,%esi
  40661c:	8b 57 08             	mov    0x8(%edi),%edx
  40661f:	8d 46 02             	lea    0x2(%esi),%eax
  406622:	39 c2                	cmp    %eax,%edx
  406624:	7f 5a                	jg     406680 <___pformat_emit_efloat+0xc0>
  406626:	c7 47 08 ff ff ff ff 	movl   $0xffffffff,0x8(%edi)
  40662d:	8b 44 24 04          	mov    0x4(%esp),%eax
  406631:	b9 01 00 00 00       	mov    $0x1,%ecx
  406636:	89 ea                	mov    %ebp,%edx
  406638:	89 3c 24             	mov    %edi,(%esp)
  40663b:	83 c6 01             	add    $0x1,%esi
  40663e:	e8 4d fc ff ff       	call   406290 <___pformat_emit_float>
  406643:	8b 47 20             	mov    0x20(%edi),%eax
  406646:	89 47 0c             	mov    %eax,0xc(%edi)
  406649:	8b 47 04             	mov    0x4(%edi),%eax
  40664c:	89 c2                	mov    %eax,%edx
  40664e:	83 e0 20             	and    $0x20,%eax
  406651:	81 ca c0 01 00 00    	or     $0x1c0,%edx
  406657:	83 c8 45             	or     $0x45,%eax
  40665a:	89 57 04             	mov    %edx,0x4(%edi)
  40665d:	89 fa                	mov    %edi,%edx
  40665f:	e8 6c f4 ff ff       	call   405ad0 <___pformat_putc>
  406664:	8b 44 24 08          	mov    0x8(%esp),%eax
  406668:	89 f9                	mov    %edi,%ecx
  40666a:	01 77 08             	add    %esi,0x8(%edi)
  40666d:	8b 54 24 0c          	mov    0xc(%esp),%edx
  406671:	e8 0a f7 ff ff       	call   405d80 <___pformat_int>
  406676:	83 c4 1c             	add    $0x1c,%esp
  406679:	5b                   	pop    %ebx
  40667a:	5e                   	pop    %esi
  40667b:	5f                   	pop    %edi
  40667c:	5d                   	pop    %ebp
  40667d:	c3                   	ret    
  40667e:	66 90                	xchg   %ax,%ax
  406680:	29 c2                	sub    %eax,%edx
  406682:	89 57 08             	mov    %edx,0x8(%edi)
  406685:	eb a6                	jmp    40662d <___pformat_emit_efloat+0x6d>
  406687:	89 f6                	mov    %esi,%esi
  406689:	8d bc 27 00 00 00 00 	lea    0x0(%edi,%eiz,1),%edi

00406690 <___pformat_efloat>:
  406690:	56                   	push   %esi
  406691:	53                   	push   %ebx
  406692:	89 c3                	mov    %eax,%ebx
  406694:	83 ec 44             	sub    $0x44,%esp
  406697:	8b 40 0c             	mov    0xc(%eax),%eax
  40669a:	85 c0                	test   %eax,%eax
  40669c:	78 72                	js     406710 <___pformat_efloat+0x80>
  40669e:	83 c0 01             	add    $0x1,%eax
  4066a1:	db 6c 24 50          	fldt   0x50(%esp)
  4066a5:	89 44 24 10          	mov    %eax,0x10(%esp)
  4066a9:	8d 54 24 28          	lea    0x28(%esp),%edx
  4066ad:	db 7c 24 30          	fstpt  0x30(%esp)
  4066b1:	8b 44 24 30          	mov    0x30(%esp),%eax
  4066b5:	89 54 24 18          	mov    %edx,0x18(%esp)
  4066b9:	8d 54 24 2c          	lea    0x2c(%esp),%edx
  4066bd:	89 54 24 14          	mov    %edx,0x14(%esp)
  4066c1:	89 04 24             	mov    %eax,(%esp)
  4066c4:	8b 44 24 34          	mov    0x34(%esp),%eax
  4066c8:	89 44 24 04          	mov    %eax,0x4(%esp)
  4066cc:	8b 44 24 38          	mov    0x38(%esp),%eax
  4066d0:	89 44 24 08          	mov    %eax,0x8(%esp)
  4066d4:	8b 44 24 3c          	mov    0x3c(%esp),%eax
  4066d8:	89 44 24 0c          	mov    %eax,0xc(%esp)
  4066dc:	b8 02 00 00 00       	mov    $0x2,%eax
  4066e1:	e8 ea f2 ff ff       	call   4059d0 <___pformat_cvt>
  4066e6:	8b 4c 24 2c          	mov    0x2c(%esp),%ecx
  4066ea:	81 f9 00 80 ff ff    	cmp    $0xffff8000,%ecx
  4066f0:	89 c6                	mov    %eax,%esi
  4066f2:	74 2c                	je     406720 <___pformat_efloat+0x90>
  4066f4:	89 c2                	mov    %eax,%edx
  4066f6:	8b 44 24 28          	mov    0x28(%esp),%eax
  4066fa:	89 1c 24             	mov    %ebx,(%esp)
  4066fd:	e8 be fe ff ff       	call   4065c0 <___pformat_emit_efloat>
  406702:	89 34 24             	mov    %esi,(%esp)
  406705:	e8 86 2d 00 00       	call   409490 <___freedtoa>
  40670a:	83 c4 44             	add    $0x44,%esp
  40670d:	5b                   	pop    %ebx
  40670e:	5e                   	pop    %esi
  40670f:	c3                   	ret    
  406710:	c7 43 0c 06 00 00 00 	movl   $0x6,0xc(%ebx)
  406717:	b8 07 00 00 00       	mov    $0x7,%eax
  40671c:	eb 83                	jmp    4066a1 <___pformat_efloat+0x11>
  40671e:	66 90                	xchg   %ax,%ax
  406720:	89 c2                	mov    %eax,%edx
  406722:	8b 44 24 28          	mov    0x28(%esp),%eax
  406726:	89 d9                	mov    %ebx,%ecx
  406728:	e8 c3 f5 ff ff       	call   405cf0 <___pformat_emit_inf_or_nan>
  40672d:	89 34 24             	mov    %esi,(%esp)
  406730:	e8 5b 2d 00 00       	call   409490 <___freedtoa>
  406735:	83 c4 44             	add    $0x44,%esp
  406738:	5b                   	pop    %ebx
  406739:	5e                   	pop    %esi
  40673a:	c3                   	ret    
  40673b:	90                   	nop
  40673c:	8d 74 26 00          	lea    0x0(%esi,%eiz,1),%esi

00406740 <___pformat_float>:
  406740:	57                   	push   %edi
  406741:	56                   	push   %esi
  406742:	53                   	push   %ebx
  406743:	89 c3                	mov    %eax,%ebx
  406745:	83 ec 40             	sub    $0x40,%esp
  406748:	8b 40 0c             	mov    0xc(%eax),%eax
  40674b:	85 c0                	test   %eax,%eax
  40674d:	0f 88 9d 00 00 00    	js     4067f0 <___pformat_float+0xb0>
  406753:	db 6c 24 50          	fldt   0x50(%esp)
  406757:	89 44 24 10          	mov    %eax,0x10(%esp)
  40675b:	8d 54 24 28          	lea    0x28(%esp),%edx
  40675f:	db 7c 24 30          	fstpt  0x30(%esp)
  406763:	8b 44 24 30          	mov    0x30(%esp),%eax
  406767:	89 54 24 18          	mov    %edx,0x18(%esp)
  40676b:	8d 54 24 2c          	lea    0x2c(%esp),%edx
  40676f:	89 54 24 14          	mov    %edx,0x14(%esp)
  406773:	89 04 24             	mov    %eax,(%esp)
  406776:	8b 44 24 34          	mov    0x34(%esp),%eax
  40677a:	89 44 24 04          	mov    %eax,0x4(%esp)
  40677e:	8b 44 24 38          	mov    0x38(%esp),%eax
  406782:	89 44 24 08          	mov    %eax,0x8(%esp)
  406786:	8b 44 24 3c          	mov    0x3c(%esp),%eax
  40678a:	89 44 24 0c          	mov    %eax,0xc(%esp)
  40678e:	b8 03 00 00 00       	mov    $0x3,%eax
  406793:	e8 38 f2 ff ff       	call   4059d0 <___pformat_cvt>
  406798:	8b 4c 24 2c          	mov    0x2c(%esp),%ecx
  40679c:	81 f9 00 80 ff ff    	cmp    $0xffff8000,%ecx
  4067a2:	89 c7                	mov    %eax,%edi
  4067a4:	74 5b                	je     406801 <___pformat_float+0xc1>
  4067a6:	89 c2                	mov    %eax,%edx
  4067a8:	8b 44 24 28          	mov    0x28(%esp),%eax
  4067ac:	89 1c 24             	mov    %ebx,(%esp)
  4067af:	e8 dc fa ff ff       	call   406290 <___pformat_emit_float>
  4067b4:	8b 43 08             	mov    0x8(%ebx),%eax
  4067b7:	8d 50 ff             	lea    -0x1(%eax),%edx
  4067ba:	85 c0                	test   %eax,%eax
  4067bc:	89 53 08             	mov    %edx,0x8(%ebx)
  4067bf:	7e 19                	jle    4067da <___pformat_float+0x9a>
  4067c1:	89 da                	mov    %ebx,%edx
  4067c3:	b8 20 00 00 00       	mov    $0x20,%eax
  4067c8:	e8 03 f3 ff ff       	call   405ad0 <___pformat_putc>
  4067cd:	8b 4b 08             	mov    0x8(%ebx),%ecx
  4067d0:	8d 71 ff             	lea    -0x1(%ecx),%esi
  4067d3:	85 c9                	test   %ecx,%ecx
  4067d5:	89 73 08             	mov    %esi,0x8(%ebx)
  4067d8:	7f e7                	jg     4067c1 <___pformat_float+0x81>
  4067da:	89 3c 24             	mov    %edi,(%esp)
  4067dd:	e8 ae 2c 00 00       	call   409490 <___freedtoa>
  4067e2:	83 c4 40             	add    $0x40,%esp
  4067e5:	5b                   	pop    %ebx
  4067e6:	5e                   	pop    %esi
  4067e7:	5f                   	pop    %edi
  4067e8:	c3                   	ret    
  4067e9:	8d b4 26 00 00 00 00 	lea    0x0(%esi,%eiz,1),%esi
  4067f0:	c7 43 0c 06 00 00 00 	movl   $0x6,0xc(%ebx)
  4067f7:	b8 06 00 00 00       	mov    $0x6,%eax
  4067fc:	e9 52 ff ff ff       	jmp    406753 <___pformat_float+0x13>
  406801:	89 c2                	mov    %eax,%edx
  406803:	8b 44 24 28          	mov    0x28(%esp),%eax
  406807:	89 d9                	mov    %ebx,%ecx
  406809:	e8 e2 f4 ff ff       	call   405cf0 <___pformat_emit_inf_or_nan>
  40680e:	89 3c 24             	mov    %edi,(%esp)
  406811:	e8 7a 2c 00 00       	call   409490 <___freedtoa>
  406816:	83 c4 40             	add    $0x40,%esp
  406819:	5b                   	pop    %ebx
  40681a:	5e                   	pop    %esi
  40681b:	5f                   	pop    %edi
  40681c:	c3                   	ret    
  40681d:	8d 76 00             	lea    0x0(%esi),%esi

00406820 <___pformat_gfloat>:
  406820:	57                   	push   %edi
  406821:	56                   	push   %esi
  406822:	53                   	push   %ebx
  406823:	89 c3                	mov    %eax,%ebx
  406825:	83 ec 40             	sub    $0x40,%esp
  406828:	8b 40 0c             	mov    0xc(%eax),%eax
  40682b:	85 c0                	test   %eax,%eax
  40682d:	0f 88 1d 01 00 00    	js     406950 <___pformat_gfloat+0x130>
  406833:	0f 84 fa 00 00 00    	je     406933 <___pformat_gfloat+0x113>
  406839:	db 6c 24 50          	fldt   0x50(%esp)
  40683d:	89 44 24 10          	mov    %eax,0x10(%esp)
  406841:	8d 54 24 28          	lea    0x28(%esp),%edx
  406845:	db 7c 24 30          	fstpt  0x30(%esp)
  406849:	8b 44 24 30          	mov    0x30(%esp),%eax
  40684d:	89 54 24 18          	mov    %edx,0x18(%esp)
  406851:	8d 54 24 2c          	lea    0x2c(%esp),%edx
  406855:	89 54 24 14          	mov    %edx,0x14(%esp)
  406859:	89 04 24             	mov    %eax,(%esp)
  40685c:	8b 44 24 34          	mov    0x34(%esp),%eax
  406860:	89 44 24 04          	mov    %eax,0x4(%esp)
  406864:	8b 44 24 38          	mov    0x38(%esp),%eax
  406868:	89 44 24 08          	mov    %eax,0x8(%esp)
  40686c:	8b 44 24 3c          	mov    0x3c(%esp),%eax
  406870:	89 44 24 0c          	mov    %eax,0xc(%esp)
  406874:	b8 02 00 00 00       	mov    $0x2,%eax
  406879:	e8 52 f1 ff ff       	call   4059d0 <___pformat_cvt>
  40687e:	8b 74 24 2c          	mov    0x2c(%esp),%esi
  406882:	81 fe 00 80 ff ff    	cmp    $0xffff8000,%esi
  406888:	89 c7                	mov    %eax,%edi
  40688a:	0f 84 e0 00 00 00    	je     406970 <___pformat_gfloat+0x150>
  406890:	83 fe fd             	cmp    $0xfffffffd,%esi
  406893:	7c 6b                	jl     406900 <___pformat_gfloat+0xe0>
  406895:	8b 43 0c             	mov    0xc(%ebx),%eax
  406898:	39 c6                	cmp    %eax,%esi
  40689a:	7f 64                	jg     406900 <___pformat_gfloat+0xe0>
  40689c:	f6 43 05 08          	testb  $0x8,0x5(%ebx)
  4068a0:	0f 85 bb 00 00 00    	jne    406961 <___pformat_gfloat+0x141>
  4068a6:	89 3c 24             	mov    %edi,(%esp)
  4068a9:	e8 12 3b 00 00       	call   40a3c0 <_strlen>
  4068ae:	29 f0                	sub    %esi,%eax
  4068b0:	85 c0                	test   %eax,%eax
  4068b2:	89 43 0c             	mov    %eax,0xc(%ebx)
  4068b5:	0f 88 c5 00 00 00    	js     406980 <___pformat_gfloat+0x160>
  4068bb:	8b 44 24 28          	mov    0x28(%esp),%eax
  4068bf:	89 fa                	mov    %edi,%edx
  4068c1:	89 f1                	mov    %esi,%ecx
  4068c3:	89 1c 24             	mov    %ebx,(%esp)
  4068c6:	e8 c5 f9 ff ff       	call   406290 <___pformat_emit_float>
  4068cb:	8b 43 08             	mov    0x8(%ebx),%eax
  4068ce:	8d 50 ff             	lea    -0x1(%eax),%edx
  4068d1:	85 c0                	test   %eax,%eax
  4068d3:	89 53 08             	mov    %edx,0x8(%ebx)
  4068d6:	7e 4c                	jle    406924 <___pformat_gfloat+0x104>
  4068d8:	89 da                	mov    %ebx,%edx
  4068da:	b8 20 00 00 00       	mov    $0x20,%eax
  4068df:	e8 ec f1 ff ff       	call   405ad0 <___pformat_putc>
  4068e4:	8b 4b 08             	mov    0x8(%ebx),%ecx
  4068e7:	8d 71 ff             	lea    -0x1(%ecx),%esi
  4068ea:	85 c9                	test   %ecx,%ecx
  4068ec:	89 73 08             	mov    %esi,0x8(%ebx)
  4068ef:	7f e7                	jg     4068d8 <___pformat_gfloat+0xb8>
  4068f1:	89 3c 24             	mov    %edi,(%esp)
  4068f4:	e8 97 2b 00 00       	call   409490 <___freedtoa>
  4068f9:	83 c4 40             	add    $0x40,%esp
  4068fc:	5b                   	pop    %ebx
  4068fd:	5e                   	pop    %esi
  4068fe:	5f                   	pop    %edi
  4068ff:	c3                   	ret    
  406900:	f6 43 05 08          	testb  $0x8,0x5(%ebx)
  406904:	75 3e                	jne    406944 <___pformat_gfloat+0x124>
  406906:	89 3c 24             	mov    %edi,(%esp)
  406909:	e8 b2 3a 00 00       	call   40a3c0 <_strlen>
  40690e:	83 e8 01             	sub    $0x1,%eax
  406911:	89 43 0c             	mov    %eax,0xc(%ebx)
  406914:	8b 44 24 28          	mov    0x28(%esp),%eax
  406918:	89 f1                	mov    %esi,%ecx
  40691a:	89 fa                	mov    %edi,%edx
  40691c:	89 1c 24             	mov    %ebx,(%esp)
  40691f:	e8 9c fc ff ff       	call   4065c0 <___pformat_emit_efloat>
  406924:	89 3c 24             	mov    %edi,(%esp)
  406927:	e8 64 2b 00 00       	call   409490 <___freedtoa>
  40692c:	83 c4 40             	add    $0x40,%esp
  40692f:	5b                   	pop    %ebx
  406930:	5e                   	pop    %esi
  406931:	5f                   	pop    %edi
  406932:	c3                   	ret    
  406933:	c7 43 0c 01 00 00 00 	movl   $0x1,0xc(%ebx)
  40693a:	b8 01 00 00 00       	mov    $0x1,%eax
  40693f:	e9 f5 fe ff ff       	jmp    406839 <___pformat_gfloat+0x19>
  406944:	83 6b 0c 01          	subl   $0x1,0xc(%ebx)
  406948:	eb ca                	jmp    406914 <___pformat_gfloat+0xf4>
  40694a:	8d b6 00 00 00 00    	lea    0x0(%esi),%esi
  406950:	c7 43 0c 06 00 00 00 	movl   $0x6,0xc(%ebx)
  406957:	b8 06 00 00 00       	mov    $0x6,%eax
  40695c:	e9 d8 fe ff ff       	jmp    406839 <___pformat_gfloat+0x19>
  406961:	29 f0                	sub    %esi,%eax
  406963:	89 43 0c             	mov    %eax,0xc(%ebx)
  406966:	e9 50 ff ff ff       	jmp    4068bb <___pformat_gfloat+0x9b>
  40696b:	90                   	nop
  40696c:	8d 74 26 00          	lea    0x0(%esi,%eiz,1),%esi
  406970:	89 c2                	mov    %eax,%edx
  406972:	8b 44 24 28          	mov    0x28(%esp),%eax
  406976:	89 d9                	mov    %ebx,%ecx
  406978:	e8 73 f3 ff ff       	call   405cf0 <___pformat_emit_inf_or_nan>
  40697d:	eb a5                	jmp    406924 <___pformat_gfloat+0x104>
  40697f:	90                   	nop
  406980:	8b 53 08             	mov    0x8(%ebx),%edx
  406983:	85 d2                	test   %edx,%edx
  406985:	0f 8e 30 ff ff ff    	jle    4068bb <___pformat_gfloat+0x9b>
  40698b:	01 d0                	add    %edx,%eax
  40698d:	89 43 08             	mov    %eax,0x8(%ebx)
  406990:	e9 26 ff ff ff       	jmp    4068bb <___pformat_gfloat+0x9b>
  406995:	8d 74 26 00          	lea    0x0(%esi,%eiz,1),%esi
  406999:	8d bc 27 00 00 00 00 	lea    0x0(%edi,%eiz,1),%edi

004069a0 <___pformat_xldouble>:
  4069a0:	55                   	push   %ebp
  4069a1:	89 e5                	mov    %esp,%ebp
  4069a3:	57                   	push   %edi
  4069a4:	89 c7                	mov    %eax,%edi
  4069a6:	56                   	push   %esi
  4069a7:	53                   	push   %ebx
  4069a8:	83 ec 6c             	sub    $0x6c,%esp
  4069ab:	db 6d 08             	fldt   0x8(%ebp)
  4069ae:	d9 c0                	fld    %st(0)
  4069b0:	db 7d c0             	fstpt  -0x40(%ebp)
  4069b3:	d9 e5                	fxam   
  4069b5:	9b df e0             	fstsw  %ax
  4069b8:	66 25 00 45          	and    $0x4500,%ax
  4069bc:	66 3d 00 01          	cmp    $0x100,%ax
  4069c0:	0f 84 1f 05 00 00    	je     406ee5 <___pformat_xldouble+0x545>
  4069c6:	0f b7 55 c8          	movzwl -0x38(%ebp),%edx
  4069ca:	89 d3                	mov    %edx,%ebx
  4069cc:	81 e3 00 80 00 00    	and    $0x8000,%ebx
  4069d2:	0f 85 48 01 00 00    	jne    406b20 <___pformat_xldouble+0x180>
  4069d8:	d9 e5                	fxam   
  4069da:	9b df e0             	fstsw  %ax
  4069dd:	dd d8                	fstp   %st(0)
  4069df:	66 25 00 45          	and    $0x4500,%ax
  4069e3:	66 3d 00 05          	cmp    $0x500,%ax
  4069e7:	0f 84 16 05 00 00    	je     406f03 <___pformat_xldouble+0x563>
  4069ed:	66 81 e2 ff 7f       	and    $0x7fff,%dx
  4069f2:	0f 84 b8 01 00 00    	je     406bb0 <___pformat_xldouble+0x210>
  4069f8:	8d b2 01 c0 ff ff    	lea    -0x3fff(%edx),%esi
  4069fe:	8b 45 c0             	mov    -0x40(%ebp),%eax
  406a01:	8b 55 c4             	mov    -0x3c(%ebp),%edx
  406a04:	8b 5f 0c             	mov    0xc(%edi),%ebx
  406a07:	83 fb 0e             	cmp    $0xe,%ebx
  406a0a:	0f 86 26 01 00 00    	jbe    406b36 <___pformat_xldouble+0x196>
  406a10:	89 d1                	mov    %edx,%ecx
  406a12:	09 c1                	or     %eax,%ecx
  406a14:	0f 84 fc 04 00 00    	je     406f16 <___pformat_xldouble+0x576>
  406a1a:	8d 4d d6             	lea    -0x2a(%ebp),%ecx
  406a1d:	89 4d a4             	mov    %ecx,-0x5c(%ebp)
  406a20:	89 4d ac             	mov    %ecx,-0x54(%ebp)
  406a23:	89 7d a8             	mov    %edi,-0x58(%ebp)
  406a26:	eb 5e                	jmp    406a86 <___pformat_xldouble+0xe6>
  406a28:	8b 4d a8             	mov    -0x58(%ebp),%ecx
  406a2b:	8b 49 0c             	mov    0xc(%ecx),%ecx
  406a2e:	85 c9                	test   %ecx,%ecx
  406a30:	7e 09                	jle    406a3b <___pformat_xldouble+0x9b>
  406a32:	8b 5d a8             	mov    -0x58(%ebp),%ebx
  406a35:	83 e9 01             	sub    $0x1,%ecx
  406a38:	89 4b 0c             	mov    %ecx,0xc(%ebx)
  406a3b:	8b 4d ac             	mov    -0x54(%ebp),%ecx
  406a3e:	0f ac d0 04          	shrd   $0x4,%edx,%eax
  406a42:	c1 ea 04             	shr    $0x4,%edx
  406a45:	85 ff                	test   %edi,%edi
  406a47:	89 4d b0             	mov    %ecx,-0x50(%ebp)
  406a4a:	0f 84 a8 00 00 00    	je     406af8 <___pformat_xldouble+0x158>
  406a50:	8b 4d b0             	mov    -0x50(%ebp),%ecx
  406a53:	83 c1 01             	add    $0x1,%ecx
  406a56:	83 ff 09             	cmp    $0x9,%edi
  406a59:	89 4d ac             	mov    %ecx,-0x54(%ebp)
  406a5c:	0f 8e b5 00 00 00    	jle    406b17 <___pformat_xldouble+0x177>
  406a62:	8d 4f 37             	lea    0x37(%edi),%ecx
  406a65:	8b 7d a8             	mov    -0x58(%ebp),%edi
  406a68:	8b 7f 04             	mov    0x4(%edi),%edi
  406a6b:	89 7d a0             	mov    %edi,-0x60(%ebp)
  406a6e:	0f b6 5d a0          	movzbl -0x60(%ebp),%ebx
  406a72:	83 e3 20             	and    $0x20,%ebx
  406a75:	09 d9                	or     %ebx,%ecx
  406a77:	8b 7d b0             	mov    -0x50(%ebp),%edi
  406a7a:	88 0f                	mov    %cl,(%edi)
  406a7c:	89 d7                	mov    %edx,%edi
  406a7e:	09 c7                	or     %eax,%edi
  406a80:	0f 84 60 01 00 00    	je     406be6 <___pformat_xldouble+0x246>
  406a86:	89 c7                	mov    %eax,%edi
  406a88:	89 c1                	mov    %eax,%ecx
  406a8a:	83 e7 0f             	and    $0xf,%edi
  406a8d:	89 fb                	mov    %edi,%ebx
  406a8f:	31 f9                	xor    %edi,%ecx
  406a91:	c1 fb 1f             	sar    $0x1f,%ebx
  406a94:	31 d3                	xor    %edx,%ebx
  406a96:	09 cb                	or     %ecx,%ebx
  406a98:	75 8e                	jne    406a28 <___pformat_xldouble+0x88>
  406a9a:	8b 4d a4             	mov    -0x5c(%ebp),%ecx
  406a9d:	39 4d ac             	cmp    %ecx,-0x54(%ebp)
  406aa0:	77 1e                	ja     406ac0 <___pformat_xldouble+0x120>
  406aa2:	8b 4d a8             	mov    -0x58(%ebp),%ecx
  406aa5:	f6 41 05 08          	testb  $0x8,0x5(%ecx)
  406aa9:	75 15                	jne    406ac0 <___pformat_xldouble+0x120>
  406aab:	8b 4d ac             	mov    -0x54(%ebp),%ecx
  406aae:	89 4d b0             	mov    %ecx,-0x50(%ebp)
  406ab1:	8b 4d a8             	mov    -0x58(%ebp),%ecx
  406ab4:	8b 59 0c             	mov    0xc(%ecx),%ebx
  406ab7:	85 db                	test   %ebx,%ebx
  406ab9:	7e 11                	jle    406acc <___pformat_xldouble+0x12c>
  406abb:	90                   	nop
  406abc:	8d 74 26 00          	lea    0x0(%esi,%eiz,1),%esi
  406ac0:	8b 4d ac             	mov    -0x54(%ebp),%ecx
  406ac3:	8d 59 01             	lea    0x1(%ecx),%ebx
  406ac6:	89 5d b0             	mov    %ebx,-0x50(%ebp)
  406ac9:	c6 01 2e             	movb   $0x2e,(%ecx)
  406acc:	89 c1                	mov    %eax,%ecx
  406ace:	83 f1 01             	xor    $0x1,%ecx
  406ad1:	09 d1                	or     %edx,%ecx
  406ad3:	74 17                	je     406aec <___pformat_xldouble+0x14c>
  406ad5:	8d 4e ff             	lea    -0x1(%esi),%ecx
  406ad8:	0f ac d0 01          	shrd   $0x1,%edx,%eax
  406adc:	89 ce                	mov    %ecx,%esi
  406ade:	89 c3                	mov    %eax,%ebx
  406ae0:	d1 ea                	shr    %edx
  406ae2:	83 f3 01             	xor    $0x1,%ebx
  406ae5:	09 d3                	or     %edx,%ebx
  406ae7:	8d 4e ff             	lea    -0x1(%esi),%ecx
  406aea:	75 ec                	jne    406ad8 <___pformat_xldouble+0x138>
  406aec:	31 c0                	xor    %eax,%eax
  406aee:	31 d2                	xor    %edx,%edx
  406af0:	85 ff                	test   %edi,%edi
  406af2:	0f 85 58 ff ff ff    	jne    406a50 <___pformat_xldouble+0xb0>
  406af8:	8b 4d a4             	mov    -0x5c(%ebp),%ecx
  406afb:	39 4d b0             	cmp    %ecx,-0x50(%ebp)
  406afe:	77 0e                	ja     406b0e <___pformat_xldouble+0x16e>
  406b00:	8b 4d a8             	mov    -0x58(%ebp),%ecx
  406b03:	8b 49 0c             	mov    0xc(%ecx),%ecx
  406b06:	85 c9                	test   %ecx,%ecx
  406b08:	0f 88 b7 01 00 00    	js     406cc5 <___pformat_xldouble+0x325>
  406b0e:	8b 4d b0             	mov    -0x50(%ebp),%ecx
  406b11:	83 c1 01             	add    $0x1,%ecx
  406b14:	89 4d ac             	mov    %ecx,-0x54(%ebp)
  406b17:	8d 4f 30             	lea    0x30(%edi),%ecx
  406b1a:	e9 58 ff ff ff       	jmp    406a77 <___pformat_xldouble+0xd7>
  406b1f:	90                   	nop
  406b20:	81 4f 04 80 00 00 00 	orl    $0x80,0x4(%edi)
  406b27:	e9 ac fe ff ff       	jmp    4069d8 <___pformat_xldouble+0x38>
  406b2c:	8d 74 26 00          	lea    0x0(%esi,%eiz,1),%esi
  406b30:	0f a4 c2 01          	shld   $0x1,%eax,%edx
  406b34:	01 c0                	add    %eax,%eax
  406b36:	85 d2                	test   %edx,%edx
  406b38:	79 f6                	jns    406b30 <___pformat_xldouble+0x190>
  406b3a:	b9 0e 00 00 00       	mov    $0xe,%ecx
  406b3f:	0f ac d0 01          	shrd   $0x1,%edx,%eax
  406b43:	29 d9                	sub    %ebx,%ecx
  406b45:	d1 ea                	shr    %edx
  406b47:	c1 e1 02             	shl    $0x2,%ecx
  406b4a:	89 45 b0             	mov    %eax,-0x50(%ebp)
  406b4d:	b8 04 00 00 00       	mov    $0x4,%eax
  406b52:	89 55 b4             	mov    %edx,-0x4c(%ebp)
  406b55:	31 d2                	xor    %edx,%edx
  406b57:	0f a5 c2             	shld   %cl,%eax,%edx
  406b5a:	d3 e0                	shl    %cl,%eax
  406b5c:	f6 c1 20             	test   $0x20,%cl
  406b5f:	74 04                	je     406b65 <___pformat_xldouble+0x1c5>
  406b61:	89 c2                	mov    %eax,%edx
  406b63:	31 c0                	xor    %eax,%eax
  406b65:	01 45 b0             	add    %eax,-0x50(%ebp)
  406b68:	11 55 b4             	adc    %edx,-0x4c(%ebp)
  406b6b:	8b 55 b4             	mov    -0x4c(%ebp),%edx
  406b6e:	8b 45 b0             	mov    -0x50(%ebp),%eax
  406b71:	85 d2                	test   %edx,%edx
  406b73:	0f 88 64 03 00 00    	js     406edd <___pformat_xldouble+0x53d>
  406b79:	0f a4 c2 01          	shld   $0x1,%eax,%edx
  406b7d:	01 c0                	add    %eax,%eax
  406b7f:	89 45 b0             	mov    %eax,-0x50(%ebp)
  406b82:	89 55 b4             	mov    %edx,-0x4c(%ebp)
  406b85:	8b 55 b4             	mov    -0x4c(%ebp),%edx
  406b88:	b9 0f 00 00 00       	mov    $0xf,%ecx
  406b8d:	8b 45 b0             	mov    -0x50(%ebp),%eax
  406b90:	29 d9                	sub    %ebx,%ecx
  406b92:	c1 e1 02             	shl    $0x2,%ecx
  406b95:	0f ad d0             	shrd   %cl,%edx,%eax
  406b98:	d3 ea                	shr    %cl,%edx
  406b9a:	f6 c1 20             	test   $0x20,%cl
  406b9d:	0f 84 77 fe ff ff    	je     406a1a <___pformat_xldouble+0x7a>
  406ba3:	89 d0                	mov    %edx,%eax
  406ba5:	31 d2                	xor    %edx,%edx
  406ba7:	e9 6e fe ff ff       	jmp    406a1a <___pformat_xldouble+0x7a>
  406bac:	8d 74 26 00          	lea    0x0(%esi,%eiz,1),%esi
  406bb0:	8b 55 c4             	mov    -0x3c(%ebp),%edx
  406bb3:	8b 45 c0             	mov    -0x40(%ebp),%eax
  406bb6:	89 d6                	mov    %edx,%esi
  406bb8:	09 c6                	or     %eax,%esi
  406bba:	0f 84 d7 02 00 00    	je     406e97 <___pformat_xldouble+0x4f7>
  406bc0:	85 d2                	test   %edx,%edx
  406bc2:	0f 88 84 03 00 00    	js     406f4c <___pformat_xldouble+0x5ac>
  406bc8:	b9 01 c0 ff ff       	mov    $0xffffc001,%ecx
  406bcd:	8d 76 00             	lea    0x0(%esi),%esi
  406bd0:	0f a4 c2 01          	shld   $0x1,%eax,%edx
  406bd4:	89 cb                	mov    %ecx,%ebx
  406bd6:	01 c0                	add    %eax,%eax
  406bd8:	83 e9 01             	sub    $0x1,%ecx
  406bdb:	85 d2                	test   %edx,%edx
  406bdd:	79 f1                	jns    406bd0 <___pformat_xldouble+0x230>
  406bdf:	89 de                	mov    %ebx,%esi
  406be1:	e9 1e fe ff ff       	jmp    406a04 <___pformat_xldouble+0x64>
  406be6:	8b 45 a4             	mov    -0x5c(%ebp),%eax
  406be9:	39 45 ac             	cmp    %eax,-0x54(%ebp)
  406bec:	8b 7d a8             	mov    -0x58(%ebp),%edi
  406bef:	0f 84 52 03 00 00    	je     406f47 <___pformat_xldouble+0x5a7>
  406bf5:	8b 47 04             	mov    0x4(%edi),%eax
  406bf8:	89 45 b0             	mov    %eax,-0x50(%ebp)
  406bfb:	8b 47 08             	mov    0x8(%edi),%eax
  406bfe:	85 c0                	test   %eax,%eax
  406c00:	89 45 a0             	mov    %eax,-0x60(%ebp)
  406c03:	0f 8e 7c 02 00 00    	jle    406e85 <___pformat_xldouble+0x4e5>
  406c09:	8b 57 0c             	mov    0xc(%edi),%edx
  406c0c:	0f bf f6             	movswl %si,%esi
  406c0f:	8b 45 ac             	mov    -0x54(%ebp),%eax
  406c12:	2b 45 a4             	sub    -0x5c(%ebp),%eax
  406c15:	89 75 a8             	mov    %esi,-0x58(%ebp)
  406c18:	85 d2                	test   %edx,%edx
  406c1a:	7e 02                	jle    406c1e <___pformat_xldouble+0x27e>
  406c1c:	01 d0                	add    %edx,%eax
  406c1e:	8b 55 b0             	mov    -0x50(%ebp),%edx
  406c21:	81 e2 c0 01 00 00    	and    $0x1c0,%edx
  406c27:	83 fa 01             	cmp    $0x1,%edx
  406c2a:	19 d2                	sbb    %edx,%edx
  406c2c:	8d 74 10 06          	lea    0x6(%eax,%edx,1),%esi
  406c30:	8b 45 a8             	mov    -0x58(%ebp),%eax
  406c33:	ba 67 66 66 66       	mov    $0x66666667,%edx
  406c38:	f7 ea                	imul   %edx
  406c3a:	8b 45 a8             	mov    -0x58(%ebp),%eax
  406c3d:	c1 fa 02             	sar    $0x2,%edx
  406c40:	c1 f8 1f             	sar    $0x1f,%eax
  406c43:	29 c2                	sub    %eax,%edx
  406c45:	89 d1                	mov    %edx,%ecx
  406c47:	0f 84 ee 02 00 00    	je     406f3b <___pformat_xldouble+0x59b>
  406c4d:	bb 02 00 00 00       	mov    $0x2,%ebx
  406c52:	b8 67 66 66 66       	mov    $0x66666667,%eax
  406c57:	83 c6 01             	add    $0x1,%esi
  406c5a:	f7 e9                	imul   %ecx
  406c5c:	83 c3 01             	add    $0x1,%ebx
  406c5f:	c1 f9 1f             	sar    $0x1f,%ecx
  406c62:	c1 fa 02             	sar    $0x2,%edx
  406c65:	29 ca                	sub    %ecx,%edx
  406c67:	89 d1                	mov    %edx,%ecx
  406c69:	75 e7                	jne    406c52 <___pformat_xldouble+0x2b2>
  406c6b:	0f bf c3             	movswl %bx,%eax
  406c6e:	89 45 9c             	mov    %eax,-0x64(%ebp)
  406c71:	39 75 a0             	cmp    %esi,-0x60(%ebp)
  406c74:	7e 5a                	jle    406cd0 <___pformat_xldouble+0x330>
  406c76:	8b 45 a0             	mov    -0x60(%ebp),%eax
  406c79:	29 f0                	sub    %esi,%eax
  406c7b:	f7 45 b0 00 06 00 00 	testl  $0x600,-0x50(%ebp)
  406c82:	0f 85 1a 02 00 00    	jne    406ea2 <___pformat_xldouble+0x502>
  406c88:	8d 50 ff             	lea    -0x1(%eax),%edx
  406c8b:	85 c0                	test   %eax,%eax
  406c8d:	89 57 08             	mov    %edx,0x8(%edi)
  406c90:	7e 45                	jle    406cd7 <___pformat_xldouble+0x337>
  406c92:	89 fa                	mov    %edi,%edx
  406c94:	b8 20 00 00 00       	mov    $0x20,%eax
  406c99:	e8 32 ee ff ff       	call   405ad0 <___pformat_putc>
  406c9e:	8b 47 08             	mov    0x8(%edi),%eax
  406ca1:	8d 50 ff             	lea    -0x1(%eax),%edx
  406ca4:	85 c0                	test   %eax,%eax
  406ca6:	89 57 08             	mov    %edx,0x8(%edi)
  406ca9:	7f e7                	jg     406c92 <___pformat_xldouble+0x2f2>
  406cab:	8b 47 04             	mov    0x4(%edi),%eax
  406cae:	89 45 b0             	mov    %eax,-0x50(%ebp)
  406cb1:	f6 45 b0 80          	testb  $0x80,-0x50(%ebp)
  406cb5:	74 26                	je     406cdd <___pformat_xldouble+0x33d>
  406cb7:	89 fa                	mov    %edi,%edx
  406cb9:	b8 2d 00 00 00       	mov    $0x2d,%eax
  406cbe:	e8 0d ee ff ff       	call   405ad0 <___pformat_putc>
  406cc3:	eb 2f                	jmp    406cf4 <___pformat_xldouble+0x354>
  406cc5:	8b 7d b0             	mov    -0x50(%ebp),%edi
  406cc8:	89 7d ac             	mov    %edi,-0x54(%ebp)
  406ccb:	e9 ac fd ff ff       	jmp    406a7c <___pformat_xldouble+0xdc>
  406cd0:	c7 47 08 ff ff ff ff 	movl   $0xffffffff,0x8(%edi)
  406cd7:	f6 45 b0 80          	testb  $0x80,-0x50(%ebp)
  406cdb:	75 da                	jne    406cb7 <___pformat_xldouble+0x317>
  406cdd:	f7 45 b0 00 01 00 00 	testl  $0x100,-0x50(%ebp)
  406ce4:	0f 85 c0 01 00 00    	jne    406eaa <___pformat_xldouble+0x50a>
  406cea:	f6 45 b0 40          	testb  $0x40,-0x50(%ebp)
  406cee:	0f 85 d8 01 00 00    	jne    406ecc <___pformat_xldouble+0x52c>
  406cf4:	89 fa                	mov    %edi,%edx
  406cf6:	b8 30 00 00 00       	mov    $0x30,%eax
  406cfb:	e8 d0 ed ff ff       	call   405ad0 <___pformat_putc>
  406d00:	8b 47 04             	mov    0x4(%edi),%eax
  406d03:	89 fa                	mov    %edi,%edx
  406d05:	83 e0 20             	and    $0x20,%eax
  406d08:	83 c8 58             	or     $0x58,%eax
  406d0b:	e8 c0 ed ff ff       	call   405ad0 <___pformat_putc>
  406d10:	8b 47 08             	mov    0x8(%edi),%eax
  406d13:	85 c0                	test   %eax,%eax
  406d15:	7e 25                	jle    406d3c <___pformat_xldouble+0x39c>
  406d17:	f6 47 05 02          	testb  $0x2,0x5(%edi)
  406d1b:	74 1f                	je     406d3c <___pformat_xldouble+0x39c>
  406d1d:	83 e8 01             	sub    $0x1,%eax
  406d20:	89 47 08             	mov    %eax,0x8(%edi)
  406d23:	89 fa                	mov    %edi,%edx
  406d25:	b8 30 00 00 00       	mov    $0x30,%eax
  406d2a:	e8 a1 ed ff ff       	call   405ad0 <___pformat_putc>
  406d2f:	8b 47 08             	mov    0x8(%edi),%eax
  406d32:	8d 50 ff             	lea    -0x1(%eax),%edx
  406d35:	85 c0                	test   %eax,%eax
  406d37:	89 57 08             	mov    %edx,0x8(%edi)
  406d3a:	7f e7                	jg     406d23 <___pformat_xldouble+0x383>
  406d3c:	8b 45 a4             	mov    -0x5c(%ebp),%eax
  406d3f:	39 45 ac             	cmp    %eax,-0x54(%ebp)
  406d42:	8b 5d ac             	mov    -0x54(%ebp),%ebx
  406d45:	77 19                	ja     406d60 <___pformat_xldouble+0x3c0>
  406d47:	e9 a1 00 00 00       	jmp    406ded <___pformat_xldouble+0x44d>
  406d4c:	8d 74 26 00          	lea    0x0(%esi,%eiz,1),%esi
  406d50:	89 fa                	mov    %edi,%edx
  406d52:	e8 79 ed ff ff       	call   405ad0 <___pformat_putc>
  406d57:	3b 5d a4             	cmp    -0x5c(%ebp),%ebx
  406d5a:	0f 84 8d 00 00 00    	je     406ded <___pformat_xldouble+0x44d>
  406d60:	83 eb 01             	sub    $0x1,%ebx
  406d63:	0f be 03             	movsbl (%ebx),%eax
  406d66:	83 f8 2e             	cmp    $0x2e,%eax
  406d69:	75 e5                	jne    406d50 <___pformat_xldouble+0x3b0>
  406d6b:	83 7f 10 fd          	cmpl   $0xfffffffd,0x10(%edi)
  406d6f:	0f 84 cc 00 00 00    	je     406e41 <___pformat_xldouble+0x4a1>
  406d75:	0f b7 57 14          	movzwl 0x14(%edi),%edx
  406d79:	66 85 d2             	test   %dx,%dx
  406d7c:	0f 84 ae 00 00 00    	je     406e30 <___pformat_xldouble+0x490>
  406d82:	8b 47 10             	mov    0x10(%edi),%eax
  406d85:	89 65 b0             	mov    %esp,-0x50(%ebp)
  406d88:	83 c0 0f             	add    $0xf,%eax
  406d8b:	83 e0 f0             	and    $0xfffffff0,%eax
  406d8e:	e8 cd d5 ff ff       	call   404360 <___chkstk_ms>
  406d93:	29 c4                	sub    %eax,%esp
  406d95:	8d 74 24 10          	lea    0x10(%esp),%esi
  406d99:	8d 45 bc             	lea    -0x44(%ebp),%eax
  406d9c:	c7 45 bc 00 00 00 00 	movl   $0x0,-0x44(%ebp)
  406da3:	89 44 24 08          	mov    %eax,0x8(%esp)
  406da7:	89 54 24 04          	mov    %edx,0x4(%esp)
  406dab:	89 34 24             	mov    %esi,(%esp)
  406dae:	e8 5d 20 00 00       	call   408e10 <_wcrtomb>
  406db3:	85 c0                	test   %eax,%eax
  406db5:	0f 8e 00 01 00 00    	jle    406ebb <___pformat_xldouble+0x51b>
  406dbb:	01 f0                	add    %esi,%eax
  406dbd:	89 5d ac             	mov    %ebx,-0x54(%ebp)
  406dc0:	89 f3                	mov    %esi,%ebx
  406dc2:	89 c6                	mov    %eax,%esi
  406dc4:	83 c3 01             	add    $0x1,%ebx
  406dc7:	0f be 43 ff          	movsbl -0x1(%ebx),%eax
  406dcb:	89 fa                	mov    %edi,%edx
  406dcd:	e8 fe ec ff ff       	call   405ad0 <___pformat_putc>
  406dd2:	39 f3                	cmp    %esi,%ebx
  406dd4:	75 ee                	jne    406dc4 <___pformat_xldouble+0x424>
  406dd6:	8b 5d ac             	mov    -0x54(%ebp),%ebx
  406dd9:	8b 65 b0             	mov    -0x50(%ebp),%esp
  406ddc:	e9 76 ff ff ff       	jmp    406d57 <___pformat_xldouble+0x3b7>
  406de1:	89 fa                	mov    %edi,%edx
  406de3:	b8 30 00 00 00       	mov    $0x30,%eax
  406de8:	e8 e3 ec ff ff       	call   405ad0 <___pformat_putc>
  406ded:	8b 47 0c             	mov    0xc(%edi),%eax
  406df0:	8d 50 ff             	lea    -0x1(%eax),%edx
  406df3:	85 c0                	test   %eax,%eax
  406df5:	89 57 0c             	mov    %edx,0xc(%edi)
  406df8:	7f e7                	jg     406de1 <___pformat_xldouble+0x441>
  406dfa:	8b 47 04             	mov    0x4(%edi),%eax
  406dfd:	89 fa                	mov    %edi,%edx
  406dff:	83 e0 20             	and    $0x20,%eax
  406e02:	83 c8 50             	or     $0x50,%eax
  406e05:	e8 c6 ec ff ff       	call   405ad0 <___pformat_putc>
  406e0a:	8b 45 9c             	mov    -0x64(%ebp),%eax
  406e0d:	89 f9                	mov    %edi,%ecx
  406e0f:	01 47 08             	add    %eax,0x8(%edi)
  406e12:	8b 45 a8             	mov    -0x58(%ebp),%eax
  406e15:	81 4f 04 c0 01 00 00 	orl    $0x1c0,0x4(%edi)
  406e1c:	99                   	cltd   
  406e1d:	e8 5e ef ff ff       	call   405d80 <___pformat_int>
  406e22:	8d 65 f4             	lea    -0xc(%ebp),%esp
  406e25:	5b                   	pop    %ebx
  406e26:	5e                   	pop    %esi
  406e27:	5f                   	pop    %edi
  406e28:	5d                   	pop    %ebp
  406e29:	c3                   	ret    
  406e2a:	8d b6 00 00 00 00    	lea    0x0(%esi),%esi
  406e30:	89 fa                	mov    %edi,%edx
  406e32:	b8 2e 00 00 00       	mov    $0x2e,%eax
  406e37:	e8 94 ec ff ff       	call   405ad0 <___pformat_putc>
  406e3c:	e9 16 ff ff ff       	jmp    406d57 <___pformat_xldouble+0x3b7>
  406e41:	c7 45 bc 00 00 00 00 	movl   $0x0,-0x44(%ebp)
  406e48:	8d 75 bc             	lea    -0x44(%ebp),%esi
  406e4b:	e8 e8 35 00 00       	call   40a438 <_localeconv>
  406e50:	89 74 24 0c          	mov    %esi,0xc(%esp)
  406e54:	c7 44 24 08 10 00 00 	movl   $0x10,0x8(%esp)
  406e5b:	00 
  406e5c:	8b 00                	mov    (%eax),%eax
  406e5e:	89 44 24 04          	mov    %eax,0x4(%esp)
  406e62:	8d 45 ba             	lea    -0x46(%ebp),%eax
  406e65:	89 04 24             	mov    %eax,(%esp)
  406e68:	e8 f3 22 00 00       	call   409160 <_mbrtowc>
  406e6d:	85 c0                	test   %eax,%eax
  406e6f:	0f 8e 85 00 00 00    	jle    406efa <___pformat_xldouble+0x55a>
  406e75:	0f b7 55 ba          	movzwl -0x46(%ebp),%edx
  406e79:	66 89 57 14          	mov    %dx,0x14(%edi)
  406e7d:	89 47 10             	mov    %eax,0x10(%edi)
  406e80:	e9 f4 fe ff ff       	jmp    406d79 <___pformat_xldouble+0x3d9>
  406e85:	0f bf c6             	movswl %si,%eax
  406e88:	c7 45 9c 02 00 00 00 	movl   $0x2,-0x64(%ebp)
  406e8f:	89 45 a8             	mov    %eax,-0x58(%ebp)
  406e92:	e9 40 fe ff ff       	jmp    406cd7 <___pformat_xldouble+0x337>
  406e97:	31 f6                	xor    %esi,%esi
  406e99:	31 c0                	xor    %eax,%eax
  406e9b:	31 d2                	xor    %edx,%edx
  406e9d:	e9 62 fb ff ff       	jmp    406a04 <___pformat_xldouble+0x64>
  406ea2:	89 47 08             	mov    %eax,0x8(%edi)
  406ea5:	e9 2d fe ff ff       	jmp    406cd7 <___pformat_xldouble+0x337>
  406eaa:	89 fa                	mov    %edi,%edx
  406eac:	b8 2b 00 00 00       	mov    $0x2b,%eax
  406eb1:	e8 1a ec ff ff       	call   405ad0 <___pformat_putc>
  406eb6:	e9 39 fe ff ff       	jmp    406cf4 <___pformat_xldouble+0x354>
  406ebb:	89 fa                	mov    %edi,%edx
  406ebd:	b8 2e 00 00 00       	mov    $0x2e,%eax
  406ec2:	e8 09 ec ff ff       	call   405ad0 <___pformat_putc>
  406ec7:	e9 0d ff ff ff       	jmp    406dd9 <___pformat_xldouble+0x439>
  406ecc:	89 fa                	mov    %edi,%edx
  406ece:	b8 20 00 00 00       	mov    $0x20,%eax
  406ed3:	e8 f8 eb ff ff       	call   405ad0 <___pformat_putc>
  406ed8:	e9 17 fe ff ff       	jmp    406cf4 <___pformat_xldouble+0x354>
  406edd:	83 c6 01             	add    $0x1,%esi
  406ee0:	e9 a0 fc ff ff       	jmp    406b85 <___pformat_xldouble+0x1e5>
  406ee5:	dd d8                	fstp   %st(0)
  406ee7:	89 f9                	mov    %edi,%ecx
  406ee9:	ba 64 c1 40 00       	mov    $0x40c164,%edx
  406eee:	31 c0                	xor    %eax,%eax
  406ef0:	e8 fb ed ff ff       	call   405cf0 <___pformat_emit_inf_or_nan>
  406ef5:	e9 28 ff ff ff       	jmp    406e22 <___pformat_xldouble+0x482>
  406efa:	0f b7 57 14          	movzwl 0x14(%edi),%edx
  406efe:	e9 7a ff ff ff       	jmp    406e7d <___pformat_xldouble+0x4dd>
  406f03:	89 f9                	mov    %edi,%ecx
  406f05:	ba 68 c1 40 00       	mov    $0x40c168,%edx
  406f0a:	89 d8                	mov    %ebx,%eax
  406f0c:	e8 df ed ff ff       	call   405cf0 <___pformat_emit_inf_or_nan>
  406f11:	e9 0c ff ff ff       	jmp    406e22 <___pformat_xldouble+0x482>
  406f16:	8d 45 d6             	lea    -0x2a(%ebp),%eax
  406f19:	89 45 a4             	mov    %eax,-0x5c(%ebp)
  406f1c:	85 db                	test   %ebx,%ebx
  406f1e:	8b 47 04             	mov    0x4(%edi),%eax
  406f21:	7e 33                	jle    406f56 <___pformat_xldouble+0x5b6>
  406f23:	89 45 b0             	mov    %eax,-0x50(%ebp)
  406f26:	c6 45 d6 2e          	movb   $0x2e,-0x2a(%ebp)
  406f2a:	8d 45 d7             	lea    -0x29(%ebp),%eax
  406f2d:	8d 50 01             	lea    0x1(%eax),%edx
  406f30:	89 55 ac             	mov    %edx,-0x54(%ebp)
  406f33:	c6 00 30             	movb   $0x30,(%eax)
  406f36:	e9 c0 fc ff ff       	jmp    406bfb <___pformat_xldouble+0x25b>
  406f3b:	c7 45 9c 02 00 00 00 	movl   $0x2,-0x64(%ebp)
  406f42:	e9 2a fd ff ff       	jmp    406c71 <___pformat_xldouble+0x2d1>
  406f47:	8b 5f 0c             	mov    0xc(%edi),%ebx
  406f4a:	eb d0                	jmp    406f1c <___pformat_xldouble+0x57c>
  406f4c:	be 02 c0 ff ff       	mov    $0xffffc002,%esi
  406f51:	e9 ae fa ff ff       	jmp    406a04 <___pformat_xldouble+0x64>
  406f56:	89 c2                	mov    %eax,%edx
  406f58:	80 e6 08             	and    $0x8,%dh
  406f5b:	89 45 b0             	mov    %eax,-0x50(%ebp)
  406f5e:	8b 45 a4             	mov    -0x5c(%ebp),%eax
  406f61:	74 ca                	je     406f2d <___pformat_xldouble+0x58d>
  406f63:	eb c1                	jmp    406f26 <___pformat_xldouble+0x586>
  406f65:	8d 74 26 00          	lea    0x0(%esi,%eiz,1),%esi
  406f69:	8d bc 27 00 00 00 00 	lea    0x0(%edi,%eiz,1),%edi

00406f70 <___mingw_pformat>:
  406f70:	55                   	push   %ebp
  406f71:	57                   	push   %edi
  406f72:	56                   	push   %esi
  406f73:	53                   	push   %ebx
  406f74:	83 ec 5c             	sub    $0x5c,%esp
  406f77:	8b 44 24 74          	mov    0x74(%esp),%eax
  406f7b:	81 64 24 70 00 30 00 	andl   $0x3000,0x70(%esp)
  406f82:	00 
  406f83:	8b 74 24 7c          	mov    0x7c(%esp),%esi
  406f87:	c7 04 24 81 c1 40 00 	movl   $0x40c181,(%esp)
  406f8e:	8b ac 24 80 00 00 00 	mov    0x80(%esp),%ebp
  406f95:	89 44 24 2c          	mov    %eax,0x2c(%esp)
  406f99:	8b 44 24 70          	mov    0x70(%esp),%eax
  406f9d:	c7 44 24 34 ff ff ff 	movl   $0xffffffff,0x34(%esp)
  406fa4:	ff 
  406fa5:	c7 44 24 38 ff ff ff 	movl   $0xffffffff,0x38(%esp)
  406fac:	ff 
  406fad:	c7 44 24 3c fd ff ff 	movl   $0xfffffffd,0x3c(%esp)
  406fb4:	ff 
  406fb5:	89 44 24 30          	mov    %eax,0x30(%esp)
  406fb9:	31 c0                	xor    %eax,%eax
  406fbb:	66 89 44 24 40       	mov    %ax,0x40(%esp)
  406fc0:	8b 44 24 78          	mov    0x78(%esp),%eax
  406fc4:	c7 44 24 44 00 00 00 	movl   $0x0,0x44(%esp)
  406fcb:	00 
  406fcc:	89 44 24 48          	mov    %eax,0x48(%esp)
  406fd0:	e8 6b 34 00 00       	call   40a440 <_getenv>
  406fd5:	85 c0                	test   %eax,%eax
  406fd7:	0f 84 d3 00 00 00    	je     4070b0 <___mingw_pformat+0x140>
  406fdd:	0f be 00             	movsbl (%eax),%eax
  406fe0:	83 e8 30             	sub    $0x30,%eax
  406fe3:	83 f8 02             	cmp    $0x2,%eax
  406fe6:	0f 87 c4 00 00 00    	ja     4070b0 <___mingw_pformat+0x140>
  406fec:	b8 02 00 00 00       	mov    $0x2,%eax
  406ff1:	89 44 24 4c          	mov    %eax,0x4c(%esp)
  406ff5:	8b 44 24 70          	mov    0x70(%esp),%eax
  406ff9:	80 cc 02             	or     $0x2,%ah
  406ffc:	89 44 24 1c          	mov    %eax,0x1c(%esp)
  407000:	0f be 06             	movsbl (%esi),%eax
  407003:	8d 5e 01             	lea    0x1(%esi),%ebx
  407006:	89 d9                	mov    %ebx,%ecx
  407008:	85 c0                	test   %eax,%eax
  40700a:	0f 84 92 00 00 00    	je     4070a2 <___mingw_pformat+0x132>
  407010:	83 f8 25             	cmp    $0x25,%eax
  407013:	0f 85 de 00 00 00    	jne    4070f7 <___mingw_pformat+0x187>
  407019:	8b 44 24 70          	mov    0x70(%esp),%eax
  40701d:	c7 44 24 38 ff ff ff 	movl   $0xffffffff,0x38(%esp)
  407024:	ff 
  407025:	c7 44 24 34 ff ff ff 	movl   $0xffffffff,0x34(%esp)
  40702c:	ff 
  40702d:	c7 44 24 14 00 00 00 	movl   $0x0,0x14(%esp)
  407034:	00 
  407035:	89 44 24 30          	mov    %eax,0x30(%esp)
  407039:	0f b6 56 01          	movzbl 0x1(%esi),%edx
  40703d:	8d 44 24 34          	lea    0x34(%esp),%eax
  407041:	89 44 24 18          	mov    %eax,0x18(%esp)
  407045:	c7 44 24 10 00 00 00 	movl   $0x0,0x10(%esp)
  40704c:	00 
  40704d:	84 d2                	test   %dl,%dl
  40704f:	74 3f                	je     407090 <___mingw_pformat+0x120>
  407051:	8d 42 e0             	lea    -0x20(%edx),%eax
  407054:	0f be fa             	movsbl %dl,%edi
  407057:	3c 5a                	cmp    $0x5a,%al
  407059:	8d 71 01             	lea    0x1(%ecx),%esi
  40705c:	0f 87 70 04 00 00    	ja     4074d2 <___mingw_pformat+0x562>
  407062:	0f b6 c0             	movzbl %al,%eax
  407065:	ff 24 85 98 c1 40 00 	jmp    *0x40c198(,%eax,4)
  40706c:	8d 74 26 00          	lea    0x0(%esi,%eiz,1),%esi
  407070:	0f b6 51 01          	movzbl 0x1(%ecx),%edx
  407074:	89 f1                	mov    %esi,%ecx
  407076:	c7 44 24 14 02 00 00 	movl   $0x2,0x14(%esp)
  40707d:	00 
  40707e:	c7 44 24 10 04 00 00 	movl   $0x4,0x10(%esp)
  407085:	00 
  407086:	84 d2                	test   %dl,%dl
  407088:	75 c7                	jne    407051 <___mingw_pformat+0xe1>
  40708a:	8d b6 00 00 00 00    	lea    0x0(%esi),%esi
  407090:	89 ce                	mov    %ecx,%esi
  407092:	0f be 06             	movsbl (%esi),%eax
  407095:	8d 5e 01             	lea    0x1(%esi),%ebx
  407098:	89 d9                	mov    %ebx,%ecx
  40709a:	85 c0                	test   %eax,%eax
  40709c:	0f 85 6e ff ff ff    	jne    407010 <___mingw_pformat+0xa0>
  4070a2:	8b 44 24 44          	mov    0x44(%esp),%eax
  4070a6:	83 c4 5c             	add    $0x5c,%esp
  4070a9:	5b                   	pop    %ebx
  4070aa:	5e                   	pop    %esi
  4070ab:	5f                   	pop    %edi
  4070ac:	5d                   	pop    %ebp
  4070ad:	c3                   	ret    
  4070ae:	66 90                	xchg   %ax,%ax
  4070b0:	f6 05 74 f0 40 00 01 	testb  $0x1,0x40f074
  4070b7:	0f 85 2f ff ff ff    	jne    406fec <___mingw_pformat+0x7c>
  4070bd:	b8 03 00 00 00       	mov    $0x3,%eax
  4070c2:	e9 2a ff ff ff       	jmp    406ff1 <___mingw_pformat+0x81>
  4070c7:	80 79 01 6c          	cmpb   $0x6c,0x1(%ecx)
  4070cb:	c7 44 24 14 02 00 00 	movl   $0x2,0x14(%esp)
  4070d2:	00 
  4070d3:	75 0b                	jne    4070e0 <___mingw_pformat+0x170>
  4070d5:	8d 71 02             	lea    0x2(%ecx),%esi
  4070d8:	c7 44 24 14 03 00 00 	movl   $0x3,0x14(%esp)
  4070df:	00 
  4070e0:	83 4c 24 30 04       	orl    $0x4,0x30(%esp)
  4070e5:	89 f1                	mov    %esi,%ecx
  4070e7:	0f b6 16             	movzbl (%esi),%edx
  4070ea:	c7 44 24 10 04 00 00 	movl   $0x4,0x10(%esp)
  4070f1:	00 
  4070f2:	e9 56 ff ff ff       	jmp    40704d <___mingw_pformat+0xdd>
  4070f7:	8d 54 24 2c          	lea    0x2c(%esp),%edx
  4070fb:	89 de                	mov    %ebx,%esi
  4070fd:	e8 ce e9 ff ff       	call   405ad0 <___pformat_putc>
  407102:	e9 f9 fe ff ff       	jmp    407000 <___mingw_pformat+0x90>
  407107:	8b 54 24 14          	mov    0x14(%esp),%edx
  40710b:	89 e8                	mov    %ebp,%eax
  40710d:	83 ea 02             	sub    $0x2,%edx
  407110:	83 fa 01             	cmp    $0x1,%edx
  407113:	0f 86 07 05 00 00    	jbe    407620 <___mingw_pformat+0x6b0>
  407119:	8b 18                	mov    (%eax),%ebx
  40711b:	83 c5 04             	add    $0x4,%ebp
  40711e:	85 db                	test   %ebx,%ebx
  407120:	0f 84 89 06 00 00    	je     4077af <___mingw_pformat+0x83f>
  407126:	89 1c 24             	mov    %ebx,(%esp)
  407129:	e8 92 32 00 00       	call   40a3c0 <_strlen>
  40712e:	89 c2                	mov    %eax,%edx
  407130:	8d 4c 24 2c          	lea    0x2c(%esp),%ecx
  407134:	89 d8                	mov    %ebx,%eax
  407136:	e8 05 eb ff ff       	call   405c40 <___pformat_putchars>
  40713b:	e9 c0 fe ff ff       	jmp    407000 <___mingw_pformat+0x90>
  407140:	8b 54 24 14          	mov    0x14(%esp),%edx
  407144:	89 e8                	mov    %ebp,%eax
  407146:	c7 44 24 38 ff ff ff 	movl   $0xffffffff,0x38(%esp)
  40714d:	ff 
  40714e:	83 ea 02             	sub    $0x2,%edx
  407151:	83 fa 01             	cmp    $0x1,%edx
  407154:	0f 86 23 03 00 00    	jbe    40747d <___mingw_pformat+0x50d>
  40715a:	8b 00                	mov    (%eax),%eax
  40715c:	8d 4c 24 2c          	lea    0x2c(%esp),%ecx
  407160:	ba 01 00 00 00       	mov    $0x1,%edx
  407165:	83 c5 04             	add    $0x4,%ebp
  407168:	88 44 24 20          	mov    %al,0x20(%esp)
  40716c:	8d 44 24 20          	lea    0x20(%esp),%eax
  407170:	e8 cb ea ff ff       	call   405c40 <___pformat_putchars>
  407175:	e9 86 fe ff ff       	jmp    407000 <___mingw_pformat+0x90>
  40717a:	8d b6 00 00 00 00    	lea    0x0(%esi),%esi
  407180:	83 7c 24 14 04       	cmpl   $0x4,0x14(%esp)
  407185:	0f 84 f0 05 00 00    	je     40777b <___mingw_pformat+0x80b>
  40718b:	83 7c 24 14 01       	cmpl   $0x1,0x14(%esp)
  407190:	8b 45 00             	mov    0x0(%ebp),%eax
  407193:	8b 54 24 44          	mov    0x44(%esp),%edx
  407197:	0f 84 17 05 00 00    	je     4076b4 <___mingw_pformat+0x744>
  40719d:	83 7c 24 14 02       	cmpl   $0x2,0x14(%esp)
  4071a2:	0f 84 43 06 00 00    	je     4077eb <___mingw_pformat+0x87b>
  4071a8:	83 7c 24 14 03       	cmpl   $0x3,0x14(%esp)
  4071ad:	89 10                	mov    %edx,(%eax)
  4071af:	0f 84 a9 06 00 00    	je     40785e <___mingw_pformat+0x8ee>
  4071b5:	83 c5 04             	add    $0x4,%ebp
  4071b8:	e9 43 fe ff ff       	jmp    407000 <___mingw_pformat+0x90>
  4071bd:	8d 76 00             	lea    0x0(%esi),%esi
  4071c0:	0f b6 51 01          	movzbl 0x1(%ecx),%edx
  4071c4:	89 f1                	mov    %esi,%ecx
  4071c6:	c7 44 24 14 03 00 00 	movl   $0x3,0x14(%esp)
  4071cd:	00 
  4071ce:	c7 44 24 10 04 00 00 	movl   $0x4,0x10(%esp)
  4071d5:	00 
  4071d6:	e9 72 fe ff ff       	jmp    40704d <___mingw_pformat+0xdd>
  4071db:	90                   	nop
  4071dc:	8d 74 26 00          	lea    0x0(%esi,%eiz,1),%esi
  4071e0:	0f b6 51 01          	movzbl 0x1(%ecx),%edx
  4071e4:	80 fa 68             	cmp    $0x68,%dl
  4071e7:	0f 84 4c 05 00 00    	je     407739 <___mingw_pformat+0x7c9>
  4071ed:	89 f1                	mov    %esi,%ecx
  4071ef:	c7 44 24 14 01 00 00 	movl   $0x1,0x14(%esp)
  4071f6:	00 
  4071f7:	c7 44 24 10 04 00 00 	movl   $0x4,0x10(%esp)
  4071fe:	00 
  4071ff:	e9 49 fe ff ff       	jmp    40704d <___mingw_pformat+0xdd>
  407204:	8b 44 24 10          	mov    0x10(%esp),%eax
  407208:	85 c0                	test   %eax,%eax
  40720a:	75 0e                	jne    40721a <___mingw_pformat+0x2aa>
  40720c:	8b 44 24 70          	mov    0x70(%esp),%eax
  407210:	39 44 24 30          	cmp    %eax,0x30(%esp)
  407214:	0f 84 a4 05 00 00    	je     4077be <___mingw_pformat+0x84e>
  40721a:	8b 45 00             	mov    0x0(%ebp),%eax
  40721d:	8d 5d 04             	lea    0x4(%ebp),%ebx
  407220:	c7 44 24 24 00 00 00 	movl   $0x0,0x24(%esp)
  407227:	00 
  407228:	8b 4c 24 24          	mov    0x24(%esp),%ecx
  40722c:	89 dd                	mov    %ebx,%ebp
  40722e:	89 44 24 20          	mov    %eax,0x20(%esp)
  407232:	8b 54 24 20          	mov    0x20(%esp),%edx
  407236:	8d 44 24 2c          	lea    0x2c(%esp),%eax
  40723a:	89 04 24             	mov    %eax,(%esp)
  40723d:	b8 78 00 00 00       	mov    $0x78,%eax
  407242:	e8 69 ed ff ff       	call   405fb0 <___pformat_xint>
  407247:	e9 b4 fd ff ff       	jmp    407000 <___mingw_pformat+0x90>
  40724c:	8d 74 26 00          	lea    0x0(%esi,%eiz,1),%esi
  407250:	8b 44 24 30          	mov    0x30(%esp),%eax
  407254:	83 c8 20             	or     $0x20,%eax
  407257:	a8 04                	test   $0x4,%al
  407259:	89 44 24 30          	mov    %eax,0x30(%esp)
  40725d:	0f 84 4a 02 00 00    	je     4074ad <___mingw_pformat+0x53d>
  407263:	db 6d 00             	fldt   0x0(%ebp)
  407266:	8d 5d 0c             	lea    0xc(%ebp),%ebx
  407269:	db 3c 24             	fstpt  (%esp)
  40726c:	89 dd                	mov    %ebx,%ebp
  40726e:	8d 44 24 2c          	lea    0x2c(%esp),%eax
  407272:	e8 29 f7 ff ff       	call   4069a0 <___pformat_xldouble>
  407277:	e9 84 fd ff ff       	jmp    407000 <___mingw_pformat+0x90>
  40727c:	8d 74 26 00          	lea    0x0(%esi,%eiz,1),%esi
  407280:	83 7c 24 14 03       	cmpl   $0x3,0x14(%esp)
  407285:	89 f8                	mov    %edi,%eax
  407287:	0f 84 80 04 00 00    	je     40770d <___mingw_pformat+0x79d>
  40728d:	83 7c 24 14 02       	cmpl   $0x2,0x14(%esp)
  407292:	0f 84 27 04 00 00    	je     4076bf <___mingw_pformat+0x74f>
  407298:	8b 7d 00             	mov    0x0(%ebp),%edi
  40729b:	8d 55 04             	lea    0x4(%ebp),%edx
  40729e:	83 7c 24 14 01       	cmpl   $0x1,0x14(%esp)
  4072a3:	c7 44 24 24 00 00 00 	movl   $0x0,0x24(%esp)
  4072aa:	00 
  4072ab:	89 7c 24 20          	mov    %edi,0x20(%esp)
  4072af:	0f 84 1e 05 00 00    	je     4077d3 <___mingw_pformat+0x863>
  4072b5:	83 7c 24 14 04       	cmpl   $0x4,0x14(%esp)
  4072ba:	89 d5                	mov    %edx,%ebp
  4072bc:	0f 84 86 05 00 00    	je     407848 <___mingw_pformat+0x8d8>
  4072c2:	83 f8 75             	cmp    $0x75,%eax
  4072c5:	0f 84 ec 00 00 00    	je     4073b7 <___mingw_pformat+0x447>
  4072cb:	8b 54 24 20          	mov    0x20(%esp),%edx
  4072cf:	8d 7c 24 2c          	lea    0x2c(%esp),%edi
  4072d3:	8b 4c 24 24          	mov    0x24(%esp),%ecx
  4072d7:	89 3c 24             	mov    %edi,(%esp)
  4072da:	e8 d1 ec ff ff       	call   405fb0 <___pformat_xint>
  4072df:	e9 1c fd ff ff       	jmp    407000 <___mingw_pformat+0x90>
  4072e4:	8b 44 24 30          	mov    0x30(%esp),%eax
  4072e8:	83 c8 20             	or     $0x20,%eax
  4072eb:	a8 04                	test   $0x4,%al
  4072ed:	89 44 24 30          	mov    %eax,0x30(%esp)
  4072f1:	0f 84 15 01 00 00    	je     40740c <___mingw_pformat+0x49c>
  4072f7:	db 6d 00             	fldt   0x0(%ebp)
  4072fa:	8d 5d 0c             	lea    0xc(%ebp),%ebx
  4072fd:	db 3c 24             	fstpt  (%esp)
  407300:	89 dd                	mov    %ebx,%ebp
  407302:	8d 44 24 2c          	lea    0x2c(%esp),%eax
  407306:	e8 15 f5 ff ff       	call   406820 <___pformat_gfloat>
  40730b:	e9 f0 fc ff ff       	jmp    407000 <___mingw_pformat+0x90>
  407310:	8b 44 24 30          	mov    0x30(%esp),%eax
  407314:	83 c8 20             	or     $0x20,%eax
  407317:	a8 04                	test   $0x4,%al
  407319:	89 44 24 30          	mov    %eax,0x30(%esp)
  40731d:	0f 84 0e 01 00 00    	je     407431 <___mingw_pformat+0x4c1>
  407323:	db 6d 00             	fldt   0x0(%ebp)
  407326:	8d 5d 0c             	lea    0xc(%ebp),%ebx
  407329:	db 3c 24             	fstpt  (%esp)
  40732c:	89 dd                	mov    %ebx,%ebp
  40732e:	8d 44 24 2c          	lea    0x2c(%esp),%eax
  407332:	e8 09 f4 ff ff       	call   406740 <___pformat_float>
  407337:	e9 c4 fc ff ff       	jmp    407000 <___mingw_pformat+0x90>
  40733c:	8d 74 26 00          	lea    0x0(%esi,%eiz,1),%esi
  407340:	8b 44 24 30          	mov    0x30(%esp),%eax
  407344:	83 c8 20             	or     $0x20,%eax
  407347:	a8 04                	test   $0x4,%al
  407349:	89 44 24 30          	mov    %eax,0x30(%esp)
  40734d:	0f 84 09 01 00 00    	je     40745c <___mingw_pformat+0x4ec>
  407353:	db 6d 00             	fldt   0x0(%ebp)
  407356:	8d 5d 0c             	lea    0xc(%ebp),%ebx
  407359:	db 3c 24             	fstpt  (%esp)
  40735c:	89 dd                	mov    %ebx,%ebp
  40735e:	8d 44 24 2c          	lea    0x2c(%esp),%eax
  407362:	e8 29 f3 ff ff       	call   406690 <___pformat_efloat>
  407367:	e9 94 fc ff ff       	jmp    407000 <___mingw_pformat+0x90>
  40736c:	8d 74 26 00          	lea    0x0(%esi,%eiz,1),%esi
  407370:	81 4c 24 30 80 00 00 	orl    $0x80,0x30(%esp)
  407377:	00 
  407378:	83 7c 24 14 03       	cmpl   $0x3,0x14(%esp)
  40737d:	0f 84 a0 03 00 00    	je     407723 <___mingw_pformat+0x7b3>
  407383:	83 7c 24 14 02       	cmpl   $0x2,0x14(%esp)
  407388:	0f 84 48 03 00 00    	je     4076d6 <___mingw_pformat+0x766>
  40738e:	8b 45 00             	mov    0x0(%ebp),%eax
  407391:	8d 55 04             	lea    0x4(%ebp),%edx
  407394:	89 44 24 20          	mov    %eax,0x20(%esp)
  407398:	c1 f8 1f             	sar    $0x1f,%eax
  40739b:	83 7c 24 14 01       	cmpl   $0x1,0x14(%esp)
  4073a0:	89 44 24 24          	mov    %eax,0x24(%esp)
  4073a4:	0f 84 4b 04 00 00    	je     4077f5 <___mingw_pformat+0x885>
  4073aa:	83 7c 24 14 04       	cmpl   $0x4,0x14(%esp)
  4073af:	89 d5                	mov    %edx,%ebp
  4073b1:	0f 84 7c 04 00 00    	je     407833 <___mingw_pformat+0x8c3>
  4073b7:	8b 44 24 20          	mov    0x20(%esp),%eax
  4073bb:	8d 4c 24 2c          	lea    0x2c(%esp),%ecx
  4073bf:	8b 54 24 24          	mov    0x24(%esp),%edx
  4073c3:	e8 b8 e9 ff ff       	call   405d80 <___pformat_int>
  4073c8:	e9 33 fc ff ff       	jmp    407000 <___mingw_pformat+0x90>
  4073cd:	8d 76 00             	lea    0x0(%esi),%esi
  4073d0:	0f b6 51 01          	movzbl 0x1(%ecx),%edx
  4073d4:	80 fa 36             	cmp    $0x36,%dl
  4073d7:	0f 84 78 03 00 00    	je     407755 <___mingw_pformat+0x7e5>
  4073dd:	80 fa 33             	cmp    $0x33,%dl
  4073e0:	0f 84 a8 02 00 00    	je     40768e <___mingw_pformat+0x71e>
  4073e6:	89 f1                	mov    %esi,%ecx
  4073e8:	c7 44 24 14 02 00 00 	movl   $0x2,0x14(%esp)
  4073ef:	00 
  4073f0:	c7 44 24 10 04 00 00 	movl   $0x4,0x10(%esp)
  4073f7:	00 
  4073f8:	e9 50 fc ff ff       	jmp    40704d <___mingw_pformat+0xdd>
  4073fd:	8d 76 00             	lea    0x0(%esi),%esi
  407400:	8b 44 24 30          	mov    0x30(%esp),%eax
  407404:	a8 04                	test   $0x4,%al
  407406:	0f 85 eb fe ff ff    	jne    4072f7 <___mingw_pformat+0x387>
  40740c:	dd 45 00             	fldl   0x0(%ebp)
  40740f:	8d 5d 08             	lea    0x8(%ebp),%ebx
  407412:	db 3c 24             	fstpt  (%esp)
  407415:	89 dd                	mov    %ebx,%ebp
  407417:	8d 44 24 2c          	lea    0x2c(%esp),%eax
  40741b:	e8 00 f4 ff ff       	call   406820 <___pformat_gfloat>
  407420:	e9 db fb ff ff       	jmp    407000 <___mingw_pformat+0x90>
  407425:	8b 44 24 30          	mov    0x30(%esp),%eax
  407429:	a8 04                	test   $0x4,%al
  40742b:	0f 85 f2 fe ff ff    	jne    407323 <___mingw_pformat+0x3b3>
  407431:	dd 45 00             	fldl   0x0(%ebp)
  407434:	8d 5d 08             	lea    0x8(%ebp),%ebx
  407437:	db 3c 24             	fstpt  (%esp)
  40743a:	89 dd                	mov    %ebx,%ebp
  40743c:	8d 44 24 2c          	lea    0x2c(%esp),%eax
  407440:	e8 fb f2 ff ff       	call   406740 <___pformat_float>
  407445:	e9 b6 fb ff ff       	jmp    407000 <___mingw_pformat+0x90>
  40744a:	8d b6 00 00 00 00    	lea    0x0(%esi),%esi
  407450:	8b 44 24 30          	mov    0x30(%esp),%eax
  407454:	a8 04                	test   $0x4,%al
  407456:	0f 85 f7 fe ff ff    	jne    407353 <___mingw_pformat+0x3e3>
  40745c:	dd 45 00             	fldl   0x0(%ebp)
  40745f:	8d 5d 08             	lea    0x8(%ebp),%ebx
  407462:	db 3c 24             	fstpt  (%esp)
  407465:	89 dd                	mov    %ebx,%ebp
  407467:	8d 44 24 2c          	lea    0x2c(%esp),%eax
  40746b:	e8 20 f2 ff ff       	call   406690 <___pformat_efloat>
  407470:	e9 8b fb ff ff       	jmp    407000 <___mingw_pformat+0x90>
  407475:	c7 44 24 38 ff ff ff 	movl   $0xffffffff,0x38(%esp)
  40747c:	ff 
  40747d:	8b 45 00             	mov    0x0(%ebp),%eax
  407480:	8d 5d 04             	lea    0x4(%ebp),%ebx
  407483:	ba 01 00 00 00       	mov    $0x1,%edx
  407488:	8d 4c 24 2c          	lea    0x2c(%esp),%ecx
  40748c:	89 dd                	mov    %ebx,%ebp
  40748e:	66 89 44 24 20       	mov    %ax,0x20(%esp)
  407493:	8d 44 24 20          	lea    0x20(%esp),%eax
  407497:	e8 94 e6 ff ff       	call   405b30 <___pformat_wputchars>
  40749c:	e9 5f fb ff ff       	jmp    407000 <___mingw_pformat+0x90>
  4074a1:	8b 44 24 30          	mov    0x30(%esp),%eax
  4074a5:	a8 04                	test   $0x4,%al
  4074a7:	0f 85 b6 fd ff ff    	jne    407263 <___mingw_pformat+0x2f3>
  4074ad:	dd 45 00             	fldl   0x0(%ebp)
  4074b0:	8d 5d 08             	lea    0x8(%ebp),%ebx
  4074b3:	db 3c 24             	fstpt  (%esp)
  4074b6:	89 dd                	mov    %ebx,%ebp
  4074b8:	8d 44 24 2c          	lea    0x2c(%esp),%eax
  4074bc:	e8 df f4 ff ff       	call   4069a0 <___pformat_xldouble>
  4074c1:	e9 3a fb ff ff       	jmp    407000 <___mingw_pformat+0x90>
  4074c6:	8b 44 24 10          	mov    0x10(%esp),%eax
  4074ca:	85 c0                	test   %eax,%eax
  4074cc:	0f 84 8e 01 00 00    	je     407660 <___mingw_pformat+0x6f0>
  4074d2:	8b 44 24 10          	mov    0x10(%esp),%eax
  4074d6:	83 f8 04             	cmp    $0x4,%eax
  4074d9:	0f 84 c7 03 00 00    	je     4078a6 <___mingw_pformat+0x936>
  4074df:	83 ea 30             	sub    $0x30,%edx
  4074e2:	80 fa 09             	cmp    $0x9,%dl
  4074e5:	0f 87 bb 03 00 00    	ja     4078a6 <___mingw_pformat+0x936>
  4074eb:	85 c0                	test   %eax,%eax
  4074ed:	0f 84 5d 01 00 00    	je     407650 <___mingw_pformat+0x6e0>
  4074f3:	83 f8 02             	cmp    $0x2,%eax
  4074f6:	0f 84 f0 01 00 00    	je     4076ec <___mingw_pformat+0x77c>
  4074fc:	8b 44 24 18          	mov    0x18(%esp),%eax
  407500:	85 c0                	test   %eax,%eax
  407502:	74 1b                	je     40751f <___mingw_pformat+0x5af>
  407504:	8b 44 24 18          	mov    0x18(%esp),%eax
  407508:	8b 00                	mov    (%eax),%eax
  40750a:	85 c0                	test   %eax,%eax
  40750c:	0f 88 e7 01 00 00    	js     4076f9 <___mingw_pformat+0x789>
  407512:	8d 04 80             	lea    (%eax,%eax,4),%eax
  407515:	8d 44 47 d0          	lea    -0x30(%edi,%eax,2),%eax
  407519:	8b 7c 24 18          	mov    0x18(%esp),%edi
  40751d:	89 07                	mov    %eax,(%edi)
  40751f:	0f b6 51 01          	movzbl 0x1(%ecx),%edx
  407523:	89 f1                	mov    %esi,%ecx
  407525:	e9 23 fb ff ff       	jmp    40704d <___mingw_pformat+0xdd>
  40752a:	8d b6 00 00 00 00    	lea    0x0(%esi),%esi
  407530:	83 7c 24 10 01       	cmpl   $0x1,0x10(%esp)
  407535:	0f 86 51 02 00 00    	jbe    40778c <___mingw_pformat+0x81c>
  40753b:	0f b6 51 01          	movzbl 0x1(%ecx),%edx
  40753f:	89 f1                	mov    %esi,%ecx
  407541:	c7 44 24 10 04 00 00 	movl   $0x4,0x10(%esp)
  407548:	00 
  407549:	e9 ff fa ff ff       	jmp    40704d <___mingw_pformat+0xdd>
  40754e:	66 90                	xchg   %ax,%ax
  407550:	8b 44 24 10          	mov    0x10(%esp),%eax
  407554:	85 c0                	test   %eax,%eax
  407556:	75 c7                	jne    40751f <___mingw_pformat+0x5af>
  407558:	81 4c 24 30 00 04 00 	orl    $0x400,0x30(%esp)
  40755f:	00 
  407560:	0f b6 51 01          	movzbl 0x1(%ecx),%edx
  407564:	89 f1                	mov    %esi,%ecx
  407566:	e9 e2 fa ff ff       	jmp    40704d <___mingw_pformat+0xdd>
  40756b:	90                   	nop
  40756c:	8d 74 26 00          	lea    0x0(%esi,%eiz,1),%esi
  407570:	8b 44 24 10          	mov    0x10(%esp),%eax
  407574:	85 c0                	test   %eax,%eax
  407576:	75 a7                	jne    40751f <___mingw_pformat+0x5af>
  407578:	81 4c 24 30 00 01 00 	orl    $0x100,0x30(%esp)
  40757f:	00 
  407580:	0f b6 51 01          	movzbl 0x1(%ecx),%edx
  407584:	89 f1                	mov    %esi,%ecx
  407586:	e9 c2 fa ff ff       	jmp    40704d <___mingw_pformat+0xdd>
  40758b:	90                   	nop
  40758c:	8d 74 26 00          	lea    0x0(%esi,%eiz,1),%esi
  407590:	8b 7c 24 18          	mov    0x18(%esp),%edi
  407594:	85 ff                	test   %edi,%edi
  407596:	74 a3                	je     40753b <___mingw_pformat+0x5cb>
  407598:	f6 44 24 10 05       	testb  $0x5,0x10(%esp)
  40759d:	0f 85 d0 00 00 00    	jne    407673 <___mingw_pformat+0x703>
  4075a3:	8b 45 00             	mov    0x0(%ebp),%eax
  4075a6:	8d 7d 04             	lea    0x4(%ebp),%edi
  4075a9:	8b 54 24 18          	mov    0x18(%esp),%edx
  4075ad:	85 c0                	test   %eax,%eax
  4075af:	89 02                	mov    %eax,(%edx)
  4075b1:	0f 88 5f 02 00 00    	js     407816 <___mingw_pformat+0x8a6>
  4075b7:	0f b6 51 01          	movzbl 0x1(%ecx),%edx
  4075bb:	89 fd                	mov    %edi,%ebp
  4075bd:	89 f1                	mov    %esi,%ecx
  4075bf:	c7 44 24 18 00 00 00 	movl   $0x0,0x18(%esp)
  4075c6:	00 
  4075c7:	e9 81 fa ff ff       	jmp    40704d <___mingw_pformat+0xdd>
  4075cc:	8d 74 26 00          	lea    0x0(%esi,%eiz,1),%esi
  4075d0:	89 f8                	mov    %edi,%eax
  4075d2:	8d 54 24 2c          	lea    0x2c(%esp),%edx
  4075d6:	e8 f5 e4 ff ff       	call   405ad0 <___pformat_putc>
  4075db:	e9 20 fa ff ff       	jmp    407000 <___mingw_pformat+0x90>
  4075e0:	8b 44 24 10          	mov    0x10(%esp),%eax
  4075e4:	85 c0                	test   %eax,%eax
  4075e6:	0f 85 33 ff ff ff    	jne    40751f <___mingw_pformat+0x5af>
  4075ec:	81 4c 24 30 00 08 00 	orl    $0x800,0x30(%esp)
  4075f3:	00 
  4075f4:	0f b6 51 01          	movzbl 0x1(%ecx),%edx
  4075f8:	89 f1                	mov    %esi,%ecx
  4075fa:	e9 4e fa ff ff       	jmp    40704d <___mingw_pformat+0xdd>
  4075ff:	90                   	nop
  407600:	8b 44 24 10          	mov    0x10(%esp),%eax
  407604:	85 c0                	test   %eax,%eax
  407606:	0f 85 13 ff ff ff    	jne    40751f <___mingw_pformat+0x5af>
  40760c:	83 4c 24 30 40       	orl    $0x40,0x30(%esp)
  407611:	0f b6 51 01          	movzbl 0x1(%ecx),%edx
  407615:	89 f1                	mov    %esi,%ecx
  407617:	e9 31 fa ff ff       	jmp    40704d <___mingw_pformat+0xdd>
  40761c:	8d 74 26 00          	lea    0x0(%esi,%eiz,1),%esi
  407620:	8b 5d 00             	mov    0x0(%ebp),%ebx
  407623:	8d 7d 04             	lea    0x4(%ebp),%edi
  407626:	85 db                	test   %ebx,%ebx
  407628:	0f 84 de 01 00 00    	je     40780c <___mingw_pformat+0x89c>
  40762e:	89 1c 24             	mov    %ebx,(%esp)
  407631:	89 fd                	mov    %edi,%ebp
  407633:	e8 10 2e 00 00       	call   40a448 <_wcslen>
  407638:	8d 4c 24 2c          	lea    0x2c(%esp),%ecx
  40763c:	89 c2                	mov    %eax,%edx
  40763e:	89 d8                	mov    %ebx,%eax
  407640:	e8 eb e4 ff ff       	call   405b30 <___pformat_wputchars>
  407645:	e9 b6 f9 ff ff       	jmp    407000 <___mingw_pformat+0x90>
  40764a:	8d b6 00 00 00 00    	lea    0x0(%esi),%esi
  407650:	c7 44 24 10 01 00 00 	movl   $0x1,0x10(%esp)
  407657:	00 
  407658:	e9 9f fe ff ff       	jmp    4074fc <___mingw_pformat+0x58c>
  40765d:	8d 76 00             	lea    0x0(%esi),%esi
  407660:	81 4c 24 30 00 02 00 	orl    $0x200,0x30(%esp)
  407667:	00 
  407668:	0f b6 51 01          	movzbl 0x1(%ecx),%edx
  40766c:	89 f1                	mov    %esi,%ecx
  40766e:	e9 da f9 ff ff       	jmp    40704d <___mingw_pformat+0xdd>
  407673:	0f b6 51 01          	movzbl 0x1(%ecx),%edx
  407677:	89 f1                	mov    %esi,%ecx
  407679:	c7 44 24 18 00 00 00 	movl   $0x0,0x18(%esp)
  407680:	00 
  407681:	c7 44 24 10 04 00 00 	movl   $0x4,0x10(%esp)
  407688:	00 
  407689:	e9 bf f9 ff ff       	jmp    40704d <___mingw_pformat+0xdd>
  40768e:	80 79 02 32          	cmpb   $0x32,0x2(%ecx)
  407692:	0f 84 f2 01 00 00    	je     40788a <___mingw_pformat+0x91a>
  407698:	89 f1                	mov    %esi,%ecx
  40769a:	ba 33 00 00 00       	mov    $0x33,%edx
  40769f:	c7 44 24 14 02 00 00 	movl   $0x2,0x14(%esp)
  4076a6:	00 
  4076a7:	c7 44 24 10 04 00 00 	movl   $0x4,0x10(%esp)
  4076ae:	00 
  4076af:	e9 9d f9 ff ff       	jmp    407051 <___mingw_pformat+0xe1>
  4076b4:	66 89 10             	mov    %dx,(%eax)
  4076b7:	83 c5 04             	add    $0x4,%ebp
  4076ba:	e9 41 f9 ff ff       	jmp    407000 <___mingw_pformat+0x90>
  4076bf:	8b 7d 00             	mov    0x0(%ebp),%edi
  4076c2:	83 c5 04             	add    $0x4,%ebp
  4076c5:	c7 44 24 24 00 00 00 	movl   $0x0,0x24(%esp)
  4076cc:	00 
  4076cd:	89 7c 24 20          	mov    %edi,0x20(%esp)
  4076d1:	e9 ec fb ff ff       	jmp    4072c2 <___mingw_pformat+0x352>
  4076d6:	8b 45 00             	mov    0x0(%ebp),%eax
  4076d9:	83 c5 04             	add    $0x4,%ebp
  4076dc:	89 44 24 20          	mov    %eax,0x20(%esp)
  4076e0:	c1 f8 1f             	sar    $0x1f,%eax
  4076e3:	89 44 24 24          	mov    %eax,0x24(%esp)
  4076e7:	e9 cb fc ff ff       	jmp    4073b7 <___mingw_pformat+0x447>
  4076ec:	c7 44 24 10 03 00 00 	movl   $0x3,0x10(%esp)
  4076f3:	00 
  4076f4:	e9 03 fe ff ff       	jmp    4074fc <___mingw_pformat+0x58c>
  4076f9:	8b 44 24 18          	mov    0x18(%esp),%eax
  4076fd:	83 ef 30             	sub    $0x30,%edi
  407700:	89 38                	mov    %edi,(%eax)
  407702:	0f b6 51 01          	movzbl 0x1(%ecx),%edx
  407706:	89 f1                	mov    %esi,%ecx
  407708:	e9 40 f9 ff ff       	jmp    40704d <___mingw_pformat+0xdd>
  40770d:	8b 4d 00             	mov    0x0(%ebp),%ecx
  407710:	83 c5 08             	add    $0x8,%ebp
  407713:	8b 5d fc             	mov    -0x4(%ebp),%ebx
  407716:	89 4c 24 20          	mov    %ecx,0x20(%esp)
  40771a:	89 5c 24 24          	mov    %ebx,0x24(%esp)
  40771e:	e9 9f fb ff ff       	jmp    4072c2 <___mingw_pformat+0x352>
  407723:	8b 45 00             	mov    0x0(%ebp),%eax
  407726:	83 c5 08             	add    $0x8,%ebp
  407729:	8b 55 fc             	mov    -0x4(%ebp),%edx
  40772c:	89 44 24 20          	mov    %eax,0x20(%esp)
  407730:	89 54 24 24          	mov    %edx,0x24(%esp)
  407734:	e9 7e fc ff ff       	jmp    4073b7 <___mingw_pformat+0x447>
  407739:	0f b6 51 02          	movzbl 0x2(%ecx),%edx
  40773d:	83 c1 02             	add    $0x2,%ecx
  407740:	c7 44 24 14 04 00 00 	movl   $0x4,0x14(%esp)
  407747:	00 
  407748:	c7 44 24 10 04 00 00 	movl   $0x4,0x10(%esp)
  40774f:	00 
  407750:	e9 f8 f8 ff ff       	jmp    40704d <___mingw_pformat+0xdd>
  407755:	80 79 02 34          	cmpb   $0x34,0x2(%ecx)
  407759:	0f 84 0f 01 00 00    	je     40786e <___mingw_pformat+0x8fe>
  40775f:	89 f1                	mov    %esi,%ecx
  407761:	ba 36 00 00 00       	mov    $0x36,%edx
  407766:	c7 44 24 14 02 00 00 	movl   $0x2,0x14(%esp)
  40776d:	00 
  40776e:	c7 44 24 10 04 00 00 	movl   $0x4,0x10(%esp)
  407775:	00 
  407776:	e9 d6 f8 ff ff       	jmp    407051 <___mingw_pformat+0xe1>
  40777b:	8b 55 00             	mov    0x0(%ebp),%edx
  40777e:	83 c5 04             	add    $0x4,%ebp
  407781:	8b 44 24 44          	mov    0x44(%esp),%eax
  407785:	88 02                	mov    %al,(%edx)
  407787:	e9 74 f8 ff ff       	jmp    407000 <___mingw_pformat+0x90>
  40778c:	8d 44 24 38          	lea    0x38(%esp),%eax
  407790:	c7 44 24 38 00 00 00 	movl   $0x0,0x38(%esp)
  407797:	00 
  407798:	0f b6 51 01          	movzbl 0x1(%ecx),%edx
  40779c:	89 f1                	mov    %esi,%ecx
  40779e:	89 44 24 18          	mov    %eax,0x18(%esp)
  4077a2:	c7 44 24 10 02 00 00 	movl   $0x2,0x10(%esp)
  4077a9:	00 
  4077aa:	e9 9e f8 ff ff       	jmp    40704d <___mingw_pformat+0xdd>
  4077af:	ba 06 00 00 00       	mov    $0x6,%edx
  4077b4:	bb 7a c1 40 00       	mov    $0x40c17a,%ebx
  4077b9:	e9 72 f9 ff ff       	jmp    407130 <___mingw_pformat+0x1c0>
  4077be:	8b 44 24 1c          	mov    0x1c(%esp),%eax
  4077c2:	c7 44 24 38 08 00 00 	movl   $0x8,0x38(%esp)
  4077c9:	00 
  4077ca:	89 44 24 30          	mov    %eax,0x30(%esp)
  4077ce:	e9 47 fa ff ff       	jmp    40721a <___mingw_pformat+0x2aa>
  4077d3:	0f b7 4c 24 20       	movzwl 0x20(%esp),%ecx
  4077d8:	89 d5                	mov    %edx,%ebp
  4077da:	c7 44 24 24 00 00 00 	movl   $0x0,0x24(%esp)
  4077e1:	00 
  4077e2:	89 4c 24 20          	mov    %ecx,0x20(%esp)
  4077e6:	e9 d7 fa ff ff       	jmp    4072c2 <___mingw_pformat+0x352>
  4077eb:	89 10                	mov    %edx,(%eax)
  4077ed:	83 c5 04             	add    $0x4,%ebp
  4077f0:	e9 0b f8 ff ff       	jmp    407000 <___mingw_pformat+0x90>
  4077f5:	0f bf 44 24 20       	movswl 0x20(%esp),%eax
  4077fa:	89 d5                	mov    %edx,%ebp
  4077fc:	89 44 24 20          	mov    %eax,0x20(%esp)
  407800:	c1 f8 1f             	sar    $0x1f,%eax
  407803:	89 44 24 24          	mov    %eax,0x24(%esp)
  407807:	e9 ab fb ff ff       	jmp    4073b7 <___mingw_pformat+0x447>
  40780c:	bb 6c c1 40 00       	mov    $0x40c16c,%ebx
  407811:	e9 18 fe ff ff       	jmp    40762e <___mingw_pformat+0x6be>
  407816:	8b 54 24 10          	mov    0x10(%esp),%edx
  40781a:	85 d2                	test   %edx,%edx
  40781c:	0f 85 99 00 00 00    	jne    4078bb <___mingw_pformat+0x94b>
  407822:	81 4c 24 30 00 04 00 	orl    $0x400,0x30(%esp)
  407829:	00 
  40782a:	f7 5c 24 34          	negl   0x34(%esp)
  40782e:	e9 84 fd ff ff       	jmp    4075b7 <___mingw_pformat+0x647>
  407833:	0f be 44 24 20       	movsbl 0x20(%esp),%eax
  407838:	89 44 24 20          	mov    %eax,0x20(%esp)
  40783c:	c1 f8 1f             	sar    $0x1f,%eax
  40783f:	89 44 24 24          	mov    %eax,0x24(%esp)
  407843:	e9 6f fb ff ff       	jmp    4073b7 <___mingw_pformat+0x447>
  407848:	0f b6 54 24 20       	movzbl 0x20(%esp),%edx
  40784d:	c7 44 24 24 00 00 00 	movl   $0x0,0x24(%esp)
  407854:	00 
  407855:	89 54 24 20          	mov    %edx,0x20(%esp)
  407859:	e9 64 fa ff ff       	jmp    4072c2 <___mingw_pformat+0x352>
  40785e:	89 d7                	mov    %edx,%edi
  407860:	83 c5 04             	add    $0x4,%ebp
  407863:	c1 ff 1f             	sar    $0x1f,%edi
  407866:	89 78 04             	mov    %edi,0x4(%eax)
  407869:	e9 92 f7 ff ff       	jmp    407000 <___mingw_pformat+0x90>
  40786e:	0f b6 51 03          	movzbl 0x3(%ecx),%edx
  407872:	83 c1 03             	add    $0x3,%ecx
  407875:	c7 44 24 14 03 00 00 	movl   $0x3,0x14(%esp)
  40787c:	00 
  40787d:	c7 44 24 10 04 00 00 	movl   $0x4,0x10(%esp)
  407884:	00 
  407885:	e9 c3 f7 ff ff       	jmp    40704d <___mingw_pformat+0xdd>
  40788a:	0f b6 51 03          	movzbl 0x3(%ecx),%edx
  40788e:	83 c1 03             	add    $0x3,%ecx
  407891:	c7 44 24 14 02 00 00 	movl   $0x2,0x14(%esp)
  407898:	00 
  407899:	c7 44 24 10 04 00 00 	movl   $0x4,0x10(%esp)
  4078a0:	00 
  4078a1:	e9 a7 f7 ff ff       	jmp    40704d <___mingw_pformat+0xdd>
  4078a6:	8d 54 24 2c          	lea    0x2c(%esp),%edx
  4078aa:	b8 25 00 00 00       	mov    $0x25,%eax
  4078af:	89 de                	mov    %ebx,%esi
  4078b1:	e8 1a e2 ff ff       	call   405ad0 <___pformat_putc>
  4078b6:	e9 45 f7 ff ff       	jmp    407000 <___mingw_pformat+0x90>
  4078bb:	c7 44 24 38 ff ff ff 	movl   $0xffffffff,0x38(%esp)
  4078c2:	ff 
  4078c3:	89 fd                	mov    %edi,%ebp
  4078c5:	0f b6 51 01          	movzbl 0x1(%ecx),%edx
  4078c9:	c7 44 24 18 00 00 00 	movl   $0x0,0x18(%esp)
  4078d0:	00 
  4078d1:	89 f1                	mov    %esi,%ecx
  4078d3:	e9 75 f7 ff ff       	jmp    40704d <___mingw_pformat+0xdd>
  4078d8:	90                   	nop
  4078d9:	90                   	nop
  4078da:	90                   	nop
  4078db:	90                   	nop
  4078dc:	90                   	nop
  4078dd:	90                   	nop
  4078de:	90                   	nop
  4078df:	90                   	nop

004078e0 <___gdtoa>:
  4078e0:	55                   	push   %ebp
  4078e1:	57                   	push   %edi
  4078e2:	56                   	push   %esi
  4078e3:	53                   	push   %ebx
  4078e4:	83 ec 6c             	sub    $0x6c,%esp
  4078e7:	8b 84 24 8c 00 00 00 	mov    0x8c(%esp),%eax
  4078ee:	8b 9c 24 8c 00 00 00 	mov    0x8c(%esp),%ebx
  4078f5:	8b 30                	mov    (%eax),%esi
  4078f7:	89 f0                	mov    %esi,%eax
  4078f9:	83 e0 cf             	and    $0xffffffcf,%eax
  4078fc:	89 03                	mov    %eax,(%ebx)
  4078fe:	89 f0                	mov    %esi,%eax
  407900:	83 e0 07             	and    $0x7,%eax
  407903:	83 f8 04             	cmp    $0x4,%eax
  407906:	0f 87 5f 14 00 00    	ja     408d6b <___gdtoa+0x148b>
  40790c:	ff 24 85 18 c3 40 00 	jmp    *0x40c318(,%eax,4)
  407913:	8b 84 24 80 00 00 00 	mov    0x80(%esp),%eax
  40791a:	31 d2                	xor    %edx,%edx
  40791c:	8b 38                	mov    (%eax),%edi
  40791e:	83 ff 20             	cmp    $0x20,%edi
  407921:	7e 0e                	jle    407931 <___gdtoa+0x51>
  407923:	b8 20 00 00 00       	mov    $0x20,%eax
  407928:	01 c0                	add    %eax,%eax
  40792a:	83 c2 01             	add    $0x1,%edx
  40792d:	39 c7                	cmp    %eax,%edi
  40792f:	7f f7                	jg     407928 <___gdtoa+0x48>
  407931:	89 14 24             	mov    %edx,(%esp)
  407934:	e8 97 1e 00 00       	call   4097d0 <___Balloc_D2A>
  407939:	8b 8c 24 88 00 00 00 	mov    0x88(%esp),%ecx
  407940:	89 c3                	mov    %eax,%ebx
  407942:	8d 47 ff             	lea    -0x1(%edi),%eax
  407945:	c1 f8 05             	sar    $0x5,%eax
  407948:	8d 2c 81             	lea    (%ecx,%eax,4),%ebp
  40794b:	8b 84 24 88 00 00 00 	mov    0x88(%esp),%eax
  407952:	8d 4b 14             	lea    0x14(%ebx),%ecx
  407955:	89 ca                	mov    %ecx,%edx
  407957:	89 4c 24 0c          	mov    %ecx,0xc(%esp)
  40795b:	90                   	nop
  40795c:	8d 74 26 00          	lea    0x0(%esi,%eiz,1),%esi
  407960:	8b 08                	mov    (%eax),%ecx
  407962:	83 c0 04             	add    $0x4,%eax
  407965:	83 c2 04             	add    $0x4,%edx
  407968:	39 c5                	cmp    %eax,%ebp
  40796a:	89 4a fc             	mov    %ecx,-0x4(%edx)
  40796d:	73 f1                	jae    407960 <___gdtoa+0x80>
  40796f:	8b 4c 24 0c          	mov    0xc(%esp),%ecx
  407973:	29 ca                	sub    %ecx,%edx
  407975:	c1 fa 02             	sar    $0x2,%edx
  407978:	eb 10                	jmp    40798a <___gdtoa+0xaa>
  40797a:	8d b6 00 00 00 00    	lea    0x0(%esi),%esi
  407980:	85 c0                	test   %eax,%eax
  407982:	0f 84 6e 04 00 00    	je     407df6 <___gdtoa+0x516>
  407988:	89 c2                	mov    %eax,%edx
  40798a:	8d 42 ff             	lea    -0x1(%edx),%eax
  40798d:	8b 2c 81             	mov    (%ecx,%eax,4),%ebp
  407990:	85 ed                	test   %ebp,%ebp
  407992:	74 ec                	je     407980 <___gdtoa+0xa0>
  407994:	0f bd 44 93 10       	bsr    0x10(%ebx,%edx,4),%eax
  407999:	89 53 10             	mov    %edx,0x10(%ebx)
  40799c:	c1 e2 05             	shl    $0x5,%edx
  40799f:	89 d5                	mov    %edx,%ebp
  4079a1:	83 f0 1f             	xor    $0x1f,%eax
  4079a4:	29 c5                	sub    %eax,%ebp
  4079a6:	89 1c 24             	mov    %ebx,(%esp)
  4079a9:	e8 72 29 00 00       	call   40a320 <___trailz_D2A>
  4079ae:	8b 8c 24 84 00 00 00 	mov    0x84(%esp),%ecx
  4079b5:	89 4c 24 20          	mov    %ecx,0x20(%esp)
  4079b9:	85 c0                	test   %eax,%eax
  4079bb:	89 44 24 5c          	mov    %eax,0x5c(%esp)
  4079bf:	0f 85 3f 04 00 00    	jne    407e04 <___gdtoa+0x524>
  4079c5:	8b 4b 10             	mov    0x10(%ebx),%ecx
  4079c8:	85 c9                	test   %ecx,%ecx
  4079ca:	0f 85 a8 00 00 00    	jne    407a78 <___gdtoa+0x198>
  4079d0:	89 1c 24             	mov    %ebx,(%esp)
  4079d3:	e8 c8 1e 00 00       	call   4098a0 <___Bfree_D2A>
  4079d8:	8b 84 24 98 00 00 00 	mov    0x98(%esp),%eax
  4079df:	c7 00 01 00 00 00    	movl   $0x1,(%eax)
  4079e5:	8b 84 24 9c 00 00 00 	mov    0x9c(%esp),%eax
  4079ec:	c7 44 24 08 01 00 00 	movl   $0x1,0x8(%esp)
  4079f3:	00 
  4079f4:	c7 04 24 15 c3 40 00 	movl   $0x40c315,(%esp)
  4079fb:	89 44 24 04          	mov    %eax,0x4(%esp)
  4079ff:	e8 3c 1a 00 00       	call   409440 <___nrv_alloc_D2A>
  407a04:	83 c4 6c             	add    $0x6c,%esp
  407a07:	5b                   	pop    %ebx
  407a08:	5e                   	pop    %esi
  407a09:	5f                   	pop    %edi
  407a0a:	5d                   	pop    %ebp
  407a0b:	c3                   	ret    
  407a0c:	8d 74 26 00          	lea    0x0(%esi,%eiz,1),%esi
  407a10:	8b 84 24 98 00 00 00 	mov    0x98(%esp),%eax
  407a17:	c7 00 00 80 ff ff    	movl   $0xffff8000,(%eax)
  407a1d:	8b 84 24 9c 00 00 00 	mov    0x9c(%esp),%eax
  407a24:	c7 44 24 08 03 00 00 	movl   $0x3,0x8(%esp)
  407a2b:	00 
  407a2c:	c7 04 24 11 c3 40 00 	movl   $0x40c311,(%esp)
  407a33:	89 44 24 04          	mov    %eax,0x4(%esp)
  407a37:	e8 04 1a 00 00       	call   409440 <___nrv_alloc_D2A>
  407a3c:	83 c4 6c             	add    $0x6c,%esp
  407a3f:	5b                   	pop    %ebx
  407a40:	5e                   	pop    %esi
  407a41:	5f                   	pop    %edi
  407a42:	5d                   	pop    %ebp
  407a43:	c3                   	ret    
  407a44:	8b 84 24 98 00 00 00 	mov    0x98(%esp),%eax
  407a4b:	c7 00 00 80 ff ff    	movl   $0xffff8000,(%eax)
  407a51:	8b 84 24 9c 00 00 00 	mov    0x9c(%esp),%eax
  407a58:	c7 44 24 08 08 00 00 	movl   $0x8,0x8(%esp)
  407a5f:	00 
  407a60:	c7 04 24 08 c3 40 00 	movl   $0x40c308,(%esp)
  407a67:	89 44 24 04          	mov    %eax,0x4(%esp)
  407a6b:	e8 d0 19 00 00       	call   409440 <___nrv_alloc_D2A>
  407a70:	83 c4 6c             	add    $0x6c,%esp
  407a73:	5b                   	pop    %ebx
  407a74:	5e                   	pop    %esi
  407a75:	5f                   	pop    %edi
  407a76:	5d                   	pop    %ebp
  407a77:	c3                   	ret    
  407a78:	8d 44 24 5c          	lea    0x5c(%esp),%eax
  407a7c:	89 44 24 04          	mov    %eax,0x4(%esp)
  407a80:	89 1c 24             	mov    %ebx,(%esp)
  407a83:	e8 68 25 00 00       	call   409ff0 <___b2d_D2A>
  407a88:	8b 44 24 20          	mov    0x20(%esp),%eax
  407a8c:	8d 54 28 ff          	lea    -0x1(%eax,%ebp,1),%edx
  407a90:	89 54 24 48          	mov    %edx,0x48(%esp)
  407a94:	89 d0                	mov    %edx,%eax
  407a96:	dd 5c 24 10          	fstpl  0x10(%esp)
  407a9a:	8b 4c 24 14          	mov    0x14(%esp),%ecx
  407a9e:	c1 f8 1f             	sar    $0x1f,%eax
  407aa1:	89 44 24 0c          	mov    %eax,0xc(%esp)
  407aa5:	31 d0                	xor    %edx,%eax
  407aa7:	2b 44 24 0c          	sub    0xc(%esp),%eax
  407aab:	81 e1 ff ff 0f 00    	and    $0xfffff,%ecx
  407ab1:	81 c9 00 00 f0 3f    	or     $0x3ff00000,%ecx
  407ab7:	89 4c 24 14          	mov    %ecx,0x14(%esp)
  407abb:	2d 35 04 00 00       	sub    $0x435,%eax
  407ac0:	dd 44 24 10          	fldl   0x10(%esp)
  407ac4:	85 c0                	test   %eax,%eax
  407ac6:	d8 25 2c c3 40 00    	fsubs  0x40c32c
  407acc:	dc 0d 30 c3 40 00    	fmull  0x40c330
  407ad2:	dc 05 38 c3 40 00    	faddl  0x40c338
  407ad8:	db 44 24 48          	fildl  0x48(%esp)
  407adc:	dc 0d 40 c3 40 00    	fmull  0x40c340
  407ae2:	de c1                	faddp  %st,%st(1)
  407ae4:	7e 10                	jle    407af6 <___gdtoa+0x216>
  407ae6:	89 44 24 48          	mov    %eax,0x48(%esp)
  407aea:	db 44 24 48          	fildl  0x48(%esp)
  407aee:	dc 0d 48 c3 40 00    	fmull  0x40c348
  407af4:	de c1                	faddp  %st,%st(1)
  407af6:	d9 7c 24 4e          	fnstcw 0x4e(%esp)
  407afa:	0f b7 44 24 4e       	movzwl 0x4e(%esp),%eax
  407aff:	b4 0c                	mov    $0xc,%ah
  407b01:	66 89 44 24 4c       	mov    %ax,0x4c(%esp)
  407b06:	d9 6c 24 4c          	fldcw  0x4c(%esp)
  407b0a:	db 54 24 0c          	fistl  0xc(%esp)
  407b0e:	d9 6c 24 4e          	fldcw  0x4e(%esp)
  407b12:	d9 ee                	fldz   
  407b14:	dd e9                	fucomp %st(1)
  407b16:	df e0                	fnstsw %ax
  407b18:	9e                   	sahf   
  407b19:	0f 87 76 07 00 00    	ja     408295 <___gdtoa+0x9b5>
  407b1f:	dd d8                	fstp   %st(0)
  407b21:	89 d0                	mov    %edx,%eax
  407b23:	c1 e0 14             	shl    $0x14,%eax
  407b26:	01 c8                	add    %ecx,%eax
  407b28:	83 7c 24 0c 16       	cmpl   $0x16,0xc(%esp)
  407b2d:	89 44 24 14          	mov    %eax,0x14(%esp)
  407b31:	c7 44 24 34 01 00 00 	movl   $0x1,0x34(%esp)
  407b38:	00 
  407b39:	77 29                	ja     407b64 <___gdtoa+0x284>
  407b3b:	8b 44 24 0c          	mov    0xc(%esp),%eax
  407b3f:	dd 04 c5 a0 c3 40 00 	fldl   0x40c3a0(,%eax,8)
  407b46:	dd 44 24 10          	fldl   0x10(%esp)
  407b4a:	d9 c9                	fxch   %st(1)
  407b4c:	da e9                	fucompp 
  407b4e:	df e0                	fnstsw %ax
  407b50:	9e                   	sahf   
  407b51:	0f 86 6d 06 00 00    	jbe    4081c4 <___gdtoa+0x8e4>
  407b57:	83 6c 24 0c 01       	subl   $0x1,0xc(%esp)
  407b5c:	c7 44 24 34 00 00 00 	movl   $0x0,0x34(%esp)
  407b63:	00 
  407b64:	89 e8                	mov    %ebp,%eax
  407b66:	29 d0                	sub    %edx,%eax
  407b68:	83 e8 01             	sub    $0x1,%eax
  407b6b:	c7 44 24 28 00 00 00 	movl   $0x0,0x28(%esp)
  407b72:	00 
  407b73:	89 44 24 1c          	mov    %eax,0x1c(%esp)
  407b77:	0f 88 05 07 00 00    	js     408282 <___gdtoa+0x9a2>
  407b7d:	8b 44 24 0c          	mov    0xc(%esp),%eax
  407b81:	85 c0                	test   %eax,%eax
  407b83:	0f 88 de 06 00 00    	js     408267 <___gdtoa+0x987>
  407b89:	01 44 24 1c          	add    %eax,0x1c(%esp)
  407b8d:	89 44 24 3c          	mov    %eax,0x3c(%esp)
  407b91:	c7 44 24 30 00 00 00 	movl   $0x0,0x30(%esp)
  407b98:	00 
  407b99:	83 bc 24 90 00 00 00 	cmpl   $0x9,0x90(%esp)
  407ba0:	09 
  407ba1:	0f 87 81 02 00 00    	ja     407e28 <___gdtoa+0x548>
  407ba7:	83 bc 24 90 00 00 00 	cmpl   $0x5,0x90(%esp)
  407bae:	05 
  407baf:	0f 8e c0 11 00 00    	jle    408d75 <___gdtoa+0x1495>
  407bb5:	83 ac 24 90 00 00 00 	subl   $0x4,0x90(%esp)
  407bbc:	04 
  407bbd:	31 c0                	xor    %eax,%eax
  407bbf:	83 bc 24 90 00 00 00 	cmpl   $0x3,0x90(%esp)
  407bc6:	03 
  407bc7:	0f 84 11 06 00 00    	je     4081de <___gdtoa+0x8fe>
  407bcd:	0f 8e 18 06 00 00    	jle    4081eb <___gdtoa+0x90b>
  407bd3:	83 bc 24 90 00 00 00 	cmpl   $0x4,0x90(%esp)
  407bda:	04 
  407bdb:	c7 44 24 40 01 00 00 	movl   $0x1,0x40(%esp)
  407be2:	00 
  407be3:	0f 84 18 06 00 00    	je     408201 <___gdtoa+0x921>
  407be9:	83 bc 24 90 00 00 00 	cmpl   $0x5,0x90(%esp)
  407bf0:	05 
  407bf1:	0f 85 3c 02 00 00    	jne    407e33 <___gdtoa+0x553>
  407bf7:	8b 4c 24 0c          	mov    0xc(%esp),%ecx
  407bfb:	03 8c 24 94 00 00 00 	add    0x94(%esp),%ecx
  407c02:	89 4c 24 44          	mov    %ecx,0x44(%esp)
  407c06:	83 c1 01             	add    $0x1,%ecx
  407c09:	85 c9                	test   %ecx,%ecx
  407c0b:	89 4c 24 18          	mov    %ecx,0x18(%esp)
  407c0f:	0f 8e e3 0a 00 00    	jle    4086f8 <___gdtoa+0xe18>
  407c15:	83 f9 0e             	cmp    $0xe,%ecx
  407c18:	0f 96 c2             	setbe  %dl
  407c1b:	21 c2                	and    %eax,%edx
  407c1d:	89 c8                	mov    %ecx,%eax
  407c1f:	89 4c 24 5c          	mov    %ecx,0x5c(%esp)
  407c23:	89 04 24             	mov    %eax,(%esp)
  407c26:	89 54 24 38          	mov    %edx,0x38(%esp)
  407c2a:	e8 d1 17 00 00       	call   409400 <___rv_alloc_D2A>
  407c2f:	8b 54 24 38          	mov    0x38(%esp),%edx
  407c33:	89 44 24 24          	mov    %eax,0x24(%esp)
  407c37:	8b 84 24 80 00 00 00 	mov    0x80(%esp),%eax
  407c3e:	8b 40 0c             	mov    0xc(%eax),%eax
  407c41:	83 e8 01             	sub    $0x1,%eax
  407c44:	89 44 24 2c          	mov    %eax,0x2c(%esp)
  407c48:	74 0f                	je     407c59 <___gdtoa+0x379>
  407c4a:	0f 88 81 05 00 00    	js     4081d1 <___gdtoa+0x8f1>
  407c50:	83 e6 08             	and    $0x8,%esi
  407c53:	0f 85 59 05 00 00    	jne    4081b2 <___gdtoa+0x8d2>
  407c59:	84 d2                	test   %dl,%dl
  407c5b:	90                   	nop
  407c5c:	8d 74 26 00          	lea    0x0(%esi,%eiz,1),%esi
  407c60:	0f 84 70 02 00 00    	je     407ed6 <___gdtoa+0x5f6>
  407c66:	8b 44 24 2c          	mov    0x2c(%esp),%eax
  407c6a:	0b 44 24 0c          	or     0xc(%esp),%eax
  407c6e:	0f 85 62 02 00 00    	jne    407ed6 <___gdtoa+0x5f6>
  407c74:	8b 44 24 34          	mov    0x34(%esp),%eax
  407c78:	c7 44 24 5c 00 00 00 	movl   $0x0,0x5c(%esp)
  407c7f:	00 
  407c80:	dd 44 24 10          	fldl   0x10(%esp)
  407c84:	85 c0                	test   %eax,%eax
  407c86:	74 0d                	je     407c95 <___gdtoa+0x3b5>
  407c88:	d9 e8                	fld1   
  407c8a:	dd e9                	fucomp %st(1)
  407c8c:	df e0                	fnstsw %ax
  407c8e:	9e                   	sahf   
  407c8f:	0f 87 e7 0d 00 00    	ja     408a7c <___gdtoa+0x119c>
  407c95:	d9 c0                	fld    %st(0)
  407c97:	8b 74 24 18          	mov    0x18(%esp),%esi
  407c9b:	d8 c1                	fadd   %st(1),%st
  407c9d:	d8 05 64 c3 40 00    	fadds  0x40c364
  407ca3:	dd 5c 24 10          	fstpl  0x10(%esp)
  407ca7:	81 6c 24 14 00 00 40 	subl   $0x3400000,0x14(%esp)
  407cae:	03 
  407caf:	85 f6                	test   %esi,%esi
  407cb1:	0f 84 e1 01 00 00    	je     407e98 <___gdtoa+0x5b8>
  407cb7:	8b 54 24 18          	mov    0x18(%esp),%edx
  407cbb:	d9 c0                	fld    %st(0)
  407cbd:	c7 44 24 38 00 00 00 	movl   $0x0,0x38(%esp)
  407cc4:	00 
  407cc5:	8b 4c 24 40          	mov    0x40(%esp),%ecx
  407cc9:	85 c9                	test   %ecx,%ecx
  407ccb:	0f 84 58 0a 00 00    	je     408729 <___gdtoa+0xe49>
  407cd1:	d9 05 6c c3 40 00    	flds   0x40c36c
  407cd7:	dc 34 d5 98 c3 40 00 	fdivl  0x40c398(,%edx,8)
  407cde:	d9 7c 24 4e          	fnstcw 0x4e(%esp)
  407ce2:	c7 44 24 5c 00 00 00 	movl   $0x0,0x5c(%esp)
  407ce9:	00 
  407cea:	0f b7 44 24 4e       	movzwl 0x4e(%esp),%eax
  407cef:	b4 0c                	mov    $0xc,%ah
  407cf1:	66 89 44 24 4c       	mov    %ax,0x4c(%esp)
  407cf6:	8b 44 24 24          	mov    0x24(%esp),%eax
  407cfa:	8d 70 01             	lea    0x1(%eax),%esi
  407cfd:	dc 64 24 10          	fsubl  0x10(%esp)
  407d01:	d9 c9                	fxch   %st(1)
  407d03:	d9 6c 24 4c          	fldcw  0x4c(%esp)
  407d07:	db 54 24 48          	fistl  0x48(%esp)
  407d0b:	d9 6c 24 4e          	fldcw  0x4e(%esp)
  407d0f:	8b 4c 24 48          	mov    0x48(%esp),%ecx
  407d13:	89 4c 24 48          	mov    %ecx,0x48(%esp)
  407d17:	83 c1 30             	add    $0x30,%ecx
  407d1a:	db 44 24 48          	fildl  0x48(%esp)
  407d1e:	de e9                	fsubrp %st,%st(1)
  407d20:	d9 c9                	fxch   %st(1)
  407d22:	88 08                	mov    %cl,(%eax)
  407d24:	dd e1                	fucom  %st(1)
  407d26:	df e0                	fnstsw %ax
  407d28:	9e                   	sahf   
  407d29:	0f 87 9a 00 00 00    	ja     407dc9 <___gdtoa+0x4e9>
  407d2f:	d9 c1                	fld    %st(1)
  407d31:	d8 2d 58 c3 40 00    	fsubrs 0x40c358
  407d37:	d9 c9                	fxch   %st(1)
  407d39:	dd e1                	fucom  %st(1)
  407d3b:	df e0                	fnstsw %ax
  407d3d:	dd d9                	fstp   %st(1)
  407d3f:	9e                   	sahf   
  407d40:	0f 87 f1 0a 00 00    	ja     408837 <___gdtoa+0xf57>
  407d46:	8b 44 24 5c          	mov    0x5c(%esp),%eax
  407d4a:	83 c0 01             	add    $0x1,%eax
  407d4d:	39 c2                	cmp    %eax,%edx
  407d4f:	89 44 24 5c          	mov    %eax,0x5c(%esp)
  407d53:	0f 8e 69 01 00 00    	jle    407ec2 <___gdtoa+0x5e2>
  407d59:	d9 05 5c c3 40 00    	flds   0x40c35c
  407d5f:	eb 2e                	jmp    407d8f <___gdtoa+0x4af>
  407d61:	d9 c1                	fld    %st(1)
  407d63:	d8 2d 58 c3 40 00    	fsubrs 0x40c358
  407d69:	d9 c9                	fxch   %st(1)
  407d6b:	dd e1                	fucom  %st(1)
  407d6d:	df e0                	fnstsw %ax
  407d6f:	dd d9                	fstp   %st(1)
  407d71:	9e                   	sahf   
  407d72:	0f 87 c7 0a 00 00    	ja     40883f <___gdtoa+0xf5f>
  407d78:	8b 44 24 5c          	mov    0x5c(%esp),%eax
  407d7c:	83 c0 01             	add    $0x1,%eax
  407d7f:	39 c2                	cmp    %eax,%edx
  407d81:	89 44 24 5c          	mov    %eax,0x5c(%esp)
  407d85:	0f 8e 3d 01 00 00    	jle    407ec8 <___gdtoa+0x5e8>
  407d8b:	d9 c9                	fxch   %st(1)
  407d8d:	d9 ca                	fxch   %st(2)
  407d8f:	dc c9                	fmul   %st,%st(1)
  407d91:	83 c6 01             	add    $0x1,%esi
  407d94:	dc ca                	fmul   %st,%st(2)
  407d96:	d9 ca                	fxch   %st(2)
  407d98:	d9 6c 24 4c          	fldcw  0x4c(%esp)
  407d9c:	db 54 24 48          	fistl  0x48(%esp)
  407da0:	d9 6c 24 4e          	fldcw  0x4e(%esp)
  407da4:	8b 44 24 48          	mov    0x48(%esp),%eax
  407da8:	89 44 24 48          	mov    %eax,0x48(%esp)
  407dac:	8d 48 30             	lea    0x30(%eax),%ecx
  407daf:	db 44 24 48          	fildl  0x48(%esp)
  407db3:	de e9                	fsubrp %st,%st(1)
  407db5:	d9 c9                	fxch   %st(1)
  407db7:	88 4e ff             	mov    %cl,-0x1(%esi)
  407dba:	dd e1                	fucom  %st(1)
  407dbc:	df e0                	fnstsw %ax
  407dbe:	9e                   	sahf   
  407dbf:	76 a0                	jbe    407d61 <___gdtoa+0x481>
  407dc1:	dd d8                	fstp   %st(0)
  407dc3:	dd d9                	fstp   %st(1)
  407dc5:	dd d9                	fstp   %st(1)
  407dc7:	eb 04                	jmp    407dcd <___gdtoa+0x4ed>
  407dc9:	dd d8                	fstp   %st(0)
  407dcb:	dd d9                	fstp   %st(1)
  407dcd:	d9 ee                	fldz   
  407dcf:	d9 c9                	fxch   %st(1)
  407dd1:	da e9                	fucompp 
  407dd3:	df e0                	fnstsw %ax
  407dd5:	9e                   	sahf   
  407dd6:	8b 44 24 38          	mov    0x38(%esp),%eax
  407dda:	7a 06                	jp     407de2 <___gdtoa+0x502>
  407ddc:	0f 84 ad 05 00 00    	je     40838f <___gdtoa+0xaaf>
  407de2:	83 c0 01             	add    $0x1,%eax
  407de5:	89 44 24 0c          	mov    %eax,0xc(%esp)
  407de9:	c7 44 24 18 10 00 00 	movl   $0x10,0x18(%esp)
  407df0:	00 
  407df1:	e9 77 03 00 00       	jmp    40816d <___gdtoa+0x88d>
  407df6:	c7 43 10 00 00 00 00 	movl   $0x0,0x10(%ebx)
  407dfd:	31 ed                	xor    %ebp,%ebp
  407dff:	e9 a2 fb ff ff       	jmp    4079a6 <___gdtoa+0xc6>
  407e04:	89 44 24 04          	mov    %eax,0x4(%esp)
  407e08:	89 1c 24             	mov    %ebx,(%esp)
  407e0b:	e8 f0 23 00 00       	call   40a200 <___rshift_D2A>
  407e10:	8b 44 24 5c          	mov    0x5c(%esp),%eax
  407e14:	8b 8c 24 84 00 00 00 	mov    0x84(%esp),%ecx
  407e1b:	29 c5                	sub    %eax,%ebp
  407e1d:	01 c1                	add    %eax,%ecx
  407e1f:	89 4c 24 20          	mov    %ecx,0x20(%esp)
  407e23:	e9 9d fb ff ff       	jmp    4079c5 <___gdtoa+0xe5>
  407e28:	c7 84 24 90 00 00 00 	movl   $0x0,0x90(%esp)
  407e2f:	00 00 00 00 
  407e33:	89 7c 24 48          	mov    %edi,0x48(%esp)
  407e37:	31 d2                	xor    %edx,%edx
  407e39:	db 44 24 48          	fildl  0x48(%esp)
  407e3d:	dc 0d 50 c3 40 00    	fmull  0x40c350
  407e43:	c7 44 24 40 01 00 00 	movl   $0x1,0x40(%esp)
  407e4a:	00 
  407e4b:	c7 44 24 44 ff ff ff 	movl   $0xffffffff,0x44(%esp)
  407e52:	ff 
  407e53:	c7 44 24 18 ff ff ff 	movl   $0xffffffff,0x18(%esp)
  407e5a:	ff 
  407e5b:	c7 84 24 94 00 00 00 	movl   $0x0,0x94(%esp)
  407e62:	00 00 00 00 
  407e66:	d9 6c 24 4c          	fldcw  0x4c(%esp)
  407e6a:	db 5c 24 48          	fistpl 0x48(%esp)
  407e6e:	d9 6c 24 4e          	fldcw  0x4e(%esp)
  407e72:	8b 44 24 48          	mov    0x48(%esp),%eax
  407e76:	83 c0 03             	add    $0x3,%eax
  407e79:	89 44 24 5c          	mov    %eax,0x5c(%esp)
  407e7d:	e9 a1 fd ff ff       	jmp    407c23 <___gdtoa+0x343>
  407e82:	d9 c0                	fld    %st(0)
  407e84:	d8 c1                	fadd   %st(1),%st
  407e86:	d8 05 64 c3 40 00    	fadds  0x40c364
  407e8c:	dd 5c 24 10          	fstpl  0x10(%esp)
  407e90:	81 6c 24 14 00 00 40 	subl   $0x3400000,0x14(%esp)
  407e97:	03 
  407e98:	d9 c0                	fld    %st(0)
  407e9a:	d8 25 68 c3 40 00    	fsubs  0x40c368
  407ea0:	dd 44 24 10          	fldl   0x10(%esp)
  407ea4:	d9 c9                	fxch   %st(1)
  407ea6:	dd e1                	fucom  %st(1)
  407ea8:	df e0                	fnstsw %ax
  407eaa:	9e                   	sahf   
  407eab:	0f 87 52 09 00 00    	ja     408803 <___gdtoa+0xf23>
  407eb1:	d9 c9                	fxch   %st(1)
  407eb3:	d9 e0                	fchs   
  407eb5:	da e9                	fucompp 
  407eb7:	df e0                	fnstsw %ax
  407eb9:	9e                   	sahf   
  407eba:	0f 87 77 03 00 00    	ja     408237 <___gdtoa+0x957>
  407ec0:	eb 10                	jmp    407ed2 <___gdtoa+0x5f2>
  407ec2:	dd d8                	fstp   %st(0)
  407ec4:	dd d8                	fstp   %st(0)
  407ec6:	eb 0a                	jmp    407ed2 <___gdtoa+0x5f2>
  407ec8:	dd d8                	fstp   %st(0)
  407eca:	dd d8                	fstp   %st(0)
  407ecc:	dd d8                	fstp   %st(0)
  407ece:	eb 02                	jmp    407ed2 <___gdtoa+0x5f2>
  407ed0:	dd d8                	fstp   %st(0)
  407ed2:	dd 5c 24 10          	fstpl  0x10(%esp)
  407ed6:	83 7c 24 0c 0e       	cmpl   $0xe,0xc(%esp)
  407edb:	0f 8e df 01 00 00    	jle    4080c0 <___gdtoa+0x7e0>
  407ee1:	8b 44 24 40          	mov    0x40(%esp),%eax
  407ee5:	85 c0                	test   %eax,%eax
  407ee7:	0f 84 c3 03 00 00    	je     4082b0 <___gdtoa+0x9d0>
  407eed:	83 bc 24 90 00 00 00 	cmpl   $0x1,0x90(%esp)
  407ef4:	01 
  407ef5:	0f 8e 93 09 00 00    	jle    40888e <___gdtoa+0xfae>
  407efb:	8b 44 24 18          	mov    0x18(%esp),%eax
  407eff:	83 e8 01             	sub    $0x1,%eax
  407f02:	39 44 24 30          	cmp    %eax,0x30(%esp)
  407f06:	0f 8c 08 08 00 00    	jl     408714 <___gdtoa+0xe34>
  407f0c:	8b 7c 24 30          	mov    0x30(%esp),%edi
  407f10:	29 c7                	sub    %eax,%edi
  407f12:	8b 44 24 18          	mov    0x18(%esp),%eax
  407f16:	85 c0                	test   %eax,%eax
  407f18:	0f 88 15 0a 00 00    	js     408933 <___gdtoa+0x1053>
  407f1e:	8b 74 24 28          	mov    0x28(%esp),%esi
  407f22:	89 44 24 5c          	mov    %eax,0x5c(%esp)
  407f26:	c7 04 24 01 00 00 00 	movl   $0x1,(%esp)
  407f2d:	01 44 24 28          	add    %eax,0x28(%esp)
  407f31:	01 44 24 1c          	add    %eax,0x1c(%esp)
  407f35:	e8 b6 1a 00 00       	call   4099f0 <___i2b_D2A>
  407f3a:	89 44 24 20          	mov    %eax,0x20(%esp)
  407f3e:	8b 44 24 1c          	mov    0x1c(%esp),%eax
  407f42:	85 c0                	test   %eax,%eax
  407f44:	7e 1e                	jle    407f64 <___gdtoa+0x684>
  407f46:	85 f6                	test   %esi,%esi
  407f48:	7e 1a                	jle    407f64 <___gdtoa+0x684>
  407f4a:	8b 4c 24 1c          	mov    0x1c(%esp),%ecx
  407f4e:	39 f1                	cmp    %esi,%ecx
  407f50:	89 c8                	mov    %ecx,%eax
  407f52:	7e 02                	jle    407f56 <___gdtoa+0x676>
  407f54:	89 f0                	mov    %esi,%eax
  407f56:	29 44 24 28          	sub    %eax,0x28(%esp)
  407f5a:	29 c6                	sub    %eax,%esi
  407f5c:	29 44 24 1c          	sub    %eax,0x1c(%esp)
  407f60:	89 44 24 5c          	mov    %eax,0x5c(%esp)
  407f64:	8b 4c 24 30          	mov    0x30(%esp),%ecx
  407f68:	85 c9                	test   %ecx,%ecx
  407f6a:	7e 4e                	jle    407fba <___gdtoa+0x6da>
  407f6c:	8b 54 24 40          	mov    0x40(%esp),%edx
  407f70:	85 d2                	test   %edx,%edx
  407f72:	0f 84 dd 05 00 00    	je     408555 <___gdtoa+0xc75>
  407f78:	85 ff                	test   %edi,%edi
  407f7a:	7e 32                	jle    407fae <___gdtoa+0x6ce>
  407f7c:	8b 44 24 20          	mov    0x20(%esp),%eax
  407f80:	89 7c 24 04          	mov    %edi,0x4(%esp)
  407f84:	89 04 24             	mov    %eax,(%esp)
  407f87:	e8 f4 1b 00 00       	call   409b80 <___pow5mult_D2A>
  407f8c:	89 5c 24 04          	mov    %ebx,0x4(%esp)
  407f90:	89 04 24             	mov    %eax,(%esp)
  407f93:	89 44 24 20          	mov    %eax,0x20(%esp)
  407f97:	e8 84 1a 00 00       	call   409a20 <___mult_D2A>
  407f9c:	89 1c 24             	mov    %ebx,(%esp)
  407f9f:	89 44 24 10          	mov    %eax,0x10(%esp)
  407fa3:	e8 f8 18 00 00       	call   4098a0 <___Bfree_D2A>
  407fa8:	8b 44 24 10          	mov    0x10(%esp),%eax
  407fac:	89 c3                	mov    %eax,%ebx
  407fae:	8b 44 24 30          	mov    0x30(%esp),%eax
  407fb2:	29 f8                	sub    %edi,%eax
  407fb4:	0f 85 9f 05 00 00    	jne    408559 <___gdtoa+0xc79>
  407fba:	c7 04 24 01 00 00 00 	movl   $0x1,(%esp)
  407fc1:	e8 2a 1a 00 00       	call   4099f0 <___i2b_D2A>
  407fc6:	89 c7                	mov    %eax,%edi
  407fc8:	8b 44 24 3c          	mov    0x3c(%esp),%eax
  407fcc:	85 c0                	test   %eax,%eax
  407fce:	7e 0e                	jle    407fde <___gdtoa+0x6fe>
  407fd0:	89 3c 24             	mov    %edi,(%esp)
  407fd3:	89 44 24 04          	mov    %eax,0x4(%esp)
  407fd7:	e8 a4 1b 00 00       	call   409b80 <___pow5mult_D2A>
  407fdc:	89 c7                	mov    %eax,%edi
  407fde:	83 bc 24 90 00 00 00 	cmpl   $0x1,0x90(%esp)
  407fe5:	01 
  407fe6:	c7 44 24 10 00 00 00 	movl   $0x0,0x10(%esp)
  407fed:	00 
  407fee:	0f 8e 8f 06 00 00    	jle    408683 <___gdtoa+0xda3>
  407ff4:	8b 44 24 3c          	mov    0x3c(%esp),%eax
  407ff8:	bd 1f 00 00 00       	mov    $0x1f,%ebp
  407ffd:	85 c0                	test   %eax,%eax
  407fff:	74 0b                	je     40800c <___gdtoa+0x72c>
  408001:	8b 47 10             	mov    0x10(%edi),%eax
  408004:	0f bd 6c 87 10       	bsr    0x10(%edi,%eax,4),%ebp
  408009:	83 f5 1f             	xor    $0x1f,%ebp
  40800c:	2b 6c 24 1c          	sub    0x1c(%esp),%ebp
  408010:	8b 54 24 28          	mov    0x28(%esp),%edx
  408014:	83 ed 04             	sub    $0x4,%ebp
  408017:	83 e5 1f             	and    $0x1f,%ebp
  40801a:	01 ea                	add    %ebp,%edx
  40801c:	89 e8                	mov    %ebp,%eax
  40801e:	85 d2                	test   %edx,%edx
  408020:	89 6c 24 5c          	mov    %ebp,0x5c(%esp)
  408024:	7e 12                	jle    408038 <___gdtoa+0x758>
  408026:	89 1c 24             	mov    %ebx,(%esp)
  408029:	89 54 24 04          	mov    %edx,0x4(%esp)
  40802d:	e8 de 1c 00 00       	call   409d10 <___lshift_D2A>
  408032:	89 c3                	mov    %eax,%ebx
  408034:	8b 44 24 5c          	mov    0x5c(%esp),%eax
  408038:	03 44 24 1c          	add    0x1c(%esp),%eax
  40803c:	85 c0                	test   %eax,%eax
  40803e:	7e 0e                	jle    40804e <___gdtoa+0x76e>
  408040:	89 3c 24             	mov    %edi,(%esp)
  408043:	89 44 24 04          	mov    %eax,0x4(%esp)
  408047:	e8 c4 1c 00 00       	call   409d10 <___lshift_D2A>
  40804c:	89 c7                	mov    %eax,%edi
  40804e:	8b 44 24 34          	mov    0x34(%esp),%eax
  408052:	85 c0                	test   %eax,%eax
  408054:	0f 85 12 05 00 00    	jne    40856c <___gdtoa+0xc8c>
  40805a:	83 bc 24 90 00 00 00 	cmpl   $0x2,0x90(%esp)
  408061:	02 
  408062:	0f 8e 3b 03 00 00    	jle    4083a3 <___gdtoa+0xac3>
  408068:	8b 44 24 18          	mov    0x18(%esp),%eax
  40806c:	85 c0                	test   %eax,%eax
  40806e:	0f 8f 2f 03 00 00    	jg     4083a3 <___gdtoa+0xac3>
  408074:	8b 44 24 18          	mov    0x18(%esp),%eax
  408078:	85 c0                	test   %eax,%eax
  40807a:	0f 85 c7 01 00 00    	jne    408247 <___gdtoa+0x967>
  408080:	89 3c 24             	mov    %edi,(%esp)
  408083:	c7 44 24 08 00 00 00 	movl   $0x0,0x8(%esp)
  40808a:	00 
  40808b:	c7 44 24 04 05 00 00 	movl   $0x5,0x4(%esp)
  408092:	00 
  408093:	e8 78 18 00 00       	call   409910 <___multadd_D2A>
  408098:	89 1c 24             	mov    %ebx,(%esp)
  40809b:	89 44 24 04          	mov    %eax,0x4(%esp)
  40809f:	89 c7                	mov    %eax,%edi
  4080a1:	e8 7a 1d 00 00       	call   409e20 <___cmp_D2A>
  4080a6:	85 c0                	test   %eax,%eax
  4080a8:	0f 8e 99 01 00 00    	jle    408247 <___gdtoa+0x967>
  4080ae:	8b 44 24 0c          	mov    0xc(%esp),%eax
  4080b2:	83 c0 02             	add    $0x2,%eax
  4080b5:	89 44 24 0c          	mov    %eax,0xc(%esp)
  4080b9:	eb 72                	jmp    40812d <___gdtoa+0x84d>
  4080bb:	90                   	nop
  4080bc:	8d 74 26 00          	lea    0x0(%esi,%eiz,1),%esi
  4080c0:	8b 44 24 20          	mov    0x20(%esp),%eax
  4080c4:	85 c0                	test   %eax,%eax
  4080c6:	0f 88 15 fe ff ff    	js     407ee1 <___gdtoa+0x601>
  4080cc:	8b 44 24 0c          	mov    0xc(%esp),%eax
  4080d0:	dd 04 c5 a0 c3 40 00 	fldl   0x40c3a0(,%eax,8)
  4080d7:	8b 44 24 18          	mov    0x18(%esp),%eax
  4080db:	85 c0                	test   %eax,%eax
  4080dd:	0f 8f e2 01 00 00    	jg     4082c5 <___gdtoa+0x9e5>
  4080e3:	8b 84 24 94 00 00 00 	mov    0x94(%esp),%eax
  4080ea:	c1 e8 1f             	shr    $0x1f,%eax
  4080ed:	84 c0                	test   %al,%al
  4080ef:	0f 84 d0 01 00 00    	je     4082c5 <___gdtoa+0x9e5>
  4080f5:	8b 44 24 18          	mov    0x18(%esp),%eax
  4080f9:	85 c0                	test   %eax,%eax
  4080fb:	0f 85 3a 01 00 00    	jne    40823b <___gdtoa+0x95b>
  408101:	d8 0d 68 c3 40 00    	fmuls  0x40c368
  408107:	dd 44 24 10          	fldl   0x10(%esp)
  40810b:	d9 c9                	fxch   %st(1)
  40810d:	da e9                	fucompp 
  40810f:	df e0                	fnstsw %ax
  408111:	9e                   	sahf   
  408112:	0f 83 25 01 00 00    	jae    40823d <___gdtoa+0x95d>
  408118:	8b 44 24 0c          	mov    0xc(%esp),%eax
  40811c:	31 ff                	xor    %edi,%edi
  40811e:	c7 44 24 20 00 00 00 	movl   $0x0,0x20(%esp)
  408125:	00 
  408126:	83 c0 02             	add    $0x2,%eax
  408129:	89 44 24 0c          	mov    %eax,0xc(%esp)
  40812d:	8b 44 24 24          	mov    0x24(%esp),%eax
  408131:	31 d2                	xor    %edx,%edx
  408133:	c7 44 24 18 20 00 00 	movl   $0x20,0x18(%esp)
  40813a:	00 
  40813b:	8d 70 01             	lea    0x1(%eax),%esi
  40813e:	c6 00 31             	movb   $0x31,(%eax)
  408141:	89 3c 24             	mov    %edi,(%esp)
  408144:	89 54 24 10          	mov    %edx,0x10(%esp)
  408148:	e8 53 17 00 00       	call   4098a0 <___Bfree_D2A>
  40814d:	8b 44 24 20          	mov    0x20(%esp),%eax
  408151:	85 c0                	test   %eax,%eax
  408153:	74 18                	je     40816d <___gdtoa+0x88d>
  408155:	8b 54 24 10          	mov    0x10(%esp),%edx
  408159:	39 c2                	cmp    %eax,%edx
  40815b:	0f 85 dd 03 00 00    	jne    40853e <___gdtoa+0xc5e>
  408161:	8b 44 24 20          	mov    0x20(%esp),%eax
  408165:	89 04 24             	mov    %eax,(%esp)
  408168:	e8 33 17 00 00       	call   4098a0 <___Bfree_D2A>
  40816d:	89 1c 24             	mov    %ebx,(%esp)
  408170:	e8 2b 17 00 00       	call   4098a0 <___Bfree_D2A>
  408175:	8b 84 24 98 00 00 00 	mov    0x98(%esp),%eax
  40817c:	8b 7c 24 0c          	mov    0xc(%esp),%edi
  408180:	c6 06 00             	movb   $0x0,(%esi)
  408183:	89 38                	mov    %edi,(%eax)
  408185:	8b 84 24 9c 00 00 00 	mov    0x9c(%esp),%eax
  40818c:	85 c0                	test   %eax,%eax
  40818e:	74 09                	je     408199 <___gdtoa+0x8b9>
  408190:	8b 84 24 9c 00 00 00 	mov    0x9c(%esp),%eax
  408197:	89 30                	mov    %esi,(%eax)
  408199:	8b 84 24 8c 00 00 00 	mov    0x8c(%esp),%eax
  4081a0:	8b 7c 24 18          	mov    0x18(%esp),%edi
  4081a4:	09 38                	or     %edi,(%eax)
  4081a6:	8b 44 24 24          	mov    0x24(%esp),%eax
  4081aa:	83 c4 6c             	add    $0x6c,%esp
  4081ad:	5b                   	pop    %ebx
  4081ae:	5e                   	pop    %esi
  4081af:	5f                   	pop    %edi
  4081b0:	5d                   	pop    %ebp
  4081b1:	c3                   	ret    
  4081b2:	b8 03 00 00 00       	mov    $0x3,%eax
  4081b7:	2b 44 24 2c          	sub    0x2c(%esp),%eax
  4081bb:	89 44 24 2c          	mov    %eax,0x2c(%esp)
  4081bf:	e9 95 fa ff ff       	jmp    407c59 <___gdtoa+0x379>
  4081c4:	c7 44 24 34 00 00 00 	movl   $0x0,0x34(%esp)
  4081cb:	00 
  4081cc:	e9 93 f9 ff ff       	jmp    407b64 <___gdtoa+0x284>
  4081d1:	c7 44 24 2c 02 00 00 	movl   $0x2,0x2c(%esp)
  4081d8:	00 
  4081d9:	e9 72 fa ff ff       	jmp    407c50 <___gdtoa+0x370>
  4081de:	c7 44 24 40 00 00 00 	movl   $0x0,0x40(%esp)
  4081e5:	00 
  4081e6:	e9 0c fa ff ff       	jmp    407bf7 <___gdtoa+0x317>
  4081eb:	83 bc 24 90 00 00 00 	cmpl   $0x2,0x90(%esp)
  4081f2:	02 
  4081f3:	c7 44 24 40 00 00 00 	movl   $0x0,0x40(%esp)
  4081fa:	00 
  4081fb:	0f 85 32 fc ff ff    	jne    407e33 <___gdtoa+0x553>
  408201:	8b 94 24 94 00 00 00 	mov    0x94(%esp),%edx
  408208:	85 d2                	test   %edx,%edx
  40820a:	0f 8e d3 04 00 00    	jle    4086e3 <___gdtoa+0xe03>
  408210:	83 bc 24 94 00 00 00 	cmpl   $0xe,0x94(%esp)
  408217:	0e 
  408218:	0f 96 c2             	setbe  %dl
  40821b:	8b 8c 24 94 00 00 00 	mov    0x94(%esp),%ecx
  408222:	21 c2                	and    %eax,%edx
  408224:	89 4c 24 5c          	mov    %ecx,0x5c(%esp)
  408228:	89 c8                	mov    %ecx,%eax
  40822a:	89 4c 24 44          	mov    %ecx,0x44(%esp)
  40822e:	89 4c 24 18          	mov    %ecx,0x18(%esp)
  408232:	e9 ec f9 ff ff       	jmp    407c23 <___gdtoa+0x343>
  408237:	dd d8                	fstp   %st(0)
  408239:	eb 02                	jmp    40823d <___gdtoa+0x95d>
  40823b:	dd d8                	fstp   %st(0)
  40823d:	31 ff                	xor    %edi,%edi
  40823f:	c7 44 24 20 00 00 00 	movl   $0x0,0x20(%esp)
  408246:	00 
  408247:	8b 84 24 94 00 00 00 	mov    0x94(%esp),%eax
  40824e:	31 d2                	xor    %edx,%edx
  408250:	8b 74 24 24          	mov    0x24(%esp),%esi
  408254:	c7 44 24 18 10 00 00 	movl   $0x10,0x18(%esp)
  40825b:	00 
  40825c:	f7 d8                	neg    %eax
  40825e:	89 44 24 0c          	mov    %eax,0xc(%esp)
  408262:	e9 da fe ff ff       	jmp    408141 <___gdtoa+0x861>
  408267:	8b 44 24 0c          	mov    0xc(%esp),%eax
  40826b:	29 44 24 28          	sub    %eax,0x28(%esp)
  40826f:	c7 44 24 3c 00 00 00 	movl   $0x0,0x3c(%esp)
  408276:	00 
  408277:	f7 d8                	neg    %eax
  408279:	89 44 24 30          	mov    %eax,0x30(%esp)
  40827d:	e9 17 f9 ff ff       	jmp    407b99 <___gdtoa+0x2b9>
  408282:	f7 d8                	neg    %eax
  408284:	89 44 24 28          	mov    %eax,0x28(%esp)
  408288:	c7 44 24 1c 00 00 00 	movl   $0x0,0x1c(%esp)
  40828f:	00 
  408290:	e9 e8 f8 ff ff       	jmp    407b7d <___gdtoa+0x29d>
  408295:	db 44 24 0c          	fildl  0xc(%esp)
  408299:	da e9                	fucompp 
  40829b:	df e0                	fnstsw %ax
  40829d:	9e                   	sahf   
  40829e:	7a 06                	jp     4082a6 <___gdtoa+0x9c6>
  4082a0:	0f 84 7b f8 ff ff    	je     407b21 <___gdtoa+0x241>
  4082a6:	83 6c 24 0c 01       	subl   $0x1,0xc(%esp)
  4082ab:	e9 71 f8 ff ff       	jmp    407b21 <___gdtoa+0x241>
  4082b0:	8b 7c 24 30          	mov    0x30(%esp),%edi
  4082b4:	8b 74 24 28          	mov    0x28(%esp),%esi
  4082b8:	c7 44 24 20 00 00 00 	movl   $0x0,0x20(%esp)
  4082bf:	00 
  4082c0:	e9 79 fc ff ff       	jmp    407f3e <___gdtoa+0x65e>
  4082c5:	dd 44 24 10          	fldl   0x10(%esp)
  4082c9:	d9 c0                	fld    %st(0)
  4082cb:	8b 7c 24 24          	mov    0x24(%esp),%edi
  4082cf:	d8 f2                	fdiv   %st(2),%st
  4082d1:	d9 7c 24 4e          	fnstcw 0x4e(%esp)
  4082d5:	c7 44 24 5c 01 00 00 	movl   $0x1,0x5c(%esp)
  4082dc:	00 
  4082dd:	8d 77 01             	lea    0x1(%edi),%esi
  4082e0:	0f b7 44 24 4e       	movzwl 0x4e(%esp),%eax
  4082e5:	b4 0c                	mov    $0xc,%ah
  4082e7:	66 89 44 24 4c       	mov    %ax,0x4c(%esp)
  4082ec:	d9 6c 24 4c          	fldcw  0x4c(%esp)
  4082f0:	db 5c 24 48          	fistpl 0x48(%esp)
  4082f4:	d9 6c 24 4e          	fldcw  0x4e(%esp)
  4082f8:	8b 4c 24 48          	mov    0x48(%esp),%ecx
  4082fc:	89 4c 24 48          	mov    %ecx,0x48(%esp)
  408300:	8d 41 30             	lea    0x30(%ecx),%eax
  408303:	db 44 24 48          	fildl  0x48(%esp)
  408307:	d8 ca                	fmul   %st(2),%st
  408309:	88 07                	mov    %al,(%edi)
  40830b:	de e9                	fsubrp %st,%st(1)
  40830d:	d9 ee                	fldz   
  40830f:	d9 c9                	fxch   %st(1)
  408311:	dd e1                	fucom  %st(1)
  408313:	df e0                	fnstsw %ax
  408315:	dd d9                	fstp   %st(1)
  408317:	9e                   	sahf   
  408318:	0f 8b 52 09 00 00    	jnp    408c70 <___gdtoa+0x1390>
  40831e:	8b 44 24 5c          	mov    0x5c(%esp),%eax
  408322:	39 44 24 18          	cmp    %eax,0x18(%esp)
  408326:	0f 84 93 03 00 00    	je     4086bf <___gdtoa+0xddf>
  40832c:	d9 05 5c c3 40 00    	flds   0x40c35c
  408332:	8b 54 24 18          	mov    0x18(%esp),%edx
  408336:	eb 0c                	jmp    408344 <___gdtoa+0xa64>
  408338:	8b 44 24 5c          	mov    0x5c(%esp),%eax
  40833c:	39 c2                	cmp    %eax,%edx
  40833e:	0f 84 79 03 00 00    	je     4086bd <___gdtoa+0xddd>
  408344:	83 c0 01             	add    $0x1,%eax
  408347:	dc c9                	fmul   %st,%st(1)
  408349:	83 c6 01             	add    $0x1,%esi
  40834c:	89 44 24 5c          	mov    %eax,0x5c(%esp)
  408350:	d9 c1                	fld    %st(1)
  408352:	d8 f3                	fdiv   %st(3),%st
  408354:	d9 6c 24 4c          	fldcw  0x4c(%esp)
  408358:	db 5c 24 48          	fistpl 0x48(%esp)
  40835c:	d9 6c 24 4e          	fldcw  0x4e(%esp)
  408360:	8b 4c 24 48          	mov    0x48(%esp),%ecx
  408364:	89 4c 24 48          	mov    %ecx,0x48(%esp)
  408368:	8d 41 30             	lea    0x30(%ecx),%eax
  40836b:	db 44 24 48          	fildl  0x48(%esp)
  40836f:	d8 cb                	fmul   %st(3),%st
  408371:	88 46 ff             	mov    %al,-0x1(%esi)
  408374:	de ea                	fsubrp %st,%st(2)
  408376:	d9 ee                	fldz   
  408378:	d9 ca                	fxch   %st(2)
  40837a:	dd e2                	fucom  %st(2)
  40837c:	df e0                	fnstsw %ax
  40837e:	dd da                	fstp   %st(2)
  408380:	9e                   	sahf   
  408381:	7a b5                	jp     408338 <___gdtoa+0xa58>
  408383:	75 b3                	jne    408338 <___gdtoa+0xa58>
  408385:	dd d8                	fstp   %st(0)
  408387:	dd d8                	fstp   %st(0)
  408389:	dd d8                	fstp   %st(0)
  40838b:	8b 44 24 0c          	mov    0xc(%esp),%eax
  40838f:	83 c0 01             	add    $0x1,%eax
  408392:	89 44 24 0c          	mov    %eax,0xc(%esp)
  408396:	c7 44 24 18 00 00 00 	movl   $0x0,0x18(%esp)
  40839d:	00 
  40839e:	e9 ca fd ff ff       	jmp    40816d <___gdtoa+0x88d>
  4083a3:	8b 44 24 40          	mov    0x40(%esp),%eax
  4083a7:	85 c0                	test   %eax,%eax
  4083a9:	0f 84 19 02 00 00    	je     4085c8 <___gdtoa+0xce8>
  4083af:	8d 04 2e             	lea    (%esi,%ebp,1),%eax
  4083b2:	85 c0                	test   %eax,%eax
  4083b4:	7e 14                	jle    4083ca <___gdtoa+0xaea>
  4083b6:	89 44 24 04          	mov    %eax,0x4(%esp)
  4083ba:	8b 44 24 20          	mov    0x20(%esp),%eax
  4083be:	89 04 24             	mov    %eax,(%esp)
  4083c1:	e8 4a 19 00 00       	call   409d10 <___lshift_D2A>
  4083c6:	89 44 24 20          	mov    %eax,0x20(%esp)
  4083ca:	8b 74 24 10          	mov    0x10(%esp),%esi
  4083ce:	8b 6c 24 20          	mov    0x20(%esp),%ebp
  4083d2:	85 f6                	test   %esi,%esi
  4083d4:	0f 85 e9 06 00 00    	jne    408ac3 <___gdtoa+0x11e3>
  4083da:	8b 74 24 24          	mov    0x24(%esp),%esi
  4083de:	89 7c 24 1c          	mov    %edi,0x1c(%esp)
  4083e2:	8b 7c 24 20          	mov    0x20(%esp),%edi
  4083e6:	c7 44 24 5c 01 00 00 	movl   $0x1,0x5c(%esp)
  4083ed:	00 
  4083ee:	89 74 24 28          	mov    %esi,0x28(%esp)
  4083f2:	e9 d6 00 00 00       	jmp    4084cd <___gdtoa+0xbed>
  4083f7:	89 14 24             	mov    %edx,(%esp)
  4083fa:	89 44 24 20          	mov    %eax,0x20(%esp)
  4083fe:	e8 9d 14 00 00       	call   4098a0 <___Bfree_D2A>
  408403:	8b 44 24 20          	mov    0x20(%esp),%eax
  408407:	89 c1                	mov    %eax,%ecx
  408409:	0b 8c 24 90 00 00 00 	or     0x90(%esp),%ecx
  408410:	75 18                	jne    40842a <___gdtoa+0xb4a>
  408412:	8b 8c 24 88 00 00 00 	mov    0x88(%esp),%ecx
  408419:	f6 01 01             	testb  $0x1,(%ecx)
  40841c:	75 0c                	jne    40842a <___gdtoa+0xb4a>
  40841e:	8b 54 24 2c          	mov    0x2c(%esp),%edx
  408422:	85 d2                	test   %edx,%edx
  408424:	0f 84 55 08 00 00    	je     408c7f <___gdtoa+0x139f>
  40842a:	85 f6                	test   %esi,%esi
  40842c:	0f 88 18 05 00 00    	js     40894a <___gdtoa+0x106a>
  408432:	0b b4 24 90 00 00 00 	or     0x90(%esp),%esi
  408439:	75 10                	jne    40844b <___gdtoa+0xb6b>
  40843b:	8b b4 24 88 00 00 00 	mov    0x88(%esp),%esi
  408442:	f6 06 01             	testb  $0x1,(%esi)
  408445:	0f 84 ff 04 00 00    	je     40894a <___gdtoa+0x106a>
  40844b:	85 c0                	test   %eax,%eax
  40844d:	0f 8f c9 06 00 00    	jg     408b1c <___gdtoa+0x123c>
  408453:	83 44 24 28 01       	addl   $0x1,0x28(%esp)
  408458:	0f b6 44 24 10       	movzbl 0x10(%esp),%eax
  40845d:	8b 74 24 28          	mov    0x28(%esp),%esi
  408461:	88 46 ff             	mov    %al,-0x1(%esi)
  408464:	8b 44 24 18          	mov    0x18(%esp),%eax
  408468:	39 44 24 5c          	cmp    %eax,0x5c(%esp)
  40846c:	0f 84 97 06 00 00    	je     408b09 <___gdtoa+0x1229>
  408472:	89 1c 24             	mov    %ebx,(%esp)
  408475:	c7 44 24 08 00 00 00 	movl   $0x0,0x8(%esp)
  40847c:	00 
  40847d:	c7 44 24 04 0a 00 00 	movl   $0xa,0x4(%esp)
  408484:	00 
  408485:	e8 86 14 00 00       	call   409910 <___multadd_D2A>
  40848a:	39 ef                	cmp    %ebp,%edi
  40848c:	c7 44 24 08 00 00 00 	movl   $0x0,0x8(%esp)
  408493:	00 
  408494:	c7 44 24 04 0a 00 00 	movl   $0xa,0x4(%esp)
  40849b:	00 
  40849c:	89 3c 24             	mov    %edi,(%esp)
  40849f:	89 c3                	mov    %eax,%ebx
  4084a1:	0f 84 8c 00 00 00    	je     408533 <___gdtoa+0xc53>
  4084a7:	e8 64 14 00 00       	call   409910 <___multadd_D2A>
  4084ac:	89 2c 24             	mov    %ebp,(%esp)
  4084af:	c7 44 24 08 00 00 00 	movl   $0x0,0x8(%esp)
  4084b6:	00 
  4084b7:	c7 44 24 04 0a 00 00 	movl   $0xa,0x4(%esp)
  4084be:	00 
  4084bf:	89 c7                	mov    %eax,%edi
  4084c1:	e8 4a 14 00 00       	call   409910 <___multadd_D2A>
  4084c6:	89 c5                	mov    %eax,%ebp
  4084c8:	83 44 24 5c 01       	addl   $0x1,0x5c(%esp)
  4084cd:	8b 44 24 1c          	mov    0x1c(%esp),%eax
  4084d1:	89 1c 24             	mov    %ebx,(%esp)
  4084d4:	89 44 24 04          	mov    %eax,0x4(%esp)
  4084d8:	e8 d3 0f 00 00       	call   4094b0 <___quorem_D2A>
  4084dd:	89 7c 24 04          	mov    %edi,0x4(%esp)
  4084e1:	89 1c 24             	mov    %ebx,(%esp)
  4084e4:	89 c6                	mov    %eax,%esi
  4084e6:	83 c6 30             	add    $0x30,%esi
  4084e9:	89 74 24 10          	mov    %esi,0x10(%esp)
  4084ed:	89 44 24 30          	mov    %eax,0x30(%esp)
  4084f1:	e8 2a 19 00 00       	call   409e20 <___cmp_D2A>
  4084f6:	89 6c 24 04          	mov    %ebp,0x4(%esp)
  4084fa:	89 c6                	mov    %eax,%esi
  4084fc:	8b 44 24 1c          	mov    0x1c(%esp),%eax
  408500:	89 04 24             	mov    %eax,(%esp)
  408503:	e8 68 19 00 00       	call   409e70 <___diff_D2A>
  408508:	89 c2                	mov    %eax,%edx
  40850a:	b8 01 00 00 00       	mov    $0x1,%eax
  40850f:	8b 4a 0c             	mov    0xc(%edx),%ecx
  408512:	85 c9                	test   %ecx,%ecx
  408514:	0f 85 dd fe ff ff    	jne    4083f7 <___gdtoa+0xb17>
  40851a:	89 54 24 04          	mov    %edx,0x4(%esp)
  40851e:	89 1c 24             	mov    %ebx,(%esp)
  408521:	89 54 24 20          	mov    %edx,0x20(%esp)
  408525:	e8 f6 18 00 00       	call   409e20 <___cmp_D2A>
  40852a:	8b 54 24 20          	mov    0x20(%esp),%edx
  40852e:	e9 c4 fe ff ff       	jmp    4083f7 <___gdtoa+0xb17>
  408533:	e8 d8 13 00 00       	call   409910 <___multadd_D2A>
  408538:	89 c7                	mov    %eax,%edi
  40853a:	89 c5                	mov    %eax,%ebp
  40853c:	eb 8a                	jmp    4084c8 <___gdtoa+0xbe8>
  40853e:	85 d2                	test   %edx,%edx
  408540:	0f 84 1b fc ff ff    	je     408161 <___gdtoa+0x881>
  408546:	89 14 24             	mov    %edx,(%esp)
  408549:	e8 52 13 00 00       	call   4098a0 <___Bfree_D2A>
  40854e:	66 90                	xchg   %ax,%ax
  408550:	e9 0c fc ff ff       	jmp    408161 <___gdtoa+0x881>
  408555:	8b 44 24 30          	mov    0x30(%esp),%eax
  408559:	89 1c 24             	mov    %ebx,(%esp)
  40855c:	89 44 24 04          	mov    %eax,0x4(%esp)
  408560:	e8 1b 16 00 00       	call   409b80 <___pow5mult_D2A>
  408565:	89 c3                	mov    %eax,%ebx
  408567:	e9 4e fa ff ff       	jmp    407fba <___gdtoa+0x6da>
  40856c:	89 7c 24 04          	mov    %edi,0x4(%esp)
  408570:	89 1c 24             	mov    %ebx,(%esp)
  408573:	e8 a8 18 00 00       	call   409e20 <___cmp_D2A>
  408578:	85 c0                	test   %eax,%eax
  40857a:	0f 89 da fa ff ff    	jns    40805a <___gdtoa+0x77a>
  408580:	89 1c 24             	mov    %ebx,(%esp)
  408583:	c7 44 24 08 00 00 00 	movl   $0x0,0x8(%esp)
  40858a:	00 
  40858b:	c7 44 24 04 0a 00 00 	movl   $0xa,0x4(%esp)
  408592:	00 
  408593:	83 6c 24 0c 01       	subl   $0x1,0xc(%esp)
  408598:	e8 73 13 00 00       	call   409910 <___multadd_D2A>
  40859d:	89 c3                	mov    %eax,%ebx
  40859f:	8b 44 24 40          	mov    0x40(%esp),%eax
  4085a3:	85 c0                	test   %eax,%eax
  4085a5:	0f 85 24 07 00 00    	jne    408ccf <___gdtoa+0x13ef>
  4085ab:	83 bc 24 90 00 00 00 	cmpl   $0x2,0x90(%esp)
  4085b2:	02 
  4085b3:	8b 44 24 44          	mov    0x44(%esp),%eax
  4085b7:	7e 0b                	jle    4085c4 <___gdtoa+0xce4>
  4085b9:	83 7c 24 44 00       	cmpl   $0x0,0x44(%esp)
  4085be:	0f 8e 86 07 00 00    	jle    408d4a <___gdtoa+0x146a>
  4085c4:	89 44 24 18          	mov    %eax,0x18(%esp)
  4085c8:	c7 44 24 5c 01 00 00 	movl   $0x1,0x5c(%esp)
  4085cf:	00 
  4085d0:	8b 74 24 24          	mov    0x24(%esp),%esi
  4085d4:	8b 6c 24 18          	mov    0x18(%esp),%ebp
  4085d8:	eb 25                	jmp    4085ff <___gdtoa+0xd1f>
  4085da:	8d b6 00 00 00 00    	lea    0x0(%esi),%esi
  4085e0:	89 1c 24             	mov    %ebx,(%esp)
  4085e3:	c7 44 24 08 00 00 00 	movl   $0x0,0x8(%esp)
  4085ea:	00 
  4085eb:	c7 44 24 04 0a 00 00 	movl   $0xa,0x4(%esp)
  4085f2:	00 
  4085f3:	e8 18 13 00 00       	call   409910 <___multadd_D2A>
  4085f8:	83 44 24 5c 01       	addl   $0x1,0x5c(%esp)
  4085fd:	89 c3                	mov    %eax,%ebx
  4085ff:	89 7c 24 04          	mov    %edi,0x4(%esp)
  408603:	83 c6 01             	add    $0x1,%esi
  408606:	89 1c 24             	mov    %ebx,(%esp)
  408609:	e8 a2 0e 00 00       	call   4094b0 <___quorem_D2A>
  40860e:	83 c0 30             	add    $0x30,%eax
  408611:	88 46 ff             	mov    %al,-0x1(%esi)
  408614:	3b 6c 24 5c          	cmp    0x5c(%esp),%ebp
  408618:	7f c6                	jg     4085e0 <___gdtoa+0xd00>
  40861a:	89 44 24 10          	mov    %eax,0x10(%esp)
  40861e:	31 d2                	xor    %edx,%edx
  408620:	8b 44 24 2c          	mov    0x2c(%esp),%eax
  408624:	85 c0                	test   %eax,%eax
  408626:	0f 84 e5 03 00 00    	je     408a11 <___gdtoa+0x1131>
  40862c:	83 f8 02             	cmp    $0x2,%eax
  40862f:	0f 84 18 04 00 00    	je     408a4d <___gdtoa+0x116d>
  408635:	83 7b 10 01          	cmpl   $0x1,0x10(%ebx)
  408639:	0f 8e cb 05 00 00    	jle    408c0a <___gdtoa+0x132a>
  40863f:	0f b6 4e ff          	movzbl -0x1(%esi),%ecx
  408643:	8b 6c 24 24          	mov    0x24(%esp),%ebp
  408647:	eb 15                	jmp    40865e <___gdtoa+0xd7e>
  408649:	8d b4 26 00 00 00 00 	lea    0x0(%esi,%eiz,1),%esi
  408650:	39 e8                	cmp    %ebp,%eax
  408652:	0f 84 a6 02 00 00    	je     4088fe <___gdtoa+0x101e>
  408658:	0f b6 48 ff          	movzbl -0x1(%eax),%ecx
  40865c:	89 c6                	mov    %eax,%esi
  40865e:	80 f9 39             	cmp    $0x39,%cl
  408661:	8d 46 ff             	lea    -0x1(%esi),%eax
  408664:	74 ea                	je     408650 <___gdtoa+0xd70>
  408666:	83 c1 01             	add    $0x1,%ecx
  408669:	88 08                	mov    %cl,(%eax)
  40866b:	8b 44 24 0c          	mov    0xc(%esp),%eax
  40866f:	c7 44 24 18 20 00 00 	movl   $0x20,0x18(%esp)
  408676:	00 
  408677:	83 c0 01             	add    $0x1,%eax
  40867a:	89 44 24 0c          	mov    %eax,0xc(%esp)
  40867e:	e9 be fa ff ff       	jmp    408141 <___gdtoa+0x861>
  408683:	83 fd 01             	cmp    $0x1,%ebp
  408686:	0f 85 68 f9 ff ff    	jne    407ff4 <___gdtoa+0x714>
  40868c:	8b 84 24 80 00 00 00 	mov    0x80(%esp),%eax
  408693:	8b 40 04             	mov    0x4(%eax),%eax
  408696:	83 c0 01             	add    $0x1,%eax
  408699:	39 84 24 84 00 00 00 	cmp    %eax,0x84(%esp)
  4086a0:	0f 8e 4e f9 ff ff    	jle    407ff4 <___gdtoa+0x714>
  4086a6:	83 44 24 28 01       	addl   $0x1,0x28(%esp)
  4086ab:	83 44 24 1c 01       	addl   $0x1,0x1c(%esp)
  4086b0:	c7 44 24 10 01 00 00 	movl   $0x1,0x10(%esp)
  4086b7:	00 
  4086b8:	e9 37 f9 ff ff       	jmp    407ff4 <___gdtoa+0x714>
  4086bd:	dd d8                	fstp   %st(0)
  4086bf:	8b 44 24 2c          	mov    0x2c(%esp),%eax
  4086c3:	85 c0                	test   %eax,%eax
  4086c5:	0f 84 fe 01 00 00    	je     4088c9 <___gdtoa+0xfe9>
  4086cb:	dd d8                	fstp   %st(0)
  4086cd:	dd d8                	fstp   %st(0)
  4086cf:	83 7c 24 2c 01       	cmpl   $0x1,0x2c(%esp)
  4086d4:	0f 84 22 03 00 00    	je     4089fc <___gdtoa+0x111c>
  4086da:	8b 44 24 0c          	mov    0xc(%esp),%eax
  4086de:	e9 ff f6 ff ff       	jmp    407de2 <___gdtoa+0x502>
  4086e3:	ba 01 00 00 00       	mov    $0x1,%edx
  4086e8:	c7 84 24 94 00 00 00 	movl   $0x1,0x94(%esp)
  4086ef:	01 00 00 00 
  4086f3:	e9 23 fb ff ff       	jmp    40821b <___gdtoa+0x93b>
  4086f8:	83 7c 24 18 0e       	cmpl   $0xe,0x18(%esp)
  4086fd:	c7 44 24 5c 01 00 00 	movl   $0x1,0x5c(%esp)
  408704:	00 
  408705:	0f 96 c2             	setbe  %dl
  408708:	21 c2                	and    %eax,%edx
  40870a:	b8 01 00 00 00       	mov    $0x1,%eax
  40870f:	e9 0f f5 ff ff       	jmp    407c23 <___gdtoa+0x343>
  408714:	89 c2                	mov    %eax,%edx
  408716:	31 ff                	xor    %edi,%edi
  408718:	2b 54 24 30          	sub    0x30(%esp),%edx
  40871c:	89 44 24 30          	mov    %eax,0x30(%esp)
  408720:	01 54 24 3c          	add    %edx,0x3c(%esp)
  408724:	e9 e9 f7 ff ff       	jmp    407f12 <___gdtoa+0x632>
  408729:	d9 7c 24 4e          	fnstcw 0x4e(%esp)
  40872d:	dd 44 24 10          	fldl   0x10(%esp)
  408731:	dc 0c d5 98 c3 40 00 	fmull  0x40c398(,%edx,8)
  408738:	c7 44 24 5c 01 00 00 	movl   $0x1,0x5c(%esp)
  40873f:	00 
  408740:	8b 74 24 24          	mov    0x24(%esp),%esi
  408744:	0f b7 44 24 4e       	movzwl 0x4e(%esp),%eax
  408749:	b4 0c                	mov    $0xc,%ah
  40874b:	d9 05 5c c3 40 00    	flds   0x40c35c
  408751:	d9 ca                	fxch   %st(2)
  408753:	66 89 44 24 4c       	mov    %ax,0x4c(%esp)
  408758:	eb 0f                	jmp    408769 <___gdtoa+0xe89>
  40875a:	8d b6 00 00 00 00    	lea    0x0(%esi),%esi
  408760:	d8 ca                	fmul   %st(2),%st
  408762:	83 c0 01             	add    $0x1,%eax
  408765:	89 44 24 5c          	mov    %eax,0x5c(%esp)
  408769:	d9 6c 24 4c          	fldcw  0x4c(%esp)
  40876d:	db 54 24 48          	fistl  0x48(%esp)
  408771:	d9 6c 24 4e          	fldcw  0x4e(%esp)
  408775:	8b 44 24 48          	mov    0x48(%esp),%eax
  408779:	85 c0                	test   %eax,%eax
  40877b:	74 0a                	je     408787 <___gdtoa+0xea7>
  40877d:	89 44 24 48          	mov    %eax,0x48(%esp)
  408781:	db 44 24 48          	fildl  0x48(%esp)
  408785:	de e9                	fsubrp %st,%st(1)
  408787:	83 c6 01             	add    $0x1,%esi
  40878a:	8d 48 30             	lea    0x30(%eax),%ecx
  40878d:	88 4e ff             	mov    %cl,-0x1(%esi)
  408790:	8b 44 24 5c          	mov    0x5c(%esp),%eax
  408794:	39 d0                	cmp    %edx,%eax
  408796:	75 c8                	jne    408760 <___gdtoa+0xe80>
  408798:	dd da                	fstp   %st(2)
  40879a:	d9 c9                	fxch   %st(1)
  40879c:	d9 05 6c c3 40 00    	flds   0x40c36c
  4087a2:	d9 c2                	fld    %st(2)
  4087a4:	d8 c1                	fadd   %st(1),%st
  4087a6:	d9 ca                	fxch   %st(2)
  4087a8:	dd e2                	fucom  %st(2)
  4087aa:	df e0                	fnstsw %ax
  4087ac:	dd da                	fstp   %st(2)
  4087ae:	9e                   	sahf   
  4087af:	0f 87 94 00 00 00    	ja     408849 <___gdtoa+0xf69>
  4087b5:	de e2                	fsubp  %st,%st(2)
  4087b7:	d9 c9                	fxch   %st(1)
  4087b9:	dd e9                	fucomp %st(1)
  4087bb:	df e0                	fnstsw %ax
  4087bd:	9e                   	sahf   
  4087be:	0f 86 0c f7 ff ff    	jbe    407ed0 <___gdtoa+0x5f0>
  4087c4:	dd d9                	fstp   %st(1)
  4087c6:	d9 ee                	fldz   
  4087c8:	d9 c9                	fxch   %st(1)
  4087ca:	da e9                	fucompp 
  4087cc:	df e0                	fnstsw %ax
  4087ce:	9e                   	sahf   
  4087cf:	0f 8a 4d 04 00 00    	jp     408c22 <___gdtoa+0x1342>
  4087d5:	0f 85 47 04 00 00    	jne    408c22 <___gdtoa+0x1342>
  4087db:	c7 44 24 18 00 00 00 	movl   $0x0,0x18(%esp)
  4087e2:	00 
  4087e3:	eb 06                	jmp    4087eb <___gdtoa+0xf0b>
  4087e5:	0f b6 48 ff          	movzbl -0x1(%eax),%ecx
  4087e9:	89 c6                	mov    %eax,%esi
  4087eb:	80 f9 30             	cmp    $0x30,%cl
  4087ee:	8d 46 ff             	lea    -0x1(%esi),%eax
  4087f1:	74 f2                	je     4087e5 <___gdtoa+0xf05>
  4087f3:	8b 44 24 38          	mov    0x38(%esp),%eax
  4087f7:	83 c0 01             	add    $0x1,%eax
  4087fa:	89 44 24 0c          	mov    %eax,0xc(%esp)
  4087fe:	e9 6a f9 ff ff       	jmp    40816d <___gdtoa+0x88d>
  408803:	dd d8                	fstp   %st(0)
  408805:	dd d8                	fstp   %st(0)
  408807:	dd d8                	fstp   %st(0)
  408809:	c7 44 24 0c 02 00 00 	movl   $0x2,0xc(%esp)
  408810:	00 
  408811:	31 ff                	xor    %edi,%edi
  408813:	c7 44 24 20 00 00 00 	movl   $0x0,0x20(%esp)
  40881a:	00 
  40881b:	e9 0d f9 ff ff       	jmp    40812d <___gdtoa+0x84d>
  408820:	8b 44 24 0c          	mov    0xc(%esp),%eax
  408824:	83 e1 01             	and    $0x1,%ecx
  408827:	0f b6 4e ff          	movzbl -0x1(%esi),%ecx
  40882b:	89 44 24 38          	mov    %eax,0x38(%esp)
  40882f:	0f 84 ed 03 00 00    	je     408c22 <___gdtoa+0x1342>
  408835:	eb 1a                	jmp    408851 <___gdtoa+0xf71>
  408837:	dd d8                	fstp   %st(0)
  408839:	dd d8                	fstp   %st(0)
  40883b:	dd d8                	fstp   %st(0)
  40883d:	eb 12                	jmp    408851 <___gdtoa+0xf71>
  40883f:	dd d8                	fstp   %st(0)
  408841:	dd d8                	fstp   %st(0)
  408843:	dd d8                	fstp   %st(0)
  408845:	dd d8                	fstp   %st(0)
  408847:	eb 08                	jmp    408851 <___gdtoa+0xf71>
  408849:	dd d8                	fstp   %st(0)
  40884b:	dd d8                	fstp   %st(0)
  40884d:	dd d8                	fstp   %st(0)
  40884f:	dd d8                	fstp   %st(0)
  408851:	8b 54 24 24          	mov    0x24(%esp),%edx
  408855:	eb 0e                	jmp    408865 <___gdtoa+0xf85>
  408857:	39 d0                	cmp    %edx,%eax
  408859:	0f 84 be 00 00 00    	je     40891d <___gdtoa+0x103d>
  40885f:	0f b6 48 ff          	movzbl -0x1(%eax),%ecx
  408863:	89 c6                	mov    %eax,%esi
  408865:	80 f9 39             	cmp    $0x39,%cl
  408868:	8d 46 ff             	lea    -0x1(%esi),%eax
  40886b:	74 ea                	je     408857 <___gdtoa+0xf77>
  40886d:	89 54 24 24          	mov    %edx,0x24(%esp)
  408871:	83 c1 01             	add    $0x1,%ecx
  408874:	88 08                	mov    %cl,(%eax)
  408876:	8b 44 24 38          	mov    0x38(%esp),%eax
  40887a:	c7 44 24 18 20 00 00 	movl   $0x20,0x18(%esp)
  408881:	00 
  408882:	83 c0 01             	add    $0x1,%eax
  408885:	89 44 24 0c          	mov    %eax,0xc(%esp)
  408889:	e9 df f8 ff ff       	jmp    40816d <___gdtoa+0x88d>
  40888e:	8b b4 24 80 00 00 00 	mov    0x80(%esp),%esi
  408895:	29 ef                	sub    %ebp,%edi
  408897:	8b 54 24 20          	mov    0x20(%esp),%edx
  40889b:	8d 47 01             	lea    0x1(%edi),%eax
  40889e:	89 44 24 5c          	mov    %eax,0x5c(%esp)
  4088a2:	8b 4e 04             	mov    0x4(%esi),%ecx
  4088a5:	29 fa                	sub    %edi,%edx
  4088a7:	39 ca                	cmp    %ecx,%edx
  4088a9:	0f 8d be 02 00 00    	jge    408b6d <___gdtoa+0x128d>
  4088af:	8b 44 24 20          	mov    0x20(%esp),%eax
  4088b3:	8b 7c 24 30          	mov    0x30(%esp),%edi
  4088b7:	8b 74 24 28          	mov    0x28(%esp),%esi
  4088bb:	29 c8                	sub    %ecx,%eax
  4088bd:	83 c0 01             	add    $0x1,%eax
  4088c0:	89 44 24 5c          	mov    %eax,0x5c(%esp)
  4088c4:	e9 5d f6 ff ff       	jmp    407f26 <___gdtoa+0x646>
  4088c9:	d8 c0                	fadd   %st(0),%st
  4088cb:	dd e1                	fucom  %st(1)
  4088cd:	df e0                	fnstsw %ax
  4088cf:	9e                   	sahf   
  4088d0:	0f 87 22 01 00 00    	ja     4089f8 <___gdtoa+0x1118>
  4088d6:	d9 c9                	fxch   %st(1)
  4088d8:	da e9                	fucompp 
  4088da:	df e0                	fnstsw %ax
  4088dc:	9e                   	sahf   
  4088dd:	7a 06                	jp     4088e5 <___gdtoa+0x1005>
  4088df:	0f 84 3b ff ff ff    	je     408820 <___gdtoa+0xf40>
  4088e5:	8b 44 24 0c          	mov    0xc(%esp),%eax
  4088e9:	0f b6 4e ff          	movzbl -0x1(%esi),%ecx
  4088ed:	c7 44 24 18 10 00 00 	movl   $0x10,0x18(%esp)
  4088f4:	00 
  4088f5:	89 44 24 38          	mov    %eax,0x38(%esp)
  4088f9:	e9 ed fe ff ff       	jmp    4087eb <___gdtoa+0xf0b>
  4088fe:	8b 44 24 24          	mov    0x24(%esp),%eax
  408902:	c7 44 24 18 20 00 00 	movl   $0x20,0x18(%esp)
  408909:	00 
  40890a:	c6 00 31             	movb   $0x31,(%eax)
  40890d:	8b 44 24 0c          	mov    0xc(%esp),%eax
  408911:	83 c0 02             	add    $0x2,%eax
  408914:	89 44 24 0c          	mov    %eax,0xc(%esp)
  408918:	e9 24 f8 ff ff       	jmp    408141 <___gdtoa+0x861>
  40891d:	89 54 24 24          	mov    %edx,0x24(%esp)
  408921:	b9 31 00 00 00       	mov    $0x31,%ecx
  408926:	83 44 24 38 01       	addl   $0x1,0x38(%esp)
  40892b:	c6 02 30             	movb   $0x30,(%edx)
  40892e:	e9 41 ff ff ff       	jmp    408874 <___gdtoa+0xf94>
  408933:	8b 74 24 28          	mov    0x28(%esp),%esi
  408937:	31 c0                	xor    %eax,%eax
  408939:	2b 74 24 18          	sub    0x18(%esp),%esi
  40893d:	c7 44 24 5c 00 00 00 	movl   $0x0,0x5c(%esp)
  408944:	00 
  408945:	e9 dc f5 ff ff       	jmp    407f26 <___gdtoa+0x646>
  40894a:	8b 4c 24 2c          	mov    0x2c(%esp),%ecx
  40894e:	89 7c 24 20          	mov    %edi,0x20(%esp)
  408952:	8b 74 24 28          	mov    0x28(%esp),%esi
  408956:	8b 7c 24 1c          	mov    0x1c(%esp),%edi
  40895a:	8b 54 24 10          	mov    0x10(%esp),%edx
  40895e:	85 c9                	test   %ecx,%ecx
  408960:	0f 84 1e 02 00 00    	je     408b84 <___gdtoa+0x12a4>
  408966:	83 7b 10 01          	cmpl   $0x1,0x10(%ebx)
  40896a:	0f 8e 0a 02 00 00    	jle    408b7a <___gdtoa+0x129a>
  408970:	83 7c 24 2c 02       	cmpl   $0x2,0x2c(%esp)
  408975:	75 3a                	jne    4089b1 <___gdtoa+0x10d1>
  408977:	e9 63 02 00 00       	jmp    408bdf <___gdtoa+0x12ff>
  40897c:	8d 74 26 00          	lea    0x0(%esi,%eiz,1),%esi
  408980:	89 1c 24             	mov    %ebx,(%esp)
  408983:	c7 44 24 08 00 00 00 	movl   $0x0,0x8(%esp)
  40898a:	00 
  40898b:	c7 44 24 04 0a 00 00 	movl   $0xa,0x4(%esp)
  408992:	00 
  408993:	e8 78 0f 00 00       	call   409910 <___multadd_D2A>
  408998:	89 7c 24 04          	mov    %edi,0x4(%esp)
  40899c:	89 04 24             	mov    %eax,(%esp)
  40899f:	89 c3                	mov    %eax,%ebx
  4089a1:	e8 0a 0b 00 00       	call   4094b0 <___quorem_D2A>
  4089a6:	8b 6c 24 18          	mov    0x18(%esp),%ebp
  4089aa:	83 c0 30             	add    $0x30,%eax
  4089ad:	89 44 24 10          	mov    %eax,0x10(%esp)
  4089b1:	89 6c 24 04          	mov    %ebp,0x4(%esp)
  4089b5:	89 3c 24             	mov    %edi,(%esp)
  4089b8:	e8 63 14 00 00       	call   409e20 <___cmp_D2A>
  4089bd:	85 c0                	test   %eax,%eax
  4089bf:	0f 8e 88 02 00 00    	jle    408c4d <___gdtoa+0x136d>
  4089c5:	0f b6 44 24 10       	movzbl 0x10(%esp),%eax
  4089ca:	83 c6 01             	add    $0x1,%esi
  4089cd:	88 46 ff             	mov    %al,-0x1(%esi)
  4089d0:	c7 44 24 08 00 00 00 	movl   $0x0,0x8(%esp)
  4089d7:	00 
  4089d8:	c7 44 24 04 0a 00 00 	movl   $0xa,0x4(%esp)
  4089df:	00 
  4089e0:	89 2c 24             	mov    %ebp,(%esp)
  4089e3:	e8 28 0f 00 00       	call   409910 <___multadd_D2A>
  4089e8:	39 6c 24 20          	cmp    %ebp,0x20(%esp)
  4089ec:	89 44 24 18          	mov    %eax,0x18(%esp)
  4089f0:	75 8e                	jne    408980 <___gdtoa+0x10a0>
  4089f2:	89 44 24 20          	mov    %eax,0x20(%esp)
  4089f6:	eb 88                	jmp    408980 <___gdtoa+0x10a0>
  4089f8:	dd d8                	fstp   %st(0)
  4089fa:	dd d8                	fstp   %st(0)
  4089fc:	8b 44 24 0c          	mov    0xc(%esp),%eax
  408a00:	0f b6 4e ff          	movzbl -0x1(%esi),%ecx
  408a04:	8b 54 24 24          	mov    0x24(%esp),%edx
  408a08:	89 44 24 38          	mov    %eax,0x38(%esp)
  408a0c:	e9 54 fe ff ff       	jmp    408865 <___gdtoa+0xf85>
  408a11:	89 1c 24             	mov    %ebx,(%esp)
  408a14:	c7 44 24 04 01 00 00 	movl   $0x1,0x4(%esp)
  408a1b:	00 
  408a1c:	89 54 24 18          	mov    %edx,0x18(%esp)
  408a20:	e8 eb 12 00 00       	call   409d10 <___lshift_D2A>
  408a25:	89 7c 24 04          	mov    %edi,0x4(%esp)
  408a29:	89 04 24             	mov    %eax,(%esp)
  408a2c:	89 c3                	mov    %eax,%ebx
  408a2e:	e8 ed 13 00 00       	call   409e20 <___cmp_D2A>
  408a33:	8b 54 24 18          	mov    0x18(%esp),%edx
  408a37:	83 f8 00             	cmp    $0x0,%eax
  408a3a:	0f 8f ff fb ff ff    	jg     40863f <___gdtoa+0xd5f>
  408a40:	75 0b                	jne    408a4d <___gdtoa+0x116d>
  408a42:	f6 44 24 10 01       	testb  $0x1,0x10(%esp)
  408a47:	0f 85 f2 fb ff ff    	jne    40863f <___gdtoa+0xd5f>
  408a4d:	83 7b 10 01          	cmpl   $0x1,0x10(%ebx)
  408a51:	0f 8e dc 02 00 00    	jle    408d33 <___gdtoa+0x1453>
  408a57:	c7 44 24 18 10 00 00 	movl   $0x10,0x18(%esp)
  408a5e:	00 
  408a5f:	eb 02                	jmp    408a63 <___gdtoa+0x1183>
  408a61:	89 c6                	mov    %eax,%esi
  408a63:	80 7e ff 30          	cmpb   $0x30,-0x1(%esi)
  408a67:	8d 46 ff             	lea    -0x1(%esi),%eax
  408a6a:	74 f5                	je     408a61 <___gdtoa+0x1181>
  408a6c:	8b 44 24 0c          	mov    0xc(%esp),%eax
  408a70:	83 c0 01             	add    $0x1,%eax
  408a73:	89 44 24 0c          	mov    %eax,0xc(%esp)
  408a77:	e9 c5 f6 ff ff       	jmp    408141 <___gdtoa+0x861>
  408a7c:	8b 44 24 18          	mov    0x18(%esp),%eax
  408a80:	85 c0                	test   %eax,%eax
  408a82:	0f 84 fa f3 ff ff    	je     407e82 <___gdtoa+0x5a2>
  408a88:	8b 54 24 44          	mov    0x44(%esp),%edx
  408a8c:	85 d2                	test   %edx,%edx
  408a8e:	0f 8e 3e f4 ff ff    	jle    407ed2 <___gdtoa+0x5f2>
  408a94:	d9 c0                	fld    %st(0)
  408a96:	d8 0d 5c c3 40 00    	fmuls  0x40c35c
  408a9c:	c7 44 24 38 ff ff ff 	movl   $0xffffffff,0x38(%esp)
  408aa3:	ff 
  408aa4:	d9 c0                	fld    %st(0)
  408aa6:	d8 0d 60 c3 40 00    	fmuls  0x40c360
  408aac:	d8 05 64 c3 40 00    	fadds  0x40c364
  408ab2:	dd 5c 24 10          	fstpl  0x10(%esp)
  408ab6:	81 6c 24 14 00 00 40 	subl   $0x3400000,0x14(%esp)
  408abd:	03 
  408abe:	e9 02 f2 ff ff       	jmp    407cc5 <___gdtoa+0x3e5>
  408ac3:	8b 45 04             	mov    0x4(%ebp),%eax
  408ac6:	89 04 24             	mov    %eax,(%esp)
  408ac9:	e8 02 0d 00 00       	call   4097d0 <___Balloc_D2A>
  408ace:	8d 48 0c             	lea    0xc(%eax),%ecx
  408ad1:	89 c6                	mov    %eax,%esi
  408ad3:	8b 45 10             	mov    0x10(%ebp),%eax
  408ad6:	89 0c 24             	mov    %ecx,(%esp)
  408ad9:	8d 14 85 08 00 00 00 	lea    0x8(,%eax,4),%edx
  408ae0:	89 e8                	mov    %ebp,%eax
  408ae2:	83 c0 0c             	add    $0xc,%eax
  408ae5:	89 54 24 08          	mov    %edx,0x8(%esp)
  408ae9:	89 44 24 04          	mov    %eax,0x4(%esp)
  408aed:	e8 be 18 00 00       	call   40a3b0 <_memcpy>
  408af2:	c7 44 24 04 01 00 00 	movl   $0x1,0x4(%esp)
  408af9:	00 
  408afa:	89 34 24             	mov    %esi,(%esp)
  408afd:	e8 0e 12 00 00       	call   409d10 <___lshift_D2A>
  408b02:	89 c5                	mov    %eax,%ebp
  408b04:	e9 d1 f8 ff ff       	jmp    4083da <___gdtoa+0xafa>
  408b09:	89 fa                	mov    %edi,%edx
  408b0b:	8b 74 24 28          	mov    0x28(%esp),%esi
  408b0f:	8b 7c 24 1c          	mov    0x1c(%esp),%edi
  408b13:	89 6c 24 20          	mov    %ebp,0x20(%esp)
  408b17:	e9 04 fb ff ff       	jmp    408620 <___gdtoa+0xd40>
  408b1c:	83 7c 24 2c 02       	cmpl   $0x2,0x2c(%esp)
  408b21:	0f 84 2c f9 ff ff    	je     408453 <___gdtoa+0xb73>
  408b27:	8b 74 24 28          	mov    0x28(%esp),%esi
  408b2b:	83 7c 24 10 39       	cmpl   $0x39,0x10(%esp)
  408b30:	89 7c 24 20          	mov    %edi,0x20(%esp)
  408b34:	8b 7c 24 1c          	mov    0x1c(%esp),%edi
  408b38:	89 f0                	mov    %esi,%eax
  408b3a:	0f 84 f1 00 00 00    	je     408c31 <___gdtoa+0x1351>
  408b40:	0f b6 4c 24 10       	movzbl 0x10(%esp),%ecx
  408b45:	83 c6 01             	add    $0x1,%esi
  408b48:	8b 54 24 20          	mov    0x20(%esp),%edx
  408b4c:	c7 44 24 18 20 00 00 	movl   $0x20,0x18(%esp)
  408b53:	00 
  408b54:	89 6c 24 20          	mov    %ebp,0x20(%esp)
  408b58:	83 c1 01             	add    $0x1,%ecx
  408b5b:	88 08                	mov    %cl,(%eax)
  408b5d:	8b 44 24 0c          	mov    0xc(%esp),%eax
  408b61:	83 c0 01             	add    $0x1,%eax
  408b64:	89 44 24 0c          	mov    %eax,0xc(%esp)
  408b68:	e9 d4 f5 ff ff       	jmp    408141 <___gdtoa+0x861>
  408b6d:	8b 7c 24 30          	mov    0x30(%esp),%edi
  408b71:	8b 74 24 28          	mov    0x28(%esp),%esi
  408b75:	e9 ac f3 ff ff       	jmp    407f26 <___gdtoa+0x646>
  408b7a:	83 7b 14 00          	cmpl   $0x0,0x14(%ebx)
  408b7e:	0f 85 ec fd ff ff    	jne    408970 <___gdtoa+0x1090>
  408b84:	85 c0                	test   %eax,%eax
  408b86:	89 54 24 18          	mov    %edx,0x18(%esp)
  408b8a:	0f 8e d3 00 00 00    	jle    408c63 <___gdtoa+0x1383>
  408b90:	89 1c 24             	mov    %ebx,(%esp)
  408b93:	c7 44 24 04 01 00 00 	movl   $0x1,0x4(%esp)
  408b9a:	00 
  408b9b:	e8 70 11 00 00       	call   409d10 <___lshift_D2A>
  408ba0:	89 7c 24 04          	mov    %edi,0x4(%esp)
  408ba4:	89 04 24             	mov    %eax,(%esp)
  408ba7:	89 c3                	mov    %eax,%ebx
  408ba9:	e8 72 12 00 00       	call   409e20 <___cmp_D2A>
  408bae:	8b 54 24 18          	mov    0x18(%esp),%edx
  408bb2:	83 f8 00             	cmp    $0x0,%eax
  408bb5:	0f 8e 98 01 00 00    	jle    408d53 <___gdtoa+0x1473>
  408bbb:	8b 44 24 30          	mov    0x30(%esp),%eax
  408bbf:	83 c0 31             	add    $0x31,%eax
  408bc2:	83 fa 39             	cmp    $0x39,%edx
  408bc5:	89 44 24 10          	mov    %eax,0x10(%esp)
  408bc9:	74 64                	je     408c2f <___gdtoa+0x134f>
  408bcb:	c7 44 24 18 20 00 00 	movl   $0x20,0x18(%esp)
  408bd2:	00 
  408bd3:	83 7b 10 01          	cmpl   $0x1,0x10(%ebx)
  408bd7:	7f 06                	jg     408bdf <___gdtoa+0x12ff>
  408bd9:	83 7b 14 00          	cmpl   $0x0,0x14(%ebx)
  408bdd:	74 08                	je     408be7 <___gdtoa+0x1307>
  408bdf:	c7 44 24 18 10 00 00 	movl   $0x10,0x18(%esp)
  408be6:	00 
  408be7:	0f b6 44 24 10       	movzbl 0x10(%esp),%eax
  408bec:	83 c6 01             	add    $0x1,%esi
  408bef:	8b 54 24 20          	mov    0x20(%esp),%edx
  408bf3:	89 6c 24 20          	mov    %ebp,0x20(%esp)
  408bf7:	88 46 ff             	mov    %al,-0x1(%esi)
  408bfa:	8b 44 24 0c          	mov    0xc(%esp),%eax
  408bfe:	83 c0 01             	add    $0x1,%eax
  408c01:	89 44 24 0c          	mov    %eax,0xc(%esp)
  408c05:	e9 37 f5 ff ff       	jmp    408141 <___gdtoa+0x861>
  408c0a:	8b 4b 14             	mov    0x14(%ebx),%ecx
  408c0d:	85 c9                	test   %ecx,%ecx
  408c0f:	0f 85 2a fa ff ff    	jne    40863f <___gdtoa+0xd5f>
  408c15:	c7 44 24 18 00 00 00 	movl   $0x0,0x18(%esp)
  408c1c:	00 
  408c1d:	e9 41 fe ff ff       	jmp    408a63 <___gdtoa+0x1183>
  408c22:	c7 44 24 18 10 00 00 	movl   $0x10,0x18(%esp)
  408c29:	00 
  408c2a:	e9 bc fb ff ff       	jmp    4087eb <___gdtoa+0xf0b>
  408c2f:	89 f0                	mov    %esi,%eax
  408c31:	8b 54 24 20          	mov    0x20(%esp),%edx
  408c35:	83 c6 01             	add    $0x1,%esi
  408c38:	b9 39 00 00 00       	mov    $0x39,%ecx
  408c3d:	89 6c 24 20          	mov    %ebp,0x20(%esp)
  408c41:	8b 6c 24 24          	mov    0x24(%esp),%ebp
  408c45:	c6 00 39             	movb   $0x39,(%eax)
  408c48:	e9 11 fa ff ff       	jmp    40865e <___gdtoa+0xd7e>
  408c4d:	83 7c 24 10 39       	cmpl   $0x39,0x10(%esp)
  408c52:	74 db                	je     408c2f <___gdtoa+0x134f>
  408c54:	83 44 24 10 01       	addl   $0x1,0x10(%esp)
  408c59:	c7 44 24 18 20 00 00 	movl   $0x20,0x18(%esp)
  408c60:	00 
  408c61:	eb 84                	jmp    408be7 <___gdtoa+0x1307>
  408c63:	c7 44 24 18 00 00 00 	movl   $0x0,0x18(%esp)
  408c6a:	00 
  408c6b:	e9 63 ff ff ff       	jmp    408bd3 <___gdtoa+0x12f3>
  408c70:	0f 85 a8 f6 ff ff    	jne    40831e <___gdtoa+0xa3e>
  408c76:	dd d8                	fstp   %st(0)
  408c78:	dd d8                	fstp   %st(0)
  408c7a:	e9 0c f7 ff ff       	jmp    40838b <___gdtoa+0xaab>
  408c7f:	89 f1                	mov    %esi,%ecx
  408c81:	8b 74 24 28          	mov    0x28(%esp),%esi
  408c85:	83 7c 24 10 39       	cmpl   $0x39,0x10(%esp)
  408c8a:	89 7c 24 20          	mov    %edi,0x20(%esp)
  408c8e:	8b 7c 24 1c          	mov    0x1c(%esp),%edi
  408c92:	89 f0                	mov    %esi,%eax
  408c94:	74 99                	je     408c2f <___gdtoa+0x134f>
  408c96:	85 c9                	test   %ecx,%ecx
  408c98:	7e 73                	jle    408d0d <___gdtoa+0x142d>
  408c9a:	8b 4c 24 30          	mov    0x30(%esp),%ecx
  408c9e:	c7 44 24 18 20 00 00 	movl   $0x20,0x18(%esp)
  408ca5:	00 
  408ca6:	83 c1 31             	add    $0x31,%ecx
  408ca9:	89 4c 24 10          	mov    %ecx,0x10(%esp)
  408cad:	0f b6 4c 24 10       	movzbl 0x10(%esp),%ecx
  408cb2:	83 c6 01             	add    $0x1,%esi
  408cb5:	8b 54 24 20          	mov    0x20(%esp),%edx
  408cb9:	89 6c 24 20          	mov    %ebp,0x20(%esp)
  408cbd:	88 08                	mov    %cl,(%eax)
  408cbf:	8b 44 24 0c          	mov    0xc(%esp),%eax
  408cc3:	83 c0 01             	add    $0x1,%eax
  408cc6:	89 44 24 0c          	mov    %eax,0xc(%esp)
  408cca:	e9 72 f4 ff ff       	jmp    408141 <___gdtoa+0x861>
  408ccf:	8b 44 24 20          	mov    0x20(%esp),%eax
  408cd3:	c7 44 24 08 00 00 00 	movl   $0x0,0x8(%esp)
  408cda:	00 
  408cdb:	c7 44 24 04 0a 00 00 	movl   $0xa,0x4(%esp)
  408ce2:	00 
  408ce3:	89 04 24             	mov    %eax,(%esp)
  408ce6:	e8 25 0c 00 00       	call   409910 <___multadd_D2A>
  408ceb:	83 7c 24 44 00       	cmpl   $0x0,0x44(%esp)
  408cf0:	89 44 24 20          	mov    %eax,0x20(%esp)
  408cf4:	8b 44 24 44          	mov    0x44(%esp),%eax
  408cf8:	7f 0a                	jg     408d04 <___gdtoa+0x1424>
  408cfa:	83 bc 24 90 00 00 00 	cmpl   $0x2,0x90(%esp)
  408d01:	02 
  408d02:	7f 46                	jg     408d4a <___gdtoa+0x146a>
  408d04:	89 44 24 18          	mov    %eax,0x18(%esp)
  408d08:	e9 a2 f6 ff ff       	jmp    4083af <___gdtoa+0xacf>
  408d0d:	83 7b 10 01          	cmpl   $0x1,0x10(%ebx)
  408d11:	c7 44 24 18 10 00 00 	movl   $0x10,0x18(%esp)
  408d18:	00 
  408d19:	7f 92                	jg     408cad <___gdtoa+0x13cd>
  408d1b:	83 7b 14 01          	cmpl   $0x1,0x14(%ebx)
  408d1f:	19 c9                	sbb    %ecx,%ecx
  408d21:	89 4c 24 18          	mov    %ecx,0x18(%esp)
  408d25:	f7 54 24 18          	notl   0x18(%esp)
  408d29:	83 64 24 18 10       	andl   $0x10,0x18(%esp)
  408d2e:	e9 7a ff ff ff       	jmp    408cad <___gdtoa+0x13cd>
  408d33:	83 7b 14 00          	cmpl   $0x0,0x14(%ebx)
  408d37:	c7 44 24 18 00 00 00 	movl   $0x0,0x18(%esp)
  408d3e:	00 
  408d3f:	0f 85 12 fd ff ff    	jne    408a57 <___gdtoa+0x1177>
  408d45:	e9 19 fd ff ff       	jmp    408a63 <___gdtoa+0x1183>
  408d4a:	89 44 24 18          	mov    %eax,0x18(%esp)
  408d4e:	e9 21 f3 ff ff       	jmp    408074 <___gdtoa+0x794>
  408d53:	0f 85 72 fe ff ff    	jne    408bcb <___gdtoa+0x12eb>
  408d59:	f6 44 24 10 01       	testb  $0x1,0x10(%esp)
  408d5e:	66 90                	xchg   %ax,%ax
  408d60:	0f 84 65 fe ff ff    	je     408bcb <___gdtoa+0x12eb>
  408d66:	e9 50 fe ff ff       	jmp    408bbb <___gdtoa+0x12db>
  408d6b:	31 c0                	xor    %eax,%eax
  408d6d:	8d 76 00             	lea    0x0(%esi),%esi
  408d70:	e9 8f ec ff ff       	jmp    407a04 <___gdtoa+0x124>
  408d75:	b8 01 00 00 00       	mov    $0x1,%eax
  408d7a:	e9 40 ee ff ff       	jmp    407bbf <___gdtoa+0x2df>
  408d7f:	90                   	nop

00408d80 <___wcrtomb_cp>:
  408d80:	55                   	push   %ebp
  408d81:	89 e5                	mov    %esp,%ebp
  408d83:	83 ec 48             	sub    $0x48,%esp
  408d86:	8b 55 10             	mov    0x10(%ebp),%edx
  408d89:	8b 45 0c             	mov    0xc(%ebp),%eax
  408d8c:	85 d2                	test   %edx,%edx
  408d8e:	66 89 45 e4          	mov    %ax,-0x1c(%ebp)
  408d92:	75 12                	jne    408da6 <___wcrtomb_cp+0x26>
  408d94:	66 3d ff 00          	cmp    $0xff,%ax
  408d98:	77 5d                	ja     408df7 <___wcrtomb_cp+0x77>
  408d9a:	8b 4d 08             	mov    0x8(%ebp),%ecx
  408d9d:	88 01                	mov    %al,(%ecx)
  408d9f:	b8 01 00 00 00       	mov    $0x1,%eax
  408da4:	c9                   	leave  
  408da5:	c3                   	ret    
  408da6:	8d 45 f4             	lea    -0xc(%ebp),%eax
  408da9:	89 44 24 1c          	mov    %eax,0x1c(%esp)
  408dad:	8b 45 14             	mov    0x14(%ebp),%eax
  408db0:	c7 44 24 18 00 00 00 	movl   $0x0,0x18(%esp)
  408db7:	00 
  408db8:	c7 44 24 0c 01 00 00 	movl   $0x1,0xc(%esp)
  408dbf:	00 
  408dc0:	c7 44 24 04 00 00 00 	movl   $0x0,0x4(%esp)
  408dc7:	00 
  408dc8:	89 44 24 14          	mov    %eax,0x14(%esp)
  408dcc:	8b 45 08             	mov    0x8(%ebp),%eax
  408dcf:	89 14 24             	mov    %edx,(%esp)
  408dd2:	c7 45 f4 00 00 00 00 	movl   $0x0,-0xc(%ebp)
  408dd9:	89 44 24 10          	mov    %eax,0x10(%esp)
  408ddd:	8d 45 e4             	lea    -0x1c(%ebp),%eax
  408de0:	89 44 24 08          	mov    %eax,0x8(%esp)
  408de4:	e8 f7 16 00 00       	call   40a4e0 <_WideCharToMultiByte@32>
  408de9:	83 ec 20             	sub    $0x20,%esp
  408dec:	85 c0                	test   %eax,%eax
  408dee:	74 07                	je     408df7 <___wcrtomb_cp+0x77>
  408df0:	8b 55 f4             	mov    -0xc(%ebp),%edx
  408df3:	85 d2                	test   %edx,%edx
  408df5:	74 ad                	je     408da4 <___wcrtomb_cp+0x24>
  408df7:	e8 0c 16 00 00       	call   40a408 <__errno>
  408dfc:	c7 00 2a 00 00 00    	movl   $0x2a,(%eax)
  408e02:	b8 ff ff ff ff       	mov    $0xffffffff,%eax
  408e07:	c9                   	leave  
  408e08:	c3                   	ret    
  408e09:	8d b4 26 00 00 00 00 	lea    0x0(%esi,%eiz,1),%esi

00408e10 <_wcrtomb>:
  408e10:	57                   	push   %edi
  408e11:	56                   	push   %esi
  408e12:	53                   	push   %ebx
  408e13:	83 ec 20             	sub    $0x20,%esp
  408e16:	8b 5c 24 30          	mov    0x30(%esp),%ebx
  408e1a:	8b 74 24 34          	mov    0x34(%esp),%esi
  408e1e:	85 db                	test   %ebx,%ebx
  408e20:	74 5e                	je     408e80 <_wcrtomb+0x70>
  408e22:	a1 b4 01 41 00       	mov    0x4101b4,%eax
  408e27:	8b 38                	mov    (%eax),%edi
  408e29:	c7 44 24 04 00 00 00 	movl   $0x0,0x4(%esp)
  408e30:	00 
  408e31:	c7 04 24 02 00 00 00 	movl   $0x2,(%esp)
  408e38:	e8 d3 15 00 00       	call   40a410 <_setlocale>
  408e3d:	c7 44 24 04 2e 00 00 	movl   $0x2e,0x4(%esp)
  408e44:	00 
  408e45:	89 04 24             	mov    %eax,(%esp)
  408e48:	e8 03 16 00 00       	call   40a450 <_strchr>
  408e4d:	31 d2                	xor    %edx,%edx
  408e4f:	85 c0                	test   %eax,%eax
  408e51:	74 0d                	je     408e60 <_wcrtomb+0x50>
  408e53:	83 c0 01             	add    $0x1,%eax
  408e56:	89 04 24             	mov    %eax,(%esp)
  408e59:	e8 fa 15 00 00       	call   40a458 <_atoi>
  408e5e:	89 c2                	mov    %eax,%edx
  408e60:	0f b7 f6             	movzwl %si,%esi
  408e63:	89 7c 24 0c          	mov    %edi,0xc(%esp)
  408e67:	89 74 24 04          	mov    %esi,0x4(%esp)
  408e6b:	89 1c 24             	mov    %ebx,(%esp)
  408e6e:	89 54 24 08          	mov    %edx,0x8(%esp)
  408e72:	e8 09 ff ff ff       	call   408d80 <___wcrtomb_cp>
  408e77:	83 c4 20             	add    $0x20,%esp
  408e7a:	5b                   	pop    %ebx
  408e7b:	5e                   	pop    %esi
  408e7c:	5f                   	pop    %edi
  408e7d:	c3                   	ret    
  408e7e:	66 90                	xchg   %ax,%ax
  408e80:	8d 5c 24 1e          	lea    0x1e(%esp),%ebx
  408e84:	eb 9c                	jmp    408e22 <_wcrtomb+0x12>
  408e86:	8d 76 00             	lea    0x0(%esi),%esi
  408e89:	8d bc 27 00 00 00 00 	lea    0x0(%edi,%eiz,1),%edi

00408e90 <_wcsrtombs>:
  408e90:	55                   	push   %ebp
  408e91:	57                   	push   %edi
  408e92:	56                   	push   %esi
  408e93:	31 f6                	xor    %esi,%esi
  408e95:	53                   	push   %ebx
  408e96:	83 ec 3c             	sub    $0x3c,%esp
  408e99:	c7 44 24 04 00 00 00 	movl   $0x0,0x4(%esp)
  408ea0:	00 
  408ea1:	8b 5c 24 50          	mov    0x50(%esp),%ebx
  408ea5:	c7 04 24 02 00 00 00 	movl   $0x2,(%esp)
  408eac:	e8 5f 15 00 00       	call   40a410 <_setlocale>
  408eb1:	c7 44 24 04 2e 00 00 	movl   $0x2e,0x4(%esp)
  408eb8:	00 
  408eb9:	89 04 24             	mov    %eax,(%esp)
  408ebc:	e8 8f 15 00 00       	call   40a450 <_strchr>
  408ec1:	85 c0                	test   %eax,%eax
  408ec3:	74 0d                	je     408ed2 <_wcsrtombs+0x42>
  408ec5:	83 c0 01             	add    $0x1,%eax
  408ec8:	89 04 24             	mov    %eax,(%esp)
  408ecb:	e8 88 15 00 00       	call   40a458 <_atoi>
  408ed0:	89 c6                	mov    %eax,%esi
  408ed2:	a1 b4 01 41 00       	mov    0x4101b4,%eax
  408ed7:	8b 00                	mov    (%eax),%eax
  408ed9:	89 44 24 1c          	mov    %eax,0x1c(%esp)
  408edd:	8b 44 24 54          	mov    0x54(%esp),%eax
  408ee1:	8b 38                	mov    (%eax),%edi
  408ee3:	85 ff                	test   %edi,%edi
  408ee5:	0f 84 cc 00 00 00    	je     408fb7 <_wcsrtombs+0x127>
  408eeb:	31 ed                	xor    %ebp,%ebp
  408eed:	85 db                	test   %ebx,%ebx
  408eef:	74 76                	je     408f67 <_wcsrtombs+0xd7>
  408ef1:	8b 4c 24 58          	mov    0x58(%esp),%ecx
  408ef5:	85 c9                	test   %ecx,%ecx
  408ef7:	74 49                	je     408f42 <_wcsrtombs+0xb2>
  408ef9:	89 f0                	mov    %esi,%eax
  408efb:	89 fe                	mov    %edi,%esi
  408efd:	89 c7                	mov    %eax,%edi
  408eff:	eb 13                	jmp    408f14 <_wcsrtombs+0x84>
  408f01:	01 c3                	add    %eax,%ebx
  408f03:	01 c5                	add    %eax,%ebp
  408f05:	80 7b ff 00          	cmpb   $0x0,-0x1(%ebx)
  408f09:	74 47                	je     408f52 <_wcsrtombs+0xc2>
  408f0b:	83 c6 02             	add    $0x2,%esi
  408f0e:	39 6c 24 58          	cmp    %ebp,0x58(%esp)
  408f12:	76 2c                	jbe    408f40 <_wcsrtombs+0xb0>
  408f14:	8b 44 24 1c          	mov    0x1c(%esp),%eax
  408f18:	89 7c 24 08          	mov    %edi,0x8(%esp)
  408f1c:	89 44 24 0c          	mov    %eax,0xc(%esp)
  408f20:	0f b7 06             	movzwl (%esi),%eax
  408f23:	89 1c 24             	mov    %ebx,(%esp)
  408f26:	89 44 24 04          	mov    %eax,0x4(%esp)
  408f2a:	e8 51 fe ff ff       	call   408d80 <___wcrtomb_cp>
  408f2f:	85 c0                	test   %eax,%eax
  408f31:	7f ce                	jg     408f01 <_wcsrtombs+0x71>
  408f33:	b8 ff ff ff ff       	mov    $0xffffffff,%eax
  408f38:	83 c4 3c             	add    $0x3c,%esp
  408f3b:	5b                   	pop    %ebx
  408f3c:	5e                   	pop    %esi
  408f3d:	5f                   	pop    %edi
  408f3e:	5d                   	pop    %ebp
  408f3f:	c3                   	ret    
  408f40:	89 f7                	mov    %esi,%edi
  408f42:	8b 44 24 54          	mov    0x54(%esp),%eax
  408f46:	89 38                	mov    %edi,(%eax)
  408f48:	83 c4 3c             	add    $0x3c,%esp
  408f4b:	89 e8                	mov    %ebp,%eax
  408f4d:	5b                   	pop    %ebx
  408f4e:	5e                   	pop    %esi
  408f4f:	5f                   	pop    %edi
  408f50:	5d                   	pop    %ebp
  408f51:	c3                   	ret    
  408f52:	8b 44 24 54          	mov    0x54(%esp),%eax
  408f56:	c7 00 00 00 00 00    	movl   $0x0,(%eax)
  408f5c:	83 c4 3c             	add    $0x3c,%esp
  408f5f:	5b                   	pop    %ebx
  408f60:	8d 45 ff             	lea    -0x1(%ebp),%eax
  408f63:	5e                   	pop    %esi
  408f64:	5f                   	pop    %edi
  408f65:	5d                   	pop    %ebp
  408f66:	c3                   	ret    
  408f67:	8b 44 24 58          	mov    0x58(%esp),%eax
  408f6b:	85 c0                	test   %eax,%eax
  408f6d:	74 63                	je     408fd2 <_wcsrtombs+0x142>
  408f6f:	89 e8                	mov    %ebp,%eax
  408f71:	8b 5c 24 1c          	mov    0x1c(%esp),%ebx
  408f75:	89 fd                	mov    %edi,%ebp
  408f77:	89 c7                	mov    %eax,%edi
  408f79:	eb 17                	jmp    408f92 <_wcsrtombs+0x102>
  408f7b:	90                   	nop
  408f7c:	8d 74 26 00          	lea    0x0(%esi,%eiz,1),%esi
  408f80:	01 c7                	add    %eax,%edi
  408f82:	80 7c 04 2d 00       	cmpb   $0x0,0x2d(%esp,%eax,1)
  408f87:	74 38                	je     408fc1 <_wcsrtombs+0x131>
  408f89:	83 c5 02             	add    $0x2,%ebp
  408f8c:	39 7c 24 58          	cmp    %edi,0x58(%esp)
  408f90:	76 37                	jbe    408fc9 <_wcsrtombs+0x139>
  408f92:	89 5c 24 0c          	mov    %ebx,0xc(%esp)
  408f96:	89 74 24 08          	mov    %esi,0x8(%esp)
  408f9a:	0f b7 45 00          	movzwl 0x0(%ebp),%eax
  408f9e:	89 44 24 04          	mov    %eax,0x4(%esp)
  408fa2:	8d 44 24 2e          	lea    0x2e(%esp),%eax
  408fa6:	89 04 24             	mov    %eax,(%esp)
  408fa9:	e8 d2 fd ff ff       	call   408d80 <___wcrtomb_cp>
  408fae:	85 c0                	test   %eax,%eax
  408fb0:	7f ce                	jg     408f80 <_wcsrtombs+0xf0>
  408fb2:	e9 7c ff ff ff       	jmp    408f33 <_wcsrtombs+0xa3>
  408fb7:	83 c4 3c             	add    $0x3c,%esp
  408fba:	31 c0                	xor    %eax,%eax
  408fbc:	5b                   	pop    %ebx
  408fbd:	5e                   	pop    %esi
  408fbe:	5f                   	pop    %edi
  408fbf:	5d                   	pop    %ebp
  408fc0:	c3                   	ret    
  408fc1:	8d 47 ff             	lea    -0x1(%edi),%eax
  408fc4:	e9 6f ff ff ff       	jmp    408f38 <_wcsrtombs+0xa8>
  408fc9:	89 fd                	mov    %edi,%ebp
  408fcb:	89 e8                	mov    %ebp,%eax
  408fcd:	e9 66 ff ff ff       	jmp    408f38 <_wcsrtombs+0xa8>
  408fd2:	89 dd                	mov    %ebx,%ebp
  408fd4:	89 e8                	mov    %ebp,%eax
  408fd6:	e9 5d ff ff ff       	jmp    408f38 <_wcsrtombs+0xa8>
  408fdb:	90                   	nop
  408fdc:	90                   	nop
  408fdd:	90                   	nop
  408fde:	90                   	nop
  408fdf:	90                   	nop

00408fe0 <___mbrtowc_cp>:
  408fe0:	55                   	push   %ebp
  408fe1:	89 e5                	mov    %esp,%ebp
  408fe3:	56                   	push   %esi
  408fe4:	53                   	push   %ebx
  408fe5:	83 ec 30             	sub    $0x30,%esp
  408fe8:	8b 5d 0c             	mov    0xc(%ebp),%ebx
  408feb:	8b 75 14             	mov    0x14(%ebp),%esi
  408fee:	85 db                	test   %ebx,%ebx
  408ff0:	0f 84 2d 01 00 00    	je     409123 <___mbrtowc_cp+0x143>
  408ff6:	8b 4d 10             	mov    0x10(%ebp),%ecx
  408ff9:	85 c9                	test   %ecx,%ecx
  408ffb:	0f 84 2f 01 00 00    	je     409130 <___mbrtowc_cp+0x150>
  409001:	8b 06                	mov    (%esi),%eax
  409003:	c7 06 00 00 00 00    	movl   $0x0,(%esi)
  409009:	89 45 f4             	mov    %eax,-0xc(%ebp)
  40900c:	0f b6 03             	movzbl (%ebx),%eax
  40900f:	84 c0                	test   %al,%al
  409011:	0f 84 99 00 00 00    	je     4090b0 <___mbrtowc_cp+0xd0>
  409017:	83 7d 1c 01          	cmpl   $0x1,0x1c(%ebp)
  40901b:	76 73                	jbe    409090 <___mbrtowc_cp+0xb0>
  40901d:	80 7d f4 00          	cmpb   $0x0,-0xc(%ebp)
  409021:	0f 85 9a 00 00 00    	jne    4090c1 <___mbrtowc_cp+0xe1>
  409027:	89 44 24 04          	mov    %eax,0x4(%esp)
  40902b:	8b 45 18             	mov    0x18(%ebp),%eax
  40902e:	89 04 24             	mov    %eax,(%esp)
  409031:	e8 b2 14 00 00       	call   40a4e8 <_IsDBCSLeadByteEx@8>
  409036:	83 ec 08             	sub    $0x8,%esp
  409039:	85 c0                	test   %eax,%eax
  40903b:	74 53                	je     409090 <___mbrtowc_cp+0xb0>
  40903d:	83 7d 10 01          	cmpl   $0x1,0x10(%ebp)
  409041:	0f 86 05 01 00 00    	jbe    40914c <___mbrtowc_cp+0x16c>
  409047:	8b 45 08             	mov    0x8(%ebp),%eax
  40904a:	c7 44 24 14 01 00 00 	movl   $0x1,0x14(%esp)
  409051:	00 
  409052:	c7 44 24 0c 02 00 00 	movl   $0x2,0xc(%esp)
  409059:	00 
  40905a:	89 5c 24 08          	mov    %ebx,0x8(%esp)
  40905e:	89 44 24 10          	mov    %eax,0x10(%esp)
  409062:	8b 45 18             	mov    0x18(%ebp),%eax
  409065:	c7 44 24 04 08 00 00 	movl   $0x8,0x4(%esp)
  40906c:	00 
  40906d:	89 04 24             	mov    %eax,(%esp)
  409070:	e8 7b 14 00 00       	call   40a4f0 <_MultiByteToWideChar@24>
  409075:	83 ec 18             	sub    $0x18,%esp
  409078:	85 c0                	test   %eax,%eax
  40907a:	0f 84 b7 00 00 00    	je     409137 <___mbrtowc_cp+0x157>
  409080:	8d 65 f8             	lea    -0x8(%ebp),%esp
  409083:	b8 02 00 00 00       	mov    $0x2,%eax
  409088:	5b                   	pop    %ebx
  409089:	5e                   	pop    %esi
  40908a:	5d                   	pop    %ebp
  40908b:	c3                   	ret    
  40908c:	8d 74 26 00          	lea    0x0(%esi,%eiz,1),%esi
  409090:	8b 45 18             	mov    0x18(%ebp),%eax
  409093:	85 c0                	test   %eax,%eax
  409095:	75 50                	jne    4090e7 <___mbrtowc_cp+0x107>
  409097:	0f b6 03             	movzbl (%ebx),%eax
  40909a:	8b 55 08             	mov    0x8(%ebp),%edx
  40909d:	66 89 02             	mov    %ax,(%edx)
  4090a0:	8d 65 f8             	lea    -0x8(%ebp),%esp
  4090a3:	b8 01 00 00 00       	mov    $0x1,%eax
  4090a8:	5b                   	pop    %ebx
  4090a9:	5e                   	pop    %esi
  4090aa:	5d                   	pop    %ebp
  4090ab:	c3                   	ret    
  4090ac:	8d 74 26 00          	lea    0x0(%esi,%eiz,1),%esi
  4090b0:	8b 45 08             	mov    0x8(%ebp),%eax
  4090b3:	31 d2                	xor    %edx,%edx
  4090b5:	66 89 10             	mov    %dx,(%eax)
  4090b8:	31 c0                	xor    %eax,%eax
  4090ba:	8d 65 f8             	lea    -0x8(%ebp),%esp
  4090bd:	5b                   	pop    %ebx
  4090be:	5e                   	pop    %esi
  4090bf:	5d                   	pop    %ebp
  4090c0:	c3                   	ret    
  4090c1:	88 45 f5             	mov    %al,-0xb(%ebp)
  4090c4:	8b 45 08             	mov    0x8(%ebp),%eax
  4090c7:	c7 44 24 14 01 00 00 	movl   $0x1,0x14(%esp)
  4090ce:	00 
  4090cf:	c7 44 24 0c 02 00 00 	movl   $0x2,0xc(%esp)
  4090d6:	00 
  4090d7:	89 44 24 10          	mov    %eax,0x10(%esp)
  4090db:	8d 45 f4             	lea    -0xc(%ebp),%eax
  4090de:	89 44 24 08          	mov    %eax,0x8(%esp)
  4090e2:	e9 7b ff ff ff       	jmp    409062 <___mbrtowc_cp+0x82>
  4090e7:	8b 45 08             	mov    0x8(%ebp),%eax
  4090ea:	c7 44 24 14 01 00 00 	movl   $0x1,0x14(%esp)
  4090f1:	00 
  4090f2:	c7 44 24 0c 01 00 00 	movl   $0x1,0xc(%esp)
  4090f9:	00 
  4090fa:	89 5c 24 08          	mov    %ebx,0x8(%esp)
  4090fe:	89 44 24 10          	mov    %eax,0x10(%esp)
  409102:	8b 45 18             	mov    0x18(%ebp),%eax
  409105:	c7 44 24 04 08 00 00 	movl   $0x8,0x4(%esp)
  40910c:	00 
  40910d:	89 04 24             	mov    %eax,(%esp)
  409110:	e8 db 13 00 00       	call   40a4f0 <_MultiByteToWideChar@24>
  409115:	83 ec 18             	sub    $0x18,%esp
  409118:	85 c0                	test   %eax,%eax
  40911a:	74 1b                	je     409137 <___mbrtowc_cp+0x157>
  40911c:	b8 01 00 00 00       	mov    $0x1,%eax
  409121:	eb 97                	jmp    4090ba <___mbrtowc_cp+0xda>
  409123:	8d 65 f8             	lea    -0x8(%ebp),%esp
  409126:	31 c0                	xor    %eax,%eax
  409128:	5b                   	pop    %ebx
  409129:	5e                   	pop    %esi
  40912a:	5d                   	pop    %ebp
  40912b:	c3                   	ret    
  40912c:	8d 74 26 00          	lea    0x0(%esi,%eiz,1),%esi
  409130:	b8 fe ff ff ff       	mov    $0xfffffffe,%eax
  409135:	eb 83                	jmp    4090ba <___mbrtowc_cp+0xda>
  409137:	e8 cc 12 00 00       	call   40a408 <__errno>
  40913c:	c7 00 2a 00 00 00    	movl   $0x2a,(%eax)
  409142:	b8 ff ff ff ff       	mov    $0xffffffff,%eax
  409147:	e9 6e ff ff ff       	jmp    4090ba <___mbrtowc_cp+0xda>
  40914c:	0f b6 03             	movzbl (%ebx),%eax
  40914f:	88 06                	mov    %al,(%esi)
  409151:	b8 fe ff ff ff       	mov    $0xfffffffe,%eax
  409156:	e9 5f ff ff ff       	jmp    4090ba <___mbrtowc_cp+0xda>
  40915b:	90                   	nop
  40915c:	8d 74 26 00          	lea    0x0(%esi,%eiz,1),%esi

00409160 <_mbrtowc>:
  409160:	56                   	push   %esi
  409161:	31 f6                	xor    %esi,%esi
  409163:	53                   	push   %ebx
  409164:	83 ec 34             	sub    $0x34,%esp
  409167:	8b 5c 24 40          	mov    0x40(%esp),%ebx
  40916b:	66 89 74 24 2e       	mov    %si,0x2e(%esp)
  409170:	85 db                	test   %ebx,%ebx
  409172:	74 70                	je     4091e4 <_mbrtowc+0x84>
  409174:	a1 b4 01 41 00       	mov    0x4101b4,%eax
  409179:	8b 30                	mov    (%eax),%esi
  40917b:	c7 44 24 04 00 00 00 	movl   $0x0,0x4(%esp)
  409182:	00 
  409183:	c7 04 24 02 00 00 00 	movl   $0x2,(%esp)
  40918a:	e8 81 12 00 00       	call   40a410 <_setlocale>
  40918f:	c7 44 24 04 2e 00 00 	movl   $0x2e,0x4(%esp)
  409196:	00 
  409197:	89 04 24             	mov    %eax,(%esp)
  40919a:	e8 b1 12 00 00       	call   40a450 <_strchr>
  40919f:	31 c9                	xor    %ecx,%ecx
  4091a1:	85 c0                	test   %eax,%eax
  4091a3:	74 0d                	je     4091b2 <_mbrtowc+0x52>
  4091a5:	83 c0 01             	add    $0x1,%eax
  4091a8:	89 04 24             	mov    %eax,(%esp)
  4091ab:	e8 a8 12 00 00       	call   40a458 <_atoi>
  4091b0:	89 c1                	mov    %eax,%ecx
  4091b2:	8b 54 24 4c          	mov    0x4c(%esp),%edx
  4091b6:	85 d2                	test   %edx,%edx
  4091b8:	74 36                	je     4091f0 <_mbrtowc+0x90>
  4091ba:	8b 44 24 48          	mov    0x48(%esp),%eax
  4091be:	89 74 24 14          	mov    %esi,0x14(%esp)
  4091c2:	89 1c 24             	mov    %ebx,(%esp)
  4091c5:	89 4c 24 10          	mov    %ecx,0x10(%esp)
  4091c9:	89 44 24 08          	mov    %eax,0x8(%esp)
  4091cd:	8b 44 24 44          	mov    0x44(%esp),%eax
  4091d1:	89 54 24 0c          	mov    %edx,0xc(%esp)
  4091d5:	89 44 24 04          	mov    %eax,0x4(%esp)
  4091d9:	e8 02 fe ff ff       	call   408fe0 <___mbrtowc_cp>
  4091de:	83 c4 34             	add    $0x34,%esp
  4091e1:	5b                   	pop    %ebx
  4091e2:	5e                   	pop    %esi
  4091e3:	c3                   	ret    
  4091e4:	8d 5c 24 2e          	lea    0x2e(%esp),%ebx
  4091e8:	eb 8a                	jmp    409174 <_mbrtowc+0x14>
  4091ea:	8d b6 00 00 00 00    	lea    0x0(%esi),%esi
  4091f0:	ba 80 f0 40 00       	mov    $0x40f080,%edx
  4091f5:	eb c3                	jmp    4091ba <_mbrtowc+0x5a>
  4091f7:	89 f6                	mov    %esi,%esi
  4091f9:	8d bc 27 00 00 00 00 	lea    0x0(%edi,%eiz,1),%edi

00409200 <_mbsrtowcs>:
  409200:	55                   	push   %ebp
  409201:	57                   	push   %edi
  409202:	56                   	push   %esi
  409203:	53                   	push   %ebx
  409204:	83 ec 3c             	sub    $0x3c,%esp
  409207:	8b 44 24 5c          	mov    0x5c(%esp),%eax
  40920b:	8b 5c 24 50          	mov    0x50(%esp),%ebx
  40920f:	8b 74 24 54          	mov    0x54(%esp),%esi
  409213:	8b 7c 24 58          	mov    0x58(%esp),%edi
  409217:	85 c0                	test   %eax,%eax
  409219:	0f 84 41 01 00 00    	je     409360 <_mbsrtowcs+0x160>
  40921f:	c7 44 24 04 00 00 00 	movl   $0x0,0x4(%esp)
  409226:	00 
  409227:	c7 04 24 02 00 00 00 	movl   $0x2,(%esp)
  40922e:	e8 dd 11 00 00       	call   40a410 <_setlocale>
  409233:	c7 44 24 04 2e 00 00 	movl   $0x2e,0x4(%esp)
  40923a:	00 
  40923b:	89 04 24             	mov    %eax,(%esp)
  40923e:	e8 0d 12 00 00       	call   40a450 <_strchr>
  409243:	c7 44 24 18 00 00 00 	movl   $0x0,0x18(%esp)
  40924a:	00 
  40924b:	85 c0                	test   %eax,%eax
  40924d:	74 0f                	je     40925e <_mbsrtowcs+0x5e>
  40924f:	83 c0 01             	add    $0x1,%eax
  409252:	89 04 24             	mov    %eax,(%esp)
  409255:	e8 fe 11 00 00       	call   40a458 <_atoi>
  40925a:	89 44 24 18          	mov    %eax,0x18(%esp)
  40925e:	a1 b4 01 41 00       	mov    0x4101b4,%eax
  409263:	85 f6                	test   %esi,%esi
  409265:	8b 00                	mov    (%eax),%eax
  409267:	89 44 24 1c          	mov    %eax,0x1c(%esp)
  40926b:	0f 84 df 00 00 00    	je     409350 <_mbsrtowcs+0x150>
  409271:	8b 0e                	mov    (%esi),%ecx
  409273:	85 c9                	test   %ecx,%ecx
  409275:	0f 84 d5 00 00 00    	je     409350 <_mbsrtowcs+0x150>
  40927b:	85 db                	test   %ebx,%ebx
  40927d:	74 71                	je     4092f0 <_mbsrtowcs+0xf0>
  40927f:	85 ff                	test   %edi,%edi
  409281:	0f 84 c9 00 00 00    	je     409350 <_mbsrtowcs+0x150>
  409287:	89 74 24 54          	mov    %esi,0x54(%esp)
  40928b:	31 ed                	xor    %ebp,%ebp
  40928d:	89 de                	mov    %ebx,%esi
  40928f:	8b 5c 24 54          	mov    0x54(%esp),%ebx
  409293:	eb 0f                	jmp    4092a4 <_mbsrtowcs+0xa4>
  409295:	8b 0b                	mov    (%ebx),%ecx
  409297:	01 c5                	add    %eax,%ebp
  409299:	83 c6 02             	add    $0x2,%esi
  40929c:	01 c1                	add    %eax,%ecx
  40929e:	39 ef                	cmp    %ebp,%edi
  4092a0:	89 0b                	mov    %ecx,(%ebx)
  4092a2:	76 30                	jbe    4092d4 <_mbsrtowcs+0xd4>
  4092a4:	8b 44 24 1c          	mov    0x1c(%esp),%eax
  4092a8:	89 4c 24 04          	mov    %ecx,0x4(%esp)
  4092ac:	89 34 24             	mov    %esi,(%esp)
  4092af:	89 44 24 14          	mov    %eax,0x14(%esp)
  4092b3:	8b 44 24 18          	mov    0x18(%esp),%eax
  4092b7:	89 44 24 10          	mov    %eax,0x10(%esp)
  4092bb:	8b 44 24 5c          	mov    0x5c(%esp),%eax
  4092bf:	89 44 24 0c          	mov    %eax,0xc(%esp)
  4092c3:	89 f8                	mov    %edi,%eax
  4092c5:	29 e8                	sub    %ebp,%eax
  4092c7:	89 44 24 08          	mov    %eax,0x8(%esp)
  4092cb:	e8 10 fd ff ff       	call   408fe0 <___mbrtowc_cp>
  4092d0:	85 c0                	test   %eax,%eax
  4092d2:	7f c1                	jg     409295 <_mbsrtowcs+0x95>
  4092d4:	85 c0                	test   %eax,%eax
  4092d6:	75 6e                	jne    409346 <_mbsrtowcs+0x146>
  4092d8:	39 fd                	cmp    %edi,%ebp
  4092da:	73 6a                	jae    409346 <_mbsrtowcs+0x146>
  4092dc:	c7 03 00 00 00 00    	movl   $0x0,(%ebx)
  4092e2:	83 c4 3c             	add    $0x3c,%esp
  4092e5:	89 e8                	mov    %ebp,%eax
  4092e7:	5b                   	pop    %ebx
  4092e8:	5e                   	pop    %esi
  4092e9:	5f                   	pop    %edi
  4092ea:	5d                   	pop    %ebp
  4092eb:	c3                   	ret    
  4092ec:	8d 74 26 00          	lea    0x0(%esi,%eiz,1),%esi
  4092f0:	31 ed                	xor    %ebp,%ebp
  4092f2:	66 89 6c 24 2e       	mov    %bp,0x2e(%esp)
  4092f7:	31 ed                	xor    %ebp,%ebp
  4092f9:	85 ff                	test   %edi,%edi
  4092fb:	74 49                	je     409346 <_mbsrtowcs+0x146>
  4092fd:	89 7c 24 58          	mov    %edi,0x58(%esp)
  409301:	8d 5c 24 2e          	lea    0x2e(%esp),%ebx
  409305:	89 f7                	mov    %esi,%edi
  409307:	8b 74 24 1c          	mov    0x1c(%esp),%esi
  40930b:	eb 11                	jmp    40931e <_mbsrtowcs+0x11e>
  40930d:	8d 76 00             	lea    0x0(%esi),%esi
  409310:	8b 0f                	mov    (%edi),%ecx
  409312:	01 c5                	add    %eax,%ebp
  409314:	01 c1                	add    %eax,%ecx
  409316:	39 6c 24 58          	cmp    %ebp,0x58(%esp)
  40931a:	89 0f                	mov    %ecx,(%edi)
  40931c:	76 28                	jbe    409346 <_mbsrtowcs+0x146>
  40931e:	8b 44 24 18          	mov    0x18(%esp),%eax
  409322:	89 74 24 14          	mov    %esi,0x14(%esp)
  409326:	89 74 24 08          	mov    %esi,0x8(%esp)
  40932a:	89 4c 24 04          	mov    %ecx,0x4(%esp)
  40932e:	89 44 24 10          	mov    %eax,0x10(%esp)
  409332:	8b 44 24 5c          	mov    0x5c(%esp),%eax
  409336:	89 1c 24             	mov    %ebx,(%esp)
  409339:	89 44 24 0c          	mov    %eax,0xc(%esp)
  40933d:	e8 9e fc ff ff       	call   408fe0 <___mbrtowc_cp>
  409342:	85 c0                	test   %eax,%eax
  409344:	7f ca                	jg     409310 <_mbsrtowcs+0x110>
  409346:	83 c4 3c             	add    $0x3c,%esp
  409349:	89 e8                	mov    %ebp,%eax
  40934b:	5b                   	pop    %ebx
  40934c:	5e                   	pop    %esi
  40934d:	5f                   	pop    %edi
  40934e:	5d                   	pop    %ebp
  40934f:	c3                   	ret    
  409350:	83 c4 3c             	add    $0x3c,%esp
  409353:	31 c0                	xor    %eax,%eax
  409355:	5b                   	pop    %ebx
  409356:	5e                   	pop    %esi
  409357:	5f                   	pop    %edi
  409358:	5d                   	pop    %ebp
  409359:	c3                   	ret    
  40935a:	8d b6 00 00 00 00    	lea    0x0(%esi),%esi
  409360:	c7 44 24 5c 7c f0 40 	movl   $0x40f07c,0x5c(%esp)
  409367:	00 
  409368:	e9 b2 fe ff ff       	jmp    40921f <_mbsrtowcs+0x1f>
  40936d:	8d 76 00             	lea    0x0(%esi),%esi

00409370 <_mbrlen>:
  409370:	53                   	push   %ebx
  409371:	31 c0                	xor    %eax,%eax
  409373:	83 ec 38             	sub    $0x38,%esp
  409376:	66 89 44 24 2e       	mov    %ax,0x2e(%esp)
  40937b:	a1 b4 01 41 00       	mov    0x4101b4,%eax
  409380:	8b 18                	mov    (%eax),%ebx
  409382:	c7 44 24 04 00 00 00 	movl   $0x0,0x4(%esp)
  409389:	00 
  40938a:	c7 04 24 02 00 00 00 	movl   $0x2,(%esp)
  409391:	e8 7a 10 00 00       	call   40a410 <_setlocale>
  409396:	c7 44 24 04 2e 00 00 	movl   $0x2e,0x4(%esp)
  40939d:	00 
  40939e:	89 04 24             	mov    %eax,(%esp)
  4093a1:	e8 aa 10 00 00       	call   40a450 <_strchr>
  4093a6:	31 c9                	xor    %ecx,%ecx
  4093a8:	85 c0                	test   %eax,%eax
  4093aa:	74 0d                	je     4093b9 <_mbrlen+0x49>
  4093ac:	83 c0 01             	add    $0x1,%eax
  4093af:	89 04 24             	mov    %eax,(%esp)
  4093b2:	e8 a1 10 00 00       	call   40a458 <_atoi>
  4093b7:	89 c1                	mov    %eax,%ecx
  4093b9:	8b 54 24 48          	mov    0x48(%esp),%edx
  4093bd:	85 d2                	test   %edx,%edx
  4093bf:	74 2f                	je     4093f0 <_mbrlen+0x80>
  4093c1:	8b 44 24 44          	mov    0x44(%esp),%eax
  4093c5:	89 5c 24 14          	mov    %ebx,0x14(%esp)
  4093c9:	89 4c 24 10          	mov    %ecx,0x10(%esp)
  4093cd:	89 54 24 0c          	mov    %edx,0xc(%esp)
  4093d1:	89 44 24 08          	mov    %eax,0x8(%esp)
  4093d5:	8b 44 24 40          	mov    0x40(%esp),%eax
  4093d9:	89 44 24 04          	mov    %eax,0x4(%esp)
  4093dd:	8d 44 24 2e          	lea    0x2e(%esp),%eax
  4093e1:	89 04 24             	mov    %eax,(%esp)
  4093e4:	e8 f7 fb ff ff       	call   408fe0 <___mbrtowc_cp>
  4093e9:	83 c4 38             	add    $0x38,%esp
  4093ec:	5b                   	pop    %ebx
  4093ed:	c3                   	ret    
  4093ee:	66 90                	xchg   %ax,%ax
  4093f0:	ba 78 f0 40 00       	mov    $0x40f078,%edx
  4093f5:	eb ca                	jmp    4093c1 <_mbrlen+0x51>
  4093f7:	90                   	nop
  4093f8:	90                   	nop
  4093f9:	90                   	nop
  4093fa:	90                   	nop
  4093fb:	90                   	nop
  4093fc:	90                   	nop
  4093fd:	90                   	nop
  4093fe:	90                   	nop
  4093ff:	90                   	nop

00409400 <___rv_alloc_D2A>:
  409400:	53                   	push   %ebx
  409401:	31 db                	xor    %ebx,%ebx
  409403:	83 ec 18             	sub    $0x18,%esp
  409406:	8b 4c 24 20          	mov    0x20(%esp),%ecx
  40940a:	83 f9 13             	cmp    $0x13,%ecx
  40940d:	76 11                	jbe    409420 <___rv_alloc_D2A+0x20>
  40940f:	b8 04 00 00 00       	mov    $0x4,%eax
  409414:	01 c0                	add    %eax,%eax
  409416:	83 c3 01             	add    $0x1,%ebx
  409419:	8d 50 10             	lea    0x10(%eax),%edx
  40941c:	39 ca                	cmp    %ecx,%edx
  40941e:	76 f4                	jbe    409414 <___rv_alloc_D2A+0x14>
  409420:	89 1c 24             	mov    %ebx,(%esp)
  409423:	e8 a8 03 00 00       	call   4097d0 <___Balloc_D2A>
  409428:	89 18                	mov    %ebx,(%eax)
  40942a:	83 c4 18             	add    $0x18,%esp
  40942d:	83 c0 04             	add    $0x4,%eax
  409430:	5b                   	pop    %ebx
  409431:	c3                   	ret    
  409432:	8d b4 26 00 00 00 00 	lea    0x0(%esi,%eiz,1),%esi
  409439:	8d bc 27 00 00 00 00 	lea    0x0(%edi,%eiz,1),%edi

00409440 <___nrv_alloc_D2A>:
  409440:	56                   	push   %esi
  409441:	53                   	push   %ebx
  409442:	83 ec 14             	sub    $0x14,%esp
  409445:	8b 44 24 28          	mov    0x28(%esp),%eax
  409449:	8b 5c 24 20          	mov    0x20(%esp),%ebx
  40944d:	8b 74 24 24          	mov    0x24(%esp),%esi
  409451:	89 04 24             	mov    %eax,(%esp)
  409454:	e8 a7 ff ff ff       	call   409400 <___rv_alloc_D2A>
  409459:	0f b6 13             	movzbl (%ebx),%edx
  40945c:	8d 4b 01             	lea    0x1(%ebx),%ecx
  40945f:	84 d2                	test   %dl,%dl
  409461:	88 10                	mov    %dl,(%eax)
  409463:	89 c2                	mov    %eax,%edx
  409465:	74 10                	je     409477 <___nrv_alloc_D2A+0x37>
  409467:	83 c1 01             	add    $0x1,%ecx
  40946a:	0f b6 59 ff          	movzbl -0x1(%ecx),%ebx
  40946e:	83 c2 01             	add    $0x1,%edx
  409471:	84 db                	test   %bl,%bl
  409473:	88 1a                	mov    %bl,(%edx)
  409475:	75 f0                	jne    409467 <___nrv_alloc_D2A+0x27>
  409477:	85 f6                	test   %esi,%esi
  409479:	74 02                	je     40947d <___nrv_alloc_D2A+0x3d>
  40947b:	89 16                	mov    %edx,(%esi)
  40947d:	83 c4 14             	add    $0x14,%esp
  409480:	5b                   	pop    %ebx
  409481:	5e                   	pop    %esi
  409482:	c3                   	ret    
  409483:	8d b6 00 00 00 00    	lea    0x0(%esi),%esi
  409489:	8d bc 27 00 00 00 00 	lea    0x0(%edi,%eiz,1),%edi

00409490 <___freedtoa>:
  409490:	8b 44 24 04          	mov    0x4(%esp),%eax
  409494:	ba 01 00 00 00       	mov    $0x1,%edx
  409499:	8b 48 fc             	mov    -0x4(%eax),%ecx
  40949c:	83 e8 04             	sub    $0x4,%eax
  40949f:	d3 e2                	shl    %cl,%edx
  4094a1:	89 48 04             	mov    %ecx,0x4(%eax)
  4094a4:	89 50 08             	mov    %edx,0x8(%eax)
  4094a7:	89 44 24 04          	mov    %eax,0x4(%esp)
  4094ab:	e9 f0 03 00 00       	jmp    4098a0 <___Bfree_D2A>

004094b0 <___quorem_D2A>:
  4094b0:	55                   	push   %ebp
  4094b1:	57                   	push   %edi
  4094b2:	56                   	push   %esi
  4094b3:	53                   	push   %ebx
  4094b4:	83 ec 4c             	sub    $0x4c,%esp
  4094b7:	8b 44 24 64          	mov    0x64(%esp),%eax
  4094bb:	8b 7c 24 60          	mov    0x60(%esp),%edi
  4094bf:	8b 50 10             	mov    0x10(%eax),%edx
  4094c2:	31 c0                	xor    %eax,%eax
  4094c4:	3b 57 10             	cmp    0x10(%edi),%edx
  4094c7:	0f 8f d6 01 00 00    	jg     4096a3 <___quorem_D2A+0x1f3>
  4094cd:	8b 44 24 64          	mov    0x64(%esp),%eax
  4094d1:	8b 74 24 60          	mov    0x60(%esp),%esi
  4094d5:	83 c0 14             	add    $0x14,%eax
  4094d8:	89 c7                	mov    %eax,%edi
  4094da:	89 44 24 38          	mov    %eax,0x38(%esp)
  4094de:	8d 42 ff             	lea    -0x1(%edx),%eax
  4094e1:	31 d2                	xor    %edx,%edx
  4094e3:	89 44 24 30          	mov    %eax,0x30(%esp)
  4094e7:	c1 e0 02             	shl    $0x2,%eax
  4094ea:	01 c7                	add    %eax,%edi
  4094ec:	8d 5e 14             	lea    0x14(%esi),%ebx
  4094ef:	01 d8                	add    %ebx,%eax
  4094f1:	89 7c 24 28          	mov    %edi,0x28(%esp)
  4094f5:	8b 3f                	mov    (%edi),%edi
  4094f7:	89 44 24 3c          	mov    %eax,0x3c(%esp)
  4094fb:	8b 00                	mov    (%eax),%eax
  4094fd:	89 5c 24 2c          	mov    %ebx,0x2c(%esp)
  409501:	8d 4f 01             	lea    0x1(%edi),%ecx
  409504:	f7 f1                	div    %ecx
  409506:	89 7c 24 10          	mov    %edi,0x10(%esp)
  40950a:	85 c0                	test   %eax,%eax
  40950c:	89 c5                	mov    %eax,%ebp
  40950e:	89 44 24 34          	mov    %eax,0x34(%esp)
  409512:	0f 84 c7 00 00 00    	je     4095df <___quorem_D2A+0x12f>
  409518:	8b 7c 24 38          	mov    0x38(%esp),%edi
  40951c:	89 de                	mov    %ebx,%esi
  40951e:	c7 44 24 20 00 00 00 	movl   $0x0,0x20(%esp)
  409525:	00 
  409526:	c7 44 24 24 00 00 00 	movl   $0x0,0x24(%esp)
  40952d:	00 
  40952e:	c7 44 24 10 00 00 00 	movl   $0x0,0x10(%esp)
  409535:	00 
  409536:	c7 44 24 14 00 00 00 	movl   $0x0,0x14(%esp)
  40953d:	00 
  40953e:	66 90                	xchg   %ax,%ax
  409540:	83 c7 04             	add    $0x4,%edi
  409543:	89 e8                	mov    %ebp,%eax
  409545:	f7 67 fc             	mull   -0x4(%edi)
  409548:	03 44 24 20          	add    0x20(%esp),%eax
  40954c:	13 54 24 24          	adc    0x24(%esp),%edx
  409550:	c7 44 24 1c 00 00 00 	movl   $0x0,0x1c(%esp)
  409557:	00 
  409558:	89 44 24 18          	mov    %eax,0x18(%esp)
  40955c:	89 d3                	mov    %edx,%ebx
  40955e:	89 d9                	mov    %ebx,%ecx
  409560:	31 db                	xor    %ebx,%ebx
  409562:	89 4c 24 20          	mov    %ecx,0x20(%esp)
  409566:	8b 0e                	mov    (%esi),%ecx
  409568:	89 5c 24 24          	mov    %ebx,0x24(%esp)
  40956c:	31 db                	xor    %ebx,%ebx
  40956e:	2b 4c 24 18          	sub    0x18(%esp),%ecx
  409572:	1b 5c 24 1c          	sbb    0x1c(%esp),%ebx
  409576:	2b 4c 24 10          	sub    0x10(%esp),%ecx
  40957a:	1b 5c 24 14          	sbb    0x14(%esp),%ebx
  40957e:	83 c6 04             	add    $0x4,%esi
  409581:	c7 44 24 14 00 00 00 	movl   $0x0,0x14(%esp)
  409588:	00 
  409589:	89 d8                	mov    %ebx,%eax
  40958b:	83 e0 01             	and    $0x1,%eax
  40958e:	39 7c 24 28          	cmp    %edi,0x28(%esp)
  409592:	89 44 24 10          	mov    %eax,0x10(%esp)
  409596:	89 4e fc             	mov    %ecx,-0x4(%esi)
  409599:	73 a5                	jae    409540 <___quorem_D2A+0x90>
  40959b:	8b 44 24 3c          	mov    0x3c(%esp),%eax
  40959f:	8b 38                	mov    (%eax),%edi
  4095a1:	85 ff                	test   %edi,%edi
  4095a3:	75 3a                	jne    4095df <___quorem_D2A+0x12f>
  4095a5:	8b 4c 24 2c          	mov    0x2c(%esp),%ecx
  4095a9:	89 c6                	mov    %eax,%esi
  4095ab:	83 e8 04             	sub    $0x4,%eax
  4095ae:	39 c1                	cmp    %eax,%ecx
  4095b0:	73 22                	jae    4095d4 <___quorem_D2A+0x124>
  4095b2:	8b 76 fc             	mov    -0x4(%esi),%esi
  4095b5:	85 f6                	test   %esi,%esi
  4095b7:	75 1b                	jne    4095d4 <___quorem_D2A+0x124>
  4095b9:	8b 54 24 30          	mov    0x30(%esp),%edx
  4095bd:	eb 07                	jmp    4095c6 <___quorem_D2A+0x116>
  4095bf:	90                   	nop
  4095c0:	8b 18                	mov    (%eax),%ebx
  4095c2:	85 db                	test   %ebx,%ebx
  4095c4:	75 0a                	jne    4095d0 <___quorem_D2A+0x120>
  4095c6:	83 e8 04             	sub    $0x4,%eax
  4095c9:	83 ea 01             	sub    $0x1,%edx
  4095cc:	39 c1                	cmp    %eax,%ecx
  4095ce:	72 f0                	jb     4095c0 <___quorem_D2A+0x110>
  4095d0:	89 54 24 30          	mov    %edx,0x30(%esp)
  4095d4:	8b 44 24 60          	mov    0x60(%esp),%eax
  4095d8:	8b 7c 24 30          	mov    0x30(%esp),%edi
  4095dc:	89 78 10             	mov    %edi,0x10(%eax)
  4095df:	8b 44 24 64          	mov    0x64(%esp),%eax
  4095e3:	89 44 24 04          	mov    %eax,0x4(%esp)
  4095e7:	8b 44 24 60          	mov    0x60(%esp),%eax
  4095eb:	89 04 24             	mov    %eax,(%esp)
  4095ee:	e8 2d 08 00 00       	call   409e20 <___cmp_D2A>
  4095f3:	85 c0                	test   %eax,%eax
  4095f5:	0f 88 a4 00 00 00    	js     40969f <___quorem_D2A+0x1ef>
  4095fb:	31 f6                	xor    %esi,%esi
  4095fd:	31 ff                	xor    %edi,%edi
  4095ff:	8d 45 01             	lea    0x1(%ebp),%eax
  409602:	8b 6c 24 2c          	mov    0x2c(%esp),%ebp
  409606:	89 74 24 10          	mov    %esi,0x10(%esp)
  40960a:	8b 74 24 38          	mov    0x38(%esp),%esi
  40960e:	89 7c 24 14          	mov    %edi,0x14(%esp)
  409612:	8b 7c 24 28          	mov    0x28(%esp),%edi
  409616:	89 44 24 34          	mov    %eax,0x34(%esp)
  40961a:	8d b6 00 00 00 00    	lea    0x0(%esi),%esi
  409620:	83 c6 04             	add    $0x4,%esi
  409623:	8b 45 00             	mov    0x0(%ebp),%eax
  409626:	31 db                	xor    %ebx,%ebx
  409628:	8b 4e fc             	mov    -0x4(%esi),%ecx
  40962b:	31 d2                	xor    %edx,%edx
  40962d:	29 c8                	sub    %ecx,%eax
  40962f:	19 da                	sbb    %ebx,%edx
  409631:	2b 44 24 10          	sub    0x10(%esp),%eax
  409635:	1b 54 24 14          	sbb    0x14(%esp),%edx
  409639:	83 c5 04             	add    $0x4,%ebp
  40963c:	c7 44 24 14 00 00 00 	movl   $0x0,0x14(%esp)
  409643:	00 
  409644:	89 d3                	mov    %edx,%ebx
  409646:	83 e3 01             	and    $0x1,%ebx
  409649:	39 f7                	cmp    %esi,%edi
  40964b:	89 5c 24 10          	mov    %ebx,0x10(%esp)
  40964f:	89 45 fc             	mov    %eax,-0x4(%ebp)
  409652:	73 cc                	jae    409620 <___quorem_D2A+0x170>
  409654:	8b 44 24 2c          	mov    0x2c(%esp),%eax
  409658:	8b 5c 24 30          	mov    0x30(%esp),%ebx
  40965c:	8d 14 98             	lea    (%eax,%ebx,4),%edx
  40965f:	8b 3a                	mov    (%edx),%edi
  409661:	85 ff                	test   %edi,%edi
  409663:	75 3a                	jne    40969f <___quorem_D2A+0x1ef>
  409665:	8b 4c 24 2c          	mov    0x2c(%esp),%ecx
  409669:	8d 42 fc             	lea    -0x4(%edx),%eax
  40966c:	39 c1                	cmp    %eax,%ecx
  40966e:	73 24                	jae    409694 <___quorem_D2A+0x1e4>
  409670:	8b 72 fc             	mov    -0x4(%edx),%esi
  409673:	85 f6                	test   %esi,%esi
  409675:	75 1d                	jne    409694 <___quorem_D2A+0x1e4>
  409677:	89 da                	mov    %ebx,%edx
  409679:	eb 0b                	jmp    409686 <___quorem_D2A+0x1d6>
  40967b:	90                   	nop
  40967c:	8d 74 26 00          	lea    0x0(%esi,%eiz,1),%esi
  409680:	8b 18                	mov    (%eax),%ebx
  409682:	85 db                	test   %ebx,%ebx
  409684:	75 0a                	jne    409690 <___quorem_D2A+0x1e0>
  409686:	83 e8 04             	sub    $0x4,%eax
  409689:	83 ea 01             	sub    $0x1,%edx
  40968c:	39 c1                	cmp    %eax,%ecx
  40968e:	72 f0                	jb     409680 <___quorem_D2A+0x1d0>
  409690:	89 54 24 30          	mov    %edx,0x30(%esp)
  409694:	8b 44 24 60          	mov    0x60(%esp),%eax
  409698:	8b 7c 24 30          	mov    0x30(%esp),%edi
  40969c:	89 78 10             	mov    %edi,0x10(%eax)
  40969f:	8b 44 24 34          	mov    0x34(%esp),%eax
  4096a3:	83 c4 4c             	add    $0x4c,%esp
  4096a6:	5b                   	pop    %ebx
  4096a7:	5e                   	pop    %esi
  4096a8:	5f                   	pop    %edi
  4096a9:	5d                   	pop    %ebp
  4096aa:	c3                   	ret    
  4096ab:	90                   	nop
  4096ac:	90                   	nop
  4096ad:	90                   	nop
  4096ae:	90                   	nop
  4096af:	90                   	nop

004096b0 <_dtoa_lock>:
  4096b0:	55                   	push   %ebp
  4096b1:	89 e5                	mov    %esp,%ebp
  4096b3:	53                   	push   %ebx
  4096b4:	89 c3                	mov    %eax,%ebx
  4096b6:	83 ec 14             	sub    $0x14,%esp
  4096b9:	8b 15 e8 f9 40 00    	mov    0x40f9e8,%edx
  4096bf:	83 fa 02             	cmp    $0x2,%edx
  4096c2:	74 7f                	je     409743 <_dtoa_lock+0x93>
  4096c4:	85 d2                	test   %edx,%edx
  4096c6:	75 1d                	jne    4096e5 <_dtoa_lock+0x35>
  4096c8:	eb 2a                	jmp    4096f4 <_dtoa_lock+0x44>
  4096ca:	8d b6 00 00 00 00    	lea    0x0(%esi),%esi
  4096d0:	c7 04 24 01 00 00 00 	movl   $0x1,(%esp)
  4096d7:	e8 1c 0e 00 00       	call   40a4f8 <_Sleep@4>
  4096dc:	83 ec 04             	sub    $0x4,%esp
  4096df:	8b 15 e8 f9 40 00    	mov    0x40f9e8,%edx
  4096e5:	83 fa 01             	cmp    $0x1,%edx
  4096e8:	74 e6                	je     4096d0 <_dtoa_lock+0x20>
  4096ea:	83 fa 02             	cmp    $0x2,%edx
  4096ed:	74 54                	je     409743 <_dtoa_lock+0x93>
  4096ef:	8b 5d fc             	mov    -0x4(%ebp),%ebx
  4096f2:	c9                   	leave  
  4096f3:	c3                   	ret    
  4096f4:	c7 44 24 04 01 00 00 	movl   $0x1,0x4(%esp)
  4096fb:	00 
  4096fc:	c7 04 24 e8 f9 40 00 	movl   $0x40f9e8,(%esp)
  409703:	e8 f8 0d 00 00       	call   40a500 <_InterlockedExchange@8>
  409708:	83 ec 08             	sub    $0x8,%esp
  40970b:	85 c0                	test   %eax,%eax
  40970d:	75 51                	jne    409760 <_dtoa_lock+0xb0>
  40970f:	c7 04 24 00 fa 40 00 	movl   $0x40fa00,(%esp)
  409716:	e8 a5 0d 00 00       	call   40a4c0 <_InitializeCriticalSection@4>
  40971b:	83 ec 04             	sub    $0x4,%esp
  40971e:	c7 04 24 18 fa 40 00 	movl   $0x40fa18,(%esp)
  409725:	e8 96 0d 00 00       	call   40a4c0 <_InitializeCriticalSection@4>
  40972a:	83 ec 04             	sub    $0x4,%esp
  40972d:	c7 04 24 80 97 40 00 	movl   $0x409780,(%esp)
  409734:	e8 a7 7b ff ff       	call   4012e0 <_atexit>
  409739:	c7 05 e8 f9 40 00 02 	movl   $0x2,0x40f9e8
  409740:	00 00 00 
  409743:	8d 04 5b             	lea    (%ebx,%ebx,2),%eax
  409746:	8d 04 c5 00 fa 40 00 	lea    0x40fa00(,%eax,8),%eax
  40974d:	89 04 24             	mov    %eax,(%esp)
  409750:	e8 43 0d 00 00       	call   40a498 <_EnterCriticalSection@4>
  409755:	8b 5d fc             	mov    -0x4(%ebp),%ebx
  409758:	83 ec 04             	sub    $0x4,%esp
  40975b:	c9                   	leave  
  40975c:	c3                   	ret    
  40975d:	8d 76 00             	lea    0x0(%esi),%esi
  409760:	83 f8 02             	cmp    $0x2,%eax
  409763:	0f 85 76 ff ff ff    	jne    4096df <_dtoa_lock+0x2f>
  409769:	c7 05 e8 f9 40 00 02 	movl   $0x2,0x40f9e8
  409770:	00 00 00 
  409773:	eb ce                	jmp    409743 <_dtoa_lock+0x93>
  409775:	8d 74 26 00          	lea    0x0(%esi,%eiz,1),%esi
  409779:	8d bc 27 00 00 00 00 	lea    0x0(%edi,%eiz,1),%edi

00409780 <_dtoa_lock_cleanup>:
  409780:	55                   	push   %ebp
  409781:	89 e5                	mov    %esp,%ebp
  409783:	83 ec 18             	sub    $0x18,%esp
  409786:	c7 44 24 04 03 00 00 	movl   $0x3,0x4(%esp)
  40978d:	00 
  40978e:	c7 04 24 e8 f9 40 00 	movl   $0x40f9e8,(%esp)
  409795:	e8 66 0d 00 00       	call   40a500 <_InterlockedExchange@8>
  40979a:	83 ec 08             	sub    $0x8,%esp
  40979d:	83 f8 02             	cmp    $0x2,%eax
  4097a0:	74 02                	je     4097a4 <_dtoa_lock_cleanup+0x24>
  4097a2:	c9                   	leave  
  4097a3:	c3                   	ret    
  4097a4:	c7 04 24 00 fa 40 00 	movl   $0x40fa00,(%esp)
  4097ab:	e8 08 0d 00 00       	call   40a4b8 <_DeleteCriticalSection@4>
  4097b0:	83 ec 04             	sub    $0x4,%esp
  4097b3:	c7 04 24 18 fa 40 00 	movl   $0x40fa18,(%esp)
  4097ba:	e8 f9 0c 00 00       	call   40a4b8 <_DeleteCriticalSection@4>
  4097bf:	83 ec 04             	sub    $0x4,%esp
  4097c2:	c9                   	leave  
  4097c3:	c3                   	ret    
  4097c4:	8d b6 00 00 00 00    	lea    0x0(%esi),%esi
  4097ca:	8d bf 00 00 00 00    	lea    0x0(%edi),%edi

004097d0 <___Balloc_D2A>:
  4097d0:	55                   	push   %ebp
  4097d1:	31 c0                	xor    %eax,%eax
  4097d3:	89 e5                	mov    %esp,%ebp
  4097d5:	57                   	push   %edi
  4097d6:	56                   	push   %esi
  4097d7:	53                   	push   %ebx
  4097d8:	83 ec 1c             	sub    $0x1c,%esp
  4097db:	8b 75 08             	mov    0x8(%ebp),%esi
  4097de:	e8 cd fe ff ff       	call   4096b0 <_dtoa_lock>
  4097e3:	83 fe 09             	cmp    $0x9,%esi
  4097e6:	7f 2e                	jg     409816 <___Balloc_D2A+0x46>
  4097e8:	8b 1c b5 c0 f9 40 00 	mov    0x40f9c0(,%esi,4),%ebx
  4097ef:	85 db                	test   %ebx,%ebx
  4097f1:	74 6e                	je     409861 <___Balloc_D2A+0x91>
  4097f3:	8b 03                	mov    (%ebx),%eax
  4097f5:	83 3d e8 f9 40 00 02 	cmpl   $0x2,0x40f9e8
  4097fc:	89 04 b5 c0 f9 40 00 	mov    %eax,0x40f9c0(,%esi,4)
  409803:	75 44                	jne    409849 <___Balloc_D2A+0x79>
  409805:	c7 04 24 00 fa 40 00 	movl   $0x40fa00,(%esp)
  40980c:	e8 9f 0c 00 00       	call   40a4b0 <_LeaveCriticalSection@4>
  409811:	83 ec 04             	sub    $0x4,%esp
  409814:	eb 33                	jmp    409849 <___Balloc_D2A+0x79>
  409816:	bf 01 00 00 00       	mov    $0x1,%edi
  40981b:	89 f1                	mov    %esi,%ecx
  40981d:	d3 e7                	shl    %cl,%edi
  40981f:	8d 04 bd 1b 00 00 00 	lea    0x1b(,%edi,4),%eax
  409826:	c1 e8 03             	shr    $0x3,%eax
  409829:	c1 e0 03             	shl    $0x3,%eax
  40982c:	89 04 24             	mov    %eax,(%esp)
  40982f:	e8 74 0b 00 00       	call   40a3a8 <_malloc>
  409834:	85 c0                	test   %eax,%eax
  409836:	89 c3                	mov    %eax,%ebx
  409838:	74 5f                	je     409899 <___Balloc_D2A+0xc9>
  40983a:	83 3d e8 f9 40 00 02 	cmpl   $0x2,0x40f9e8
  409841:	89 73 04             	mov    %esi,0x4(%ebx)
  409844:	89 7b 08             	mov    %edi,0x8(%ebx)
  409847:	74 bc                	je     409805 <___Balloc_D2A+0x35>
  409849:	c7 43 10 00 00 00 00 	movl   $0x0,0x10(%ebx)
  409850:	89 d8                	mov    %ebx,%eax
  409852:	c7 43 0c 00 00 00 00 	movl   $0x0,0xc(%ebx)
  409859:	8d 65 f4             	lea    -0xc(%ebp),%esp
  40985c:	5b                   	pop    %ebx
  40985d:	5e                   	pop    %esi
  40985e:	5f                   	pop    %edi
  40985f:	5d                   	pop    %ebp
  409860:	c3                   	ret    
  409861:	8b 1d 00 b2 40 00    	mov    0x40b200,%ebx
  409867:	bf 01 00 00 00       	mov    $0x1,%edi
  40986c:	89 f1                	mov    %esi,%ecx
  40986e:	d3 e7                	shl    %cl,%edi
  409870:	8d 04 bd 1b 00 00 00 	lea    0x1b(,%edi,4),%eax
  409877:	c1 e8 03             	shr    $0x3,%eax
  40987a:	89 da                	mov    %ebx,%edx
  40987c:	81 ea c0 f0 40 00    	sub    $0x40f0c0,%edx
  409882:	c1 fa 03             	sar    $0x3,%edx
  409885:	01 c2                	add    %eax,%edx
  409887:	81 fa 20 01 00 00    	cmp    $0x120,%edx
  40988d:	77 9a                	ja     409829 <___Balloc_D2A+0x59>
  40988f:	8d 04 c3             	lea    (%ebx,%eax,8),%eax
  409892:	a3 00 b2 40 00       	mov    %eax,0x40b200
  409897:	eb a1                	jmp    40983a <___Balloc_D2A+0x6a>
  409899:	31 c0                	xor    %eax,%eax
  40989b:	eb bc                	jmp    409859 <___Balloc_D2A+0x89>
  40989d:	8d 76 00             	lea    0x0(%esi),%esi

004098a0 <___Bfree_D2A>:
  4098a0:	55                   	push   %ebp
  4098a1:	89 e5                	mov    %esp,%ebp
  4098a3:	53                   	push   %ebx
  4098a4:	83 ec 14             	sub    $0x14,%esp
  4098a7:	8b 5d 08             	mov    0x8(%ebp),%ebx
  4098aa:	85 db                	test   %ebx,%ebx
  4098ac:	74 29                	je     4098d7 <___Bfree_D2A+0x37>
  4098ae:	83 7b 04 09          	cmpl   $0x9,0x4(%ebx)
  4098b2:	7f 2c                	jg     4098e0 <___Bfree_D2A+0x40>
  4098b4:	31 c0                	xor    %eax,%eax
  4098b6:	e8 f5 fd ff ff       	call   4096b0 <_dtoa_lock>
  4098bb:	8b 43 04             	mov    0x4(%ebx),%eax
  4098be:	83 3d e8 f9 40 00 02 	cmpl   $0x2,0x40f9e8
  4098c5:	8b 14 85 c0 f9 40 00 	mov    0x40f9c0(,%eax,4),%edx
  4098cc:	89 1c 85 c0 f9 40 00 	mov    %ebx,0x40f9c0(,%eax,4)
  4098d3:	89 13                	mov    %edx,(%ebx)
  4098d5:	74 19                	je     4098f0 <___Bfree_D2A+0x50>
  4098d7:	8b 5d fc             	mov    -0x4(%ebp),%ebx
  4098da:	c9                   	leave  
  4098db:	c3                   	ret    
  4098dc:	8d 74 26 00          	lea    0x0(%esi,%eiz,1),%esi
  4098e0:	8b 5d fc             	mov    -0x4(%ebp),%ebx
  4098e3:	c9                   	leave  
  4098e4:	e9 af 0a 00 00       	jmp    40a398 <_free>
  4098e9:	8d b4 26 00 00 00 00 	lea    0x0(%esi,%eiz,1),%esi
  4098f0:	c7 04 24 00 fa 40 00 	movl   $0x40fa00,(%esp)
  4098f7:	e8 b4 0b 00 00       	call   40a4b0 <_LeaveCriticalSection@4>
  4098fc:	8b 5d fc             	mov    -0x4(%ebp),%ebx
  4098ff:	83 ec 04             	sub    $0x4,%esp
  409902:	c9                   	leave  
  409903:	c3                   	ret    
  409904:	8d b6 00 00 00 00    	lea    0x0(%esi),%esi
  40990a:	8d bf 00 00 00 00    	lea    0x0(%edi),%edi

00409910 <___multadd_D2A>:
  409910:	55                   	push   %ebp
  409911:	31 c9                	xor    %ecx,%ecx
  409913:	57                   	push   %edi
  409914:	56                   	push   %esi
  409915:	53                   	push   %ebx
  409916:	83 ec 2c             	sub    $0x2c,%esp
  409919:	8b 44 24 40          	mov    0x40(%esp),%eax
  40991d:	8b 7c 24 48          	mov    0x48(%esp),%edi
  409921:	8b 40 10             	mov    0x10(%eax),%eax
  409924:	89 fd                	mov    %edi,%ebp
  409926:	c1 fd 1f             	sar    $0x1f,%ebp
  409929:	89 44 24 1c          	mov    %eax,0x1c(%esp)
  40992d:	8b 44 24 40          	mov    0x40(%esp),%eax
  409931:	8d 58 14             	lea    0x14(%eax),%ebx
  409934:	8b 44 24 44          	mov    0x44(%esp),%eax
  409938:	89 44 24 10          	mov    %eax,0x10(%esp)
  40993c:	c1 f8 1f             	sar    $0x1f,%eax
  40993f:	89 44 24 14          	mov    %eax,0x14(%esp)
  409943:	8b 04 8b             	mov    (%ebx,%ecx,4),%eax
  409946:	8b 74 24 14          	mov    0x14(%esp),%esi
  40994a:	0f af f0             	imul   %eax,%esi
  40994d:	f7 64 24 10          	mull   0x10(%esp)
  409951:	01 f2                	add    %esi,%edx
  409953:	01 f8                	add    %edi,%eax
  409955:	11 ea                	adc    %ebp,%edx
  409957:	89 d5                	mov    %edx,%ebp
  409959:	89 ef                	mov    %ebp,%edi
  40995b:	31 ed                	xor    %ebp,%ebp
  40995d:	89 04 8b             	mov    %eax,(%ebx,%ecx,4)
  409960:	83 c1 01             	add    $0x1,%ecx
  409963:	39 4c 24 1c          	cmp    %ecx,0x1c(%esp)
  409967:	7f da                	jg     409943 <___multadd_D2A+0x33>
  409969:	89 ea                	mov    %ebp,%edx
  40996b:	8b 44 24 40          	mov    0x40(%esp),%eax
  40996f:	09 fa                	or     %edi,%edx
  409971:	74 1d                	je     409990 <___multadd_D2A+0x80>
  409973:	8b 54 24 1c          	mov    0x1c(%esp),%edx
  409977:	3b 50 08             	cmp    0x8(%eax),%edx
  40997a:	7d 1c                	jge    409998 <___multadd_D2A+0x88>
  40997c:	8b 54 24 40          	mov    0x40(%esp),%edx
  409980:	8b 44 24 1c          	mov    0x1c(%esp),%eax
  409984:	89 7c 82 14          	mov    %edi,0x14(%edx,%eax,4)
  409988:	83 c0 01             	add    $0x1,%eax
  40998b:	89 42 10             	mov    %eax,0x10(%edx)
  40998e:	89 d0                	mov    %edx,%eax
  409990:	83 c4 2c             	add    $0x2c,%esp
  409993:	5b                   	pop    %ebx
  409994:	5e                   	pop    %esi
  409995:	5f                   	pop    %edi
  409996:	5d                   	pop    %ebp
  409997:	c3                   	ret    
  409998:	8b 40 04             	mov    0x4(%eax),%eax
  40999b:	89 44 24 10          	mov    %eax,0x10(%esp)
  40999f:	83 c0 01             	add    $0x1,%eax
  4099a2:	89 04 24             	mov    %eax,(%esp)
  4099a5:	e8 26 fe ff ff       	call   4097d0 <___Balloc_D2A>
  4099aa:	85 c0                	test   %eax,%eax
  4099ac:	89 c3                	mov    %eax,%ebx
  4099ae:	74 3a                	je     4099ea <___multadd_D2A+0xda>
  4099b0:	8d 48 0c             	lea    0xc(%eax),%ecx
  4099b3:	8b 44 24 40          	mov    0x40(%esp),%eax
  4099b7:	8b 40 10             	mov    0x10(%eax),%eax
  4099ba:	89 0c 24             	mov    %ecx,(%esp)
  4099bd:	8d 14 85 08 00 00 00 	lea    0x8(,%eax,4),%edx
  4099c4:	8b 44 24 40          	mov    0x40(%esp),%eax
  4099c8:	89 54 24 08          	mov    %edx,0x8(%esp)
  4099cc:	83 c0 0c             	add    $0xc,%eax
  4099cf:	89 44 24 04          	mov    %eax,0x4(%esp)
  4099d3:	e8 d8 09 00 00       	call   40a3b0 <_memcpy>
  4099d8:	8b 44 24 40          	mov    0x40(%esp),%eax
  4099dc:	89 04 24             	mov    %eax,(%esp)
  4099df:	e8 bc fe ff ff       	call   4098a0 <___Bfree_D2A>
  4099e4:	89 5c 24 40          	mov    %ebx,0x40(%esp)
  4099e8:	eb 92                	jmp    40997c <___multadd_D2A+0x6c>
  4099ea:	31 c0                	xor    %eax,%eax
  4099ec:	eb a2                	jmp    409990 <___multadd_D2A+0x80>
  4099ee:	66 90                	xchg   %ax,%ax

004099f0 <___i2b_D2A>:
  4099f0:	83 ec 1c             	sub    $0x1c,%esp
  4099f3:	c7 04 24 01 00 00 00 	movl   $0x1,(%esp)
  4099fa:	e8 d1 fd ff ff       	call   4097d0 <___Balloc_D2A>
  4099ff:	85 c0                	test   %eax,%eax
  409a01:	74 0e                	je     409a11 <___i2b_D2A+0x21>
  409a03:	8b 54 24 20          	mov    0x20(%esp),%edx
  409a07:	c7 40 10 01 00 00 00 	movl   $0x1,0x10(%eax)
  409a0e:	89 50 14             	mov    %edx,0x14(%eax)
  409a11:	83 c4 1c             	add    $0x1c,%esp
  409a14:	c3                   	ret    
  409a15:	8d 74 26 00          	lea    0x0(%esi,%eiz,1),%esi
  409a19:	8d bc 27 00 00 00 00 	lea    0x0(%edi,%eiz,1),%edi

00409a20 <___mult_D2A>:
  409a20:	55                   	push   %ebp
  409a21:	57                   	push   %edi
  409a22:	56                   	push   %esi
  409a23:	53                   	push   %ebx
  409a24:	83 ec 3c             	sub    $0x3c,%esp
  409a27:	8b 7c 24 50          	mov    0x50(%esp),%edi
  409a2b:	8b 6c 24 54          	mov    0x54(%esp),%ebp
  409a2f:	8b 77 10             	mov    0x10(%edi),%esi
  409a32:	8b 5d 10             	mov    0x10(%ebp),%ebx
  409a35:	39 de                	cmp    %ebx,%esi
  409a37:	7d 0c                	jge    409a45 <___mult_D2A+0x25>
  409a39:	89 f0                	mov    %esi,%eax
  409a3b:	89 de                	mov    %ebx,%esi
  409a3d:	89 c3                	mov    %eax,%ebx
  409a3f:	89 f8                	mov    %edi,%eax
  409a41:	89 ef                	mov    %ebp,%edi
  409a43:	89 c5                	mov    %eax,%ebp
  409a45:	8d 04 1e             	lea    (%esi,%ebx,1),%eax
  409a48:	3b 47 08             	cmp    0x8(%edi),%eax
  409a4b:	89 44 24 20          	mov    %eax,0x20(%esp)
  409a4f:	0f 9f c0             	setg   %al
  409a52:	0f b6 c0             	movzbl %al,%eax
  409a55:	03 47 04             	add    0x4(%edi),%eax
  409a58:	89 04 24             	mov    %eax,(%esp)
  409a5b:	e8 70 fd ff ff       	call   4097d0 <___Balloc_D2A>
  409a60:	85 c0                	test   %eax,%eax
  409a62:	89 44 24 2c          	mov    %eax,0x2c(%esp)
  409a66:	0f 84 08 01 00 00    	je     409b74 <___mult_D2A+0x154>
  409a6c:	8b 4c 24 20          	mov    0x20(%esp),%ecx
  409a70:	8d 40 14             	lea    0x14(%eax),%eax
  409a73:	89 44 24 18          	mov    %eax,0x18(%esp)
  409a77:	8d 0c 88             	lea    (%eax,%ecx,4),%ecx
  409a7a:	89 ca                	mov    %ecx,%edx
  409a7c:	39 d0                	cmp    %edx,%eax
  409a7e:	89 4c 24 28          	mov    %ecx,0x28(%esp)
  409a82:	73 11                	jae    409a95 <___mult_D2A+0x75>
  409a84:	8b 54 24 28          	mov    0x28(%esp),%edx
  409a88:	c7 00 00 00 00 00    	movl   $0x0,(%eax)
  409a8e:	83 c0 04             	add    $0x4,%eax
  409a91:	39 c2                	cmp    %eax,%edx
  409a93:	77 f3                	ja     409a88 <___mult_D2A+0x68>
  409a95:	8d 47 14             	lea    0x14(%edi),%eax
  409a98:	89 44 24 24          	mov    %eax,0x24(%esp)
  409a9c:	8d 04 b0             	lea    (%eax,%esi,4),%eax
  409a9f:	89 44 24 10          	mov    %eax,0x10(%esp)
  409aa3:	8d 45 14             	lea    0x14(%ebp),%eax
  409aa6:	8d 1c 98             	lea    (%eax,%ebx,4),%ebx
  409aa9:	39 d8                	cmp    %ebx,%eax
  409aab:	89 44 24 14          	mov    %eax,0x14(%esp)
  409aaf:	89 5c 24 1c          	mov    %ebx,0x1c(%esp)
  409ab3:	73 74                	jae    409b29 <___mult_D2A+0x109>
  409ab5:	83 44 24 14 04       	addl   $0x4,0x14(%esp)
  409aba:	8b 44 24 14          	mov    0x14(%esp),%eax
  409abe:	8b 68 fc             	mov    -0x4(%eax),%ebp
  409ac1:	85 ed                	test   %ebp,%ebp
  409ac3:	74 55                	je     409b1a <___mult_D2A+0xfa>
  409ac5:	8b 7c 24 18          	mov    0x18(%esp),%edi
  409ac9:	8b 74 24 24          	mov    0x24(%esp),%esi
  409acd:	c7 44 24 08 00 00 00 	movl   $0x0,0x8(%esp)
  409ad4:	00 
  409ad5:	c7 44 24 0c 00 00 00 	movl   $0x0,0xc(%esp)
  409adc:	00 
  409add:	eb 03                	jmp    409ae2 <___mult_D2A+0xc2>
  409adf:	90                   	nop
  409ae0:	89 c7                	mov    %eax,%edi
  409ae2:	83 c6 04             	add    $0x4,%esi
  409ae5:	8b 0f                	mov    (%edi),%ecx
  409ae7:	89 e8                	mov    %ebp,%eax
  409ae9:	f7 66 fc             	mull   -0x4(%esi)
  409aec:	31 db                	xor    %ebx,%ebx
  409aee:	01 c1                	add    %eax,%ecx
  409af0:	11 d3                	adc    %edx,%ebx
  409af2:	03 4c 24 08          	add    0x8(%esp),%ecx
  409af6:	13 5c 24 0c          	adc    0xc(%esp),%ebx
  409afa:	89 0f                	mov    %ecx,(%edi)
  409afc:	89 da                	mov    %ebx,%edx
  409afe:	89 d0                	mov    %edx,%eax
  409b00:	31 d2                	xor    %edx,%edx
  409b02:	39 74 24 10          	cmp    %esi,0x10(%esp)
  409b06:	89 44 24 08          	mov    %eax,0x8(%esp)
  409b0a:	8d 47 04             	lea    0x4(%edi),%eax
  409b0d:	89 54 24 0c          	mov    %edx,0xc(%esp)
  409b11:	77 cd                	ja     409ae0 <___mult_D2A+0xc0>
  409b13:	8b 44 24 08          	mov    0x8(%esp),%eax
  409b17:	89 47 04             	mov    %eax,0x4(%edi)
  409b1a:	8b 44 24 14          	mov    0x14(%esp),%eax
  409b1e:	83 44 24 18 04       	addl   $0x4,0x18(%esp)
  409b23:	39 44 24 1c          	cmp    %eax,0x1c(%esp)
  409b27:	77 8c                	ja     409ab5 <___mult_D2A+0x95>
  409b29:	8b 7c 24 20          	mov    0x20(%esp),%edi
  409b2d:	85 ff                	test   %edi,%edi
  409b2f:	7e 30                	jle    409b61 <___mult_D2A+0x141>
  409b31:	8b 5c 24 28          	mov    0x28(%esp),%ebx
  409b35:	8b 73 fc             	mov    -0x4(%ebx),%esi
  409b38:	85 f6                	test   %esi,%esi
  409b3a:	75 25                	jne    409b61 <___mult_D2A+0x141>
  409b3c:	8b 54 24 20          	mov    0x20(%esp),%edx
  409b40:	89 d0                	mov    %edx,%eax
  409b42:	c1 e0 02             	shl    $0x2,%eax
  409b45:	29 c3                	sub    %eax,%ebx
  409b47:	89 d8                	mov    %ebx,%eax
  409b49:	eb 0d                	jmp    409b58 <___mult_D2A+0x138>
  409b4b:	90                   	nop
  409b4c:	8d 74 26 00          	lea    0x0(%esi,%eiz,1),%esi
  409b50:	8b 4c 90 fc          	mov    -0x4(%eax,%edx,4),%ecx
  409b54:	85 c9                	test   %ecx,%ecx
  409b56:	75 05                	jne    409b5d <___mult_D2A+0x13d>
  409b58:	83 ea 01             	sub    $0x1,%edx
  409b5b:	75 f3                	jne    409b50 <___mult_D2A+0x130>
  409b5d:	89 54 24 20          	mov    %edx,0x20(%esp)
  409b61:	8b 44 24 2c          	mov    0x2c(%esp),%eax
  409b65:	8b 5c 24 20          	mov    0x20(%esp),%ebx
  409b69:	89 58 10             	mov    %ebx,0x10(%eax)
  409b6c:	83 c4 3c             	add    $0x3c,%esp
  409b6f:	5b                   	pop    %ebx
  409b70:	5e                   	pop    %esi
  409b71:	5f                   	pop    %edi
  409b72:	5d                   	pop    %ebp
  409b73:	c3                   	ret    
  409b74:	31 c0                	xor    %eax,%eax
  409b76:	eb f4                	jmp    409b6c <___mult_D2A+0x14c>
  409b78:	90                   	nop
  409b79:	8d b4 26 00 00 00 00 	lea    0x0(%esi,%eiz,1),%esi

00409b80 <___pow5mult_D2A>:
  409b80:	55                   	push   %ebp
  409b81:	89 e5                	mov    %esp,%ebp
  409b83:	57                   	push   %edi
  409b84:	56                   	push   %esi
  409b85:	53                   	push   %ebx
  409b86:	83 ec 1c             	sub    $0x1c,%esp
  409b89:	8b 5d 0c             	mov    0xc(%ebp),%ebx
  409b8c:	8b 55 08             	mov    0x8(%ebp),%edx
  409b8f:	89 d8                	mov    %ebx,%eax
  409b91:	83 e0 03             	and    $0x3,%eax
  409b94:	0f 85 9e 00 00 00    	jne    409c38 <___pow5mult_D2A+0xb8>
  409b9a:	c1 fb 02             	sar    $0x2,%ebx
  409b9d:	89 d0                	mov    %edx,%eax
  409b9f:	85 db                	test   %ebx,%ebx
  409ba1:	74 4e                	je     409bf1 <___pow5mult_D2A+0x71>
  409ba3:	8b 3d a0 f0 40 00    	mov    0x40f0a0,%edi
  409ba9:	85 ff                	test   %edi,%edi
  409bab:	0f 84 d5 00 00 00    	je     409c86 <___pow5mult_D2A+0x106>
  409bb1:	f6 c3 01             	test   $0x1,%bl
  409bb4:	75 13                	jne    409bc9 <___pow5mult_D2A+0x49>
  409bb6:	d1 fb                	sar    %ebx
  409bb8:	74 35                	je     409bef <___pow5mult_D2A+0x6f>
  409bba:	8b 37                	mov    (%edi),%esi
  409bbc:	85 f6                	test   %esi,%esi
  409bbe:	66 90                	xchg   %ax,%ax
  409bc0:	74 3e                	je     409c00 <___pow5mult_D2A+0x80>
  409bc2:	89 f7                	mov    %esi,%edi
  409bc4:	f6 c3 01             	test   $0x1,%bl
  409bc7:	74 ed                	je     409bb6 <___pow5mult_D2A+0x36>
  409bc9:	89 7c 24 04          	mov    %edi,0x4(%esp)
  409bcd:	89 14 24             	mov    %edx,(%esp)
  409bd0:	89 55 e4             	mov    %edx,-0x1c(%ebp)
  409bd3:	e8 48 fe ff ff       	call   409a20 <___mult_D2A>
  409bd8:	85 c0                	test   %eax,%eax
  409bda:	89 c6                	mov    %eax,%esi
  409bdc:	74 7f                	je     409c5d <___pow5mult_D2A+0xdd>
  409bde:	8b 55 e4             	mov    -0x1c(%ebp),%edx
  409be1:	89 14 24             	mov    %edx,(%esp)
  409be4:	e8 b7 fc ff ff       	call   4098a0 <___Bfree_D2A>
  409be9:	d1 fb                	sar    %ebx
  409beb:	89 f2                	mov    %esi,%edx
  409bed:	75 cb                	jne    409bba <___pow5mult_D2A+0x3a>
  409bef:	89 d0                	mov    %edx,%eax
  409bf1:	8d 65 f4             	lea    -0xc(%ebp),%esp
  409bf4:	5b                   	pop    %ebx
  409bf5:	5e                   	pop    %esi
  409bf6:	5f                   	pop    %edi
  409bf7:	5d                   	pop    %ebp
  409bf8:	c3                   	ret    
  409bf9:	8d b4 26 00 00 00 00 	lea    0x0(%esi,%eiz,1),%esi
  409c00:	b8 01 00 00 00       	mov    $0x1,%eax
  409c05:	89 55 e4             	mov    %edx,-0x1c(%ebp)
  409c08:	e8 a3 fa ff ff       	call   4096b0 <_dtoa_lock>
  409c0d:	8b 37                	mov    (%edi),%esi
  409c0f:	8b 55 e4             	mov    -0x1c(%ebp),%edx
  409c12:	85 f6                	test   %esi,%esi
  409c14:	74 51                	je     409c67 <___pow5mult_D2A+0xe7>
  409c16:	83 3d e8 f9 40 00 02 	cmpl   $0x2,0x40f9e8
  409c1d:	75 a3                	jne    409bc2 <___pow5mult_D2A+0x42>
  409c1f:	c7 04 24 18 fa 40 00 	movl   $0x40fa18,(%esp)
  409c26:	89 f7                	mov    %esi,%edi
  409c28:	89 55 e4             	mov    %edx,-0x1c(%ebp)
  409c2b:	e8 80 08 00 00       	call   40a4b0 <_LeaveCriticalSection@4>
  409c30:	8b 55 e4             	mov    -0x1c(%ebp),%edx
  409c33:	83 ec 04             	sub    $0x4,%esp
  409c36:	eb 8c                	jmp    409bc4 <___pow5mult_D2A+0x44>
  409c38:	8b 04 85 7c c3 40 00 	mov    0x40c37c(,%eax,4),%eax
  409c3f:	89 14 24             	mov    %edx,(%esp)
  409c42:	c7 44 24 08 00 00 00 	movl   $0x0,0x8(%esp)
  409c49:	00 
  409c4a:	89 44 24 04          	mov    %eax,0x4(%esp)
  409c4e:	e8 bd fc ff ff       	call   409910 <___multadd_D2A>
  409c53:	85 c0                	test   %eax,%eax
  409c55:	89 c2                	mov    %eax,%edx
  409c57:	0f 85 3d ff ff ff    	jne    409b9a <___pow5mult_D2A+0x1a>
  409c5d:	31 c0                	xor    %eax,%eax
  409c5f:	8d 65 f4             	lea    -0xc(%ebp),%esp
  409c62:	5b                   	pop    %ebx
  409c63:	5e                   	pop    %esi
  409c64:	5f                   	pop    %edi
  409c65:	5d                   	pop    %ebp
  409c66:	c3                   	ret    
  409c67:	89 7c 24 04          	mov    %edi,0x4(%esp)
  409c6b:	89 3c 24             	mov    %edi,(%esp)
  409c6e:	e8 ad fd ff ff       	call   409a20 <___mult_D2A>
  409c73:	85 c0                	test   %eax,%eax
  409c75:	89 c6                	mov    %eax,%esi
  409c77:	89 07                	mov    %eax,(%edi)
  409c79:	74 e2                	je     409c5d <___pow5mult_D2A+0xdd>
  409c7b:	c7 00 00 00 00 00    	movl   $0x0,(%eax)
  409c81:	8b 55 e4             	mov    -0x1c(%ebp),%edx
  409c84:	eb 90                	jmp    409c16 <___pow5mult_D2A+0x96>
  409c86:	b8 01 00 00 00       	mov    $0x1,%eax
  409c8b:	89 55 e4             	mov    %edx,-0x1c(%ebp)
  409c8e:	e8 1d fa ff ff       	call   4096b0 <_dtoa_lock>
  409c93:	8b 3d a0 f0 40 00    	mov    0x40f0a0,%edi
  409c99:	8b 55 e4             	mov    -0x1c(%ebp),%edx
  409c9c:	85 ff                	test   %edi,%edi
  409c9e:	74 27                	je     409cc7 <___pow5mult_D2A+0x147>
  409ca0:	83 3d e8 f9 40 00 02 	cmpl   $0x2,0x40f9e8
  409ca7:	0f 85 04 ff ff ff    	jne    409bb1 <___pow5mult_D2A+0x31>
  409cad:	c7 04 24 18 fa 40 00 	movl   $0x40fa18,(%esp)
  409cb4:	89 55 e4             	mov    %edx,-0x1c(%ebp)
  409cb7:	e8 f4 07 00 00       	call   40a4b0 <_LeaveCriticalSection@4>
  409cbc:	8b 55 e4             	mov    -0x1c(%ebp),%edx
  409cbf:	83 ec 04             	sub    $0x4,%esp
  409cc2:	e9 ea fe ff ff       	jmp    409bb1 <___pow5mult_D2A+0x31>
  409cc7:	c7 04 24 01 00 00 00 	movl   $0x1,(%esp)
  409cce:	e8 fd fa ff ff       	call   4097d0 <___Balloc_D2A>
  409cd3:	85 c0                	test   %eax,%eax
  409cd5:	89 c7                	mov    %eax,%edi
  409cd7:	74 1e                	je     409cf7 <___pow5mult_D2A+0x177>
  409cd9:	c7 40 14 71 02 00 00 	movl   $0x271,0x14(%eax)
  409ce0:	8b 55 e4             	mov    -0x1c(%ebp),%edx
  409ce3:	c7 40 10 01 00 00 00 	movl   $0x1,0x10(%eax)
  409cea:	a3 a0 f0 40 00       	mov    %eax,0x40f0a0
  409cef:	c7 00 00 00 00 00    	movl   $0x0,(%eax)
  409cf5:	eb a9                	jmp    409ca0 <___pow5mult_D2A+0x120>
  409cf7:	c7 05 a0 f0 40 00 00 	movl   $0x0,0x40f0a0
  409cfe:	00 00 00 
  409d01:	31 c0                	xor    %eax,%eax
  409d03:	e9 57 ff ff ff       	jmp    409c5f <___pow5mult_D2A+0xdf>
  409d08:	90                   	nop
  409d09:	8d b4 26 00 00 00 00 	lea    0x0(%esi,%eiz,1),%esi

00409d10 <___lshift_D2A>:
  409d10:	55                   	push   %ebp
  409d11:	57                   	push   %edi
  409d12:	56                   	push   %esi
  409d13:	53                   	push   %ebx
  409d14:	83 ec 2c             	sub    $0x2c,%esp
  409d17:	8b 44 24 40          	mov    0x40(%esp),%eax
  409d1b:	8b 74 24 44          	mov    0x44(%esp),%esi
  409d1f:	89 c7                	mov    %eax,%edi
  409d21:	8b 50 04             	mov    0x4(%eax),%edx
  409d24:	8b 40 10             	mov    0x10(%eax),%eax
  409d27:	89 f3                	mov    %esi,%ebx
  409d29:	c1 fb 05             	sar    $0x5,%ebx
  409d2c:	01 d8                	add    %ebx,%eax
  409d2e:	8d 68 01             	lea    0x1(%eax),%ebp
  409d31:	89 44 24 18          	mov    %eax,0x18(%esp)
  409d35:	8b 47 08             	mov    0x8(%edi),%eax
  409d38:	39 c5                	cmp    %eax,%ebp
  409d3a:	7e 0d                	jle    409d49 <___lshift_D2A+0x39>
  409d3c:	8d 74 26 00          	lea    0x0(%esi,%eiz,1),%esi
  409d40:	01 c0                	add    %eax,%eax
  409d42:	83 c2 01             	add    $0x1,%edx
  409d45:	39 c5                	cmp    %eax,%ebp
  409d47:	7f f7                	jg     409d40 <___lshift_D2A+0x30>
  409d49:	89 14 24             	mov    %edx,(%esp)
  409d4c:	e8 7f fa ff ff       	call   4097d0 <___Balloc_D2A>
  409d51:	85 c0                	test   %eax,%eax
  409d53:	89 44 24 14          	mov    %eax,0x14(%esp)
  409d57:	0f 84 bc 00 00 00    	je     409e19 <___lshift_D2A+0x109>
  409d5d:	85 db                	test   %ebx,%ebx
  409d5f:	8d 50 14             	lea    0x14(%eax),%edx
  409d62:	7e 13                	jle    409d77 <___lshift_D2A+0x67>
  409d64:	31 c0                	xor    %eax,%eax
  409d66:	c7 04 82 00 00 00 00 	movl   $0x0,(%edx,%eax,4)
  409d6d:	83 c0 01             	add    $0x1,%eax
  409d70:	39 d8                	cmp    %ebx,%eax
  409d72:	75 f2                	jne    409d66 <___lshift_D2A+0x56>
  409d74:	8d 14 82             	lea    (%edx,%eax,4),%edx
  409d77:	8b 7c 24 40          	mov    0x40(%esp),%edi
  409d7b:	8b 44 24 40          	mov    0x40(%esp),%eax
  409d7f:	8b 4f 10             	mov    0x10(%edi),%ecx
  409d82:	83 c0 14             	add    $0x14,%eax
  409d85:	83 e6 1f             	and    $0x1f,%esi
  409d88:	89 74 24 0c          	mov    %esi,0xc(%esp)
  409d8c:	8d 3c 88             	lea    (%eax,%ecx,4),%edi
  409d8f:	89 f9                	mov    %edi,%ecx
  409d91:	74 72                	je     409e05 <___lshift_D2A+0xf5>
  409d93:	c7 44 24 10 20 00 00 	movl   $0x20,0x10(%esp)
  409d9a:	00 
  409d9b:	89 6c 24 1c          	mov    %ebp,0x1c(%esp)
  409d9f:	89 cd                	mov    %ecx,%ebp
  409da1:	29 74 24 10          	sub    %esi,0x10(%esp)
  409da5:	31 f6                	xor    %esi,%esi
  409da7:	eb 09                	jmp    409db2 <___lshift_D2A+0xa2>
  409da9:	8d b4 26 00 00 00 00 	lea    0x0(%esi,%eiz,1),%esi
  409db0:	89 fa                	mov    %edi,%edx
  409db2:	8b 18                	mov    (%eax),%ebx
  409db4:	83 c0 04             	add    $0x4,%eax
  409db7:	0f b6 4c 24 0c       	movzbl 0xc(%esp),%ecx
  409dbc:	8d 7a 04             	lea    0x4(%edx),%edi
  409dbf:	d3 e3                	shl    %cl,%ebx
  409dc1:	0f b6 4c 24 10       	movzbl 0x10(%esp),%ecx
  409dc6:	09 f3                	or     %esi,%ebx
  409dc8:	89 1a                	mov    %ebx,(%edx)
  409dca:	8b 70 fc             	mov    -0x4(%eax),%esi
  409dcd:	d3 ee                	shr    %cl,%esi
  409dcf:	39 c5                	cmp    %eax,%ebp
  409dd1:	77 dd                	ja     409db0 <___lshift_D2A+0xa0>
  409dd3:	85 f6                	test   %esi,%esi
  409dd5:	8b 6c 24 1c          	mov    0x1c(%esp),%ebp
  409dd9:	89 72 04             	mov    %esi,0x4(%edx)
  409ddc:	74 07                	je     409de5 <___lshift_D2A+0xd5>
  409dde:	8b 6c 24 18          	mov    0x18(%esp),%ebp
  409de2:	83 c5 02             	add    $0x2,%ebp
  409de5:	8b 7c 24 14          	mov    0x14(%esp),%edi
  409de9:	8d 45 ff             	lea    -0x1(%ebp),%eax
  409dec:	89 47 10             	mov    %eax,0x10(%edi)
  409def:	8b 44 24 40          	mov    0x40(%esp),%eax
  409df3:	89 04 24             	mov    %eax,(%esp)
  409df6:	e8 a5 fa ff ff       	call   4098a0 <___Bfree_D2A>
  409dfb:	89 f8                	mov    %edi,%eax
  409dfd:	83 c4 2c             	add    $0x2c,%esp
  409e00:	5b                   	pop    %ebx
  409e01:	5e                   	pop    %esi
  409e02:	5f                   	pop    %edi
  409e03:	5d                   	pop    %ebp
  409e04:	c3                   	ret    
  409e05:	89 fb                	mov    %edi,%ebx
  409e07:	83 c0 04             	add    $0x4,%eax
  409e0a:	8b 48 fc             	mov    -0x4(%eax),%ecx
  409e0d:	83 c2 04             	add    $0x4,%edx
  409e10:	39 c3                	cmp    %eax,%ebx
  409e12:	89 4a fc             	mov    %ecx,-0x4(%edx)
  409e15:	77 f0                	ja     409e07 <___lshift_D2A+0xf7>
  409e17:	eb cc                	jmp    409de5 <___lshift_D2A+0xd5>
  409e19:	31 c0                	xor    %eax,%eax
  409e1b:	eb e0                	jmp    409dfd <___lshift_D2A+0xed>
  409e1d:	8d 76 00             	lea    0x0(%esi),%esi

00409e20 <___cmp_D2A>:
  409e20:	53                   	push   %ebx
  409e21:	8b 4c 24 08          	mov    0x8(%esp),%ecx
  409e25:	8b 54 24 0c          	mov    0xc(%esp),%edx
  409e29:	8b 41 10             	mov    0x10(%ecx),%eax
  409e2c:	8b 5a 10             	mov    0x10(%edx),%ebx
  409e2f:	29 d8                	sub    %ebx,%eax
  409e31:	85 c0                	test   %eax,%eax
  409e33:	75 24                	jne    409e59 <___cmp_D2A+0x39>
  409e35:	c1 e3 02             	shl    $0x2,%ebx
  409e38:	83 c1 14             	add    $0x14,%ecx
  409e3b:	8d 04 19             	lea    (%ecx,%ebx,1),%eax
  409e3e:	8d 54 1a 14          	lea    0x14(%edx,%ebx,1),%edx
  409e42:	eb 04                	jmp    409e48 <___cmp_D2A+0x28>
  409e44:	39 c1                	cmp    %eax,%ecx
  409e46:	73 18                	jae    409e60 <___cmp_D2A+0x40>
  409e48:	83 ea 04             	sub    $0x4,%edx
  409e4b:	83 e8 04             	sub    $0x4,%eax
  409e4e:	8b 1a                	mov    (%edx),%ebx
  409e50:	39 18                	cmp    %ebx,(%eax)
  409e52:	74 f0                	je     409e44 <___cmp_D2A+0x24>
  409e54:	19 c0                	sbb    %eax,%eax
  409e56:	83 c8 01             	or     $0x1,%eax
  409e59:	5b                   	pop    %ebx
  409e5a:	c3                   	ret    
  409e5b:	90                   	nop
  409e5c:	8d 74 26 00          	lea    0x0(%esi,%eiz,1),%esi
  409e60:	31 c0                	xor    %eax,%eax
  409e62:	5b                   	pop    %ebx
  409e63:	c3                   	ret    
  409e64:	8d b6 00 00 00 00    	lea    0x0(%esi),%esi
  409e6a:	8d bf 00 00 00 00    	lea    0x0(%edi),%edi

00409e70 <___diff_D2A>:
  409e70:	55                   	push   %ebp
  409e71:	57                   	push   %edi
  409e72:	56                   	push   %esi
  409e73:	53                   	push   %ebx
  409e74:	83 ec 2c             	sub    $0x2c,%esp
  409e77:	8b 74 24 40          	mov    0x40(%esp),%esi
  409e7b:	8b 5c 24 44          	mov    0x44(%esp),%ebx
  409e7f:	89 34 24             	mov    %esi,(%esp)
  409e82:	89 5c 24 04          	mov    %ebx,0x4(%esp)
  409e86:	e8 95 ff ff ff       	call   409e20 <___cmp_D2A>
  409e8b:	85 c0                	test   %eax,%eax
  409e8d:	0f 84 1f 01 00 00    	je     409fb2 <___diff_D2A+0x142>
  409e93:	0f 88 3f 01 00 00    	js     409fd8 <___diff_D2A+0x168>
  409e99:	31 ff                	xor    %edi,%edi
  409e9b:	8b 46 04             	mov    0x4(%esi),%eax
  409e9e:	89 04 24             	mov    %eax,(%esp)
  409ea1:	e8 2a f9 ff ff       	call   4097d0 <___Balloc_D2A>
  409ea6:	85 c0                	test   %eax,%eax
  409ea8:	89 c2                	mov    %eax,%edx
  409eaa:	89 44 24 1c          	mov    %eax,0x1c(%esp)
  409eae:	0f 84 34 01 00 00    	je     409fe8 <___diff_D2A+0x178>
  409eb4:	89 78 0c             	mov    %edi,0xc(%eax)
  409eb7:	8b 46 10             	mov    0x10(%esi),%eax
  409eba:	83 c6 14             	add    $0x14,%esi
  409ebd:	8d 6b 14             	lea    0x14(%ebx),%ebp
  409ec0:	8d 7a 14             	lea    0x14(%edx),%edi
  409ec3:	c7 44 24 08 00 00 00 	movl   $0x0,0x8(%esp)
  409eca:	00 
  409ecb:	89 44 24 18          	mov    %eax,0x18(%esp)
  409ecf:	8d 04 86             	lea    (%esi,%eax,4),%eax
  409ed2:	89 44 24 10          	mov    %eax,0x10(%esp)
  409ed6:	8b 43 10             	mov    0x10(%ebx),%eax
  409ed9:	c7 44 24 0c 00 00 00 	movl   $0x0,0xc(%esp)
  409ee0:	00 
  409ee1:	8d 44 85 00          	lea    0x0(%ebp,%eax,4),%eax
  409ee5:	89 44 24 14          	mov    %eax,0x14(%esp)
  409ee9:	8d b4 26 00 00 00 00 	lea    0x0(%esi,%eiz,1),%esi
  409ef0:	83 c5 04             	add    $0x4,%ebp
  409ef3:	83 c6 04             	add    $0x4,%esi
  409ef6:	8b 4d fc             	mov    -0x4(%ebp),%ecx
  409ef9:	8b 46 fc             	mov    -0x4(%esi),%eax
  409efc:	31 d2                	xor    %edx,%edx
  409efe:	31 db                	xor    %ebx,%ebx
  409f00:	29 c8                	sub    %ecx,%eax
  409f02:	19 da                	sbb    %ebx,%edx
  409f04:	2b 44 24 08          	sub    0x8(%esp),%eax
  409f08:	1b 54 24 0c          	sbb    0xc(%esp),%edx
  409f0c:	83 c7 04             	add    $0x4,%edi
  409f0f:	c7 44 24 0c 00 00 00 	movl   $0x0,0xc(%esp)
  409f16:	00 
  409f17:	89 d1                	mov    %edx,%ecx
  409f19:	83 e1 01             	and    $0x1,%ecx
  409f1c:	39 6c 24 14          	cmp    %ebp,0x14(%esp)
  409f20:	89 4c 24 08          	mov    %ecx,0x8(%esp)
  409f24:	89 47 fc             	mov    %eax,-0x4(%edi)
  409f27:	77 c7                	ja     409ef0 <___diff_D2A+0x80>
  409f29:	39 74 24 10          	cmp    %esi,0x10(%esp)
  409f2d:	76 4b                	jbe    409f7a <___diff_D2A+0x10a>
  409f2f:	8b 5c 24 0c          	mov    0xc(%esp),%ebx
  409f33:	8b 4c 24 08          	mov    0x8(%esp),%ecx
  409f37:	89 7c 24 14          	mov    %edi,0x14(%esp)
  409f3b:	89 74 24 08          	mov    %esi,0x8(%esp)
  409f3f:	90                   	nop
  409f40:	83 c6 04             	add    $0x4,%esi
  409f43:	8b 46 fc             	mov    -0x4(%esi),%eax
  409f46:	31 d2                	xor    %edx,%edx
  409f48:	29 c8                	sub    %ecx,%eax
  409f4a:	19 da                	sbb    %ebx,%edx
  409f4c:	83 c7 04             	add    $0x4,%edi
  409f4f:	89 d5                	mov    %edx,%ebp
  409f51:	31 db                	xor    %ebx,%ebx
  409f53:	83 e5 01             	and    $0x1,%ebp
  409f56:	39 74 24 10          	cmp    %esi,0x10(%esp)
  409f5a:	89 e9                	mov    %ebp,%ecx
  409f5c:	89 47 fc             	mov    %eax,-0x4(%edi)
  409f5f:	77 df                	ja     409f40 <___diff_D2A+0xd0>
  409f61:	8b 6c 24 08          	mov    0x8(%esp),%ebp
  409f65:	8b 7c 24 10          	mov    0x10(%esp),%edi
  409f69:	8b 5c 24 14          	mov    0x14(%esp),%ebx
  409f6d:	f7 d5                	not    %ebp
  409f6f:	8d 54 3d 00          	lea    0x0(%ebp,%edi,1),%edx
  409f73:	c1 ea 02             	shr    $0x2,%edx
  409f76:	8d 7c 93 04          	lea    0x4(%ebx,%edx,4),%edi
  409f7a:	85 c0                	test   %eax,%eax
  409f7c:	75 21                	jne    409f9f <___diff_D2A+0x12f>
  409f7e:	8b 54 24 18          	mov    0x18(%esp),%edx
  409f82:	89 d0                	mov    %edx,%eax
  409f84:	c1 e0 02             	shl    $0x2,%eax
  409f87:	29 c7                	sub    %eax,%edi
  409f89:	89 d0                	mov    %edx,%eax
  409f8b:	90                   	nop
  409f8c:	8d 74 26 00          	lea    0x0(%esi,%eiz,1),%esi
  409f90:	83 e8 01             	sub    $0x1,%eax
  409f93:	8b 6c 87 fc          	mov    -0x4(%edi,%eax,4),%ebp
  409f97:	85 ed                	test   %ebp,%ebp
  409f99:	74 f5                	je     409f90 <___diff_D2A+0x120>
  409f9b:	89 44 24 18          	mov    %eax,0x18(%esp)
  409f9f:	8b 44 24 1c          	mov    0x1c(%esp),%eax
  409fa3:	8b 54 24 18          	mov    0x18(%esp),%edx
  409fa7:	89 50 10             	mov    %edx,0x10(%eax)
  409faa:	83 c4 2c             	add    $0x2c,%esp
  409fad:	5b                   	pop    %ebx
  409fae:	5e                   	pop    %esi
  409faf:	5f                   	pop    %edi
  409fb0:	5d                   	pop    %ebp
  409fb1:	c3                   	ret    
  409fb2:	c7 04 24 00 00 00 00 	movl   $0x0,(%esp)
  409fb9:	e8 12 f8 ff ff       	call   4097d0 <___Balloc_D2A>
  409fbe:	85 c0                	test   %eax,%eax
  409fc0:	74 26                	je     409fe8 <___diff_D2A+0x178>
  409fc2:	c7 40 10 01 00 00 00 	movl   $0x1,0x10(%eax)
  409fc9:	c7 40 14 00 00 00 00 	movl   $0x0,0x14(%eax)
  409fd0:	83 c4 2c             	add    $0x2c,%esp
  409fd3:	5b                   	pop    %ebx
  409fd4:	5e                   	pop    %esi
  409fd5:	5f                   	pop    %edi
  409fd6:	5d                   	pop    %ebp
  409fd7:	c3                   	ret    
  409fd8:	89 f0                	mov    %esi,%eax
  409fda:	bf 01 00 00 00       	mov    $0x1,%edi
  409fdf:	89 de                	mov    %ebx,%esi
  409fe1:	89 c3                	mov    %eax,%ebx
  409fe3:	e9 b3 fe ff ff       	jmp    409e9b <___diff_D2A+0x2b>
  409fe8:	31 c0                	xor    %eax,%eax
  409fea:	eb be                	jmp    409faa <___diff_D2A+0x13a>
  409fec:	8d 74 26 00          	lea    0x0(%esi,%eiz,1),%esi

00409ff0 <___b2d_D2A>:
  409ff0:	55                   	push   %ebp
  409ff1:	b9 20 00 00 00       	mov    $0x20,%ecx
  409ff6:	57                   	push   %edi
  409ff7:	56                   	push   %esi
  409ff8:	53                   	push   %ebx
  409ff9:	83 ec 14             	sub    $0x14,%esp
  409ffc:	8b 44 24 28          	mov    0x28(%esp),%eax
  40a000:	8b 7c 24 2c          	mov    0x2c(%esp),%edi
  40a004:	8d 58 14             	lea    0x14(%eax),%ebx
  40a007:	8b 40 10             	mov    0x10(%eax),%eax
  40a00a:	8d 2c 83             	lea    (%ebx,%eax,4),%ebp
  40a00d:	8b 55 fc             	mov    -0x4(%ebp),%edx
  40a010:	8d 75 fc             	lea    -0x4(%ebp),%esi
  40a013:	0f bd c2             	bsr    %edx,%eax
  40a016:	83 f0 1f             	xor    $0x1f,%eax
  40a019:	29 c1                	sub    %eax,%ecx
  40a01b:	83 f8 0a             	cmp    $0xa,%eax
  40a01e:	89 0f                	mov    %ecx,(%edi)
  40a020:	7f 3e                	jg     40a060 <___b2d_D2A+0x70>
  40a022:	b9 0b 00 00 00       	mov    $0xb,%ecx
  40a027:	89 d7                	mov    %edx,%edi
  40a029:	29 c1                	sub    %eax,%ecx
  40a02b:	d3 ef                	shr    %cl,%edi
  40a02d:	81 cf 00 00 f0 3f    	or     $0x3ff00000,%edi
  40a033:	89 7c 24 04          	mov    %edi,0x4(%esp)
  40a037:	31 ff                	xor    %edi,%edi
  40a039:	39 f3                	cmp    %esi,%ebx
  40a03b:	c7 04 24 00 00 00 00 	movl   $0x0,(%esp)
  40a042:	73 05                	jae    40a049 <___b2d_D2A+0x59>
  40a044:	8b 7d f8             	mov    -0x8(%ebp),%edi
  40a047:	d3 ef                	shr    %cl,%edi
  40a049:	8d 48 15             	lea    0x15(%eax),%ecx
  40a04c:	d3 e2                	shl    %cl,%edx
  40a04e:	09 d7                	or     %edx,%edi
  40a050:	89 3c 24             	mov    %edi,(%esp)
  40a053:	dd 04 24             	fldl   (%esp)
  40a056:	83 c4 14             	add    $0x14,%esp
  40a059:	5b                   	pop    %ebx
  40a05a:	5e                   	pop    %esi
  40a05b:	5f                   	pop    %edi
  40a05c:	5d                   	pop    %ebp
  40a05d:	c3                   	ret    
  40a05e:	66 90                	xchg   %ax,%ax
  40a060:	31 ff                	xor    %edi,%edi
  40a062:	39 f3                	cmp    %esi,%ebx
  40a064:	73 06                	jae    40a06c <___b2d_D2A+0x7c>
  40a066:	8b 7d f8             	mov    -0x8(%ebp),%edi
  40a069:	8d 75 f8             	lea    -0x8(%ebp),%esi
  40a06c:	89 c1                	mov    %eax,%ecx
  40a06e:	83 e9 0b             	sub    $0xb,%ecx
  40a071:	89 4c 24 0c          	mov    %ecx,0xc(%esp)
  40a075:	74 49                	je     40a0c0 <___b2d_D2A+0xd0>
  40a077:	0f b6 4c 24 0c       	movzbl 0xc(%esp),%ecx
  40a07c:	bd 2b 00 00 00       	mov    $0x2b,%ebp
  40a081:	29 c5                	sub    %eax,%ebp
  40a083:	89 f8                	mov    %edi,%eax
  40a085:	c7 04 24 00 00 00 00 	movl   $0x0,(%esp)
  40a08c:	d3 e2                	shl    %cl,%edx
  40a08e:	89 e9                	mov    %ebp,%ecx
  40a090:	d3 e8                	shr    %cl,%eax
  40a092:	81 ca 00 00 f0 3f    	or     $0x3ff00000,%edx
  40a098:	09 c2                	or     %eax,%edx
  40a09a:	31 c0                	xor    %eax,%eax
  40a09c:	39 de                	cmp    %ebx,%esi
  40a09e:	89 54 24 04          	mov    %edx,0x4(%esp)
  40a0a2:	76 05                	jbe    40a0a9 <___b2d_D2A+0xb9>
  40a0a4:	8b 46 fc             	mov    -0x4(%esi),%eax
  40a0a7:	d3 e8                	shr    %cl,%eax
  40a0a9:	0f b6 4c 24 0c       	movzbl 0xc(%esp),%ecx
  40a0ae:	d3 e7                	shl    %cl,%edi
  40a0b0:	09 f8                	or     %edi,%eax
  40a0b2:	89 04 24             	mov    %eax,(%esp)
  40a0b5:	dd 04 24             	fldl   (%esp)
  40a0b8:	83 c4 14             	add    $0x14,%esp
  40a0bb:	5b                   	pop    %ebx
  40a0bc:	5e                   	pop    %esi
  40a0bd:	5f                   	pop    %edi
  40a0be:	5d                   	pop    %ebp
  40a0bf:	c3                   	ret    
  40a0c0:	81 ca 00 00 f0 3f    	or     $0x3ff00000,%edx
  40a0c6:	89 3c 24             	mov    %edi,(%esp)
  40a0c9:	89 54 24 04          	mov    %edx,0x4(%esp)
  40a0cd:	dd 04 24             	fldl   (%esp)
  40a0d0:	83 c4 14             	add    $0x14,%esp
  40a0d3:	5b                   	pop    %ebx
  40a0d4:	5e                   	pop    %esi
  40a0d5:	5f                   	pop    %edi
  40a0d6:	5d                   	pop    %ebp
  40a0d7:	c3                   	ret    
  40a0d8:	90                   	nop
  40a0d9:	8d b4 26 00 00 00 00 	lea    0x0(%esi,%eiz,1),%esi

0040a0e0 <___d2b_D2A>:
  40a0e0:	55                   	push   %ebp
  40a0e1:	57                   	push   %edi
  40a0e2:	56                   	push   %esi
  40a0e3:	53                   	push   %ebx
  40a0e4:	83 ec 1c             	sub    $0x1c,%esp
  40a0e7:	dd 44 24 30          	fldl   0x30(%esp)
  40a0eb:	c7 04 24 01 00 00 00 	movl   $0x1,(%esp)
  40a0f2:	dd 5c 24 08          	fstpl  0x8(%esp)
  40a0f6:	e8 d5 f6 ff ff       	call   4097d0 <___Balloc_D2A>
  40a0fb:	85 c0                	test   %eax,%eax
  40a0fd:	0f 84 c5 00 00 00    	je     40a1c8 <___d2b_D2A+0xe8>
  40a103:	8b 54 24 0c          	mov    0xc(%esp),%edx
  40a107:	89 d3                	mov    %edx,%ebx
  40a109:	81 e2 ff ff ff 7f    	and    $0x7fffffff,%edx
  40a10f:	c1 ea 14             	shr    $0x14,%edx
  40a112:	81 e3 ff ff 0f 00    	and    $0xfffff,%ebx
  40a118:	85 d2                	test   %edx,%edx
  40a11a:	74 06                	je     40a122 <___d2b_D2A+0x42>
  40a11c:	81 cb 00 00 10 00    	or     $0x100000,%ebx
  40a122:	8b 7c 24 08          	mov    0x8(%esp),%edi
  40a126:	85 ff                	test   %edi,%edi
  40a128:	75 3e                	jne    40a168 <___d2b_D2A+0x88>
  40a12a:	f3 0f bc cb          	tzcnt  %ebx,%ecx
  40a12e:	d3 eb                	shr    %cl,%ebx
  40a130:	85 d2                	test   %edx,%edx
  40a132:	8d 71 20             	lea    0x20(%ecx),%esi
  40a135:	b9 01 00 00 00       	mov    $0x1,%ecx
  40a13a:	89 58 14             	mov    %ebx,0x14(%eax)
  40a13d:	c7 40 10 01 00 00 00 	movl   $0x1,0x10(%eax)
  40a144:	74 56                	je     40a19c <___d2b_D2A+0xbc>
  40a146:	8b 7c 24 38          	mov    0x38(%esp),%edi
  40a14a:	8d 94 16 cd fb ff ff 	lea    -0x433(%esi,%edx,1),%edx
  40a151:	89 17                	mov    %edx,(%edi)
  40a153:	ba 35 00 00 00       	mov    $0x35,%edx
  40a158:	29 f2                	sub    %esi,%edx
  40a15a:	8b 74 24 3c          	mov    0x3c(%esp),%esi
  40a15e:	89 16                	mov    %edx,(%esi)
  40a160:	83 c4 1c             	add    $0x1c,%esp
  40a163:	5b                   	pop    %ebx
  40a164:	5e                   	pop    %esi
  40a165:	5f                   	pop    %edi
  40a166:	5d                   	pop    %ebp
  40a167:	c3                   	ret    
  40a168:	f3 0f bc f7          	tzcnt  %edi,%esi
  40a16c:	89 f1                	mov    %esi,%ecx
  40a16e:	d3 ef                	shr    %cl,%edi
  40a170:	85 f6                	test   %esi,%esi
  40a172:	74 4f                	je     40a1c3 <___d2b_D2A+0xe3>
  40a174:	b9 20 00 00 00       	mov    $0x20,%ecx
  40a179:	89 dd                	mov    %ebx,%ebp
  40a17b:	29 f1                	sub    %esi,%ecx
  40a17d:	d3 e5                	shl    %cl,%ebp
  40a17f:	89 e9                	mov    %ebp,%ecx
  40a181:	09 f9                	or     %edi,%ecx
  40a183:	89 48 14             	mov    %ecx,0x14(%eax)
  40a186:	89 f1                	mov    %esi,%ecx
  40a188:	d3 eb                	shr    %cl,%ebx
  40a18a:	83 fb 01             	cmp    $0x1,%ebx
  40a18d:	19 c9                	sbb    %ecx,%ecx
  40a18f:	83 c1 02             	add    $0x2,%ecx
  40a192:	85 d2                	test   %edx,%edx
  40a194:	89 58 18             	mov    %ebx,0x18(%eax)
  40a197:	89 48 10             	mov    %ecx,0x10(%eax)
  40a19a:	75 aa                	jne    40a146 <___d2b_D2A+0x66>
  40a19c:	8b 7c 24 38          	mov    0x38(%esp),%edi
  40a1a0:	81 ee 32 04 00 00    	sub    $0x432,%esi
  40a1a6:	0f bd 54 88 10       	bsr    0x10(%eax,%ecx,4),%edx
  40a1ab:	c1 e1 05             	shl    $0x5,%ecx
  40a1ae:	89 37                	mov    %esi,(%edi)
  40a1b0:	8b 74 24 3c          	mov    0x3c(%esp),%esi
  40a1b4:	83 f2 1f             	xor    $0x1f,%edx
  40a1b7:	29 d1                	sub    %edx,%ecx
  40a1b9:	89 0e                	mov    %ecx,(%esi)
  40a1bb:	83 c4 1c             	add    $0x1c,%esp
  40a1be:	5b                   	pop    %ebx
  40a1bf:	5e                   	pop    %esi
  40a1c0:	5f                   	pop    %edi
  40a1c1:	5d                   	pop    %ebp
  40a1c2:	c3                   	ret    
  40a1c3:	89 78 14             	mov    %edi,0x14(%eax)
  40a1c6:	eb c2                	jmp    40a18a <___d2b_D2A+0xaa>
  40a1c8:	31 c0                	xor    %eax,%eax
  40a1ca:	eb 94                	jmp    40a160 <___d2b_D2A+0x80>
  40a1cc:	8d 74 26 00          	lea    0x0(%esi,%eiz,1),%esi

0040a1d0 <___strcp_D2A>:
  40a1d0:	8b 4c 24 08          	mov    0x8(%esp),%ecx
  40a1d4:	8b 44 24 04          	mov    0x4(%esp),%eax
  40a1d8:	8d 51 01             	lea    0x1(%ecx),%edx
  40a1db:	0f b6 09             	movzbl (%ecx),%ecx
  40a1de:	84 c9                	test   %cl,%cl
  40a1e0:	88 08                	mov    %cl,(%eax)
  40a1e2:	74 10                	je     40a1f4 <___strcp_D2A+0x24>
  40a1e4:	83 c2 01             	add    $0x1,%edx
  40a1e7:	0f b6 4a ff          	movzbl -0x1(%edx),%ecx
  40a1eb:	83 c0 01             	add    $0x1,%eax
  40a1ee:	84 c9                	test   %cl,%cl
  40a1f0:	88 08                	mov    %cl,(%eax)
  40a1f2:	75 f0                	jne    40a1e4 <___strcp_D2A+0x14>
  40a1f4:	f3 c3                	repz ret 
  40a1f6:	90                   	nop
  40a1f7:	90                   	nop
  40a1f8:	90                   	nop
  40a1f9:	90                   	nop
  40a1fa:	90                   	nop
  40a1fb:	90                   	nop
  40a1fc:	90                   	nop
  40a1fd:	90                   	nop
  40a1fe:	90                   	nop
  40a1ff:	90                   	nop

0040a200 <___rshift_D2A>:
  40a200:	55                   	push   %ebp
  40a201:	57                   	push   %edi
  40a202:	56                   	push   %esi
  40a203:	53                   	push   %ebx
  40a204:	83 ec 10             	sub    $0x10,%esp
  40a207:	8b 74 24 24          	mov    0x24(%esp),%esi
  40a20b:	8b 44 24 24          	mov    0x24(%esp),%eax
  40a20f:	8b 4c 24 28          	mov    0x28(%esp),%ecx
  40a213:	8b 56 10             	mov    0x10(%esi),%edx
  40a216:	8d 68 14             	lea    0x14(%eax),%ebp
  40a219:	89 c8                	mov    %ecx,%eax
  40a21b:	c1 f8 05             	sar    $0x5,%eax
  40a21e:	39 d0                	cmp    %edx,%eax
  40a220:	0f 8d 8a 00 00 00    	jge    40a2b0 <___rshift_D2A+0xb0>
  40a226:	8d 44 85 00          	lea    0x0(%ebp,%eax,4),%eax
  40a22a:	83 e1 1f             	and    $0x1f,%ecx
  40a22d:	8d 7c 95 00          	lea    0x0(%ebp,%edx,4),%edi
  40a231:	89 44 24 04          	mov    %eax,0x4(%esp)
  40a235:	89 0c 24             	mov    %ecx,(%esp)
  40a238:	0f 84 92 00 00 00    	je     40a2d0 <___rshift_D2A+0xd0>
  40a23e:	8b 74 24 04          	mov    0x4(%esp),%esi
  40a242:	8b 04 24             	mov    (%esp),%eax
  40a245:	c7 44 24 08 20 00 00 	movl   $0x20,0x8(%esp)
  40a24c:	00 
  40a24d:	29 44 24 08          	sub    %eax,0x8(%esp)
  40a251:	8b 1e                	mov    (%esi),%ebx
  40a253:	8d 56 04             	lea    0x4(%esi),%edx
  40a256:	89 c1                	mov    %eax,%ecx
  40a258:	d3 eb                	shr    %cl,%ebx
  40a25a:	39 d7                	cmp    %edx,%edi
  40a25c:	0f 86 ac 00 00 00    	jbe    40a30e <___rshift_D2A+0x10e>
  40a262:	89 ee                	mov    %ebp,%esi
  40a264:	89 6c 24 0c          	mov    %ebp,0xc(%esp)
  40a268:	8b 6c 24 08          	mov    0x8(%esp),%ebp
  40a26c:	8d 74 26 00          	lea    0x0(%esi,%eiz,1),%esi
  40a270:	8b 02                	mov    (%edx),%eax
  40a272:	89 e9                	mov    %ebp,%ecx
  40a274:	83 c6 04             	add    $0x4,%esi
  40a277:	83 c2 04             	add    $0x4,%edx
  40a27a:	d3 e0                	shl    %cl,%eax
  40a27c:	0f b6 0c 24          	movzbl (%esp),%ecx
  40a280:	09 d8                	or     %ebx,%eax
  40a282:	89 46 fc             	mov    %eax,-0x4(%esi)
  40a285:	8b 5a fc             	mov    -0x4(%edx),%ebx
  40a288:	d3 eb                	shr    %cl,%ebx
  40a28a:	39 d7                	cmp    %edx,%edi
  40a28c:	77 e2                	ja     40a270 <___rshift_D2A+0x70>
  40a28e:	2b 7c 24 04          	sub    0x4(%esp),%edi
  40a292:	8b 6c 24 0c          	mov    0xc(%esp),%ebp
  40a296:	8d 47 fb             	lea    -0x5(%edi),%eax
  40a299:	c1 e8 02             	shr    $0x2,%eax
  40a29c:	8d 44 85 04          	lea    0x4(%ebp,%eax,4),%eax
  40a2a0:	85 db                	test   %ebx,%ebx
  40a2a2:	89 18                	mov    %ebx,(%eax)
  40a2a4:	74 03                	je     40a2a9 <___rshift_D2A+0xa9>
  40a2a6:	83 c0 04             	add    $0x4,%eax
  40a2a9:	29 e8                	sub    %ebp,%eax
  40a2ab:	c1 f8 02             	sar    $0x2,%eax
  40a2ae:	eb 4b                	jmp    40a2fb <___rshift_D2A+0xfb>
  40a2b0:	8b 44 24 24          	mov    0x24(%esp),%eax
  40a2b4:	c7 40 10 00 00 00 00 	movl   $0x0,0x10(%eax)
  40a2bb:	8b 44 24 24          	mov    0x24(%esp),%eax
  40a2bf:	c7 40 14 00 00 00 00 	movl   $0x0,0x14(%eax)
  40a2c6:	83 c4 10             	add    $0x10,%esp
  40a2c9:	5b                   	pop    %ebx
  40a2ca:	5e                   	pop    %esi
  40a2cb:	5f                   	pop    %edi
  40a2cc:	5d                   	pop    %ebp
  40a2cd:	c3                   	ret    
  40a2ce:	66 90                	xchg   %ax,%ax
  40a2d0:	39 c7                	cmp    %eax,%edi
  40a2d2:	89 ea                	mov    %ebp,%edx
  40a2d4:	76 da                	jbe    40a2b0 <___rshift_D2A+0xb0>
  40a2d6:	83 c0 04             	add    $0x4,%eax
  40a2d9:	8b 48 fc             	mov    -0x4(%eax),%ecx
  40a2dc:	83 c2 04             	add    $0x4,%edx
  40a2df:	39 c7                	cmp    %eax,%edi
  40a2e1:	89 4a fc             	mov    %ecx,-0x4(%edx)
  40a2e4:	77 f0                	ja     40a2d6 <___rshift_D2A+0xd6>
  40a2e6:	8b 44 24 04          	mov    0x4(%esp),%eax
  40a2ea:	f7 d0                	not    %eax
  40a2ec:	01 f8                	add    %edi,%eax
  40a2ee:	c1 e8 02             	shr    $0x2,%eax
  40a2f1:	8d 04 85 04 00 00 00 	lea    0x4(,%eax,4),%eax
  40a2f8:	c1 f8 02             	sar    $0x2,%eax
  40a2fb:	8b 74 24 24          	mov    0x24(%esp),%esi
  40a2ff:	85 c0                	test   %eax,%eax
  40a301:	89 46 10             	mov    %eax,0x10(%esi)
  40a304:	74 b5                	je     40a2bb <___rshift_D2A+0xbb>
  40a306:	83 c4 10             	add    $0x10,%esp
  40a309:	5b                   	pop    %ebx
  40a30a:	5e                   	pop    %esi
  40a30b:	5f                   	pop    %edi
  40a30c:	5d                   	pop    %ebp
  40a30d:	c3                   	ret    
  40a30e:	89 e8                	mov    %ebp,%eax
  40a310:	eb 8e                	jmp    40a2a0 <___rshift_D2A+0xa0>
  40a312:	8d b4 26 00 00 00 00 	lea    0x0(%esi,%eiz,1),%esi
  40a319:	8d bc 27 00 00 00 00 	lea    0x0(%edi,%eiz,1),%edi

0040a320 <___trailz_D2A>:
  40a320:	53                   	push   %ebx
  40a321:	8b 44 24 08          	mov    0x8(%esp),%eax
  40a325:	8b 48 10             	mov    0x10(%eax),%ecx
  40a328:	8d 50 14             	lea    0x14(%eax),%edx
  40a32b:	8d 1c 8a             	lea    (%edx,%ecx,4),%ebx
  40a32e:	39 da                	cmp    %ebx,%edx
  40a330:	73 28                	jae    40a35a <___trailz_D2A+0x3a>
  40a332:	8b 48 14             	mov    0x14(%eax),%ecx
  40a335:	31 c0                	xor    %eax,%eax
  40a337:	85 c9                	test   %ecx,%ecx
  40a339:	74 0b                	je     40a346 <___trailz_D2A+0x26>
  40a33b:	eb 15                	jmp    40a352 <___trailz_D2A+0x32>
  40a33d:	8d 76 00             	lea    0x0(%esi),%esi
  40a340:	8b 0a                	mov    (%edx),%ecx
  40a342:	85 c9                	test   %ecx,%ecx
  40a344:	75 0c                	jne    40a352 <___trailz_D2A+0x32>
  40a346:	83 c2 04             	add    $0x4,%edx
  40a349:	83 c0 20             	add    $0x20,%eax
  40a34c:	39 d3                	cmp    %edx,%ebx
  40a34e:	77 f0                	ja     40a340 <___trailz_D2A+0x20>
  40a350:	5b                   	pop    %ebx
  40a351:	c3                   	ret    
  40a352:	f3 0f bc c9          	tzcnt  %ecx,%ecx
  40a356:	01 c8                	add    %ecx,%eax
  40a358:	5b                   	pop    %ebx
  40a359:	c3                   	ret    
  40a35a:	31 c0                	xor    %eax,%eax
  40a35c:	5b                   	pop    %ebx
  40a35d:	c3                   	ret    
  40a35e:	90                   	nop
  40a35f:	90                   	nop

0040a360 <_signal>:
  40a360:	ff 25 20 02 41 00    	jmp    *0x410220
  40a366:	90                   	nop
  40a367:	90                   	nop

0040a368 <__setmode>:
  40a368:	ff 25 d8 01 41 00    	jmp    *0x4101d8
  40a36e:	90                   	nop
  40a36f:	90                   	nop

0040a370 <___p__fmode>:
  40a370:	ff 25 bc 01 41 00    	jmp    *0x4101bc
  40a376:	90                   	nop
  40a377:	90                   	nop

0040a378 <___p__environ>:
  40a378:	ff 25 b8 01 41 00    	jmp    *0x4101b8
  40a37e:	90                   	nop
  40a37f:	90                   	nop

0040a380 <__cexit>:
  40a380:	ff 25 c4 01 41 00    	jmp    *0x4101c4
  40a386:	90                   	nop
  40a387:	90                   	nop

0040a388 <___getmainargs>:
  40a388:	ff 25 b0 01 41 00    	jmp    *0x4101b0
  40a38e:	90                   	nop
  40a38f:	90                   	nop

0040a390 <_printf>:
  40a390:	ff 25 14 02 41 00    	jmp    *0x410214
  40a396:	90                   	nop
  40a397:	90                   	nop

0040a398 <_free>:
  40a398:	ff 25 f0 01 41 00    	jmp    *0x4101f0
  40a39e:	90                   	nop
  40a39f:	90                   	nop

0040a3a0 <_time>:
  40a3a0:	ff 25 30 02 41 00    	jmp    *0x410230
  40a3a6:	90                   	nop
  40a3a7:	90                   	nop

0040a3a8 <_malloc>:
  40a3a8:	ff 25 04 02 41 00    	jmp    *0x410204
  40a3ae:	90                   	nop
  40a3af:	90                   	nop

0040a3b0 <_memcpy>:
  40a3b0:	ff 25 0c 02 41 00    	jmp    *0x41020c
  40a3b6:	90                   	nop
  40a3b7:	90                   	nop

0040a3b8 <_memset>:
  40a3b8:	ff 25 10 02 41 00    	jmp    *0x410210
  40a3be:	90                   	nop
  40a3bf:	90                   	nop

0040a3c0 <_strlen>:
  40a3c0:	ff 25 2c 02 41 00    	jmp    *0x41022c
  40a3c6:	90                   	nop
  40a3c7:	90                   	nop

0040a3c8 <_isspace>:
  40a3c8:	ff 25 fc 01 41 00    	jmp    *0x4101fc
  40a3ce:	90                   	nop
  40a3cf:	90                   	nop

0040a3d0 <_fwrite>:
  40a3d0:	ff 25 f4 01 41 00    	jmp    *0x4101f4
  40a3d6:	90                   	nop
  40a3d7:	90                   	nop

0040a3d8 <_vfprintf>:
  40a3d8:	ff 25 38 02 41 00    	jmp    *0x410238
  40a3de:	90                   	nop
  40a3df:	90                   	nop

0040a3e0 <_abort>:
  40a3e0:	ff 25 dc 01 41 00    	jmp    *0x4101dc
  40a3e6:	90                   	nop
  40a3e7:	90                   	nop

0040a3e8 <_calloc>:
  40a3e8:	ff 25 e8 01 41 00    	jmp    *0x4101e8
  40a3ee:	90                   	nop
  40a3ef:	90                   	nop

0040a3f0 <_tolower>:
  40a3f0:	ff 25 34 02 41 00    	jmp    *0x410234
  40a3f6:	90                   	nop
  40a3f7:	90                   	nop

0040a3f8 <_realloc>:
  40a3f8:	ff 25 18 02 41 00    	jmp    *0x410218
  40a3fe:	90                   	nop
  40a3ff:	90                   	nop

0040a400 <_strcoll>:
  40a400:	ff 25 28 02 41 00    	jmp    *0x410228
  40a406:	90                   	nop
  40a407:	90                   	nop

0040a408 <__errno>:
  40a408:	ff 25 c8 01 41 00    	jmp    *0x4101c8
  40a40e:	90                   	nop
  40a40f:	90                   	nop

0040a410 <_setlocale>:
  40a410:	ff 25 1c 02 41 00    	jmp    *0x41021c
  40a416:	90                   	nop
  40a417:	90                   	nop

0040a418 <_wcstombs>:
  40a418:	ff 25 40 02 41 00    	jmp    *0x410240
  40a41e:	90                   	nop
  40a41f:	90                   	nop

0040a420 <_mbstowcs>:
  40a420:	ff 25 08 02 41 00    	jmp    *0x410208
  40a426:	90                   	nop
  40a427:	90                   	nop

0040a428 <__fullpath>:
  40a428:	ff 25 cc 01 41 00    	jmp    *0x4101cc
  40a42e:	90                   	nop
  40a42f:	90                   	nop

0040a430 <_fputc>:
  40a430:	ff 25 ec 01 41 00    	jmp    *0x4101ec
  40a436:	90                   	nop
  40a437:	90                   	nop

0040a438 <_localeconv>:
  40a438:	ff 25 00 02 41 00    	jmp    *0x410200
  40a43e:	90                   	nop
  40a43f:	90                   	nop

0040a440 <_getenv>:
  40a440:	ff 25 f8 01 41 00    	jmp    *0x4101f8
  40a446:	90                   	nop
  40a447:	90                   	nop

0040a448 <_wcslen>:
  40a448:	ff 25 3c 02 41 00    	jmp    *0x41023c
  40a44e:	90                   	nop
  40a44f:	90                   	nop

0040a450 <_strchr>:
  40a450:	ff 25 24 02 41 00    	jmp    *0x410224
  40a456:	90                   	nop
  40a457:	90                   	nop

0040a458 <_atoi>:
  40a458:	ff 25 e4 01 41 00    	jmp    *0x4101e4
  40a45e:	90                   	nop
  40a45f:	90                   	nop

0040a460 <_SetUnhandledExceptionFilter@4>:
  40a460:	ff 25 88 01 41 00    	jmp    *0x410188
  40a466:	90                   	nop
  40a467:	90                   	nop

0040a468 <_ExitProcess@4>:
  40a468:	ff 25 54 01 41 00    	jmp    *0x410154
  40a46e:	90                   	nop
  40a46f:	90                   	nop

0040a470 <_GetModuleHandleA@4>:
  40a470:	ff 25 6c 01 41 00    	jmp    *0x41016c
  40a476:	90                   	nop
  40a477:	90                   	nop

0040a478 <_GetProcAddress@8>:
  40a478:	ff 25 70 01 41 00    	jmp    *0x410170
  40a47e:	90                   	nop
  40a47f:	90                   	nop

0040a480 <_GetCommandLineA@0>:
  40a480:	ff 25 64 01 41 00    	jmp    *0x410164
  40a486:	90                   	nop
  40a487:	90                   	nop

0040a488 <_VirtualQuery@12>:
  40a488:	ff 25 98 01 41 00    	jmp    *0x410198
  40a48e:	90                   	nop
  40a48f:	90                   	nop

0040a490 <_VirtualProtect@16>:
  40a490:	ff 25 94 01 41 00    	jmp    *0x410194
  40a496:	90                   	nop
  40a497:	90                   	nop

0040a498 <_EnterCriticalSection@4>:
  40a498:	ff 25 50 01 41 00    	jmp    *0x410150
  40a49e:	90                   	nop
  40a49f:	90                   	nop

0040a4a0 <_TlsGetValue@4>:
  40a4a0:	ff 25 90 01 41 00    	jmp    *0x410190
  40a4a6:	90                   	nop
  40a4a7:	90                   	nop

0040a4a8 <_GetLastError@0>:
  40a4a8:	ff 25 68 01 41 00    	jmp    *0x410168
  40a4ae:	90                   	nop
  40a4af:	90                   	nop

0040a4b0 <_LeaveCriticalSection@4>:
  40a4b0:	ff 25 80 01 41 00    	jmp    *0x410180
  40a4b6:	90                   	nop
  40a4b7:	90                   	nop

0040a4b8 <_DeleteCriticalSection@4>:
  40a4b8:	ff 25 4c 01 41 00    	jmp    *0x41014c
  40a4be:	90                   	nop
  40a4bf:	90                   	nop

0040a4c0 <_InitializeCriticalSection@4>:
  40a4c0:	ff 25 74 01 41 00    	jmp    *0x410174
  40a4c6:	90                   	nop
  40a4c7:	90                   	nop

0040a4c8 <_FindNextFileA@8>:
  40a4c8:	ff 25 60 01 41 00    	jmp    *0x410160
  40a4ce:	90                   	nop
  40a4cf:	90                   	nop

0040a4d0 <_FindFirstFileA@8>:
  40a4d0:	ff 25 5c 01 41 00    	jmp    *0x41015c
  40a4d6:	90                   	nop
  40a4d7:	90                   	nop

0040a4d8 <_FindClose@4>:
  40a4d8:	ff 25 58 01 41 00    	jmp    *0x410158
  40a4de:	90                   	nop
  40a4df:	90                   	nop

0040a4e0 <_WideCharToMultiByte@32>:
  40a4e0:	ff 25 9c 01 41 00    	jmp    *0x41019c
  40a4e6:	90                   	nop
  40a4e7:	90                   	nop

0040a4e8 <_IsDBCSLeadByteEx@8>:
  40a4e8:	ff 25 7c 01 41 00    	jmp    *0x41017c
  40a4ee:	90                   	nop
  40a4ef:	90                   	nop

0040a4f0 <_MultiByteToWideChar@24>:
  40a4f0:	ff 25 84 01 41 00    	jmp    *0x410184
  40a4f6:	90                   	nop
  40a4f7:	90                   	nop

0040a4f8 <_Sleep@4>:
  40a4f8:	ff 25 8c 01 41 00    	jmp    *0x41018c
  40a4fe:	90                   	nop
  40a4ff:	90                   	nop

0040a500 <_InterlockedExchange@8>:
  40a500:	ff 25 78 01 41 00    	jmp    *0x410178
  40a506:	90                   	nop
  40a507:	90                   	nop

0040a508 <_strdup>:
  40a508:	ff 25 a4 01 41 00    	jmp    *0x4101a4
  40a50e:	90                   	nop
  40a50f:	90                   	nop

0040a510 <_stricoll>:
  40a510:	ff 25 a8 01 41 00    	jmp    *0x4101a8
  40a516:	90                   	nop
  40a517:	90                   	nop

0040a518 <.text>:
  40a518:	66 90                	xchg   %ax,%ax
  40a51a:	66 90                	xchg   %ax,%ax
  40a51c:	66 90                	xchg   %ax,%ax
  40a51e:	66 90                	xchg   %ax,%ax

0040a520 <_register_frame_ctor>:
  40a520:	55                   	push   %ebp
  40a521:	89 e5                	mov    %esp,%ebp
  40a523:	83 ec 18             	sub    $0x18,%esp
  40a526:	e8 d5 6d ff ff       	call   401300 <___gcc_register_frame>
  40a52b:	c7 04 24 90 13 40 00 	movl   $0x401390,(%esp)
  40a532:	e8 a9 6d ff ff       	call   4012e0 <_atexit>
  40a537:	c9                   	leave  
  40a538:	c3                   	ret    
  40a539:	90                   	nop
  40a53a:	90                   	nop
  40a53b:	90                   	nop
  40a53c:	90                   	nop
  40a53d:	90                   	nop
  40a53e:	90                   	nop
  40a53f:	90                   	nop

0040a540 <__CTOR_LIST__>:
  40a540:	ff                   	(bad)  
  40a541:	ff                   	(bad)  
  40a542:	ff                   	(bad)  
  40a543:	ff 20                	jmp    *(%eax)

0040a544 <.ctors.65535>:
  40a544:	20 a5 40 00 00 00    	and    %ah,0x40(%ebp)
	...

0040a54c <__DTOR_LIST__>:
  40a54c:	ff                   	(bad)  
  40a54d:	ff                   	(bad)  
  40a54e:	ff                   	(bad)  
  40a54f:	ff 00                	incl   (%eax)
  40a551:	00 00                	add    %al,(%eax)
	...
