
foo.exe:     file format pei-i386


Disassembly of section .text:

00401000 <__gnu_exception_handler@4>:
  401000:	53                   	push   %ebx
  401001:	83 ec 18             	sub    $0x18,%esp
  401004:	8b 44 24 20          	mov    0x20(%esp),%eax
  401008:	8b 00                	mov    (%eax),%eax
  40100a:	8b 00                	mov    (%eax),%eax
  40100c:	3d 91 00 00 c0       	cmp    $0xc0000091,%eax
  401011:	77 4d                	ja     401060 <__gnu_exception_handler@4+0x60>
  401013:	3d 8d 00 00 c0       	cmp    $0xc000008d,%eax
  401018:	73 5b                	jae    401075 <__gnu_exception_handler@4+0x75>
  40101a:	3d 05 00 00 c0       	cmp    $0xc0000005,%eax
  40101f:	0f 85 8e 00 00 00    	jne    4010b3 <__gnu_exception_handler@4+0xb3>
  401025:	c7 44 24 04 00 00 00 	movl   $0x0,0x4(%esp)
  40102c:	00 
  40102d:	c7 04 24 0b 00 00 00 	movl   $0xb,(%esp)
  401034:	e8 77 c9 00 00       	call   40d9b0 <_signal>
  401039:	83 f8 01             	cmp    $0x1,%eax
  40103c:	0f 84 c1 00 00 00    	je     401103 <__gnu_exception_handler@4+0x103>
  401042:	85 c0                	test   %eax,%eax
  401044:	0f 85 a6 00 00 00    	jne    4010f0 <__gnu_exception_handler@4+0xf0>
  40104a:	8d b6 00 00 00 00    	lea    0x0(%esi),%esi
  401050:	31 c0                	xor    %eax,%eax
  401052:	83 c4 18             	add    $0x18,%esp
  401055:	5b                   	pop    %ebx
  401056:	c2 04 00             	ret    $0x4
  401059:	8d b4 26 00 00 00 00 	lea    0x0(%esi,%eiz,1),%esi
  401060:	3d 94 00 00 c0       	cmp    $0xc0000094,%eax
  401065:	74 19                	je     401080 <__gnu_exception_handler@4+0x80>
  401067:	3d 96 00 00 c0       	cmp    $0xc0000096,%eax
  40106c:	74 4c                	je     4010ba <__gnu_exception_handler@4+0xba>
  40106e:	3d 93 00 00 c0       	cmp    $0xc0000093,%eax
  401073:	75 db                	jne    401050 <__gnu_exception_handler@4+0x50>
  401075:	bb 01 00 00 00       	mov    $0x1,%ebx
  40107a:	eb 06                	jmp    401082 <__gnu_exception_handler@4+0x82>
  40107c:	8d 74 26 00          	lea    0x0(%esi,%eiz,1),%esi
  401080:	31 db                	xor    %ebx,%ebx
  401082:	c7 44 24 04 00 00 00 	movl   $0x0,0x4(%esp)
  401089:	00 
  40108a:	c7 04 24 08 00 00 00 	movl   $0x8,(%esp)
  401091:	e8 1a c9 00 00       	call   40d9b0 <_signal>
  401096:	83 f8 01             	cmp    $0x1,%eax
  401099:	0f 84 a1 00 00 00    	je     401140 <__gnu_exception_handler@4+0x140>
  40109f:	85 c0                	test   %eax,%eax
  4010a1:	74 ad                	je     401050 <__gnu_exception_handler@4+0x50>
  4010a3:	c7 04 24 08 00 00 00 	movl   $0x8,(%esp)
  4010aa:	ff d0                	call   *%eax
  4010ac:	b8 ff ff ff ff       	mov    $0xffffffff,%eax
  4010b1:	eb 9f                	jmp    401052 <__gnu_exception_handler@4+0x52>
  4010b3:	3d 1d 00 00 c0       	cmp    $0xc000001d,%eax
  4010b8:	75 96                	jne    401050 <__gnu_exception_handler@4+0x50>
  4010ba:	c7 44 24 04 00 00 00 	movl   $0x0,0x4(%esp)
  4010c1:	00 
  4010c2:	c7 04 24 04 00 00 00 	movl   $0x4,(%esp)
  4010c9:	e8 e2 c8 00 00       	call   40d9b0 <_signal>
  4010ce:	83 f8 01             	cmp    $0x1,%eax
  4010d1:	74 4c                	je     40111f <__gnu_exception_handler@4+0x11f>
  4010d3:	85 c0                	test   %eax,%eax
  4010d5:	0f 84 75 ff ff ff    	je     401050 <__gnu_exception_handler@4+0x50>
  4010db:	c7 04 24 04 00 00 00 	movl   $0x4,(%esp)
  4010e2:	ff d0                	call   *%eax
  4010e4:	b8 ff ff ff ff       	mov    $0xffffffff,%eax
  4010e9:	e9 64 ff ff ff       	jmp    401052 <__gnu_exception_handler@4+0x52>
  4010ee:	66 90                	xchg   %ax,%ax
  4010f0:	c7 04 24 0b 00 00 00 	movl   $0xb,(%esp)
  4010f7:	ff d0                	call   *%eax
  4010f9:	b8 ff ff ff ff       	mov    $0xffffffff,%eax
  4010fe:	e9 4f ff ff ff       	jmp    401052 <__gnu_exception_handler@4+0x52>
  401103:	c7 44 24 04 01 00 00 	movl   $0x1,0x4(%esp)
  40110a:	00 
  40110b:	c7 04 24 0b 00 00 00 	movl   $0xb,(%esp)
  401112:	e8 99 c8 00 00       	call   40d9b0 <_signal>
  401117:	83 c8 ff             	or     $0xffffffff,%eax
  40111a:	e9 33 ff ff ff       	jmp    401052 <__gnu_exception_handler@4+0x52>
  40111f:	c7 44 24 04 01 00 00 	movl   $0x1,0x4(%esp)
  401126:	00 
  401127:	c7 04 24 04 00 00 00 	movl   $0x4,(%esp)
  40112e:	e8 7d c8 00 00       	call   40d9b0 <_signal>
  401133:	83 c8 ff             	or     $0xffffffff,%eax
  401136:	e9 17 ff ff ff       	jmp    401052 <__gnu_exception_handler@4+0x52>
  40113b:	90                   	nop
  40113c:	8d 74 26 00          	lea    0x0(%esi,%eiz,1),%esi
  401140:	c7 44 24 04 01 00 00 	movl   $0x1,0x4(%esp)
  401147:	00 
  401148:	c7 04 24 08 00 00 00 	movl   $0x8,(%esp)
  40114f:	e8 5c c8 00 00       	call   40d9b0 <_signal>
  401154:	85 db                	test   %ebx,%ebx
  401156:	b8 ff ff ff ff       	mov    $0xffffffff,%eax
  40115b:	0f 84 f1 fe ff ff    	je     401052 <__gnu_exception_handler@4+0x52>
  401161:	89 44 24 0c          	mov    %eax,0xc(%esp)
  401165:	e8 e6 5b 00 00       	call   406d50 <__fpreset>
  40116a:	8b 44 24 0c          	mov    0xc(%esp),%eax
  40116e:	e9 df fe ff ff       	jmp    401052 <__gnu_exception_handler@4+0x52>
  401173:	8d b6 00 00 00 00    	lea    0x0(%esi),%esi
  401179:	8d bc 27 00 00 00 00 	lea    0x0(%edi,%eiz,1),%edi

00401180 <___mingw_CRTStartup>:
  401180:	55                   	push   %ebp
  401181:	89 e5                	mov    %esp,%ebp
  401183:	53                   	push   %ebx
  401184:	83 ec 14             	sub    $0x14,%esp
  401187:	a1 b0 00 41 00       	mov    0x4100b0,%eax
  40118c:	85 c0                	test   %eax,%eax
  40118e:	74 1c                	je     4011ac <___mingw_CRTStartup+0x2c>
  401190:	c7 44 24 08 00 00 00 	movl   $0x0,0x8(%esp)
  401197:	00 
  401198:	c7 44 24 04 02 00 00 	movl   $0x2,0x4(%esp)
  40119f:	00 
  4011a0:	c7 04 24 00 00 00 00 	movl   $0x0,(%esp)
  4011a7:	ff d0                	call   *%eax
  4011a9:	83 ec 0c             	sub    $0xc,%esp
  4011ac:	c7 04 24 00 10 40 00 	movl   $0x401000,(%esp)
  4011b3:	e8 e8 d0 00 00       	call   40e2a0 <_SetUnhandledExceptionFilter@4>
  4011b8:	83 ec 04             	sub    $0x4,%esp
  4011bb:	e8 a0 5b 00 00       	call   406d60 <___cpu_features_init>
  4011c0:	e8 8b 5b 00 00       	call   406d50 <__fpreset>
  4011c5:	e8 76 5c 00 00       	call   406e40 <__setargv>
  4011ca:	a1 4c 30 41 00       	mov    0x41304c,%eax
  4011cf:	85 c0                	test   %eax,%eax
  4011d1:	74 42                	je     401215 <___mingw_CRTStartup+0x95>
  4011d3:	8b 1d 44 42 41 00    	mov    0x414244,%ebx
  4011d9:	a3 88 f8 40 00       	mov    %eax,0x40f888
  4011de:	89 44 24 04          	mov    %eax,0x4(%esp)
  4011e2:	8b 43 10             	mov    0x10(%ebx),%eax
  4011e5:	89 04 24             	mov    %eax,(%esp)
  4011e8:	e8 cb c7 00 00       	call   40d9b8 <__setmode>
  4011ed:	a1 4c 30 41 00       	mov    0x41304c,%eax
  4011f2:	89 44 24 04          	mov    %eax,0x4(%esp)
  4011f6:	8b 43 30             	mov    0x30(%ebx),%eax
  4011f9:	89 04 24             	mov    %eax,(%esp)
  4011fc:	e8 b7 c7 00 00       	call   40d9b8 <__setmode>
  401201:	a1 4c 30 41 00       	mov    0x41304c,%eax
  401206:	89 44 24 04          	mov    %eax,0x4(%esp)
  40120a:	8b 43 50             	mov    0x50(%ebx),%eax
  40120d:	89 04 24             	mov    %eax,(%esp)
  401210:	e8 a3 c7 00 00       	call   40d9b8 <__setmode>
  401215:	e8 a6 c7 00 00       	call   40d9c0 <___p__fmode>
  40121a:	8b 15 88 f8 40 00    	mov    0x40f888,%edx
  401220:	89 10                	mov    %edx,(%eax)
  401222:	e8 69 60 00 00       	call   407290 <__pei386_runtime_relocator>
  401227:	83 e4 f0             	and    $0xfffffff0,%esp
  40122a:	e8 c1 62 00 00       	call   4074f0 <___main>
  40122f:	e8 94 c7 00 00       	call   40d9c8 <___p__environ>
  401234:	8b 00                	mov    (%eax),%eax
  401236:	89 44 24 08          	mov    %eax,0x8(%esp)
  40123a:	a1 00 30 41 00       	mov    0x413000,%eax
  40123f:	89 44 24 04          	mov    %eax,0x4(%esp)
  401243:	a1 04 30 41 00       	mov    0x413004,%eax
  401248:	89 04 24             	mov    %eax,(%esp)
  40124b:	e8 77 21 00 00       	call   4033c7 <_main>
  401250:	89 c3                	mov    %eax,%ebx
  401252:	e8 79 c7 00 00       	call   40d9d0 <__cexit>
  401257:	89 1c 24             	mov    %ebx,(%esp)
  40125a:	e8 49 d0 00 00       	call   40e2a8 <_ExitProcess@4>
  40125f:	90                   	nop

00401260 <__mingw32_init_mainargs>:
  401260:	83 ec 3c             	sub    $0x3c,%esp
  401263:	8d 44 24 2c          	lea    0x2c(%esp),%eax
  401267:	89 44 24 10          	mov    %eax,0x10(%esp)
  40126b:	a1 8c f8 40 00       	mov    0x40f88c,%eax
  401270:	c7 44 24 04 00 30 41 	movl   $0x413000,0x4(%esp)
  401277:	00 
  401278:	c7 04 24 04 30 41 00 	movl   $0x413004,(%esp)
  40127f:	c7 44 24 2c 00 00 00 	movl   $0x0,0x2c(%esp)
  401286:	00 
  401287:	83 e0 01             	and    $0x1,%eax
  40128a:	89 44 24 0c          	mov    %eax,0xc(%esp)
  40128e:	8d 44 24 28          	lea    0x28(%esp),%eax
  401292:	89 44 24 08          	mov    %eax,0x8(%esp)
  401296:	e8 3d c7 00 00       	call   40d9d8 <___getmainargs>
  40129b:	83 c4 3c             	add    $0x3c,%esp
  40129e:	c3                   	ret    
  40129f:	90                   	nop

004012a0 <_mainCRTStartup>:
  4012a0:	83 ec 1c             	sub    $0x1c,%esp
  4012a3:	c7 04 24 01 00 00 00 	movl   $0x1,(%esp)
  4012aa:	ff 15 34 42 41 00    	call   *0x414234
  4012b0:	e8 cb fe ff ff       	call   401180 <___mingw_CRTStartup>
  4012b5:	8d 74 26 00          	lea    0x0(%esi,%eiz,1),%esi
  4012b9:	8d bc 27 00 00 00 00 	lea    0x0(%edi,%eiz,1),%edi

004012c0 <_WinMainCRTStartup>:
  4012c0:	83 ec 1c             	sub    $0x1c,%esp
  4012c3:	c7 04 24 02 00 00 00 	movl   $0x2,(%esp)
  4012ca:	ff 15 34 42 41 00    	call   *0x414234
  4012d0:	e8 ab fe ff ff       	call   401180 <___mingw_CRTStartup>
  4012d5:	8d 74 26 00          	lea    0x0(%esi,%eiz,1),%esi
  4012d9:	8d bc 27 00 00 00 00 	lea    0x0(%edi,%eiz,1),%edi

004012e0 <_atexit>:
  4012e0:	a1 54 42 41 00       	mov    0x414254,%eax
  4012e5:	ff e0                	jmp    *%eax
  4012e7:	89 f6                	mov    %esi,%esi
  4012e9:	8d bc 27 00 00 00 00 	lea    0x0(%edi,%eiz,1),%edi

004012f0 <__onexit>:
  4012f0:	a1 48 42 41 00       	mov    0x414248,%eax
  4012f5:	ff e0                	jmp    *%eax
  4012f7:	90                   	nop
  4012f8:	90                   	nop
  4012f9:	90                   	nop
  4012fa:	90                   	nop
  4012fb:	90                   	nop
  4012fc:	90                   	nop
  4012fd:	90                   	nop
  4012fe:	90                   	nop
  4012ff:	90                   	nop

00401300 <___gcc_register_frame>:
  401300:	55                   	push   %ebp
  401301:	89 e5                	mov    %esp,%ebp
  401303:	83 ec 18             	sub    $0x18,%esp
  401306:	c7 04 24 00 00 41 00 	movl   $0x410000,(%esp)
  40130d:	e8 9e cf 00 00       	call   40e2b0 <_GetModuleHandleA@4>
  401312:	ba 00 00 00 00       	mov    $0x0,%edx
  401317:	83 ec 04             	sub    $0x4,%esp
  40131a:	85 c0                	test   %eax,%eax
  40131c:	74 15                	je     401333 <___gcc_register_frame+0x33>
  40131e:	c7 44 24 04 13 00 41 	movl   $0x410013,0x4(%esp)
  401325:	00 
  401326:	89 04 24             	mov    %eax,(%esp)
  401329:	e8 8a cf 00 00       	call   40e2b8 <_GetProcAddress@8>
  40132e:	83 ec 08             	sub    $0x8,%esp
  401331:	89 c2                	mov    %eax,%edx
  401333:	85 d2                	test   %edx,%edx
  401335:	74 11                	je     401348 <___gcc_register_frame+0x48>
  401337:	c7 44 24 04 0c 30 41 	movl   $0x41300c,0x4(%esp)
  40133e:	00 
  40133f:	c7 04 24 f0 10 41 00 	movl   $0x4110f0,(%esp)
  401346:	ff d2                	call   *%edx
  401348:	a1 00 f9 40 00       	mov    0x40f900,%eax
  40134d:	85 c0                	test   %eax,%eax
  40134f:	74 3a                	je     40138b <___gcc_register_frame+0x8b>
  401351:	c7 04 24 29 00 41 00 	movl   $0x410029,(%esp)
  401358:	e8 53 cf 00 00       	call   40e2b0 <_GetModuleHandleA@4>
  40135d:	ba 00 00 00 00       	mov    $0x0,%edx
  401362:	83 ec 04             	sub    $0x4,%esp
  401365:	85 c0                	test   %eax,%eax
  401367:	74 15                	je     40137e <___gcc_register_frame+0x7e>
  401369:	c7 44 24 04 37 00 41 	movl   $0x410037,0x4(%esp)
  401370:	00 
  401371:	89 04 24             	mov    %eax,(%esp)
  401374:	e8 3f cf 00 00       	call   40e2b8 <_GetProcAddress@8>
  401379:	83 ec 08             	sub    $0x8,%esp
  40137c:	89 c2                	mov    %eax,%edx
  40137e:	85 d2                	test   %edx,%edx
  401380:	74 09                	je     40138b <___gcc_register_frame+0x8b>
  401382:	c7 04 24 00 f9 40 00 	movl   $0x40f900,(%esp)
  401389:	ff d2                	call   *%edx
  40138b:	c9                   	leave  
  40138c:	c3                   	ret    
  40138d:	8d 76 00             	lea    0x0(%esi),%esi

00401390 <___gcc_deregister_frame>:
  401390:	55                   	push   %ebp
  401391:	89 e5                	mov    %esp,%ebp
  401393:	83 ec 18             	sub    $0x18,%esp
  401396:	c7 04 24 00 00 41 00 	movl   $0x410000,(%esp)
  40139d:	e8 0e cf 00 00       	call   40e2b0 <_GetModuleHandleA@4>
  4013a2:	ba 00 00 00 00       	mov    $0x0,%edx
  4013a7:	83 ec 04             	sub    $0x4,%esp
  4013aa:	85 c0                	test   %eax,%eax
  4013ac:	74 15                	je     4013c3 <___gcc_deregister_frame+0x33>
  4013ae:	c7 44 24 04 4b 00 41 	movl   $0x41004b,0x4(%esp)
  4013b5:	00 
  4013b6:	89 04 24             	mov    %eax,(%esp)
  4013b9:	e8 fa ce 00 00       	call   40e2b8 <_GetProcAddress@8>
  4013be:	83 ec 08             	sub    $0x8,%esp
  4013c1:	89 c2                	mov    %eax,%edx
  4013c3:	85 d2                	test   %edx,%edx
  4013c5:	74 09                	je     4013d0 <___gcc_deregister_frame+0x40>
  4013c7:	c7 04 24 f0 10 41 00 	movl   $0x4110f0,(%esp)
  4013ce:	ff d2                	call   *%edx
  4013d0:	c9                   	leave  
  4013d1:	c3                   	ret    
  4013d2:	90                   	nop
  4013d3:	90                   	nop
  4013d4:	90                   	nop
  4013d5:	90                   	nop
  4013d6:	90                   	nop
  4013d7:	90                   	nop
  4013d8:	90                   	nop
  4013d9:	90                   	nop
  4013da:	90                   	nop
  4013db:	90                   	nop
  4013dc:	90                   	nop
  4013dd:	90                   	nop
  4013de:	90                   	nop
  4013df:	90                   	nop

004013e0 <_printBitBoard>:
  4013e0:	55                   	push   %ebp
  4013e1:	89 e5                	mov    %esp,%ebp
  4013e3:	57                   	push   %edi
  4013e4:	56                   	push   %esi
  4013e5:	53                   	push   %ebx
  4013e6:	83 ec 2c             	sub    $0x2c,%esp
  4013e9:	e8 32 ca 00 00       	call   40de20 <_mcount>
  4013ee:	8b 45 08             	mov    0x8(%ebp),%eax
  4013f1:	89 45 d0             	mov    %eax,-0x30(%ebp)
  4013f4:	8b 45 0c             	mov    0xc(%ebp),%eax
  4013f7:	89 45 d4             	mov    %eax,-0x2c(%ebp)
  4013fa:	c7 04 24 64 00 41 00 	movl   $0x410064,(%esp)
  401401:	e8 da c5 00 00       	call   40d9e0 <_puts>
  401406:	c7 45 e4 07 00 00 00 	movl   $0x7,-0x1c(%ebp)
  40140d:	eb 71                	jmp    401480 <_printBitBoard+0xa0>
  40140f:	c7 45 e0 00 00 00 00 	movl   $0x0,-0x20(%ebp)
  401416:	eb 52                	jmp    40146a <_printBitBoard+0x8a>
  401418:	8b 45 e4             	mov    -0x1c(%ebp),%eax
  40141b:	8d 14 c5 00 00 00 00 	lea    0x0(,%eax,8),%edx
  401422:	8b 45 e0             	mov    -0x20(%ebp),%eax
  401425:	8d 0c 02             	lea    (%edx,%eax,1),%ecx
  401428:	8b 45 d0             	mov    -0x30(%ebp),%eax
  40142b:	8b 55 d4             	mov    -0x2c(%ebp),%edx
  40142e:	0f ad d0             	shrd   %cl,%edx,%eax
  401431:	d3 ea                	shr    %cl,%edx
  401433:	f6 c1 20             	test   $0x20,%cl
  401436:	74 04                	je     40143c <_printBitBoard+0x5c>
  401438:	89 d0                	mov    %edx,%eax
  40143a:	31 d2                	xor    %edx,%edx
  40143c:	89 c7                	mov    %eax,%edi
  40143e:	83 e7 01             	and    $0x1,%edi
  401441:	89 fb                	mov    %edi,%ebx
  401443:	89 d0                	mov    %edx,%eax
  401445:	83 e0 00             	and    $0x0,%eax
  401448:	89 c6                	mov    %eax,%esi
  40144a:	89 d8                	mov    %ebx,%eax
  40144c:	09 f0                	or     %esi,%eax
  40144e:	85 c0                	test   %eax,%eax
  401450:	0f 95 c0             	setne  %al
  401453:	0f b6 c0             	movzbl %al,%eax
  401456:	89 44 24 04          	mov    %eax,0x4(%esp)
  40145a:	c7 04 24 78 00 41 00 	movl   $0x410078,(%esp)
  401461:	e8 82 c5 00 00       	call   40d9e8 <_printf>
  401466:	83 45 e0 01          	addl   $0x1,-0x20(%ebp)
  40146a:	83 7d e0 07          	cmpl   $0x7,-0x20(%ebp)
  40146e:	7e a8                	jle    401418 <_printBitBoard+0x38>
  401470:	c7 04 24 0a 00 00 00 	movl   $0xa,(%esp)
  401477:	e8 74 c5 00 00       	call   40d9f0 <_putchar>
  40147c:	83 6d e4 01          	subl   $0x1,-0x1c(%ebp)
  401480:	83 7d e4 00          	cmpl   $0x0,-0x1c(%ebp)
  401484:	79 89                	jns    40140f <_printBitBoard+0x2f>
  401486:	c7 04 24 0a 00 00 00 	movl   $0xa,(%esp)
  40148d:	e8 5e c5 00 00       	call   40d9f0 <_putchar>
  401492:	83 c4 2c             	add    $0x2c,%esp
  401495:	5b                   	pop    %ebx
  401496:	5e                   	pop    %esi
  401497:	5f                   	pop    %edi
  401498:	5d                   	pop    %ebp
  401499:	c3                   	ret    

0040149a <_getSquare>:
  40149a:	55                   	push   %ebp
  40149b:	89 e5                	mov    %esp,%ebp
  40149d:	57                   	push   %edi
  40149e:	56                   	push   %esi
  40149f:	53                   	push   %ebx
  4014a0:	83 ec 54             	sub    $0x54,%esp
  4014a3:	e8 78 c9 00 00       	call   40de20 <_mcount>
  4014a8:	8b 4d 08             	mov    0x8(%ebp),%ecx
  4014ab:	b8 01 00 00 00       	mov    $0x1,%eax
  4014b0:	ba 00 00 00 00       	mov    $0x0,%edx
  4014b5:	0f a5 c2             	shld   %cl,%eax,%edx
  4014b8:	d3 e0                	shl    %cl,%eax
  4014ba:	f6 c1 20             	test   $0x20,%cl
  4014bd:	74 04                	je     4014c3 <_getSquare+0x29>
  4014bf:	89 c2                	mov    %eax,%edx
  4014c1:	31 c0                	xor    %eax,%eax
  4014c3:	89 45 e8             	mov    %eax,-0x18(%ebp)
  4014c6:	89 55 ec             	mov    %edx,-0x14(%ebp)
  4014c9:	8b 45 0c             	mov    0xc(%ebp),%eax
  4014cc:	8b 08                	mov    (%eax),%ecx
  4014ce:	8b 58 04             	mov    0x4(%eax),%ebx
  4014d1:	8b 45 0c             	mov    0xc(%ebp),%eax
  4014d4:	8b 50 0c             	mov    0xc(%eax),%edx
  4014d7:	8b 40 08             	mov    0x8(%eax),%eax
  4014da:	89 45 d8             	mov    %eax,-0x28(%ebp)
  4014dd:	89 55 dc             	mov    %edx,-0x24(%ebp)
  4014e0:	89 c8                	mov    %ecx,%eax
  4014e2:	0b 45 d8             	or     -0x28(%ebp),%eax
  4014e5:	89 c6                	mov    %eax,%esi
  4014e7:	89 d8                	mov    %ebx,%eax
  4014e9:	0b 45 dc             	or     -0x24(%ebp),%eax
  4014ec:	89 c7                	mov    %eax,%edi
  4014ee:	89 f0                	mov    %esi,%eax
  4014f0:	23 45 e8             	and    -0x18(%ebp),%eax
  4014f3:	89 45 d0             	mov    %eax,-0x30(%ebp)
  4014f6:	89 f8                	mov    %edi,%eax
  4014f8:	23 45 ec             	and    -0x14(%ebp),%eax
  4014fb:	89 45 d4             	mov    %eax,-0x2c(%ebp)
  4014fe:	8b 55 d0             	mov    -0x30(%ebp),%edx
  401501:	8b 4d d4             	mov    -0x2c(%ebp),%ecx
  401504:	89 c8                	mov    %ecx,%eax
  401506:	09 d0                	or     %edx,%eax
  401508:	85 c0                	test   %eax,%eax
  40150a:	75 0a                	jne    401516 <_getSquare+0x7c>
  40150c:	a1 18 f1 40 00       	mov    0x40f118,%eax
  401511:	e9 1d 01 00 00       	jmp    401633 <_getSquare+0x199>
  401516:	8b 45 0c             	mov    0xc(%ebp),%eax
  401519:	8b 50 3c             	mov    0x3c(%eax),%edx
  40151c:	8b 40 38             	mov    0x38(%eax),%eax
  40151f:	89 c7                	mov    %eax,%edi
  401521:	23 7d e8             	and    -0x18(%ebp),%edi
  401524:	89 7d c8             	mov    %edi,-0x38(%ebp)
  401527:	89 d0                	mov    %edx,%eax
  401529:	23 45 ec             	and    -0x14(%ebp),%eax
  40152c:	89 45 cc             	mov    %eax,-0x34(%ebp)
  40152f:	8b 5d c8             	mov    -0x38(%ebp),%ebx
  401532:	8b 75 cc             	mov    -0x34(%ebp),%esi
  401535:	89 f0                	mov    %esi,%eax
  401537:	09 d8                	or     %ebx,%eax
  401539:	85 c0                	test   %eax,%eax
  40153b:	74 0a                	je     401547 <_getSquare+0xad>
  40153d:	a1 2c 30 41 00       	mov    0x41302c,%eax
  401542:	e9 ec 00 00 00       	jmp    401633 <_getSquare+0x199>
  401547:	8b 45 0c             	mov    0xc(%ebp),%eax
  40154a:	8b 50 34             	mov    0x34(%eax),%edx
  40154d:	8b 40 30             	mov    0x30(%eax),%eax
  401550:	89 c7                	mov    %eax,%edi
  401552:	23 7d e8             	and    -0x18(%ebp),%edi
  401555:	89 7d c0             	mov    %edi,-0x40(%ebp)
  401558:	89 d0                	mov    %edx,%eax
  40155a:	23 45 ec             	and    -0x14(%ebp),%eax
  40155d:	89 45 c4             	mov    %eax,-0x3c(%ebp)
  401560:	8b 55 c0             	mov    -0x40(%ebp),%edx
  401563:	8b 4d c4             	mov    -0x3c(%ebp),%ecx
  401566:	89 c8                	mov    %ecx,%eax
  401568:	09 d0                	or     %edx,%eax
  40156a:	85 c0                	test   %eax,%eax
  40156c:	74 0a                	je     401578 <_getSquare+0xde>
  40156e:	a1 04 f1 40 00       	mov    0x40f104,%eax
  401573:	e9 bb 00 00 00       	jmp    401633 <_getSquare+0x199>
  401578:	8b 45 0c             	mov    0xc(%ebp),%eax
  40157b:	8b 50 2c             	mov    0x2c(%eax),%edx
  40157e:	8b 40 28             	mov    0x28(%eax),%eax
  401581:	89 c7                	mov    %eax,%edi
  401583:	23 7d e8             	and    -0x18(%ebp),%edi
  401586:	89 7d b8             	mov    %edi,-0x48(%ebp)
  401589:	89 d0                	mov    %edx,%eax
  40158b:	23 45 ec             	and    -0x14(%ebp),%eax
  40158e:	89 45 bc             	mov    %eax,-0x44(%ebp)
  401591:	8b 5d b8             	mov    -0x48(%ebp),%ebx
  401594:	8b 75 bc             	mov    -0x44(%ebp),%esi
  401597:	89 f0                	mov    %esi,%eax
  401599:	09 d8                	or     %ebx,%eax
  40159b:	85 c0                	test   %eax,%eax
  40159d:	74 0a                	je     4015a9 <_getSquare+0x10f>
  40159f:	a1 08 f1 40 00       	mov    0x40f108,%eax
  4015a4:	e9 8a 00 00 00       	jmp    401633 <_getSquare+0x199>
  4015a9:	8b 45 0c             	mov    0xc(%ebp),%eax
  4015ac:	8b 50 24             	mov    0x24(%eax),%edx
  4015af:	8b 40 20             	mov    0x20(%eax),%eax
  4015b2:	89 c3                	mov    %eax,%ebx
  4015b4:	23 5d e8             	and    -0x18(%ebp),%ebx
  4015b7:	89 5d b0             	mov    %ebx,-0x50(%ebp)
  4015ba:	89 d0                	mov    %edx,%eax
  4015bc:	23 45 ec             	and    -0x14(%ebp),%eax
  4015bf:	89 45 b4             	mov    %eax,-0x4c(%ebp)
  4015c2:	8b 55 b0             	mov    -0x50(%ebp),%edx
  4015c5:	8b 4d b4             	mov    -0x4c(%ebp),%ecx
  4015c8:	89 c8                	mov    %ecx,%eax
  4015ca:	09 d0                	or     %edx,%eax
  4015cc:	85 c0                	test   %eax,%eax
  4015ce:	74 07                	je     4015d7 <_getSquare+0x13d>
  4015d0:	a1 0c f1 40 00       	mov    0x40f10c,%eax
  4015d5:	eb 5c                	jmp    401633 <_getSquare+0x199>
  4015d7:	8b 45 0c             	mov    0xc(%ebp),%eax
  4015da:	8b 50 1c             	mov    0x1c(%eax),%edx
  4015dd:	8b 40 18             	mov    0x18(%eax),%eax
  4015e0:	89 c7                	mov    %eax,%edi
  4015e2:	23 7d e8             	and    -0x18(%ebp),%edi
  4015e5:	89 7d a8             	mov    %edi,-0x58(%ebp)
  4015e8:	89 d0                	mov    %edx,%eax
  4015ea:	23 45 ec             	and    -0x14(%ebp),%eax
  4015ed:	89 45 ac             	mov    %eax,-0x54(%ebp)
  4015f0:	8b 5d a8             	mov    -0x58(%ebp),%ebx
  4015f3:	8b 75 ac             	mov    -0x54(%ebp),%esi
  4015f6:	89 f0                	mov    %esi,%eax
  4015f8:	09 d8                	or     %ebx,%eax
  4015fa:	85 c0                	test   %eax,%eax
  4015fc:	74 07                	je     401605 <_getSquare+0x16b>
  4015fe:	a1 10 f1 40 00       	mov    0x40f110,%eax
  401603:	eb 2e                	jmp    401633 <_getSquare+0x199>
  401605:	8b 45 0c             	mov    0xc(%ebp),%eax
  401608:	8b 50 14             	mov    0x14(%eax),%edx
  40160b:	8b 40 10             	mov    0x10(%eax),%eax
  40160e:	89 c3                	mov    %eax,%ebx
  401610:	23 5d e8             	and    -0x18(%ebp),%ebx
  401613:	89 5d a0             	mov    %ebx,-0x60(%ebp)
  401616:	89 d0                	mov    %edx,%eax
  401618:	23 45 ec             	and    -0x14(%ebp),%eax
  40161b:	89 45 a4             	mov    %eax,-0x5c(%ebp)
  40161e:	8b 55 a0             	mov    -0x60(%ebp),%edx
  401621:	8b 4d a4             	mov    -0x5c(%ebp),%ecx
  401624:	89 c8                	mov    %ecx,%eax
  401626:	09 d0                	or     %edx,%eax
  401628:	85 c0                	test   %eax,%eax
  40162a:	74 07                	je     401633 <_getSquare+0x199>
  40162c:	a1 14 f1 40 00       	mov    0x40f114,%eax
  401631:	eb 00                	jmp    401633 <_getSquare+0x199>
  401633:	83 c4 54             	add    $0x54,%esp
  401636:	5b                   	pop    %ebx
  401637:	5e                   	pop    %esi
  401638:	5f                   	pop    %edi
  401639:	5d                   	pop    %ebp
  40163a:	c3                   	ret    

0040163b <_countSetBits>:
  40163b:	55                   	push   %ebp
  40163c:	89 e5                	mov    %esp,%ebp
  40163e:	57                   	push   %edi
  40163f:	56                   	push   %esi
  401640:	53                   	push   %ebx
  401641:	83 ec 1c             	sub    $0x1c,%esp
  401644:	e8 d7 c7 00 00       	call   40de20 <_mcount>
  401649:	8b 45 08             	mov    0x8(%ebp),%eax
  40164c:	89 45 d8             	mov    %eax,-0x28(%ebp)
  40164f:	8b 45 0c             	mov    0xc(%ebp),%eax
  401652:	89 45 dc             	mov    %eax,-0x24(%ebp)
  401655:	8b 45 d8             	mov    -0x28(%ebp),%eax
  401658:	8b 55 dc             	mov    -0x24(%ebp),%edx
  40165b:	09 d0                	or     %edx,%eax
  40165d:	85 c0                	test   %eax,%eax
  40165f:	75 0a                	jne    40166b <_countSetBits+0x30>
  401661:	b8 00 00 00 00       	mov    $0x0,%eax
  401666:	e9 82 00 00 00       	jmp    4016ed <_countSetBits+0xb2>
  40166b:	c7 45 ec 00 00 00 00 	movl   $0x0,-0x14(%ebp)
  401672:	eb 6a                	jmp    4016de <_countSetBits+0xa3>
  401674:	8b 45 d8             	mov    -0x28(%ebp),%eax
  401677:	8b 55 dc             	mov    -0x24(%ebp),%edx
  40167a:	83 c0 ff             	add    $0xffffffff,%eax
  40167d:	83 d2 ff             	adc    $0xffffffff,%edx
  401680:	89 c7                	mov    %eax,%edi
  401682:	33 7d d8             	xor    -0x28(%ebp),%edi
  401685:	89 fb                	mov    %edi,%ebx
  401687:	89 d0                	mov    %edx,%eax
  401689:	33 45 dc             	xor    -0x24(%ebp),%eax
  40168c:	89 c6                	mov    %eax,%esi
  40168e:	69 d6 89 0a cb b4    	imul   $0xb4cb0a89,%esi,%edx
  401694:	69 c3 71 9d f7 03    	imul   $0x3f79d71,%ebx,%eax
  40169a:	8d 0c 02             	lea    (%edx,%eax,1),%ecx
  40169d:	b8 89 0a cb b4       	mov    $0xb4cb0a89,%eax
  4016a2:	f7 e3                	mul    %ebx
  4016a4:	01 d1                	add    %edx,%ecx
  4016a6:	89 ca                	mov    %ecx,%edx
  4016a8:	89 d0                	mov    %edx,%eax
  4016aa:	31 d2                	xor    %edx,%edx
  4016ac:	c1 e8 1a             	shr    $0x1a,%eax
  4016af:	8b 04 85 00 f0 40 00 	mov    0x40f000(,%eax,4),%eax
  4016b6:	89 45 e8             	mov    %eax,-0x18(%ebp)
  4016b9:	83 45 ec 01          	addl   $0x1,-0x14(%ebp)
  4016bd:	8b 4d e8             	mov    -0x18(%ebp),%ecx
  4016c0:	b8 01 00 00 00       	mov    $0x1,%eax
  4016c5:	ba 00 00 00 00       	mov    $0x0,%edx
  4016ca:	0f a5 c2             	shld   %cl,%eax,%edx
  4016cd:	d3 e0                	shl    %cl,%eax
  4016cf:	f6 c1 20             	test   $0x20,%cl
  4016d2:	74 04                	je     4016d8 <_countSetBits+0x9d>
  4016d4:	89 c2                	mov    %eax,%edx
  4016d6:	31 c0                	xor    %eax,%eax
  4016d8:	31 45 d8             	xor    %eax,-0x28(%ebp)
  4016db:	31 55 dc             	xor    %edx,-0x24(%ebp)
  4016de:	8b 45 d8             	mov    -0x28(%ebp),%eax
  4016e1:	8b 55 dc             	mov    -0x24(%ebp),%edx
  4016e4:	09 d0                	or     %edx,%eax
  4016e6:	85 c0                	test   %eax,%eax
  4016e8:	75 8a                	jne    401674 <_countSetBits+0x39>
  4016ea:	8b 45 ec             	mov    -0x14(%ebp),%eax
  4016ed:	83 c4 1c             	add    $0x1c,%esp
  4016f0:	5b                   	pop    %ebx
  4016f1:	5e                   	pop    %esi
  4016f2:	5f                   	pop    %edi
  4016f3:	5d                   	pop    %ebp
  4016f4:	c3                   	ret    

004016f5 <_getSetBits>:
  4016f5:	55                   	push   %ebp
  4016f6:	89 e5                	mov    %esp,%ebp
  4016f8:	57                   	push   %edi
  4016f9:	56                   	push   %esi
  4016fa:	53                   	push   %ebx
  4016fb:	83 ec 1c             	sub    $0x1c,%esp
  4016fe:	e8 1d c7 00 00       	call   40de20 <_mcount>
  401703:	8b 45 08             	mov    0x8(%ebp),%eax
  401706:	89 45 d8             	mov    %eax,-0x28(%ebp)
  401709:	8b 45 0c             	mov    0xc(%ebp),%eax
  40170c:	89 45 dc             	mov    %eax,-0x24(%ebp)
  40170f:	c7 45 ec 00 00 00 00 	movl   $0x0,-0x14(%ebp)
  401716:	eb 7e                	jmp    401796 <_getSetBits+0xa1>
  401718:	8b 45 d8             	mov    -0x28(%ebp),%eax
  40171b:	8b 55 dc             	mov    -0x24(%ebp),%edx
  40171e:	83 c0 ff             	add    $0xffffffff,%eax
  401721:	83 d2 ff             	adc    $0xffffffff,%edx
  401724:	89 c7                	mov    %eax,%edi
  401726:	33 7d d8             	xor    -0x28(%ebp),%edi
  401729:	89 fb                	mov    %edi,%ebx
  40172b:	89 d0                	mov    %edx,%eax
  40172d:	33 45 dc             	xor    -0x24(%ebp),%eax
  401730:	89 c6                	mov    %eax,%esi
  401732:	69 d6 89 0a cb b4    	imul   $0xb4cb0a89,%esi,%edx
  401738:	69 c3 71 9d f7 03    	imul   $0x3f79d71,%ebx,%eax
  40173e:	8d 0c 02             	lea    (%edx,%eax,1),%ecx
  401741:	b8 89 0a cb b4       	mov    $0xb4cb0a89,%eax
  401746:	f7 e3                	mul    %ebx
  401748:	01 d1                	add    %edx,%ecx
  40174a:	89 ca                	mov    %ecx,%edx
  40174c:	89 d0                	mov    %edx,%eax
  40174e:	31 d2                	xor    %edx,%edx
  401750:	c1 e8 1a             	shr    $0x1a,%eax
  401753:	8b 04 85 00 f0 40 00 	mov    0x40f000(,%eax,4),%eax
  40175a:	89 45 e8             	mov    %eax,-0x18(%ebp)
  40175d:	8b 45 ec             	mov    -0x14(%ebp),%eax
  401760:	8d 14 85 00 00 00 00 	lea    0x0(,%eax,4),%edx
  401767:	8b 45 10             	mov    0x10(%ebp),%eax
  40176a:	01 c2                	add    %eax,%edx
  40176c:	8b 45 e8             	mov    -0x18(%ebp),%eax
  40176f:	89 02                	mov    %eax,(%edx)
  401771:	83 45 ec 01          	addl   $0x1,-0x14(%ebp)
  401775:	8b 4d e8             	mov    -0x18(%ebp),%ecx
  401778:	b8 01 00 00 00       	mov    $0x1,%eax
  40177d:	ba 00 00 00 00       	mov    $0x0,%edx
  401782:	0f a5 c2             	shld   %cl,%eax,%edx
  401785:	d3 e0                	shl    %cl,%eax
  401787:	f6 c1 20             	test   $0x20,%cl
  40178a:	74 04                	je     401790 <_getSetBits+0x9b>
  40178c:	89 c2                	mov    %eax,%edx
  40178e:	31 c0                	xor    %eax,%eax
  401790:	31 45 d8             	xor    %eax,-0x28(%ebp)
  401793:	31 55 dc             	xor    %edx,-0x24(%ebp)
  401796:	8b 45 d8             	mov    -0x28(%ebp),%eax
  401799:	8b 55 dc             	mov    -0x24(%ebp),%edx
  40179c:	09 d0                	or     %edx,%eax
  40179e:	85 c0                	test   %eax,%eax
  4017a0:	0f 85 72 ff ff ff    	jne    401718 <_getSetBits+0x23>
  4017a6:	8b 45 ec             	mov    -0x14(%ebp),%eax
  4017a9:	8d 14 85 00 00 00 00 	lea    0x0(,%eax,4),%edx
  4017b0:	8b 45 10             	mov    0x10(%ebp),%eax
  4017b3:	01 d0                	add    %edx,%eax
  4017b5:	c7 00 ff ff ff ff    	movl   $0xffffffff,(%eax)
  4017bb:	83 c4 1c             	add    $0x1c,%esp
  4017be:	5b                   	pop    %ebx
  4017bf:	5e                   	pop    %esi
  4017c0:	5f                   	pop    %edi
  4017c1:	5d                   	pop    %ebp
  4017c2:	c3                   	ret    
  4017c3:	90                   	nop

004017c4 <_BoardInit>:
  4017c4:	55                   	push   %ebp
  4017c5:	89 e5                	mov    %esp,%ebp
  4017c7:	83 ec 28             	sub    $0x28,%esp
  4017ca:	e8 51 c6 00 00       	call   40de20 <_mcount>
  4017cf:	c7 04 24 c0 00 00 00 	movl   $0xc0,(%esp)
  4017d6:	e8 1d c2 00 00       	call   40d9f8 <_malloc>
  4017db:	89 45 f4             	mov    %eax,-0xc(%ebp)
  4017de:	a1 20 f1 40 00       	mov    0x40f120,%eax
  4017e3:	8b 15 24 f1 40 00    	mov    0x40f124,%edx
  4017e9:	8b 4d f4             	mov    -0xc(%ebp),%ecx
  4017ec:	89 01                	mov    %eax,(%ecx)
  4017ee:	89 51 04             	mov    %edx,0x4(%ecx)
  4017f1:	a1 28 f1 40 00       	mov    0x40f128,%eax
  4017f6:	8b 15 2c f1 40 00    	mov    0x40f12c,%edx
  4017fc:	8b 4d f4             	mov    -0xc(%ebp),%ecx
  4017ff:	89 41 08             	mov    %eax,0x8(%ecx)
  401802:	89 51 0c             	mov    %edx,0xc(%ecx)
  401805:	a1 30 f1 40 00       	mov    0x40f130,%eax
  40180a:	8b 15 34 f1 40 00    	mov    0x40f134,%edx
  401810:	8b 4d f4             	mov    -0xc(%ebp),%ecx
  401813:	89 41 10             	mov    %eax,0x10(%ecx)
  401816:	89 51 14             	mov    %edx,0x14(%ecx)
  401819:	a1 38 f1 40 00       	mov    0x40f138,%eax
  40181e:	8b 15 3c f1 40 00    	mov    0x40f13c,%edx
  401824:	8b 4d f4             	mov    -0xc(%ebp),%ecx
  401827:	89 41 18             	mov    %eax,0x18(%ecx)
  40182a:	89 51 1c             	mov    %edx,0x1c(%ecx)
  40182d:	a1 40 f1 40 00       	mov    0x40f140,%eax
  401832:	8b 15 44 f1 40 00    	mov    0x40f144,%edx
  401838:	8b 4d f4             	mov    -0xc(%ebp),%ecx
  40183b:	89 41 20             	mov    %eax,0x20(%ecx)
  40183e:	89 51 24             	mov    %edx,0x24(%ecx)
  401841:	a1 48 f1 40 00       	mov    0x40f148,%eax
  401846:	8b 15 4c f1 40 00    	mov    0x40f14c,%edx
  40184c:	8b 4d f4             	mov    -0xc(%ebp),%ecx
  40184f:	89 41 28             	mov    %eax,0x28(%ecx)
  401852:	89 51 2c             	mov    %edx,0x2c(%ecx)
  401855:	a1 50 f1 40 00       	mov    0x40f150,%eax
  40185a:	8b 15 54 f1 40 00    	mov    0x40f154,%edx
  401860:	8b 4d f4             	mov    -0xc(%ebp),%ecx
  401863:	89 41 30             	mov    %eax,0x30(%ecx)
  401866:	89 51 34             	mov    %edx,0x34(%ecx)
  401869:	a1 58 f1 40 00       	mov    0x40f158,%eax
  40186e:	8b 15 5c f1 40 00    	mov    0x40f15c,%edx
  401874:	8b 4d f4             	mov    -0xc(%ebp),%ecx
  401877:	89 41 38             	mov    %eax,0x38(%ecx)
  40187a:	89 51 3c             	mov    %edx,0x3c(%ecx)
  40187d:	8b 45 f4             	mov    -0xc(%ebp),%eax
  401880:	c7 40 40 01 00 00 00 	movl   $0x1,0x40(%eax)
  401887:	c7 40 44 00 00 00 00 	movl   $0x0,0x44(%eax)
  40188e:	8b 55 f4             	mov    -0xc(%ebp),%edx
  401891:	8b 45 f4             	mov    -0xc(%ebp),%eax
  401894:	89 50 48             	mov    %edx,0x48(%eax)
  401897:	8b 45 f4             	mov    -0xc(%ebp),%eax
  40189a:	8d 50 08             	lea    0x8(%eax),%edx
  40189d:	8b 45 f4             	mov    -0xc(%ebp),%eax
  4018a0:	89 50 4c             	mov    %edx,0x4c(%eax)
  4018a3:	8b 45 f4             	mov    -0xc(%ebp),%eax
  4018a6:	8d 50 38             	lea    0x38(%eax),%edx
  4018a9:	8b 45 f4             	mov    -0xc(%ebp),%eax
  4018ac:	89 50 50             	mov    %edx,0x50(%eax)
  4018af:	8b 45 f4             	mov    -0xc(%ebp),%eax
  4018b2:	8d 50 30             	lea    0x30(%eax),%edx
  4018b5:	8b 45 f4             	mov    -0xc(%ebp),%eax
  4018b8:	89 50 54             	mov    %edx,0x54(%eax)
  4018bb:	8b 45 f4             	mov    -0xc(%ebp),%eax
  4018be:	8d 50 28             	lea    0x28(%eax),%edx
  4018c1:	8b 45 f4             	mov    -0xc(%ebp),%eax
  4018c4:	89 50 58             	mov    %edx,0x58(%eax)
  4018c7:	8b 45 f4             	mov    -0xc(%ebp),%eax
  4018ca:	8d 50 20             	lea    0x20(%eax),%edx
  4018cd:	8b 45 f4             	mov    -0xc(%ebp),%eax
  4018d0:	89 50 5c             	mov    %edx,0x5c(%eax)
  4018d3:	8b 45 f4             	mov    -0xc(%ebp),%eax
  4018d6:	8d 50 18             	lea    0x18(%eax),%edx
  4018d9:	8b 45 f4             	mov    -0xc(%ebp),%eax
  4018dc:	89 50 60             	mov    %edx,0x60(%eax)
  4018df:	8b 45 f4             	mov    -0xc(%ebp),%eax
  4018e2:	8d 50 10             	lea    0x10(%eax),%edx
  4018e5:	8b 45 f4             	mov    -0xc(%ebp),%eax
  4018e8:	89 50 64             	mov    %edx,0x64(%eax)
  4018eb:	8b 45 f4             	mov    -0xc(%ebp),%eax
  4018ee:	8d 50 40             	lea    0x40(%eax),%edx
  4018f1:	8b 45 f4             	mov    -0xc(%ebp),%eax
  4018f4:	89 50 68             	mov    %edx,0x68(%eax)
  4018f7:	8b 45 f4             	mov    -0xc(%ebp),%eax
  4018fa:	c7 40 6c 00 00 00 00 	movl   $0x0,0x6c(%eax)
  401901:	8b 45 f4             	mov    -0xc(%ebp),%eax
  401904:	c7 40 70 64 00 00 00 	movl   $0x64,0x70(%eax)
  40190b:	8b 45 f4             	mov    -0xc(%ebp),%eax
  40190e:	c7 40 74 32 00 00 00 	movl   $0x32,0x74(%eax)
  401915:	8b 45 f4             	mov    -0xc(%ebp),%eax
  401918:	c7 40 78 01 00 00 00 	movl   $0x1,0x78(%eax)
  40191f:	8b 45 f4             	mov    -0xc(%ebp),%eax
  401922:	c7 40 7c 01 00 00 00 	movl   $0x1,0x7c(%eax)
  401929:	8b 45 f4             	mov    -0xc(%ebp),%eax
  40192c:	c7 80 80 00 00 00 01 	movl   $0x1,0x80(%eax)
  401933:	00 00 00 
  401936:	8b 45 f4             	mov    -0xc(%ebp),%eax
  401939:	c7 80 84 00 00 00 01 	movl   $0x1,0x84(%eax)
  401940:	00 00 00 
  401943:	8b 45 f4             	mov    -0xc(%ebp),%eax
  401946:	c7 80 88 00 00 00 00 	movl   $0x0,0x88(%eax)
  40194d:	00 00 00 
  401950:	8b 45 f4             	mov    -0xc(%ebp),%eax
  401953:	c7 80 8c 00 00 00 00 	movl   $0x0,0x8c(%eax)
  40195a:	00 00 00 
  40195d:	e8 e7 01 00 00       	call   401b49 <_generateKingMap>
  401962:	8b 55 f4             	mov    -0xc(%ebp),%edx
  401965:	89 82 90 00 00 00    	mov    %eax,0x90(%edx)
  40196b:	e8 99 05 00 00       	call   401f09 <_generateKnightMap>
  401970:	8b 55 f4             	mov    -0xc(%ebp),%edx
  401973:	89 82 94 00 00 00    	mov    %eax,0x94(%edx)
  401979:	e8 8f 09 00 00       	call   40230d <_generateOccupancyMaskRook>
  40197e:	8b 55 f4             	mov    -0xc(%ebp),%edx
  401981:	89 82 98 00 00 00    	mov    %eax,0x98(%edx)
  401987:	8b 45 f4             	mov    -0xc(%ebp),%eax
  40198a:	c7 80 9c 00 00 00 20 	movl   $0x40f220,0x9c(%eax)
  401991:	f2 40 00 
  401994:	8b 45 f4             	mov    -0xc(%ebp),%eax
  401997:	c7 80 a0 00 00 00 20 	movl   $0x40f420,0xa0(%eax)
  40199e:	f4 40 00 
  4019a1:	8b 45 f4             	mov    -0xc(%ebp),%eax
  4019a4:	8b 80 98 00 00 00    	mov    0x98(%eax),%eax
  4019aa:	89 04 24             	mov    %eax,(%esp)
  4019ad:	e8 93 0c 00 00       	call   402645 <_generateOccupancyVariationRook>
  4019b2:	8b 55 f4             	mov    -0xc(%ebp),%edx
  4019b5:	89 82 a4 00 00 00    	mov    %eax,0xa4(%edx)
  4019bb:	8b 45 f4             	mov    -0xc(%ebp),%eax
  4019be:	89 04 24             	mov    %eax,(%esp)
  4019c1:	e8 ab 10 00 00       	call   402a71 <_generateMoveDatabaseRook>
  4019c6:	8b 55 f4             	mov    -0xc(%ebp),%edx
  4019c9:	89 82 a8 00 00 00    	mov    %eax,0xa8(%edx)
  4019cf:	e8 b5 0a 00 00       	call   402489 <_generateOccupancyMaskBishop>
  4019d4:	8b 55 f4             	mov    -0xc(%ebp),%edx
  4019d7:	89 82 ac 00 00 00    	mov    %eax,0xac(%edx)
  4019dd:	8b 45 f4             	mov    -0xc(%ebp),%eax
  4019e0:	c7 80 b0 00 00 00 20 	movl   $0x40f320,0xb0(%eax)
  4019e7:	f3 40 00 
  4019ea:	8b 45 f4             	mov    -0xc(%ebp),%eax
  4019ed:	c7 80 b4 00 00 00 20 	movl   $0x40f620,0xb4(%eax)
  4019f4:	f6 40 00 
  4019f7:	8b 45 f4             	mov    -0xc(%ebp),%eax
  4019fa:	8b 80 ac 00 00 00    	mov    0xac(%eax),%eax
  401a00:	89 04 24             	mov    %eax,(%esp)
  401a03:	e8 53 0e 00 00       	call   40285b <_generateOccupancyVariationBishop>
  401a08:	8b 55 f4             	mov    -0xc(%ebp),%edx
  401a0b:	89 82 b8 00 00 00    	mov    %eax,0xb8(%edx)
  401a11:	8b 45 f4             	mov    -0xc(%ebp),%eax
  401a14:	89 04 24             	mov    %eax,(%esp)
  401a17:	e8 0f 14 00 00       	call   402e2b <_generateMoveDatabaseBishop>
  401a1c:	8b 55 f4             	mov    -0xc(%ebp),%edx
  401a1f:	89 82 bc 00 00 00    	mov    %eax,0xbc(%edx)
  401a25:	8b 45 f4             	mov    -0xc(%ebp),%eax
  401a28:	c9                   	leave  
  401a29:	c3                   	ret    

00401a2a <_BoardDeInit>:
  401a2a:	55                   	push   %ebp
  401a2b:	89 e5                	mov    %esp,%ebp
  401a2d:	83 ec 28             	sub    $0x28,%esp
  401a30:	e8 eb c3 00 00       	call   40de20 <_mcount>
  401a35:	8b 45 08             	mov    0x8(%ebp),%eax
  401a38:	8b 80 94 00 00 00    	mov    0x94(%eax),%eax
  401a3e:	89 04 24             	mov    %eax,(%esp)
  401a41:	e8 ba bf 00 00       	call   40da00 <_free>
  401a46:	8b 45 08             	mov    0x8(%ebp),%eax
  401a49:	8b 80 90 00 00 00    	mov    0x90(%eax),%eax
  401a4f:	89 04 24             	mov    %eax,(%esp)
  401a52:	e8 a9 bf 00 00       	call   40da00 <_free>
  401a57:	c7 45 f4 00 00 00 00 	movl   $0x0,-0xc(%ebp)
  401a5e:	eb 70                	jmp    401ad0 <_BoardDeInit+0xa6>
  401a60:	8b 45 08             	mov    0x8(%ebp),%eax
  401a63:	8b 80 a8 00 00 00    	mov    0xa8(%eax),%eax
  401a69:	8b 55 f4             	mov    -0xc(%ebp),%edx
  401a6c:	c1 e2 02             	shl    $0x2,%edx
  401a6f:	01 d0                	add    %edx,%eax
  401a71:	8b 00                	mov    (%eax),%eax
  401a73:	89 04 24             	mov    %eax,(%esp)
  401a76:	e8 85 bf 00 00       	call   40da00 <_free>
  401a7b:	8b 45 08             	mov    0x8(%ebp),%eax
  401a7e:	8b 80 bc 00 00 00    	mov    0xbc(%eax),%eax
  401a84:	8b 55 f4             	mov    -0xc(%ebp),%edx
  401a87:	c1 e2 02             	shl    $0x2,%edx
  401a8a:	01 d0                	add    %edx,%eax
  401a8c:	8b 00                	mov    (%eax),%eax
  401a8e:	89 04 24             	mov    %eax,(%esp)
  401a91:	e8 6a bf 00 00       	call   40da00 <_free>
  401a96:	8b 45 08             	mov    0x8(%ebp),%eax
  401a99:	8b 80 a4 00 00 00    	mov    0xa4(%eax),%eax
  401a9f:	8b 55 f4             	mov    -0xc(%ebp),%edx
  401aa2:	c1 e2 02             	shl    $0x2,%edx
  401aa5:	01 d0                	add    %edx,%eax
  401aa7:	8b 00                	mov    (%eax),%eax
  401aa9:	89 04 24             	mov    %eax,(%esp)
  401aac:	e8 4f bf 00 00       	call   40da00 <_free>
  401ab1:	8b 45 08             	mov    0x8(%ebp),%eax
  401ab4:	8b 80 b8 00 00 00    	mov    0xb8(%eax),%eax
  401aba:	8b 55 f4             	mov    -0xc(%ebp),%edx
  401abd:	c1 e2 02             	shl    $0x2,%edx
  401ac0:	01 d0                	add    %edx,%eax
  401ac2:	8b 00                	mov    (%eax),%eax
  401ac4:	89 04 24             	mov    %eax,(%esp)
  401ac7:	e8 34 bf 00 00       	call   40da00 <_free>
  401acc:	83 45 f4 01          	addl   $0x1,-0xc(%ebp)
  401ad0:	83 7d f4 3f          	cmpl   $0x3f,-0xc(%ebp)
  401ad4:	7e 8a                	jle    401a60 <_BoardDeInit+0x36>
  401ad6:	8b 45 08             	mov    0x8(%ebp),%eax
  401ad9:	8b 80 98 00 00 00    	mov    0x98(%eax),%eax
  401adf:	89 04 24             	mov    %eax,(%esp)
  401ae2:	e8 19 bf 00 00       	call   40da00 <_free>
  401ae7:	8b 45 08             	mov    0x8(%ebp),%eax
  401aea:	8b 80 ac 00 00 00    	mov    0xac(%eax),%eax
  401af0:	89 04 24             	mov    %eax,(%esp)
  401af3:	e8 08 bf 00 00       	call   40da00 <_free>
  401af8:	8b 45 08             	mov    0x8(%ebp),%eax
  401afb:	8b 80 a4 00 00 00    	mov    0xa4(%eax),%eax
  401b01:	89 04 24             	mov    %eax,(%esp)
  401b04:	e8 f7 be 00 00       	call   40da00 <_free>
  401b09:	8b 45 08             	mov    0x8(%ebp),%eax
  401b0c:	8b 80 b8 00 00 00    	mov    0xb8(%eax),%eax
  401b12:	89 04 24             	mov    %eax,(%esp)
  401b15:	e8 e6 be 00 00       	call   40da00 <_free>
  401b1a:	8b 45 08             	mov    0x8(%ebp),%eax
  401b1d:	8b 80 a8 00 00 00    	mov    0xa8(%eax),%eax
  401b23:	89 04 24             	mov    %eax,(%esp)
  401b26:	e8 d5 be 00 00       	call   40da00 <_free>
  401b2b:	8b 45 08             	mov    0x8(%ebp),%eax
  401b2e:	8b 80 bc 00 00 00    	mov    0xbc(%eax),%eax
  401b34:	89 04 24             	mov    %eax,(%esp)
  401b37:	e8 c4 be 00 00       	call   40da00 <_free>
  401b3c:	8b 45 08             	mov    0x8(%ebp),%eax
  401b3f:	89 04 24             	mov    %eax,(%esp)
  401b42:	e8 b9 be 00 00       	call   40da00 <_free>
  401b47:	c9                   	leave  
  401b48:	c3                   	ret    

00401b49 <_generateKingMap>:
  401b49:	55                   	push   %ebp
  401b4a:	89 e5                	mov    %esp,%ebp
  401b4c:	57                   	push   %edi
  401b4d:	56                   	push   %esi
  401b4e:	53                   	push   %ebx
  401b4f:	83 ec 6c             	sub    $0x6c,%esp
  401b52:	e8 c9 c2 00 00       	call   40de20 <_mcount>
  401b57:	c7 44 24 04 08 00 00 	movl   $0x8,0x4(%esp)
  401b5e:	00 
  401b5f:	c7 04 24 40 00 00 00 	movl   $0x40,(%esp)
  401b66:	e8 9d be 00 00       	call   40da08 <_calloc>
  401b6b:	89 45 e0             	mov    %eax,-0x20(%ebp)
  401b6e:	c7 45 d8 01 00 00 00 	movl   $0x1,-0x28(%ebp)
  401b75:	c7 45 dc 00 00 00 00 	movl   $0x0,-0x24(%ebp)
  401b7c:	c7 45 e4 00 00 00 00 	movl   $0x0,-0x1c(%ebp)
  401b83:	e9 6c 03 00 00       	jmp    401ef4 <_generateKingMap+0x3ab>
  401b88:	8b 45 e4             	mov    -0x1c(%ebp),%eax
  401b8b:	83 c0 09             	add    $0x9,%eax
  401b8e:	83 f8 3f             	cmp    $0x3f,%eax
  401b91:	7f 6f                	jg     401c02 <_generateKingMap+0xb9>
  401b93:	8b 55 e4             	mov    -0x1c(%ebp),%edx
  401b96:	89 d0                	mov    %edx,%eax
  401b98:	c1 f8 1f             	sar    $0x1f,%eax
  401b9b:	c1 e8 1d             	shr    $0x1d,%eax
  401b9e:	89 c1                	mov    %eax,%ecx
  401ba0:	8d 04 0a             	lea    (%edx,%ecx,1),%eax
  401ba3:	83 e0 07             	and    $0x7,%eax
  401ba6:	29 c8                	sub    %ecx,%eax
  401ba8:	83 f8 07             	cmp    $0x7,%eax
  401bab:	74 55                	je     401c02 <_generateKingMap+0xb9>
  401bad:	8b 45 e4             	mov    -0x1c(%ebp),%eax
  401bb0:	8d 14 c5 00 00 00 00 	lea    0x0(,%eax,8),%edx
  401bb7:	8b 45 e0             	mov    -0x20(%ebp),%eax
  401bba:	8d 3c 02             	lea    (%edx,%eax,1),%edi
  401bbd:	8b 45 e4             	mov    -0x1c(%ebp),%eax
  401bc0:	8d 14 c5 00 00 00 00 	lea    0x0(,%eax,8),%edx
  401bc7:	8b 45 e0             	mov    -0x20(%ebp),%eax
  401bca:	01 d0                	add    %edx,%eax
  401bcc:	8b 18                	mov    (%eax),%ebx
  401bce:	8b 70 04             	mov    0x4(%eax),%esi
  401bd1:	8b 45 e4             	mov    -0x1c(%ebp),%eax
  401bd4:	8d 48 09             	lea    0x9(%eax),%ecx
  401bd7:	8b 45 d8             	mov    -0x28(%ebp),%eax
  401bda:	8b 55 dc             	mov    -0x24(%ebp),%edx
  401bdd:	0f a5 c2             	shld   %cl,%eax,%edx
  401be0:	d3 e0                	shl    %cl,%eax
  401be2:	f6 c1 20             	test   $0x20,%cl
  401be5:	74 04                	je     401beb <_generateKingMap+0xa2>
  401be7:	89 c2                	mov    %eax,%edx
  401be9:	31 c0                	xor    %eax,%eax
  401beb:	89 d9                	mov    %ebx,%ecx
  401bed:	09 c1                	or     %eax,%ecx
  401bef:	89 4d d0             	mov    %ecx,-0x30(%ebp)
  401bf2:	09 d6                	or     %edx,%esi
  401bf4:	89 75 d4             	mov    %esi,-0x2c(%ebp)
  401bf7:	8b 45 d0             	mov    -0x30(%ebp),%eax
  401bfa:	8b 55 d4             	mov    -0x2c(%ebp),%edx
  401bfd:	89 07                	mov    %eax,(%edi)
  401bff:	89 57 04             	mov    %edx,0x4(%edi)
  401c02:	8b 45 e4             	mov    -0x1c(%ebp),%eax
  401c05:	83 e8 09             	sub    $0x9,%eax
  401c08:	85 c0                	test   %eax,%eax
  401c0a:	78 5f                	js     401c6b <_generateKingMap+0x122>
  401c0c:	8b 45 e4             	mov    -0x1c(%ebp),%eax
  401c0f:	83 e0 07             	and    $0x7,%eax
  401c12:	85 c0                	test   %eax,%eax
  401c14:	74 55                	je     401c6b <_generateKingMap+0x122>
  401c16:	8b 45 e4             	mov    -0x1c(%ebp),%eax
  401c19:	8d 14 c5 00 00 00 00 	lea    0x0(,%eax,8),%edx
  401c20:	8b 45 e0             	mov    -0x20(%ebp),%eax
  401c23:	8d 3c 02             	lea    (%edx,%eax,1),%edi
  401c26:	8b 45 e4             	mov    -0x1c(%ebp),%eax
  401c29:	8d 14 c5 00 00 00 00 	lea    0x0(,%eax,8),%edx
  401c30:	8b 45 e0             	mov    -0x20(%ebp),%eax
  401c33:	01 d0                	add    %edx,%eax
  401c35:	8b 18                	mov    (%eax),%ebx
  401c37:	8b 70 04             	mov    0x4(%eax),%esi
  401c3a:	8b 45 e4             	mov    -0x1c(%ebp),%eax
  401c3d:	8d 48 f7             	lea    -0x9(%eax),%ecx
  401c40:	8b 45 d8             	mov    -0x28(%ebp),%eax
  401c43:	8b 55 dc             	mov    -0x24(%ebp),%edx
  401c46:	0f a5 c2             	shld   %cl,%eax,%edx
  401c49:	d3 e0                	shl    %cl,%eax
  401c4b:	f6 c1 20             	test   $0x20,%cl
  401c4e:	74 04                	je     401c54 <_generateKingMap+0x10b>
  401c50:	89 c2                	mov    %eax,%edx
  401c52:	31 c0                	xor    %eax,%eax
  401c54:	89 d9                	mov    %ebx,%ecx
  401c56:	09 c1                	or     %eax,%ecx
  401c58:	89 4d c8             	mov    %ecx,-0x38(%ebp)
  401c5b:	09 d6                	or     %edx,%esi
  401c5d:	89 75 cc             	mov    %esi,-0x34(%ebp)
  401c60:	8b 45 c8             	mov    -0x38(%ebp),%eax
  401c63:	8b 55 cc             	mov    -0x34(%ebp),%edx
  401c66:	89 07                	mov    %eax,(%edi)
  401c68:	89 57 04             	mov    %edx,0x4(%edi)
  401c6b:	8b 45 e4             	mov    -0x1c(%ebp),%eax
  401c6e:	83 c0 07             	add    $0x7,%eax
  401c71:	83 f8 3f             	cmp    $0x3f,%eax
  401c74:	7f 5f                	jg     401cd5 <_generateKingMap+0x18c>
  401c76:	8b 45 e4             	mov    -0x1c(%ebp),%eax
  401c79:	83 e0 07             	and    $0x7,%eax
  401c7c:	85 c0                	test   %eax,%eax
  401c7e:	74 55                	je     401cd5 <_generateKingMap+0x18c>
  401c80:	8b 45 e4             	mov    -0x1c(%ebp),%eax
  401c83:	8d 14 c5 00 00 00 00 	lea    0x0(,%eax,8),%edx
  401c8a:	8b 45 e0             	mov    -0x20(%ebp),%eax
  401c8d:	8d 3c 02             	lea    (%edx,%eax,1),%edi
  401c90:	8b 45 e4             	mov    -0x1c(%ebp),%eax
  401c93:	8d 14 c5 00 00 00 00 	lea    0x0(,%eax,8),%edx
  401c9a:	8b 45 e0             	mov    -0x20(%ebp),%eax
  401c9d:	01 d0                	add    %edx,%eax
  401c9f:	8b 18                	mov    (%eax),%ebx
  401ca1:	8b 70 04             	mov    0x4(%eax),%esi
  401ca4:	8b 45 e4             	mov    -0x1c(%ebp),%eax
  401ca7:	8d 48 07             	lea    0x7(%eax),%ecx
  401caa:	8b 45 d8             	mov    -0x28(%ebp),%eax
  401cad:	8b 55 dc             	mov    -0x24(%ebp),%edx
  401cb0:	0f a5 c2             	shld   %cl,%eax,%edx
  401cb3:	d3 e0                	shl    %cl,%eax
  401cb5:	f6 c1 20             	test   $0x20,%cl
  401cb8:	74 04                	je     401cbe <_generateKingMap+0x175>
  401cba:	89 c2                	mov    %eax,%edx
  401cbc:	31 c0                	xor    %eax,%eax
  401cbe:	89 d9                	mov    %ebx,%ecx
  401cc0:	09 c1                	or     %eax,%ecx
  401cc2:	89 4d c0             	mov    %ecx,-0x40(%ebp)
  401cc5:	09 d6                	or     %edx,%esi
  401cc7:	89 75 c4             	mov    %esi,-0x3c(%ebp)
  401cca:	8b 45 c0             	mov    -0x40(%ebp),%eax
  401ccd:	8b 55 c4             	mov    -0x3c(%ebp),%edx
  401cd0:	89 07                	mov    %eax,(%edi)
  401cd2:	89 57 04             	mov    %edx,0x4(%edi)
  401cd5:	8b 45 e4             	mov    -0x1c(%ebp),%eax
  401cd8:	83 e8 07             	sub    $0x7,%eax
  401cdb:	85 c0                	test   %eax,%eax
  401cdd:	78 6f                	js     401d4e <_generateKingMap+0x205>
  401cdf:	8b 55 e4             	mov    -0x1c(%ebp),%edx
  401ce2:	89 d0                	mov    %edx,%eax
  401ce4:	c1 f8 1f             	sar    $0x1f,%eax
  401ce7:	c1 e8 1d             	shr    $0x1d,%eax
  401cea:	89 c1                	mov    %eax,%ecx
  401cec:	8d 04 0a             	lea    (%edx,%ecx,1),%eax
  401cef:	83 e0 07             	and    $0x7,%eax
  401cf2:	29 c8                	sub    %ecx,%eax
  401cf4:	83 f8 07             	cmp    $0x7,%eax
  401cf7:	74 55                	je     401d4e <_generateKingMap+0x205>
  401cf9:	8b 45 e4             	mov    -0x1c(%ebp),%eax
  401cfc:	8d 14 c5 00 00 00 00 	lea    0x0(,%eax,8),%edx
  401d03:	8b 45 e0             	mov    -0x20(%ebp),%eax
  401d06:	8d 3c 02             	lea    (%edx,%eax,1),%edi
  401d09:	8b 45 e4             	mov    -0x1c(%ebp),%eax
  401d0c:	8d 14 c5 00 00 00 00 	lea    0x0(,%eax,8),%edx
  401d13:	8b 45 e0             	mov    -0x20(%ebp),%eax
  401d16:	01 d0                	add    %edx,%eax
  401d18:	8b 18                	mov    (%eax),%ebx
  401d1a:	8b 70 04             	mov    0x4(%eax),%esi
  401d1d:	8b 45 e4             	mov    -0x1c(%ebp),%eax
  401d20:	8d 48 f9             	lea    -0x7(%eax),%ecx
  401d23:	8b 45 d8             	mov    -0x28(%ebp),%eax
  401d26:	8b 55 dc             	mov    -0x24(%ebp),%edx
  401d29:	0f a5 c2             	shld   %cl,%eax,%edx
  401d2c:	d3 e0                	shl    %cl,%eax
  401d2e:	f6 c1 20             	test   $0x20,%cl
  401d31:	74 04                	je     401d37 <_generateKingMap+0x1ee>
  401d33:	89 c2                	mov    %eax,%edx
  401d35:	31 c0                	xor    %eax,%eax
  401d37:	89 d9                	mov    %ebx,%ecx
  401d39:	09 c1                	or     %eax,%ecx
  401d3b:	89 4d b8             	mov    %ecx,-0x48(%ebp)
  401d3e:	09 d6                	or     %edx,%esi
  401d40:	89 75 bc             	mov    %esi,-0x44(%ebp)
  401d43:	8b 45 b8             	mov    -0x48(%ebp),%eax
  401d46:	8b 55 bc             	mov    -0x44(%ebp),%edx
  401d49:	89 07                	mov    %eax,(%edi)
  401d4b:	89 57 04             	mov    %edx,0x4(%edi)
  401d4e:	8b 45 e4             	mov    -0x1c(%ebp),%eax
  401d51:	83 c0 01             	add    $0x1,%eax
  401d54:	83 f8 3f             	cmp    $0x3f,%eax
  401d57:	7f 6f                	jg     401dc8 <_generateKingMap+0x27f>
  401d59:	8b 55 e4             	mov    -0x1c(%ebp),%edx
  401d5c:	89 d0                	mov    %edx,%eax
  401d5e:	c1 f8 1f             	sar    $0x1f,%eax
  401d61:	c1 e8 1d             	shr    $0x1d,%eax
  401d64:	89 c1                	mov    %eax,%ecx
  401d66:	8d 04 0a             	lea    (%edx,%ecx,1),%eax
  401d69:	83 e0 07             	and    $0x7,%eax
  401d6c:	29 c8                	sub    %ecx,%eax
  401d6e:	83 f8 07             	cmp    $0x7,%eax
  401d71:	74 55                	je     401dc8 <_generateKingMap+0x27f>
  401d73:	8b 45 e4             	mov    -0x1c(%ebp),%eax
  401d76:	8d 14 c5 00 00 00 00 	lea    0x0(,%eax,8),%edx
  401d7d:	8b 45 e0             	mov    -0x20(%ebp),%eax
  401d80:	8d 3c 02             	lea    (%edx,%eax,1),%edi
  401d83:	8b 45 e4             	mov    -0x1c(%ebp),%eax
  401d86:	8d 14 c5 00 00 00 00 	lea    0x0(,%eax,8),%edx
  401d8d:	8b 45 e0             	mov    -0x20(%ebp),%eax
  401d90:	01 d0                	add    %edx,%eax
  401d92:	8b 18                	mov    (%eax),%ebx
  401d94:	8b 70 04             	mov    0x4(%eax),%esi
  401d97:	8b 45 e4             	mov    -0x1c(%ebp),%eax
  401d9a:	8d 48 01             	lea    0x1(%eax),%ecx
  401d9d:	8b 45 d8             	mov    -0x28(%ebp),%eax
  401da0:	8b 55 dc             	mov    -0x24(%ebp),%edx
  401da3:	0f a5 c2             	shld   %cl,%eax,%edx
  401da6:	d3 e0                	shl    %cl,%eax
  401da8:	f6 c1 20             	test   $0x20,%cl
  401dab:	74 04                	je     401db1 <_generateKingMap+0x268>
  401dad:	89 c2                	mov    %eax,%edx
  401daf:	31 c0                	xor    %eax,%eax
  401db1:	89 d9                	mov    %ebx,%ecx
  401db3:	09 c1                	or     %eax,%ecx
  401db5:	89 4d b0             	mov    %ecx,-0x50(%ebp)
  401db8:	09 d6                	or     %edx,%esi
  401dba:	89 75 b4             	mov    %esi,-0x4c(%ebp)
  401dbd:	8b 45 b0             	mov    -0x50(%ebp),%eax
  401dc0:	8b 55 b4             	mov    -0x4c(%ebp),%edx
  401dc3:	89 07                	mov    %eax,(%edi)
  401dc5:	89 57 04             	mov    %edx,0x4(%edi)
  401dc8:	8b 45 e4             	mov    -0x1c(%ebp),%eax
  401dcb:	83 e8 01             	sub    $0x1,%eax
  401dce:	85 c0                	test   %eax,%eax
  401dd0:	78 5f                	js     401e31 <_generateKingMap+0x2e8>
  401dd2:	8b 45 e4             	mov    -0x1c(%ebp),%eax
  401dd5:	83 e0 07             	and    $0x7,%eax
  401dd8:	85 c0                	test   %eax,%eax
  401dda:	74 55                	je     401e31 <_generateKingMap+0x2e8>
  401ddc:	8b 45 e4             	mov    -0x1c(%ebp),%eax
  401ddf:	8d 14 c5 00 00 00 00 	lea    0x0(,%eax,8),%edx
  401de6:	8b 45 e0             	mov    -0x20(%ebp),%eax
  401de9:	8d 3c 02             	lea    (%edx,%eax,1),%edi
  401dec:	8b 45 e4             	mov    -0x1c(%ebp),%eax
  401def:	8d 14 c5 00 00 00 00 	lea    0x0(,%eax,8),%edx
  401df6:	8b 45 e0             	mov    -0x20(%ebp),%eax
  401df9:	01 d0                	add    %edx,%eax
  401dfb:	8b 18                	mov    (%eax),%ebx
  401dfd:	8b 70 04             	mov    0x4(%eax),%esi
  401e00:	8b 45 e4             	mov    -0x1c(%ebp),%eax
  401e03:	8d 48 ff             	lea    -0x1(%eax),%ecx
  401e06:	8b 45 d8             	mov    -0x28(%ebp),%eax
  401e09:	8b 55 dc             	mov    -0x24(%ebp),%edx
  401e0c:	0f a5 c2             	shld   %cl,%eax,%edx
  401e0f:	d3 e0                	shl    %cl,%eax
  401e11:	f6 c1 20             	test   $0x20,%cl
  401e14:	74 04                	je     401e1a <_generateKingMap+0x2d1>
  401e16:	89 c2                	mov    %eax,%edx
  401e18:	31 c0                	xor    %eax,%eax
  401e1a:	89 d9                	mov    %ebx,%ecx
  401e1c:	09 c1                	or     %eax,%ecx
  401e1e:	89 4d a8             	mov    %ecx,-0x58(%ebp)
  401e21:	09 d6                	or     %edx,%esi
  401e23:	89 75 ac             	mov    %esi,-0x54(%ebp)
  401e26:	8b 45 a8             	mov    -0x58(%ebp),%eax
  401e29:	8b 55 ac             	mov    -0x54(%ebp),%edx
  401e2c:	89 07                	mov    %eax,(%edi)
  401e2e:	89 57 04             	mov    %edx,0x4(%edi)
  401e31:	8b 45 e4             	mov    -0x1c(%ebp),%eax
  401e34:	83 c0 08             	add    $0x8,%eax
  401e37:	83 f8 3f             	cmp    $0x3f,%eax
  401e3a:	7f 55                	jg     401e91 <_generateKingMap+0x348>
  401e3c:	8b 45 e4             	mov    -0x1c(%ebp),%eax
  401e3f:	8d 14 c5 00 00 00 00 	lea    0x0(,%eax,8),%edx
  401e46:	8b 45 e0             	mov    -0x20(%ebp),%eax
  401e49:	8d 3c 02             	lea    (%edx,%eax,1),%edi
  401e4c:	8b 45 e4             	mov    -0x1c(%ebp),%eax
  401e4f:	8d 14 c5 00 00 00 00 	lea    0x0(,%eax,8),%edx
  401e56:	8b 45 e0             	mov    -0x20(%ebp),%eax
  401e59:	01 d0                	add    %edx,%eax
  401e5b:	8b 18                	mov    (%eax),%ebx
  401e5d:	8b 70 04             	mov    0x4(%eax),%esi
  401e60:	8b 45 e4             	mov    -0x1c(%ebp),%eax
  401e63:	8d 48 08             	lea    0x8(%eax),%ecx
  401e66:	8b 45 d8             	mov    -0x28(%ebp),%eax
  401e69:	8b 55 dc             	mov    -0x24(%ebp),%edx
  401e6c:	0f a5 c2             	shld   %cl,%eax,%edx
  401e6f:	d3 e0                	shl    %cl,%eax
  401e71:	f6 c1 20             	test   $0x20,%cl
  401e74:	74 04                	je     401e7a <_generateKingMap+0x331>
  401e76:	89 c2                	mov    %eax,%edx
  401e78:	31 c0                	xor    %eax,%eax
  401e7a:	89 d9                	mov    %ebx,%ecx
  401e7c:	09 c1                	or     %eax,%ecx
  401e7e:	89 4d a0             	mov    %ecx,-0x60(%ebp)
  401e81:	09 d6                	or     %edx,%esi
  401e83:	89 75 a4             	mov    %esi,-0x5c(%ebp)
  401e86:	8b 45 a0             	mov    -0x60(%ebp),%eax
  401e89:	8b 55 a4             	mov    -0x5c(%ebp),%edx
  401e8c:	89 07                	mov    %eax,(%edi)
  401e8e:	89 57 04             	mov    %edx,0x4(%edi)
  401e91:	8b 45 e4             	mov    -0x1c(%ebp),%eax
  401e94:	83 e8 08             	sub    $0x8,%eax
  401e97:	85 c0                	test   %eax,%eax
  401e99:	78 55                	js     401ef0 <_generateKingMap+0x3a7>
  401e9b:	8b 45 e4             	mov    -0x1c(%ebp),%eax
  401e9e:	8d 14 c5 00 00 00 00 	lea    0x0(,%eax,8),%edx
  401ea5:	8b 45 e0             	mov    -0x20(%ebp),%eax
  401ea8:	8d 3c 02             	lea    (%edx,%eax,1),%edi
  401eab:	8b 45 e4             	mov    -0x1c(%ebp),%eax
  401eae:	8d 14 c5 00 00 00 00 	lea    0x0(,%eax,8),%edx
  401eb5:	8b 45 e0             	mov    -0x20(%ebp),%eax
  401eb8:	01 d0                	add    %edx,%eax
  401eba:	8b 18                	mov    (%eax),%ebx
  401ebc:	8b 70 04             	mov    0x4(%eax),%esi
  401ebf:	8b 45 e4             	mov    -0x1c(%ebp),%eax
  401ec2:	8d 48 f8             	lea    -0x8(%eax),%ecx
  401ec5:	8b 45 d8             	mov    -0x28(%ebp),%eax
  401ec8:	8b 55 dc             	mov    -0x24(%ebp),%edx
  401ecb:	0f a5 c2             	shld   %cl,%eax,%edx
  401ece:	d3 e0                	shl    %cl,%eax
  401ed0:	f6 c1 20             	test   $0x20,%cl
  401ed3:	74 04                	je     401ed9 <_generateKingMap+0x390>
  401ed5:	89 c2                	mov    %eax,%edx
  401ed7:	31 c0                	xor    %eax,%eax
  401ed9:	89 d9                	mov    %ebx,%ecx
  401edb:	09 c1                	or     %eax,%ecx
  401edd:	89 4d 98             	mov    %ecx,-0x68(%ebp)
  401ee0:	09 d6                	or     %edx,%esi
  401ee2:	89 75 9c             	mov    %esi,-0x64(%ebp)
  401ee5:	8b 45 98             	mov    -0x68(%ebp),%eax
  401ee8:	8b 55 9c             	mov    -0x64(%ebp),%edx
  401eeb:	89 07                	mov    %eax,(%edi)
  401eed:	89 57 04             	mov    %edx,0x4(%edi)
  401ef0:	83 45 e4 01          	addl   $0x1,-0x1c(%ebp)
  401ef4:	83 7d e4 3f          	cmpl   $0x3f,-0x1c(%ebp)
  401ef8:	0f 8e 8a fc ff ff    	jle    401b88 <_generateKingMap+0x3f>
  401efe:	8b 45 e0             	mov    -0x20(%ebp),%eax
  401f01:	83 c4 6c             	add    $0x6c,%esp
  401f04:	5b                   	pop    %ebx
  401f05:	5e                   	pop    %esi
  401f06:	5f                   	pop    %edi
  401f07:	5d                   	pop    %ebp
  401f08:	c3                   	ret    

00401f09 <_generateKnightMap>:
  401f09:	55                   	push   %ebp
  401f0a:	89 e5                	mov    %esp,%ebp
  401f0c:	57                   	push   %edi
  401f0d:	56                   	push   %esi
  401f0e:	53                   	push   %ebx
  401f0f:	83 ec 6c             	sub    $0x6c,%esp
  401f12:	e8 09 bf 00 00       	call   40de20 <_mcount>
  401f17:	c7 44 24 04 08 00 00 	movl   $0x8,0x4(%esp)
  401f1e:	00 
  401f1f:	c7 04 24 40 00 00 00 	movl   $0x40,(%esp)
  401f26:	e8 dd ba 00 00       	call   40da08 <_calloc>
  401f2b:	89 45 e0             	mov    %eax,-0x20(%ebp)
  401f2e:	c7 45 d8 01 00 00 00 	movl   $0x1,-0x28(%ebp)
  401f35:	c7 45 dc 00 00 00 00 	movl   $0x0,-0x24(%ebp)
  401f3c:	c7 45 e4 00 00 00 00 	movl   $0x0,-0x1c(%ebp)
  401f43:	e9 b0 03 00 00       	jmp    4022f8 <_generateKnightMap+0x3ef>
  401f48:	8b 45 e4             	mov    -0x1c(%ebp),%eax
  401f4b:	83 c0 11             	add    $0x11,%eax
  401f4e:	83 f8 3f             	cmp    $0x3f,%eax
  401f51:	7f 6f                	jg     401fc2 <_generateKnightMap+0xb9>
  401f53:	8b 55 e4             	mov    -0x1c(%ebp),%edx
  401f56:	89 d0                	mov    %edx,%eax
  401f58:	c1 f8 1f             	sar    $0x1f,%eax
  401f5b:	c1 e8 1d             	shr    $0x1d,%eax
  401f5e:	89 c1                	mov    %eax,%ecx
  401f60:	8d 04 0a             	lea    (%edx,%ecx,1),%eax
  401f63:	83 e0 07             	and    $0x7,%eax
  401f66:	29 c8                	sub    %ecx,%eax
  401f68:	83 f8 07             	cmp    $0x7,%eax
  401f6b:	74 55                	je     401fc2 <_generateKnightMap+0xb9>
  401f6d:	8b 45 e4             	mov    -0x1c(%ebp),%eax
  401f70:	8d 14 c5 00 00 00 00 	lea    0x0(,%eax,8),%edx
  401f77:	8b 45 e0             	mov    -0x20(%ebp),%eax
  401f7a:	8d 3c 02             	lea    (%edx,%eax,1),%edi
  401f7d:	8b 45 e4             	mov    -0x1c(%ebp),%eax
  401f80:	8d 14 c5 00 00 00 00 	lea    0x0(,%eax,8),%edx
  401f87:	8b 45 e0             	mov    -0x20(%ebp),%eax
  401f8a:	01 d0                	add    %edx,%eax
  401f8c:	8b 18                	mov    (%eax),%ebx
  401f8e:	8b 70 04             	mov    0x4(%eax),%esi
  401f91:	8b 45 e4             	mov    -0x1c(%ebp),%eax
  401f94:	8d 48 11             	lea    0x11(%eax),%ecx
  401f97:	8b 45 d8             	mov    -0x28(%ebp),%eax
  401f9a:	8b 55 dc             	mov    -0x24(%ebp),%edx
  401f9d:	0f a5 c2             	shld   %cl,%eax,%edx
  401fa0:	d3 e0                	shl    %cl,%eax
  401fa2:	f6 c1 20             	test   $0x20,%cl
  401fa5:	74 04                	je     401fab <_generateKnightMap+0xa2>
  401fa7:	89 c2                	mov    %eax,%edx
  401fa9:	31 c0                	xor    %eax,%eax
  401fab:	89 d9                	mov    %ebx,%ecx
  401fad:	09 c1                	or     %eax,%ecx
  401faf:	89 4d d0             	mov    %ecx,-0x30(%ebp)
  401fb2:	09 d6                	or     %edx,%esi
  401fb4:	89 75 d4             	mov    %esi,-0x2c(%ebp)
  401fb7:	8b 45 d0             	mov    -0x30(%ebp),%eax
  401fba:	8b 55 d4             	mov    -0x2c(%ebp),%edx
  401fbd:	89 07                	mov    %eax,(%edi)
  401fbf:	89 57 04             	mov    %edx,0x4(%edi)
  401fc2:	8b 45 e4             	mov    -0x1c(%ebp),%eax
  401fc5:	83 e8 11             	sub    $0x11,%eax
  401fc8:	85 c0                	test   %eax,%eax
  401fca:	78 5f                	js     40202b <_generateKnightMap+0x122>
  401fcc:	8b 45 e4             	mov    -0x1c(%ebp),%eax
  401fcf:	83 e0 07             	and    $0x7,%eax
  401fd2:	85 c0                	test   %eax,%eax
  401fd4:	74 55                	je     40202b <_generateKnightMap+0x122>
  401fd6:	8b 45 e4             	mov    -0x1c(%ebp),%eax
  401fd9:	8d 14 c5 00 00 00 00 	lea    0x0(,%eax,8),%edx
  401fe0:	8b 45 e0             	mov    -0x20(%ebp),%eax
  401fe3:	8d 3c 02             	lea    (%edx,%eax,1),%edi
  401fe6:	8b 45 e4             	mov    -0x1c(%ebp),%eax
  401fe9:	8d 14 c5 00 00 00 00 	lea    0x0(,%eax,8),%edx
  401ff0:	8b 45 e0             	mov    -0x20(%ebp),%eax
  401ff3:	01 d0                	add    %edx,%eax
  401ff5:	8b 18                	mov    (%eax),%ebx
  401ff7:	8b 70 04             	mov    0x4(%eax),%esi
  401ffa:	8b 45 e4             	mov    -0x1c(%ebp),%eax
  401ffd:	8d 48 ef             	lea    -0x11(%eax),%ecx
  402000:	8b 45 d8             	mov    -0x28(%ebp),%eax
  402003:	8b 55 dc             	mov    -0x24(%ebp),%edx
  402006:	0f a5 c2             	shld   %cl,%eax,%edx
  402009:	d3 e0                	shl    %cl,%eax
  40200b:	f6 c1 20             	test   $0x20,%cl
  40200e:	74 04                	je     402014 <_generateKnightMap+0x10b>
  402010:	89 c2                	mov    %eax,%edx
  402012:	31 c0                	xor    %eax,%eax
  402014:	89 d9                	mov    %ebx,%ecx
  402016:	09 c1                	or     %eax,%ecx
  402018:	89 4d c8             	mov    %ecx,-0x38(%ebp)
  40201b:	09 d6                	or     %edx,%esi
  40201d:	89 75 cc             	mov    %esi,-0x34(%ebp)
  402020:	8b 45 c8             	mov    -0x38(%ebp),%eax
  402023:	8b 55 cc             	mov    -0x34(%ebp),%edx
  402026:	89 07                	mov    %eax,(%edi)
  402028:	89 57 04             	mov    %edx,0x4(%edi)
  40202b:	8b 45 e4             	mov    -0x1c(%ebp),%eax
  40202e:	83 c0 0f             	add    $0xf,%eax
  402031:	83 f8 3f             	cmp    $0x3f,%eax
  402034:	7f 5f                	jg     402095 <_generateKnightMap+0x18c>
  402036:	8b 45 e4             	mov    -0x1c(%ebp),%eax
  402039:	83 e0 07             	and    $0x7,%eax
  40203c:	85 c0                	test   %eax,%eax
  40203e:	74 55                	je     402095 <_generateKnightMap+0x18c>
  402040:	8b 45 e4             	mov    -0x1c(%ebp),%eax
  402043:	8d 14 c5 00 00 00 00 	lea    0x0(,%eax,8),%edx
  40204a:	8b 45 e0             	mov    -0x20(%ebp),%eax
  40204d:	8d 3c 02             	lea    (%edx,%eax,1),%edi
  402050:	8b 45 e4             	mov    -0x1c(%ebp),%eax
  402053:	8d 14 c5 00 00 00 00 	lea    0x0(,%eax,8),%edx
  40205a:	8b 45 e0             	mov    -0x20(%ebp),%eax
  40205d:	01 d0                	add    %edx,%eax
  40205f:	8b 18                	mov    (%eax),%ebx
  402061:	8b 70 04             	mov    0x4(%eax),%esi
  402064:	8b 45 e4             	mov    -0x1c(%ebp),%eax
  402067:	8d 48 0f             	lea    0xf(%eax),%ecx
  40206a:	8b 45 d8             	mov    -0x28(%ebp),%eax
  40206d:	8b 55 dc             	mov    -0x24(%ebp),%edx
  402070:	0f a5 c2             	shld   %cl,%eax,%edx
  402073:	d3 e0                	shl    %cl,%eax
  402075:	f6 c1 20             	test   $0x20,%cl
  402078:	74 04                	je     40207e <_generateKnightMap+0x175>
  40207a:	89 c2                	mov    %eax,%edx
  40207c:	31 c0                	xor    %eax,%eax
  40207e:	89 d9                	mov    %ebx,%ecx
  402080:	09 c1                	or     %eax,%ecx
  402082:	89 4d c0             	mov    %ecx,-0x40(%ebp)
  402085:	09 d6                	or     %edx,%esi
  402087:	89 75 c4             	mov    %esi,-0x3c(%ebp)
  40208a:	8b 45 c0             	mov    -0x40(%ebp),%eax
  40208d:	8b 55 c4             	mov    -0x3c(%ebp),%edx
  402090:	89 07                	mov    %eax,(%edi)
  402092:	89 57 04             	mov    %edx,0x4(%edi)
  402095:	8b 45 e4             	mov    -0x1c(%ebp),%eax
  402098:	83 e8 0f             	sub    $0xf,%eax
  40209b:	85 c0                	test   %eax,%eax
  40209d:	78 6f                	js     40210e <_generateKnightMap+0x205>
  40209f:	8b 55 e4             	mov    -0x1c(%ebp),%edx
  4020a2:	89 d0                	mov    %edx,%eax
  4020a4:	c1 f8 1f             	sar    $0x1f,%eax
  4020a7:	c1 e8 1d             	shr    $0x1d,%eax
  4020aa:	89 c1                	mov    %eax,%ecx
  4020ac:	8d 04 0a             	lea    (%edx,%ecx,1),%eax
  4020af:	83 e0 07             	and    $0x7,%eax
  4020b2:	29 c8                	sub    %ecx,%eax
  4020b4:	83 f8 07             	cmp    $0x7,%eax
  4020b7:	74 55                	je     40210e <_generateKnightMap+0x205>
  4020b9:	8b 45 e4             	mov    -0x1c(%ebp),%eax
  4020bc:	8d 14 c5 00 00 00 00 	lea    0x0(,%eax,8),%edx
  4020c3:	8b 45 e0             	mov    -0x20(%ebp),%eax
  4020c6:	8d 3c 02             	lea    (%edx,%eax,1),%edi
  4020c9:	8b 45 e4             	mov    -0x1c(%ebp),%eax
  4020cc:	8d 14 c5 00 00 00 00 	lea    0x0(,%eax,8),%edx
  4020d3:	8b 45 e0             	mov    -0x20(%ebp),%eax
  4020d6:	01 d0                	add    %edx,%eax
  4020d8:	8b 18                	mov    (%eax),%ebx
  4020da:	8b 70 04             	mov    0x4(%eax),%esi
  4020dd:	8b 45 e4             	mov    -0x1c(%ebp),%eax
  4020e0:	8d 48 f1             	lea    -0xf(%eax),%ecx
  4020e3:	8b 45 d8             	mov    -0x28(%ebp),%eax
  4020e6:	8b 55 dc             	mov    -0x24(%ebp),%edx
  4020e9:	0f a5 c2             	shld   %cl,%eax,%edx
  4020ec:	d3 e0                	shl    %cl,%eax
  4020ee:	f6 c1 20             	test   $0x20,%cl
  4020f1:	74 04                	je     4020f7 <_generateKnightMap+0x1ee>
  4020f3:	89 c2                	mov    %eax,%edx
  4020f5:	31 c0                	xor    %eax,%eax
  4020f7:	89 d9                	mov    %ebx,%ecx
  4020f9:	09 c1                	or     %eax,%ecx
  4020fb:	89 4d b8             	mov    %ecx,-0x48(%ebp)
  4020fe:	09 d6                	or     %edx,%esi
  402100:	89 75 bc             	mov    %esi,-0x44(%ebp)
  402103:	8b 45 b8             	mov    -0x48(%ebp),%eax
  402106:	8b 55 bc             	mov    -0x44(%ebp),%edx
  402109:	89 07                	mov    %eax,(%edi)
  40210b:	89 57 04             	mov    %edx,0x4(%edi)
  40210e:	8b 45 e4             	mov    -0x1c(%ebp),%eax
  402111:	83 c0 0a             	add    $0xa,%eax
  402114:	83 f8 3f             	cmp    $0x3f,%eax
  402117:	7f 6f                	jg     402188 <_generateKnightMap+0x27f>
  402119:	8b 55 e4             	mov    -0x1c(%ebp),%edx
  40211c:	89 d0                	mov    %edx,%eax
  40211e:	c1 f8 1f             	sar    $0x1f,%eax
  402121:	c1 e8 1d             	shr    $0x1d,%eax
  402124:	89 c1                	mov    %eax,%ecx
  402126:	8d 04 0a             	lea    (%edx,%ecx,1),%eax
  402129:	83 e0 07             	and    $0x7,%eax
  40212c:	29 c8                	sub    %ecx,%eax
  40212e:	83 f8 05             	cmp    $0x5,%eax
  402131:	7f 55                	jg     402188 <_generateKnightMap+0x27f>
  402133:	8b 45 e4             	mov    -0x1c(%ebp),%eax
  402136:	8d 14 c5 00 00 00 00 	lea    0x0(,%eax,8),%edx
  40213d:	8b 45 e0             	mov    -0x20(%ebp),%eax
  402140:	8d 3c 02             	lea    (%edx,%eax,1),%edi
  402143:	8b 45 e4             	mov    -0x1c(%ebp),%eax
  402146:	8d 14 c5 00 00 00 00 	lea    0x0(,%eax,8),%edx
  40214d:	8b 45 e0             	mov    -0x20(%ebp),%eax
  402150:	01 d0                	add    %edx,%eax
  402152:	8b 18                	mov    (%eax),%ebx
  402154:	8b 70 04             	mov    0x4(%eax),%esi
  402157:	8b 45 e4             	mov    -0x1c(%ebp),%eax
  40215a:	8d 48 0a             	lea    0xa(%eax),%ecx
  40215d:	8b 45 d8             	mov    -0x28(%ebp),%eax
  402160:	8b 55 dc             	mov    -0x24(%ebp),%edx
  402163:	0f a5 c2             	shld   %cl,%eax,%edx
  402166:	d3 e0                	shl    %cl,%eax
  402168:	f6 c1 20             	test   $0x20,%cl
  40216b:	74 04                	je     402171 <_generateKnightMap+0x268>
  40216d:	89 c2                	mov    %eax,%edx
  40216f:	31 c0                	xor    %eax,%eax
  402171:	89 d9                	mov    %ebx,%ecx
  402173:	09 c1                	or     %eax,%ecx
  402175:	89 4d b0             	mov    %ecx,-0x50(%ebp)
  402178:	09 d6                	or     %edx,%esi
  40217a:	89 75 b4             	mov    %esi,-0x4c(%ebp)
  40217d:	8b 45 b0             	mov    -0x50(%ebp),%eax
  402180:	8b 55 b4             	mov    -0x4c(%ebp),%edx
  402183:	89 07                	mov    %eax,(%edi)
  402185:	89 57 04             	mov    %edx,0x4(%edi)
  402188:	8b 45 e4             	mov    -0x1c(%ebp),%eax
  40218b:	83 e8 0a             	sub    $0xa,%eax
  40218e:	85 c0                	test   %eax,%eax
  402190:	78 6f                	js     402201 <_generateKnightMap+0x2f8>
  402192:	8b 55 e4             	mov    -0x1c(%ebp),%edx
  402195:	89 d0                	mov    %edx,%eax
  402197:	c1 f8 1f             	sar    $0x1f,%eax
  40219a:	c1 e8 1d             	shr    $0x1d,%eax
  40219d:	89 c1                	mov    %eax,%ecx
  40219f:	8d 04 0a             	lea    (%edx,%ecx,1),%eax
  4021a2:	83 e0 07             	and    $0x7,%eax
  4021a5:	29 c8                	sub    %ecx,%eax
  4021a7:	83 f8 01             	cmp    $0x1,%eax
  4021aa:	7e 55                	jle    402201 <_generateKnightMap+0x2f8>
  4021ac:	8b 45 e4             	mov    -0x1c(%ebp),%eax
  4021af:	8d 14 c5 00 00 00 00 	lea    0x0(,%eax,8),%edx
  4021b6:	8b 45 e0             	mov    -0x20(%ebp),%eax
  4021b9:	8d 3c 02             	lea    (%edx,%eax,1),%edi
  4021bc:	8b 45 e4             	mov    -0x1c(%ebp),%eax
  4021bf:	8d 14 c5 00 00 00 00 	lea    0x0(,%eax,8),%edx
  4021c6:	8b 45 e0             	mov    -0x20(%ebp),%eax
  4021c9:	01 d0                	add    %edx,%eax
  4021cb:	8b 18                	mov    (%eax),%ebx
  4021cd:	8b 70 04             	mov    0x4(%eax),%esi
  4021d0:	8b 45 e4             	mov    -0x1c(%ebp),%eax
  4021d3:	8d 48 f6             	lea    -0xa(%eax),%ecx
  4021d6:	8b 45 d8             	mov    -0x28(%ebp),%eax
  4021d9:	8b 55 dc             	mov    -0x24(%ebp),%edx
  4021dc:	0f a5 c2             	shld   %cl,%eax,%edx
  4021df:	d3 e0                	shl    %cl,%eax
  4021e1:	f6 c1 20             	test   $0x20,%cl
  4021e4:	74 04                	je     4021ea <_generateKnightMap+0x2e1>
  4021e6:	89 c2                	mov    %eax,%edx
  4021e8:	31 c0                	xor    %eax,%eax
  4021ea:	89 d9                	mov    %ebx,%ecx
  4021ec:	09 c1                	or     %eax,%ecx
  4021ee:	89 4d a8             	mov    %ecx,-0x58(%ebp)
  4021f1:	09 d6                	or     %edx,%esi
  4021f3:	89 75 ac             	mov    %esi,-0x54(%ebp)
  4021f6:	8b 45 a8             	mov    -0x58(%ebp),%eax
  4021f9:	8b 55 ac             	mov    -0x54(%ebp),%edx
  4021fc:	89 07                	mov    %eax,(%edi)
  4021fe:	89 57 04             	mov    %edx,0x4(%edi)
  402201:	8b 45 e4             	mov    -0x1c(%ebp),%eax
  402204:	83 c0 06             	add    $0x6,%eax
  402207:	83 f8 3f             	cmp    $0x3f,%eax
  40220a:	7f 6f                	jg     40227b <_generateKnightMap+0x372>
  40220c:	8b 55 e4             	mov    -0x1c(%ebp),%edx
  40220f:	89 d0                	mov    %edx,%eax
  402211:	c1 f8 1f             	sar    $0x1f,%eax
  402214:	c1 e8 1d             	shr    $0x1d,%eax
  402217:	89 c1                	mov    %eax,%ecx
  402219:	8d 04 0a             	lea    (%edx,%ecx,1),%eax
  40221c:	83 e0 07             	and    $0x7,%eax
  40221f:	29 c8                	sub    %ecx,%eax
  402221:	83 f8 01             	cmp    $0x1,%eax
  402224:	7e 55                	jle    40227b <_generateKnightMap+0x372>
  402226:	8b 45 e4             	mov    -0x1c(%ebp),%eax
  402229:	8d 14 c5 00 00 00 00 	lea    0x0(,%eax,8),%edx
  402230:	8b 45 e0             	mov    -0x20(%ebp),%eax
  402233:	8d 3c 02             	lea    (%edx,%eax,1),%edi
  402236:	8b 45 e4             	mov    -0x1c(%ebp),%eax
  402239:	8d 14 c5 00 00 00 00 	lea    0x0(,%eax,8),%edx
  402240:	8b 45 e0             	mov    -0x20(%ebp),%eax
  402243:	01 d0                	add    %edx,%eax
  402245:	8b 18                	mov    (%eax),%ebx
  402247:	8b 70 04             	mov    0x4(%eax),%esi
  40224a:	8b 45 e4             	mov    -0x1c(%ebp),%eax
  40224d:	8d 48 06             	lea    0x6(%eax),%ecx
  402250:	8b 45 d8             	mov    -0x28(%ebp),%eax
  402253:	8b 55 dc             	mov    -0x24(%ebp),%edx
  402256:	0f a5 c2             	shld   %cl,%eax,%edx
  402259:	d3 e0                	shl    %cl,%eax
  40225b:	f6 c1 20             	test   $0x20,%cl
  40225e:	74 04                	je     402264 <_generateKnightMap+0x35b>
  402260:	89 c2                	mov    %eax,%edx
  402262:	31 c0                	xor    %eax,%eax
  402264:	89 d9                	mov    %ebx,%ecx
  402266:	09 c1                	or     %eax,%ecx
  402268:	89 4d a0             	mov    %ecx,-0x60(%ebp)
  40226b:	09 d6                	or     %edx,%esi
  40226d:	89 75 a4             	mov    %esi,-0x5c(%ebp)
  402270:	8b 45 a0             	mov    -0x60(%ebp),%eax
  402273:	8b 55 a4             	mov    -0x5c(%ebp),%edx
  402276:	89 07                	mov    %eax,(%edi)
  402278:	89 57 04             	mov    %edx,0x4(%edi)
  40227b:	8b 45 e4             	mov    -0x1c(%ebp),%eax
  40227e:	83 e8 06             	sub    $0x6,%eax
  402281:	85 c0                	test   %eax,%eax
  402283:	78 6f                	js     4022f4 <_generateKnightMap+0x3eb>
  402285:	8b 55 e4             	mov    -0x1c(%ebp),%edx
  402288:	89 d0                	mov    %edx,%eax
  40228a:	c1 f8 1f             	sar    $0x1f,%eax
  40228d:	c1 e8 1d             	shr    $0x1d,%eax
  402290:	89 c1                	mov    %eax,%ecx
  402292:	8d 04 0a             	lea    (%edx,%ecx,1),%eax
  402295:	83 e0 07             	and    $0x7,%eax
  402298:	29 c8                	sub    %ecx,%eax
  40229a:	83 f8 05             	cmp    $0x5,%eax
  40229d:	7f 55                	jg     4022f4 <_generateKnightMap+0x3eb>
  40229f:	8b 45 e4             	mov    -0x1c(%ebp),%eax
  4022a2:	8d 14 c5 00 00 00 00 	lea    0x0(,%eax,8),%edx
  4022a9:	8b 45 e0             	mov    -0x20(%ebp),%eax
  4022ac:	8d 3c 02             	lea    (%edx,%eax,1),%edi
  4022af:	8b 45 e4             	mov    -0x1c(%ebp),%eax
  4022b2:	8d 14 c5 00 00 00 00 	lea    0x0(,%eax,8),%edx
  4022b9:	8b 45 e0             	mov    -0x20(%ebp),%eax
  4022bc:	01 d0                	add    %edx,%eax
  4022be:	8b 18                	mov    (%eax),%ebx
  4022c0:	8b 70 04             	mov    0x4(%eax),%esi
  4022c3:	8b 45 e4             	mov    -0x1c(%ebp),%eax
  4022c6:	8d 48 fa             	lea    -0x6(%eax),%ecx
  4022c9:	8b 45 d8             	mov    -0x28(%ebp),%eax
  4022cc:	8b 55 dc             	mov    -0x24(%ebp),%edx
  4022cf:	0f a5 c2             	shld   %cl,%eax,%edx
  4022d2:	d3 e0                	shl    %cl,%eax
  4022d4:	f6 c1 20             	test   $0x20,%cl
  4022d7:	74 04                	je     4022dd <_generateKnightMap+0x3d4>
  4022d9:	89 c2                	mov    %eax,%edx
  4022db:	31 c0                	xor    %eax,%eax
  4022dd:	89 d9                	mov    %ebx,%ecx
  4022df:	09 c1                	or     %eax,%ecx
  4022e1:	89 4d 98             	mov    %ecx,-0x68(%ebp)
  4022e4:	09 d6                	or     %edx,%esi
  4022e6:	89 75 9c             	mov    %esi,-0x64(%ebp)
  4022e9:	8b 45 98             	mov    -0x68(%ebp),%eax
  4022ec:	8b 55 9c             	mov    -0x64(%ebp),%edx
  4022ef:	89 07                	mov    %eax,(%edi)
  4022f1:	89 57 04             	mov    %edx,0x4(%edi)
  4022f4:	83 45 e4 01          	addl   $0x1,-0x1c(%ebp)
  4022f8:	83 7d e4 3f          	cmpl   $0x3f,-0x1c(%ebp)
  4022fc:	0f 8e 46 fc ff ff    	jle    401f48 <_generateKnightMap+0x3f>
  402302:	8b 45 e0             	mov    -0x20(%ebp),%eax
  402305:	83 c4 6c             	add    $0x6c,%esp
  402308:	5b                   	pop    %ebx
  402309:	5e                   	pop    %esi
  40230a:	5f                   	pop    %edi
  40230b:	5d                   	pop    %ebp
  40230c:	c3                   	ret    

0040230d <_generateOccupancyMaskRook>:
  40230d:	55                   	push   %ebp
  40230e:	89 e5                	mov    %esp,%ebp
  402310:	83 ec 38             	sub    $0x38,%esp
  402313:	e8 08 bb 00 00       	call   40de20 <_mcount>
  402318:	c7 04 24 00 02 00 00 	movl   $0x200,(%esp)
  40231f:	e8 d4 b6 00 00       	call   40d9f8 <_malloc>
  402324:	89 45 e4             	mov    %eax,-0x1c(%ebp)
  402327:	c7 45 f0 00 00 00 00 	movl   $0x0,-0x10(%ebp)
  40232e:	c7 45 e8 00 00 00 00 	movl   $0x0,-0x18(%ebp)
  402335:	c7 45 ec 00 00 00 00 	movl   $0x0,-0x14(%ebp)
  40233c:	e9 39 01 00 00       	jmp    40247a <_generateOccupancyMaskRook+0x16d>
  402341:	8b 45 f0             	mov    -0x10(%ebp),%eax
  402344:	83 c0 08             	add    $0x8,%eax
  402347:	89 45 f4             	mov    %eax,-0xc(%ebp)
  40234a:	eb 25                	jmp    402371 <_generateOccupancyMaskRook+0x64>
  40234c:	8b 4d f4             	mov    -0xc(%ebp),%ecx
  40234f:	b8 01 00 00 00       	mov    $0x1,%eax
  402354:	ba 00 00 00 00       	mov    $0x0,%edx
  402359:	0f a5 c2             	shld   %cl,%eax,%edx
  40235c:	d3 e0                	shl    %cl,%eax
  40235e:	f6 c1 20             	test   $0x20,%cl
  402361:	74 04                	je     402367 <_generateOccupancyMaskRook+0x5a>
  402363:	89 c2                	mov    %eax,%edx
  402365:	31 c0                	xor    %eax,%eax
  402367:	09 45 e8             	or     %eax,-0x18(%ebp)
  40236a:	09 55 ec             	or     %edx,-0x14(%ebp)
  40236d:	83 45 f4 08          	addl   $0x8,-0xc(%ebp)
  402371:	83 7d f4 37          	cmpl   $0x37,-0xc(%ebp)
  402375:	7e d5                	jle    40234c <_generateOccupancyMaskRook+0x3f>
  402377:	8b 45 f0             	mov    -0x10(%ebp),%eax
  40237a:	83 e8 08             	sub    $0x8,%eax
  40237d:	89 45 f4             	mov    %eax,-0xc(%ebp)
  402380:	eb 25                	jmp    4023a7 <_generateOccupancyMaskRook+0x9a>
  402382:	8b 4d f4             	mov    -0xc(%ebp),%ecx
  402385:	b8 01 00 00 00       	mov    $0x1,%eax
  40238a:	ba 00 00 00 00       	mov    $0x0,%edx
  40238f:	0f a5 c2             	shld   %cl,%eax,%edx
  402392:	d3 e0                	shl    %cl,%eax
  402394:	f6 c1 20             	test   $0x20,%cl
  402397:	74 04                	je     40239d <_generateOccupancyMaskRook+0x90>
  402399:	89 c2                	mov    %eax,%edx
  40239b:	31 c0                	xor    %eax,%eax
  40239d:	09 45 e8             	or     %eax,-0x18(%ebp)
  4023a0:	09 55 ec             	or     %edx,-0x14(%ebp)
  4023a3:	83 6d f4 08          	subl   $0x8,-0xc(%ebp)
  4023a7:	83 7d f4 07          	cmpl   $0x7,-0xc(%ebp)
  4023ab:	7f d5                	jg     402382 <_generateOccupancyMaskRook+0x75>
  4023ad:	8b 45 f0             	mov    -0x10(%ebp),%eax
  4023b0:	83 c0 01             	add    $0x1,%eax
  4023b3:	89 45 f4             	mov    %eax,-0xc(%ebp)
  4023b6:	eb 25                	jmp    4023dd <_generateOccupancyMaskRook+0xd0>
  4023b8:	8b 4d f4             	mov    -0xc(%ebp),%ecx
  4023bb:	b8 01 00 00 00       	mov    $0x1,%eax
  4023c0:	ba 00 00 00 00       	mov    $0x0,%edx
  4023c5:	0f a5 c2             	shld   %cl,%eax,%edx
  4023c8:	d3 e0                	shl    %cl,%eax
  4023ca:	f6 c1 20             	test   $0x20,%cl
  4023cd:	74 04                	je     4023d3 <_generateOccupancyMaskRook+0xc6>
  4023cf:	89 c2                	mov    %eax,%edx
  4023d1:	31 c0                	xor    %eax,%eax
  4023d3:	09 45 e8             	or     %eax,-0x18(%ebp)
  4023d6:	09 55 ec             	or     %edx,-0x14(%ebp)
  4023d9:	83 45 f4 01          	addl   $0x1,-0xc(%ebp)
  4023dd:	8b 45 f4             	mov    -0xc(%ebp),%eax
  4023e0:	99                   	cltd   
  4023e1:	c1 ea 1d             	shr    $0x1d,%edx
  4023e4:	01 d0                	add    %edx,%eax
  4023e6:	83 e0 07             	and    $0x7,%eax
  4023e9:	29 d0                	sub    %edx,%eax
  4023eb:	83 f8 07             	cmp    $0x7,%eax
  4023ee:	74 0a                	je     4023fa <_generateOccupancyMaskRook+0xed>
  4023f0:	8b 45 f4             	mov    -0xc(%ebp),%eax
  4023f3:	83 e0 07             	and    $0x7,%eax
  4023f6:	85 c0                	test   %eax,%eax
  4023f8:	75 be                	jne    4023b8 <_generateOccupancyMaskRook+0xab>
  4023fa:	8b 45 f0             	mov    -0x10(%ebp),%eax
  4023fd:	83 e8 01             	sub    $0x1,%eax
  402400:	89 45 f4             	mov    %eax,-0xc(%ebp)
  402403:	eb 25                	jmp    40242a <_generateOccupancyMaskRook+0x11d>
  402405:	8b 4d f4             	mov    -0xc(%ebp),%ecx
  402408:	b8 01 00 00 00       	mov    $0x1,%eax
  40240d:	ba 00 00 00 00       	mov    $0x0,%edx
  402412:	0f a5 c2             	shld   %cl,%eax,%edx
  402415:	d3 e0                	shl    %cl,%eax
  402417:	f6 c1 20             	test   $0x20,%cl
  40241a:	74 04                	je     402420 <_generateOccupancyMaskRook+0x113>
  40241c:	89 c2                	mov    %eax,%edx
  40241e:	31 c0                	xor    %eax,%eax
  402420:	09 45 e8             	or     %eax,-0x18(%ebp)
  402423:	09 55 ec             	or     %edx,-0x14(%ebp)
  402426:	83 6d f4 01          	subl   $0x1,-0xc(%ebp)
  40242a:	8b 45 f4             	mov    -0xc(%ebp),%eax
  40242d:	99                   	cltd   
  40242e:	c1 ea 1d             	shr    $0x1d,%edx
  402431:	01 d0                	add    %edx,%eax
  402433:	83 e0 07             	and    $0x7,%eax
  402436:	29 d0                	sub    %edx,%eax
  402438:	83 f8 07             	cmp    $0x7,%eax
  40243b:	74 10                	je     40244d <_generateOccupancyMaskRook+0x140>
  40243d:	8b 45 f4             	mov    -0xc(%ebp),%eax
  402440:	83 e0 07             	and    $0x7,%eax
  402443:	85 c0                	test   %eax,%eax
  402445:	74 06                	je     40244d <_generateOccupancyMaskRook+0x140>
  402447:	83 7d f4 00          	cmpl   $0x0,-0xc(%ebp)
  40244b:	79 b8                	jns    402405 <_generateOccupancyMaskRook+0xf8>
  40244d:	8b 45 f0             	mov    -0x10(%ebp),%eax
  402450:	8d 14 c5 00 00 00 00 	lea    0x0(,%eax,8),%edx
  402457:	8b 45 e4             	mov    -0x1c(%ebp),%eax
  40245a:	8d 0c 02             	lea    (%edx,%eax,1),%ecx
  40245d:	8b 45 e8             	mov    -0x18(%ebp),%eax
  402460:	8b 55 ec             	mov    -0x14(%ebp),%edx
  402463:	89 01                	mov    %eax,(%ecx)
  402465:	89 51 04             	mov    %edx,0x4(%ecx)
  402468:	83 45 f0 01          	addl   $0x1,-0x10(%ebp)
  40246c:	c7 45 e8 00 00 00 00 	movl   $0x0,-0x18(%ebp)
  402473:	c7 45 ec 00 00 00 00 	movl   $0x0,-0x14(%ebp)
  40247a:	83 7d f0 3f          	cmpl   $0x3f,-0x10(%ebp)
  40247e:	0f 8e bd fe ff ff    	jle    402341 <_generateOccupancyMaskRook+0x34>
  402484:	8b 45 e4             	mov    -0x1c(%ebp),%eax
  402487:	c9                   	leave  
  402488:	c3                   	ret    

00402489 <_generateOccupancyMaskBishop>:
  402489:	55                   	push   %ebp
  40248a:	89 e5                	mov    %esp,%ebp
  40248c:	83 ec 38             	sub    $0x38,%esp
  40248f:	e8 8c b9 00 00       	call   40de20 <_mcount>
  402494:	c7 04 24 00 02 00 00 	movl   $0x200,(%esp)
  40249b:	e8 58 b5 00 00       	call   40d9f8 <_malloc>
  4024a0:	89 45 e4             	mov    %eax,-0x1c(%ebp)
  4024a3:	c7 45 f0 00 00 00 00 	movl   $0x0,-0x10(%ebp)
  4024aa:	c7 45 e8 00 00 00 00 	movl   $0x0,-0x18(%ebp)
  4024b1:	c7 45 ec 00 00 00 00 	movl   $0x0,-0x14(%ebp)
  4024b8:	e9 79 01 00 00       	jmp    402636 <_generateOccupancyMaskBishop+0x1ad>
  4024bd:	8b 45 f0             	mov    -0x10(%ebp),%eax
  4024c0:	83 c0 09             	add    $0x9,%eax
  4024c3:	89 45 f4             	mov    %eax,-0xc(%ebp)
  4024c6:	eb 25                	jmp    4024ed <_generateOccupancyMaskBishop+0x64>
  4024c8:	8b 4d f4             	mov    -0xc(%ebp),%ecx
  4024cb:	b8 01 00 00 00       	mov    $0x1,%eax
  4024d0:	ba 00 00 00 00       	mov    $0x0,%edx
  4024d5:	0f a5 c2             	shld   %cl,%eax,%edx
  4024d8:	d3 e0                	shl    %cl,%eax
  4024da:	f6 c1 20             	test   $0x20,%cl
  4024dd:	74 04                	je     4024e3 <_generateOccupancyMaskBishop+0x5a>
  4024df:	89 c2                	mov    %eax,%edx
  4024e1:	31 c0                	xor    %eax,%eax
  4024e3:	09 45 e8             	or     %eax,-0x18(%ebp)
  4024e6:	09 55 ec             	or     %edx,-0x14(%ebp)
  4024e9:	83 45 f4 09          	addl   $0x9,-0xc(%ebp)
  4024ed:	8b 45 f4             	mov    -0xc(%ebp),%eax
  4024f0:	99                   	cltd   
  4024f1:	c1 ea 1d             	shr    $0x1d,%edx
  4024f4:	01 d0                	add    %edx,%eax
  4024f6:	83 e0 07             	and    $0x7,%eax
  4024f9:	29 d0                	sub    %edx,%eax
  4024fb:	83 f8 07             	cmp    $0x7,%eax
  4024fe:	74 10                	je     402510 <_generateOccupancyMaskBishop+0x87>
  402500:	8b 45 f4             	mov    -0xc(%ebp),%eax
  402503:	83 e0 07             	and    $0x7,%eax
  402506:	85 c0                	test   %eax,%eax
  402508:	74 06                	je     402510 <_generateOccupancyMaskBishop+0x87>
  40250a:	83 7d f4 37          	cmpl   $0x37,-0xc(%ebp)
  40250e:	7e b8                	jle    4024c8 <_generateOccupancyMaskBishop+0x3f>
  402510:	8b 45 f0             	mov    -0x10(%ebp),%eax
  402513:	83 e8 09             	sub    $0x9,%eax
  402516:	89 45 f4             	mov    %eax,-0xc(%ebp)
  402519:	eb 25                	jmp    402540 <_generateOccupancyMaskBishop+0xb7>
  40251b:	8b 4d f4             	mov    -0xc(%ebp),%ecx
  40251e:	b8 01 00 00 00       	mov    $0x1,%eax
  402523:	ba 00 00 00 00       	mov    $0x0,%edx
  402528:	0f a5 c2             	shld   %cl,%eax,%edx
  40252b:	d3 e0                	shl    %cl,%eax
  40252d:	f6 c1 20             	test   $0x20,%cl
  402530:	74 04                	je     402536 <_generateOccupancyMaskBishop+0xad>
  402532:	89 c2                	mov    %eax,%edx
  402534:	31 c0                	xor    %eax,%eax
  402536:	09 45 e8             	or     %eax,-0x18(%ebp)
  402539:	09 55 ec             	or     %edx,-0x14(%ebp)
  40253c:	83 6d f4 09          	subl   $0x9,-0xc(%ebp)
  402540:	8b 45 f4             	mov    -0xc(%ebp),%eax
  402543:	99                   	cltd   
  402544:	c1 ea 1d             	shr    $0x1d,%edx
  402547:	01 d0                	add    %edx,%eax
  402549:	83 e0 07             	and    $0x7,%eax
  40254c:	29 d0                	sub    %edx,%eax
  40254e:	83 f8 07             	cmp    $0x7,%eax
  402551:	74 10                	je     402563 <_generateOccupancyMaskBishop+0xda>
  402553:	8b 45 f4             	mov    -0xc(%ebp),%eax
  402556:	83 e0 07             	and    $0x7,%eax
  402559:	85 c0                	test   %eax,%eax
  40255b:	74 06                	je     402563 <_generateOccupancyMaskBishop+0xda>
  40255d:	83 7d f4 07          	cmpl   $0x7,-0xc(%ebp)
  402561:	7f b8                	jg     40251b <_generateOccupancyMaskBishop+0x92>
  402563:	8b 45 f0             	mov    -0x10(%ebp),%eax
  402566:	83 c0 07             	add    $0x7,%eax
  402569:	89 45 f4             	mov    %eax,-0xc(%ebp)
  40256c:	eb 25                	jmp    402593 <_generateOccupancyMaskBishop+0x10a>
  40256e:	8b 4d f4             	mov    -0xc(%ebp),%ecx
  402571:	b8 01 00 00 00       	mov    $0x1,%eax
  402576:	ba 00 00 00 00       	mov    $0x0,%edx
  40257b:	0f a5 c2             	shld   %cl,%eax,%edx
  40257e:	d3 e0                	shl    %cl,%eax
  402580:	f6 c1 20             	test   $0x20,%cl
  402583:	74 04                	je     402589 <_generateOccupancyMaskBishop+0x100>
  402585:	89 c2                	mov    %eax,%edx
  402587:	31 c0                	xor    %eax,%eax
  402589:	09 45 e8             	or     %eax,-0x18(%ebp)
  40258c:	09 55 ec             	or     %edx,-0x14(%ebp)
  40258f:	83 45 f4 07          	addl   $0x7,-0xc(%ebp)
  402593:	8b 45 f4             	mov    -0xc(%ebp),%eax
  402596:	99                   	cltd   
  402597:	c1 ea 1d             	shr    $0x1d,%edx
  40259a:	01 d0                	add    %edx,%eax
  40259c:	83 e0 07             	and    $0x7,%eax
  40259f:	29 d0                	sub    %edx,%eax
  4025a1:	83 f8 07             	cmp    $0x7,%eax
  4025a4:	74 10                	je     4025b6 <_generateOccupancyMaskBishop+0x12d>
  4025a6:	8b 45 f4             	mov    -0xc(%ebp),%eax
  4025a9:	83 e0 07             	and    $0x7,%eax
  4025ac:	85 c0                	test   %eax,%eax
  4025ae:	74 06                	je     4025b6 <_generateOccupancyMaskBishop+0x12d>
  4025b0:	83 7d f4 37          	cmpl   $0x37,-0xc(%ebp)
  4025b4:	7e b8                	jle    40256e <_generateOccupancyMaskBishop+0xe5>
  4025b6:	8b 45 f0             	mov    -0x10(%ebp),%eax
  4025b9:	83 e8 07             	sub    $0x7,%eax
  4025bc:	89 45 f4             	mov    %eax,-0xc(%ebp)
  4025bf:	eb 25                	jmp    4025e6 <_generateOccupancyMaskBishop+0x15d>
  4025c1:	8b 4d f4             	mov    -0xc(%ebp),%ecx
  4025c4:	b8 01 00 00 00       	mov    $0x1,%eax
  4025c9:	ba 00 00 00 00       	mov    $0x0,%edx
  4025ce:	0f a5 c2             	shld   %cl,%eax,%edx
  4025d1:	d3 e0                	shl    %cl,%eax
  4025d3:	f6 c1 20             	test   $0x20,%cl
  4025d6:	74 04                	je     4025dc <_generateOccupancyMaskBishop+0x153>
  4025d8:	89 c2                	mov    %eax,%edx
  4025da:	31 c0                	xor    %eax,%eax
  4025dc:	09 45 e8             	or     %eax,-0x18(%ebp)
  4025df:	09 55 ec             	or     %edx,-0x14(%ebp)
  4025e2:	83 6d f4 07          	subl   $0x7,-0xc(%ebp)
  4025e6:	8b 45 f4             	mov    -0xc(%ebp),%eax
  4025e9:	99                   	cltd   
  4025ea:	c1 ea 1d             	shr    $0x1d,%edx
  4025ed:	01 d0                	add    %edx,%eax
  4025ef:	83 e0 07             	and    $0x7,%eax
  4025f2:	29 d0                	sub    %edx,%eax
  4025f4:	83 f8 07             	cmp    $0x7,%eax
  4025f7:	74 10                	je     402609 <_generateOccupancyMaskBishop+0x180>
  4025f9:	8b 45 f4             	mov    -0xc(%ebp),%eax
  4025fc:	83 e0 07             	and    $0x7,%eax
  4025ff:	85 c0                	test   %eax,%eax
  402601:	74 06                	je     402609 <_generateOccupancyMaskBishop+0x180>
  402603:	83 7d f4 07          	cmpl   $0x7,-0xc(%ebp)
  402607:	7f b8                	jg     4025c1 <_generateOccupancyMaskBishop+0x138>
  402609:	8b 45 f0             	mov    -0x10(%ebp),%eax
  40260c:	8d 14 c5 00 00 00 00 	lea    0x0(,%eax,8),%edx
  402613:	8b 45 e4             	mov    -0x1c(%ebp),%eax
  402616:	8d 0c 02             	lea    (%edx,%eax,1),%ecx
  402619:	8b 45 e8             	mov    -0x18(%ebp),%eax
  40261c:	8b 55 ec             	mov    -0x14(%ebp),%edx
  40261f:	89 01                	mov    %eax,(%ecx)
  402621:	89 51 04             	mov    %edx,0x4(%ecx)
  402624:	83 45 f0 01          	addl   $0x1,-0x10(%ebp)
  402628:	c7 45 e8 00 00 00 00 	movl   $0x0,-0x18(%ebp)
  40262f:	c7 45 ec 00 00 00 00 	movl   $0x0,-0x14(%ebp)
  402636:	83 7d f0 3f          	cmpl   $0x3f,-0x10(%ebp)
  40263a:	0f 8e 7d fe ff ff    	jle    4024bd <_generateOccupancyMaskBishop+0x34>
  402640:	8b 45 e4             	mov    -0x1c(%ebp),%eax
  402643:	c9                   	leave  
  402644:	c3                   	ret    

00402645 <_generateOccupancyVariationRook>:
  402645:	55                   	push   %ebp
  402646:	89 e5                	mov    %esp,%ebp
  402648:	57                   	push   %edi
  402649:	56                   	push   %esi
  40264a:	53                   	push   %ebx
  40264b:	81 ec fc 00 00 00    	sub    $0xfc,%esp
  402651:	e8 ca b7 00 00       	call   40de20 <_mcount>
  402656:	c7 04 24 00 01 00 00 	movl   $0x100,(%esp)
  40265d:	e8 96 b3 00 00       	call   40d9f8 <_malloc>
  402662:	89 45 d4             	mov    %eax,-0x2c(%ebp)
  402665:	c7 45 d8 00 00 00 00 	movl   $0x0,-0x28(%ebp)
  40266c:	c7 45 dc 00 00 00 00 	movl   $0x0,-0x24(%ebp)
  402673:	eb 26                	jmp    40269b <_generateOccupancyVariationRook+0x56>
  402675:	8b 45 d8             	mov    -0x28(%ebp),%eax
  402678:	8d 14 85 00 00 00 00 	lea    0x0(,%eax,4),%edx
  40267f:	8b 45 d4             	mov    -0x2c(%ebp),%eax
  402682:	8d 1c 02             	lea    (%edx,%eax,1),%ebx
  402685:	c7 04 24 00 00 01 00 	movl   $0x10000,(%esp)
  40268c:	e8 67 b3 00 00       	call   40d9f8 <_malloc>
  402691:	89 03                	mov    %eax,(%ebx)
  402693:	83 45 d8 01          	addl   $0x1,-0x28(%ebp)
  402697:	83 55 dc 00          	adcl   $0x0,-0x24(%ebp)
  40269b:	83 7d dc 00          	cmpl   $0x0,-0x24(%ebp)
  40269f:	72 d4                	jb     402675 <_generateOccupancyVariationRook+0x30>
  4026a1:	83 7d dc 00          	cmpl   $0x0,-0x24(%ebp)
  4026a5:	77 06                	ja     4026ad <_generateOccupancyVariationRook+0x68>
  4026a7:	83 7d d8 3f          	cmpl   $0x3f,-0x28(%ebp)
  4026ab:	76 c8                	jbe    402675 <_generateOccupancyVariationRook+0x30>
  4026ad:	c7 45 e0 00 00 00 00 	movl   $0x0,-0x20(%ebp)
  4026b4:	e9 8a 01 00 00       	jmp    402843 <_generateOccupancyVariationRook+0x1fe>
  4026b9:	8b 45 e0             	mov    -0x20(%ebp),%eax
  4026bc:	8d 14 c5 00 00 00 00 	lea    0x0(,%eax,8),%edx
  4026c3:	8b 45 08             	mov    0x8(%ebp),%eax
  4026c6:	01 d0                	add    %edx,%eax
  4026c8:	8b 50 04             	mov    0x4(%eax),%edx
  4026cb:	8b 00                	mov    (%eax),%eax
  4026cd:	89 45 c8             	mov    %eax,-0x38(%ebp)
  4026d0:	89 55 cc             	mov    %edx,-0x34(%ebp)
  4026d3:	8d 85 74 ff ff ff    	lea    -0x8c(%ebp),%eax
  4026d9:	89 44 24 08          	mov    %eax,0x8(%esp)
  4026dd:	8b 45 c8             	mov    -0x38(%ebp),%eax
  4026e0:	8b 55 cc             	mov    -0x34(%ebp),%edx
  4026e3:	89 04 24             	mov    %eax,(%esp)
  4026e6:	89 54 24 04          	mov    %edx,0x4(%esp)
  4026ea:	e8 06 f0 ff ff       	call   4016f5 <_getSetBits>
  4026ef:	8b 45 c8             	mov    -0x38(%ebp),%eax
  4026f2:	8b 55 cc             	mov    -0x34(%ebp),%edx
  4026f5:	89 04 24             	mov    %eax,(%esp)
  4026f8:	89 54 24 04          	mov    %edx,0x4(%esp)
  4026fc:	e8 3a ef ff ff       	call   40163b <_countSetBits>
  402701:	89 c1                	mov    %eax,%ecx
  402703:	b8 01 00 00 00       	mov    $0x1,%eax
  402708:	ba 00 00 00 00       	mov    $0x0,%edx
  40270d:	0f a5 c2             	shld   %cl,%eax,%edx
  402710:	d3 e0                	shl    %cl,%eax
  402712:	f6 c1 20             	test   $0x20,%cl
  402715:	74 04                	je     40271b <_generateOccupancyVariationRook+0xd6>
  402717:	89 c2                	mov    %eax,%edx
  402719:	31 c0                	xor    %eax,%eax
  40271b:	89 45 c4             	mov    %eax,-0x3c(%ebp)
  40271e:	c7 45 d8 00 00 00 00 	movl   $0x0,-0x28(%ebp)
  402725:	c7 45 dc 00 00 00 00 	movl   $0x0,-0x24(%ebp)
  40272c:	e9 f3 00 00 00       	jmp    402824 <_generateOccupancyVariationRook+0x1df>
  402731:	8b 45 e0             	mov    -0x20(%ebp),%eax
  402734:	8d 14 85 00 00 00 00 	lea    0x0(,%eax,4),%edx
  40273b:	8b 45 d4             	mov    -0x2c(%ebp),%eax
  40273e:	01 d0                	add    %edx,%eax
  402740:	8b 00                	mov    (%eax),%eax
  402742:	8b 55 d8             	mov    -0x28(%ebp),%edx
  402745:	c1 e2 03             	shl    $0x3,%edx
  402748:	01 d0                	add    %edx,%eax
  40274a:	c7 00 00 00 00 00    	movl   $0x0,(%eax)
  402750:	c7 40 04 00 00 00 00 	movl   $0x0,0x4(%eax)
  402757:	8d 85 24 ff ff ff    	lea    -0xdc(%ebp),%eax
  40275d:	89 44 24 08          	mov    %eax,0x8(%esp)
  402761:	8b 45 d8             	mov    -0x28(%ebp),%eax
  402764:	8b 55 dc             	mov    -0x24(%ebp),%edx
  402767:	89 04 24             	mov    %eax,(%esp)
  40276a:	89 54 24 04          	mov    %edx,0x4(%esp)
  40276e:	e8 82 ef ff ff       	call   4016f5 <_getSetBits>
  402773:	c7 45 e4 00 00 00 00 	movl   $0x0,-0x1c(%ebp)
  40277a:	e9 8a 00 00 00       	jmp    402809 <_generateOccupancyVariationRook+0x1c4>
  40277f:	8b 45 e0             	mov    -0x20(%ebp),%eax
  402782:	8d 14 85 00 00 00 00 	lea    0x0(,%eax,4),%edx
  402789:	8b 45 d4             	mov    -0x2c(%ebp),%eax
  40278c:	01 d0                	add    %edx,%eax
  40278e:	8b 00                	mov    (%eax),%eax
  402790:	8b 55 d8             	mov    -0x28(%ebp),%edx
  402793:	c1 e2 03             	shl    $0x3,%edx
  402796:	8d 1c 10             	lea    (%eax,%edx,1),%ebx
  402799:	8b 45 e0             	mov    -0x20(%ebp),%eax
  40279c:	8d 14 85 00 00 00 00 	lea    0x0(,%eax,4),%edx
  4027a3:	8b 45 d4             	mov    -0x2c(%ebp),%eax
  4027a6:	01 d0                	add    %edx,%eax
  4027a8:	8b 00                	mov    (%eax),%eax
  4027aa:	8b 55 d8             	mov    -0x28(%ebp),%edx
  4027ad:	c1 e2 03             	shl    $0x3,%edx
  4027b0:	01 d0                	add    %edx,%eax
  4027b2:	8b 50 04             	mov    0x4(%eax),%edx
  4027b5:	8b 00                	mov    (%eax),%eax
  4027b7:	89 85 10 ff ff ff    	mov    %eax,-0xf0(%ebp)
  4027bd:	89 95 14 ff ff ff    	mov    %edx,-0xec(%ebp)
  4027c3:	8b 45 e4             	mov    -0x1c(%ebp),%eax
  4027c6:	8b 84 85 24 ff ff ff 	mov    -0xdc(%ebp,%eax,4),%eax
  4027cd:	8b 8c 85 74 ff ff ff 	mov    -0x8c(%ebp,%eax,4),%ecx
  4027d4:	b8 01 00 00 00       	mov    $0x1,%eax
  4027d9:	ba 00 00 00 00       	mov    $0x0,%edx
  4027de:	0f a5 c2             	shld   %cl,%eax,%edx
  4027e1:	d3 e0                	shl    %cl,%eax
  4027e3:	f6 c1 20             	test   $0x20,%cl
  4027e6:	74 04                	je     4027ec <_generateOccupancyVariationRook+0x1a7>
  4027e8:	89 c2                	mov    %eax,%edx
  4027ea:	31 c0                	xor    %eax,%eax
  4027ec:	8b 8d 10 ff ff ff    	mov    -0xf0(%ebp),%ecx
  4027f2:	09 c1                	or     %eax,%ecx
  4027f4:	89 ce                	mov    %ecx,%esi
  4027f6:	8b 8d 14 ff ff ff    	mov    -0xec(%ebp),%ecx
  4027fc:	09 d1                	or     %edx,%ecx
  4027fe:	89 cf                	mov    %ecx,%edi
  402800:	89 33                	mov    %esi,(%ebx)
  402802:	89 7b 04             	mov    %edi,0x4(%ebx)
  402805:	83 45 e4 01          	addl   $0x1,-0x1c(%ebp)
  402809:	8b 45 e4             	mov    -0x1c(%ebp),%eax
  40280c:	8b 84 85 24 ff ff ff 	mov    -0xdc(%ebp,%eax,4),%eax
  402813:	83 f8 ff             	cmp    $0xffffffff,%eax
  402816:	0f 85 63 ff ff ff    	jne    40277f <_generateOccupancyVariationRook+0x13a>
  40281c:	83 45 d8 01          	addl   $0x1,-0x28(%ebp)
  402820:	83 55 dc 00          	adcl   $0x0,-0x24(%ebp)
  402824:	8b 45 c4             	mov    -0x3c(%ebp),%eax
  402827:	99                   	cltd   
  402828:	3b 55 dc             	cmp    -0x24(%ebp),%edx
  40282b:	0f 87 00 ff ff ff    	ja     402731 <_generateOccupancyVariationRook+0xec>
  402831:	3b 55 dc             	cmp    -0x24(%ebp),%edx
  402834:	72 09                	jb     40283f <_generateOccupancyVariationRook+0x1fa>
  402836:	3b 45 d8             	cmp    -0x28(%ebp),%eax
  402839:	0f 87 f2 fe ff ff    	ja     402731 <_generateOccupancyVariationRook+0xec>
  40283f:	83 45 e0 01          	addl   $0x1,-0x20(%ebp)
  402843:	83 7d e0 3f          	cmpl   $0x3f,-0x20(%ebp)
  402847:	0f 8e 6c fe ff ff    	jle    4026b9 <_generateOccupancyVariationRook+0x74>
  40284d:	8b 45 d4             	mov    -0x2c(%ebp),%eax
  402850:	81 c4 fc 00 00 00    	add    $0xfc,%esp
  402856:	5b                   	pop    %ebx
  402857:	5e                   	pop    %esi
  402858:	5f                   	pop    %edi
  402859:	5d                   	pop    %ebp
  40285a:	c3                   	ret    

0040285b <_generateOccupancyVariationBishop>:
  40285b:	55                   	push   %ebp
  40285c:	89 e5                	mov    %esp,%ebp
  40285e:	57                   	push   %edi
  40285f:	56                   	push   %esi
  402860:	53                   	push   %ebx
  402861:	81 ec fc 00 00 00    	sub    $0xfc,%esp
  402867:	e8 b4 b5 00 00       	call   40de20 <_mcount>
  40286c:	c7 04 24 00 01 00 00 	movl   $0x100,(%esp)
  402873:	e8 80 b1 00 00       	call   40d9f8 <_malloc>
  402878:	89 45 d4             	mov    %eax,-0x2c(%ebp)
  40287b:	c7 45 d8 00 00 00 00 	movl   $0x0,-0x28(%ebp)
  402882:	c7 45 dc 00 00 00 00 	movl   $0x0,-0x24(%ebp)
  402889:	eb 26                	jmp    4028b1 <_generateOccupancyVariationBishop+0x56>
  40288b:	8b 45 d8             	mov    -0x28(%ebp),%eax
  40288e:	8d 14 85 00 00 00 00 	lea    0x0(,%eax,4),%edx
  402895:	8b 45 d4             	mov    -0x2c(%ebp),%eax
  402898:	8d 1c 02             	lea    (%edx,%eax,1),%ebx
  40289b:	c7 04 24 00 20 00 00 	movl   $0x2000,(%esp)
  4028a2:	e8 51 b1 00 00       	call   40d9f8 <_malloc>
  4028a7:	89 03                	mov    %eax,(%ebx)
  4028a9:	83 45 d8 01          	addl   $0x1,-0x28(%ebp)
  4028ad:	83 55 dc 00          	adcl   $0x0,-0x24(%ebp)
  4028b1:	83 7d dc 00          	cmpl   $0x0,-0x24(%ebp)
  4028b5:	72 d4                	jb     40288b <_generateOccupancyVariationBishop+0x30>
  4028b7:	83 7d dc 00          	cmpl   $0x0,-0x24(%ebp)
  4028bb:	77 06                	ja     4028c3 <_generateOccupancyVariationBishop+0x68>
  4028bd:	83 7d d8 3f          	cmpl   $0x3f,-0x28(%ebp)
  4028c1:	76 c8                	jbe    40288b <_generateOccupancyVariationBishop+0x30>
  4028c3:	c7 45 e0 00 00 00 00 	movl   $0x0,-0x20(%ebp)
  4028ca:	e9 8a 01 00 00       	jmp    402a59 <_generateOccupancyVariationBishop+0x1fe>
  4028cf:	8b 45 e0             	mov    -0x20(%ebp),%eax
  4028d2:	8d 14 c5 00 00 00 00 	lea    0x0(,%eax,8),%edx
  4028d9:	8b 45 08             	mov    0x8(%ebp),%eax
  4028dc:	01 d0                	add    %edx,%eax
  4028de:	8b 50 04             	mov    0x4(%eax),%edx
  4028e1:	8b 00                	mov    (%eax),%eax
  4028e3:	89 45 c8             	mov    %eax,-0x38(%ebp)
  4028e6:	89 55 cc             	mov    %edx,-0x34(%ebp)
  4028e9:	8d 85 74 ff ff ff    	lea    -0x8c(%ebp),%eax
  4028ef:	89 44 24 08          	mov    %eax,0x8(%esp)
  4028f3:	8b 45 c8             	mov    -0x38(%ebp),%eax
  4028f6:	8b 55 cc             	mov    -0x34(%ebp),%edx
  4028f9:	89 04 24             	mov    %eax,(%esp)
  4028fc:	89 54 24 04          	mov    %edx,0x4(%esp)
  402900:	e8 f0 ed ff ff       	call   4016f5 <_getSetBits>
  402905:	8b 45 c8             	mov    -0x38(%ebp),%eax
  402908:	8b 55 cc             	mov    -0x34(%ebp),%edx
  40290b:	89 04 24             	mov    %eax,(%esp)
  40290e:	89 54 24 04          	mov    %edx,0x4(%esp)
  402912:	e8 24 ed ff ff       	call   40163b <_countSetBits>
  402917:	89 c1                	mov    %eax,%ecx
  402919:	b8 01 00 00 00       	mov    $0x1,%eax
  40291e:	ba 00 00 00 00       	mov    $0x0,%edx
  402923:	0f a5 c2             	shld   %cl,%eax,%edx
  402926:	d3 e0                	shl    %cl,%eax
  402928:	f6 c1 20             	test   $0x20,%cl
  40292b:	74 04                	je     402931 <_generateOccupancyVariationBishop+0xd6>
  40292d:	89 c2                	mov    %eax,%edx
  40292f:	31 c0                	xor    %eax,%eax
  402931:	89 45 c4             	mov    %eax,-0x3c(%ebp)
  402934:	c7 45 d8 00 00 00 00 	movl   $0x0,-0x28(%ebp)
  40293b:	c7 45 dc 00 00 00 00 	movl   $0x0,-0x24(%ebp)
  402942:	e9 f3 00 00 00       	jmp    402a3a <_generateOccupancyVariationBishop+0x1df>
  402947:	8b 45 e0             	mov    -0x20(%ebp),%eax
  40294a:	8d 14 85 00 00 00 00 	lea    0x0(,%eax,4),%edx
  402951:	8b 45 d4             	mov    -0x2c(%ebp),%eax
  402954:	01 d0                	add    %edx,%eax
  402956:	8b 00                	mov    (%eax),%eax
  402958:	8b 55 d8             	mov    -0x28(%ebp),%edx
  40295b:	c1 e2 03             	shl    $0x3,%edx
  40295e:	01 d0                	add    %edx,%eax
  402960:	c7 00 00 00 00 00    	movl   $0x0,(%eax)
  402966:	c7 40 04 00 00 00 00 	movl   $0x0,0x4(%eax)
  40296d:	8d 85 24 ff ff ff    	lea    -0xdc(%ebp),%eax
  402973:	89 44 24 08          	mov    %eax,0x8(%esp)
  402977:	8b 45 d8             	mov    -0x28(%ebp),%eax
  40297a:	8b 55 dc             	mov    -0x24(%ebp),%edx
  40297d:	89 04 24             	mov    %eax,(%esp)
  402980:	89 54 24 04          	mov    %edx,0x4(%esp)
  402984:	e8 6c ed ff ff       	call   4016f5 <_getSetBits>
  402989:	c7 45 e4 00 00 00 00 	movl   $0x0,-0x1c(%ebp)
  402990:	e9 8a 00 00 00       	jmp    402a1f <_generateOccupancyVariationBishop+0x1c4>
  402995:	8b 45 e0             	mov    -0x20(%ebp),%eax
  402998:	8d 14 85 00 00 00 00 	lea    0x0(,%eax,4),%edx
  40299f:	8b 45 d4             	mov    -0x2c(%ebp),%eax
  4029a2:	01 d0                	add    %edx,%eax
  4029a4:	8b 00                	mov    (%eax),%eax
  4029a6:	8b 55 d8             	mov    -0x28(%ebp),%edx
  4029a9:	c1 e2 03             	shl    $0x3,%edx
  4029ac:	8d 1c 10             	lea    (%eax,%edx,1),%ebx
  4029af:	8b 45 e0             	mov    -0x20(%ebp),%eax
  4029b2:	8d 14 85 00 00 00 00 	lea    0x0(,%eax,4),%edx
  4029b9:	8b 45 d4             	mov    -0x2c(%ebp),%eax
  4029bc:	01 d0                	add    %edx,%eax
  4029be:	8b 00                	mov    (%eax),%eax
  4029c0:	8b 55 d8             	mov    -0x28(%ebp),%edx
  4029c3:	c1 e2 03             	shl    $0x3,%edx
  4029c6:	01 d0                	add    %edx,%eax
  4029c8:	8b 50 04             	mov    0x4(%eax),%edx
  4029cb:	8b 00                	mov    (%eax),%eax
  4029cd:	89 85 10 ff ff ff    	mov    %eax,-0xf0(%ebp)
  4029d3:	89 95 14 ff ff ff    	mov    %edx,-0xec(%ebp)
  4029d9:	8b 45 e4             	mov    -0x1c(%ebp),%eax
  4029dc:	8b 84 85 24 ff ff ff 	mov    -0xdc(%ebp,%eax,4),%eax
  4029e3:	8b 8c 85 74 ff ff ff 	mov    -0x8c(%ebp,%eax,4),%ecx
  4029ea:	b8 01 00 00 00       	mov    $0x1,%eax
  4029ef:	ba 00 00 00 00       	mov    $0x0,%edx
  4029f4:	0f a5 c2             	shld   %cl,%eax,%edx
  4029f7:	d3 e0                	shl    %cl,%eax
  4029f9:	f6 c1 20             	test   $0x20,%cl
  4029fc:	74 04                	je     402a02 <_generateOccupancyVariationBishop+0x1a7>
  4029fe:	89 c2                	mov    %eax,%edx
  402a00:	31 c0                	xor    %eax,%eax
  402a02:	8b 8d 10 ff ff ff    	mov    -0xf0(%ebp),%ecx
  402a08:	09 c1                	or     %eax,%ecx
  402a0a:	89 ce                	mov    %ecx,%esi
  402a0c:	8b 8d 14 ff ff ff    	mov    -0xec(%ebp),%ecx
  402a12:	09 d1                	or     %edx,%ecx
  402a14:	89 cf                	mov    %ecx,%edi
  402a16:	89 33                	mov    %esi,(%ebx)
  402a18:	89 7b 04             	mov    %edi,0x4(%ebx)
  402a1b:	83 45 e4 01          	addl   $0x1,-0x1c(%ebp)
  402a1f:	8b 45 e4             	mov    -0x1c(%ebp),%eax
  402a22:	8b 84 85 24 ff ff ff 	mov    -0xdc(%ebp,%eax,4),%eax
  402a29:	83 f8 ff             	cmp    $0xffffffff,%eax
  402a2c:	0f 85 63 ff ff ff    	jne    402995 <_generateOccupancyVariationBishop+0x13a>
  402a32:	83 45 d8 01          	addl   $0x1,-0x28(%ebp)
  402a36:	83 55 dc 00          	adcl   $0x0,-0x24(%ebp)
  402a3a:	8b 45 c4             	mov    -0x3c(%ebp),%eax
  402a3d:	99                   	cltd   
  402a3e:	3b 55 dc             	cmp    -0x24(%ebp),%edx
  402a41:	0f 87 00 ff ff ff    	ja     402947 <_generateOccupancyVariationBishop+0xec>
  402a47:	3b 55 dc             	cmp    -0x24(%ebp),%edx
  402a4a:	72 09                	jb     402a55 <_generateOccupancyVariationBishop+0x1fa>
  402a4c:	3b 45 d8             	cmp    -0x28(%ebp),%eax
  402a4f:	0f 87 f2 fe ff ff    	ja     402947 <_generateOccupancyVariationBishop+0xec>
  402a55:	83 45 e0 01          	addl   $0x1,-0x20(%ebp)
  402a59:	83 7d e0 3f          	cmpl   $0x3f,-0x20(%ebp)
  402a5d:	0f 8e 6c fe ff ff    	jle    4028cf <_generateOccupancyVariationBishop+0x74>
  402a63:	8b 45 d4             	mov    -0x2c(%ebp),%eax
  402a66:	81 c4 fc 00 00 00    	add    $0xfc,%esp
  402a6c:	5b                   	pop    %ebx
  402a6d:	5e                   	pop    %esi
  402a6e:	5f                   	pop    %edi
  402a6f:	5d                   	pop    %ebp
  402a70:	c3                   	ret    

00402a71 <_generateMoveDatabaseRook>:
  402a71:	55                   	push   %ebp
  402a72:	89 e5                	mov    %esp,%ebp
  402a74:	57                   	push   %edi
  402a75:	56                   	push   %esi
  402a76:	53                   	push   %ebx
  402a77:	83 ec 6c             	sub    $0x6c,%esp
  402a7a:	e8 a1 b3 00 00       	call   40de20 <_mcount>
  402a7f:	c7 04 24 00 01 00 00 	movl   $0x100,(%esp)
  402a86:	e8 6d af 00 00       	call   40d9f8 <_malloc>
  402a8b:	89 45 d0             	mov    %eax,-0x30(%ebp)
  402a8e:	c7 45 d8 00 00 00 00 	movl   $0x0,-0x28(%ebp)
  402a95:	eb 22                	jmp    402ab9 <_generateMoveDatabaseRook+0x48>
  402a97:	8b 45 d8             	mov    -0x28(%ebp),%eax
  402a9a:	8d 14 85 00 00 00 00 	lea    0x0(,%eax,4),%edx
  402aa1:	8b 45 d0             	mov    -0x30(%ebp),%eax
  402aa4:	8d 1c 02             	lea    (%edx,%eax,1),%ebx
  402aa7:	c7 04 24 00 fd 00 00 	movl   $0xfd00,(%esp)
  402aae:	e8 45 af 00 00       	call   40d9f8 <_malloc>
  402ab3:	89 03                	mov    %eax,(%ebx)
  402ab5:	83 45 d8 01          	addl   $0x1,-0x28(%ebp)
  402ab9:	83 7d d8 3f          	cmpl   $0x3f,-0x28(%ebp)
  402abd:	7e d8                	jle    402a97 <_generateMoveDatabaseRook+0x26>
  402abf:	c7 45 dc 00 00 00 00 	movl   $0x0,-0x24(%ebp)
  402ac6:	e9 4b 03 00 00       	jmp    402e16 <_generateMoveDatabaseRook+0x3a5>
  402acb:	8b 45 08             	mov    0x8(%ebp),%eax
  402ace:	8b 90 98 00 00 00    	mov    0x98(%eax),%edx
  402ad4:	8b 45 dc             	mov    -0x24(%ebp),%eax
  402ad7:	c1 e0 03             	shl    $0x3,%eax
  402ada:	01 d0                	add    %edx,%eax
  402adc:	8b 50 04             	mov    0x4(%eax),%edx
  402adf:	8b 00                	mov    (%eax),%eax
  402ae1:	89 04 24             	mov    %eax,(%esp)
  402ae4:	89 54 24 04          	mov    %edx,0x4(%esp)
  402ae8:	e8 4e eb ff ff       	call   40163b <_countSetBits>
  402aed:	89 45 cc             	mov    %eax,-0x34(%ebp)
  402af0:	8b 4d cc             	mov    -0x34(%ebp),%ecx
  402af3:	b8 01 00 00 00       	mov    $0x1,%eax
  402af8:	ba 00 00 00 00       	mov    $0x0,%edx
  402afd:	0f a5 c2             	shld   %cl,%eax,%edx
  402b00:	d3 e0                	shl    %cl,%eax
  402b02:	f6 c1 20             	test   $0x20,%cl
  402b05:	74 04                	je     402b0b <_generateMoveDatabaseRook+0x9a>
  402b07:	89 c2                	mov    %eax,%edx
  402b09:	31 c0                	xor    %eax,%eax
  402b0b:	89 45 c8             	mov    %eax,-0x38(%ebp)
  402b0e:	c7 45 d8 00 00 00 00 	movl   $0x0,-0x28(%ebp)
  402b15:	e9 ec 02 00 00       	jmp    402e06 <_generateMoveDatabaseRook+0x395>
  402b1a:	c7 45 e0 00 00 00 00 	movl   $0x0,-0x20(%ebp)
  402b21:	c7 45 e4 00 00 00 00 	movl   $0x0,-0x1c(%ebp)
  402b28:	8b 45 08             	mov    0x8(%ebp),%eax
  402b2b:	8b 90 a4 00 00 00    	mov    0xa4(%eax),%edx
  402b31:	8b 45 dc             	mov    -0x24(%ebp),%eax
  402b34:	c1 e0 02             	shl    $0x2,%eax
  402b37:	01 d0                	add    %edx,%eax
  402b39:	8b 10                	mov    (%eax),%edx
  402b3b:	8b 45 d8             	mov    -0x28(%ebp),%eax
  402b3e:	c1 e0 03             	shl    $0x3,%eax
  402b41:	01 d0                	add    %edx,%eax
  402b43:	8b 18                	mov    (%eax),%ebx
  402b45:	8b 70 04             	mov    0x4(%eax),%esi
  402b48:	8b 45 08             	mov    0x8(%ebp),%eax
  402b4b:	8b 90 a0 00 00 00    	mov    0xa0(%eax),%edx
  402b51:	8b 45 dc             	mov    -0x24(%ebp),%eax
  402b54:	c1 e0 03             	shl    $0x3,%eax
  402b57:	01 d0                	add    %edx,%eax
  402b59:	8b 50 04             	mov    0x4(%eax),%edx
  402b5c:	8b 00                	mov    (%eax),%eax
  402b5e:	89 f7                	mov    %esi,%edi
  402b60:	0f af f8             	imul   %eax,%edi
  402b63:	89 d1                	mov    %edx,%ecx
  402b65:	0f af cb             	imul   %ebx,%ecx
  402b68:	01 f9                	add    %edi,%ecx
  402b6a:	f7 e3                	mul    %ebx
  402b6c:	89 c3                	mov    %eax,%ebx
  402b6e:	89 d6                	mov    %edx,%esi
  402b70:	8d 04 31             	lea    (%ecx,%esi,1),%eax
  402b73:	89 c6                	mov    %eax,%esi
  402b75:	8b 45 08             	mov    0x8(%ebp),%eax
  402b78:	8b 90 9c 00 00 00    	mov    0x9c(%eax),%edx
  402b7e:	8b 45 dc             	mov    -0x24(%ebp),%eax
  402b81:	c1 e0 02             	shl    $0x2,%eax
  402b84:	01 d0                	add    %edx,%eax
  402b86:	8b 00                	mov    (%eax),%eax
  402b88:	89 c1                	mov    %eax,%ecx
  402b8a:	0f ad f3             	shrd   %cl,%esi,%ebx
  402b8d:	d3 ee                	shr    %cl,%esi
  402b8f:	f6 c1 20             	test   $0x20,%cl
  402b92:	74 04                	je     402b98 <_generateMoveDatabaseRook+0x127>
  402b94:	89 f3                	mov    %esi,%ebx
  402b96:	31 f6                	xor    %esi,%esi
  402b98:	89 d8                	mov    %ebx,%eax
  402b9a:	89 f2                	mov    %esi,%edx
  402b9c:	89 45 c4             	mov    %eax,-0x3c(%ebp)
  402b9f:	8b 45 dc             	mov    -0x24(%ebp),%eax
  402ba2:	83 c0 08             	add    $0x8,%eax
  402ba5:	89 45 d4             	mov    %eax,-0x2c(%ebp)
  402ba8:	eb 76                	jmp    402c20 <_generateMoveDatabaseRook+0x1af>
  402baa:	8b 4d d4             	mov    -0x2c(%ebp),%ecx
  402bad:	b8 01 00 00 00       	mov    $0x1,%eax
  402bb2:	ba 00 00 00 00       	mov    $0x0,%edx
  402bb7:	0f a5 c2             	shld   %cl,%eax,%edx
  402bba:	d3 e0                	shl    %cl,%eax
  402bbc:	f6 c1 20             	test   $0x20,%cl
  402bbf:	74 04                	je     402bc5 <_generateMoveDatabaseRook+0x154>
  402bc1:	89 c2                	mov    %eax,%edx
  402bc3:	31 c0                	xor    %eax,%eax
  402bc5:	09 45 e0             	or     %eax,-0x20(%ebp)
  402bc8:	09 55 e4             	or     %edx,-0x1c(%ebp)
  402bcb:	8b 45 08             	mov    0x8(%ebp),%eax
  402bce:	8b 90 a4 00 00 00    	mov    0xa4(%eax),%edx
  402bd4:	8b 45 dc             	mov    -0x24(%ebp),%eax
  402bd7:	c1 e0 02             	shl    $0x2,%eax
  402bda:	01 d0                	add    %edx,%eax
  402bdc:	8b 10                	mov    (%eax),%edx
  402bde:	8b 45 d8             	mov    -0x28(%ebp),%eax
  402be1:	c1 e0 03             	shl    $0x3,%eax
  402be4:	01 d0                	add    %edx,%eax
  402be6:	8b 50 04             	mov    0x4(%eax),%edx
  402be9:	8b 00                	mov    (%eax),%eax
  402beb:	8b 4d d4             	mov    -0x2c(%ebp),%ecx
  402bee:	0f ad d0             	shrd   %cl,%edx,%eax
  402bf1:	d3 ea                	shr    %cl,%edx
  402bf3:	f6 c1 20             	test   $0x20,%cl
  402bf6:	74 04                	je     402bfc <_generateMoveDatabaseRook+0x18b>
  402bf8:	89 d0                	mov    %edx,%eax
  402bfa:	31 d2                	xor    %edx,%edx
  402bfc:	89 c3                	mov    %eax,%ebx
  402bfe:	83 e3 01             	and    $0x1,%ebx
  402c01:	89 5d b0             	mov    %ebx,-0x50(%ebp)
  402c04:	89 d0                	mov    %edx,%eax
  402c06:	83 e0 00             	and    $0x0,%eax
  402c09:	89 45 b4             	mov    %eax,-0x4c(%ebp)
  402c0c:	8b 75 b0             	mov    -0x50(%ebp),%esi
  402c0f:	8b 7d b4             	mov    -0x4c(%ebp),%edi
  402c12:	89 f8                	mov    %edi,%eax
  402c14:	09 f0                	or     %esi,%eax
  402c16:	85 c0                	test   %eax,%eax
  402c18:	74 02                	je     402c1c <_generateMoveDatabaseRook+0x1ab>
  402c1a:	eb 0a                	jmp    402c26 <_generateMoveDatabaseRook+0x1b5>
  402c1c:	83 45 d4 08          	addl   $0x8,-0x2c(%ebp)
  402c20:	83 7d d4 3f          	cmpl   $0x3f,-0x2c(%ebp)
  402c24:	7e 84                	jle    402baa <_generateMoveDatabaseRook+0x139>
  402c26:	8b 45 dc             	mov    -0x24(%ebp),%eax
  402c29:	83 e8 08             	sub    $0x8,%eax
  402c2c:	89 45 d4             	mov    %eax,-0x2c(%ebp)
  402c2f:	eb 76                	jmp    402ca7 <_generateMoveDatabaseRook+0x236>
  402c31:	8b 4d d4             	mov    -0x2c(%ebp),%ecx
  402c34:	b8 01 00 00 00       	mov    $0x1,%eax
  402c39:	ba 00 00 00 00       	mov    $0x0,%edx
  402c3e:	0f a5 c2             	shld   %cl,%eax,%edx
  402c41:	d3 e0                	shl    %cl,%eax
  402c43:	f6 c1 20             	test   $0x20,%cl
  402c46:	74 04                	je     402c4c <_generateMoveDatabaseRook+0x1db>
  402c48:	89 c2                	mov    %eax,%edx
  402c4a:	31 c0                	xor    %eax,%eax
  402c4c:	09 45 e0             	or     %eax,-0x20(%ebp)
  402c4f:	09 55 e4             	or     %edx,-0x1c(%ebp)
  402c52:	8b 45 08             	mov    0x8(%ebp),%eax
  402c55:	8b 90 a4 00 00 00    	mov    0xa4(%eax),%edx
  402c5b:	8b 45 dc             	mov    -0x24(%ebp),%eax
  402c5e:	c1 e0 02             	shl    $0x2,%eax
  402c61:	01 d0                	add    %edx,%eax
  402c63:	8b 10                	mov    (%eax),%edx
  402c65:	8b 45 d8             	mov    -0x28(%ebp),%eax
  402c68:	c1 e0 03             	shl    $0x3,%eax
  402c6b:	01 d0                	add    %edx,%eax
  402c6d:	8b 50 04             	mov    0x4(%eax),%edx
  402c70:	8b 00                	mov    (%eax),%eax
  402c72:	8b 4d d4             	mov    -0x2c(%ebp),%ecx
  402c75:	0f ad d0             	shrd   %cl,%edx,%eax
  402c78:	d3 ea                	shr    %cl,%edx
  402c7a:	f6 c1 20             	test   $0x20,%cl
  402c7d:	74 04                	je     402c83 <_generateMoveDatabaseRook+0x212>
  402c7f:	89 d0                	mov    %edx,%eax
  402c81:	31 d2                	xor    %edx,%edx
  402c83:	89 c6                	mov    %eax,%esi
  402c85:	83 e6 01             	and    $0x1,%esi
  402c88:	89 75 a8             	mov    %esi,-0x58(%ebp)
  402c8b:	89 d0                	mov    %edx,%eax
  402c8d:	83 e0 00             	and    $0x0,%eax
  402c90:	89 45 ac             	mov    %eax,-0x54(%ebp)
  402c93:	8b 75 a8             	mov    -0x58(%ebp),%esi
  402c96:	8b 7d ac             	mov    -0x54(%ebp),%edi
  402c99:	89 f8                	mov    %edi,%eax
  402c9b:	09 f0                	or     %esi,%eax
  402c9d:	85 c0                	test   %eax,%eax
  402c9f:	74 02                	je     402ca3 <_generateMoveDatabaseRook+0x232>
  402ca1:	eb 0a                	jmp    402cad <_generateMoveDatabaseRook+0x23c>
  402ca3:	83 6d d4 08          	subl   $0x8,-0x2c(%ebp)
  402ca7:	83 7d d4 00          	cmpl   $0x0,-0x2c(%ebp)
  402cab:	79 84                	jns    402c31 <_generateMoveDatabaseRook+0x1c0>
  402cad:	8b 45 dc             	mov    -0x24(%ebp),%eax
  402cb0:	83 c0 01             	add    $0x1,%eax
  402cb3:	89 45 d4             	mov    %eax,-0x2c(%ebp)
  402cb6:	eb 76                	jmp    402d2e <_generateMoveDatabaseRook+0x2bd>
  402cb8:	8b 4d d4             	mov    -0x2c(%ebp),%ecx
  402cbb:	b8 01 00 00 00       	mov    $0x1,%eax
  402cc0:	ba 00 00 00 00       	mov    $0x0,%edx
  402cc5:	0f a5 c2             	shld   %cl,%eax,%edx
  402cc8:	d3 e0                	shl    %cl,%eax
  402cca:	f6 c1 20             	test   $0x20,%cl
  402ccd:	74 04                	je     402cd3 <_generateMoveDatabaseRook+0x262>
  402ccf:	89 c2                	mov    %eax,%edx
  402cd1:	31 c0                	xor    %eax,%eax
  402cd3:	09 45 e0             	or     %eax,-0x20(%ebp)
  402cd6:	09 55 e4             	or     %edx,-0x1c(%ebp)
  402cd9:	8b 45 08             	mov    0x8(%ebp),%eax
  402cdc:	8b 90 a4 00 00 00    	mov    0xa4(%eax),%edx
  402ce2:	8b 45 dc             	mov    -0x24(%ebp),%eax
  402ce5:	c1 e0 02             	shl    $0x2,%eax
  402ce8:	01 d0                	add    %edx,%eax
  402cea:	8b 10                	mov    (%eax),%edx
  402cec:	8b 45 d8             	mov    -0x28(%ebp),%eax
  402cef:	c1 e0 03             	shl    $0x3,%eax
  402cf2:	01 d0                	add    %edx,%eax
  402cf4:	8b 50 04             	mov    0x4(%eax),%edx
  402cf7:	8b 00                	mov    (%eax),%eax
  402cf9:	8b 4d d4             	mov    -0x2c(%ebp),%ecx
  402cfc:	0f ad d0             	shrd   %cl,%edx,%eax
  402cff:	d3 ea                	shr    %cl,%edx
  402d01:	f6 c1 20             	test   $0x20,%cl
  402d04:	74 04                	je     402d0a <_generateMoveDatabaseRook+0x299>
  402d06:	89 d0                	mov    %edx,%eax
  402d08:	31 d2                	xor    %edx,%edx
  402d0a:	89 c3                	mov    %eax,%ebx
  402d0c:	83 e3 01             	and    $0x1,%ebx
  402d0f:	89 5d a0             	mov    %ebx,-0x60(%ebp)
  402d12:	89 d0                	mov    %edx,%eax
  402d14:	83 e0 00             	and    $0x0,%eax
  402d17:	89 45 a4             	mov    %eax,-0x5c(%ebp)
  402d1a:	8b 75 a0             	mov    -0x60(%ebp),%esi
  402d1d:	8b 7d a4             	mov    -0x5c(%ebp),%edi
  402d20:	89 f8                	mov    %edi,%eax
  402d22:	09 f0                	or     %esi,%eax
  402d24:	85 c0                	test   %eax,%eax
  402d26:	74 02                	je     402d2a <_generateMoveDatabaseRook+0x2b9>
  402d28:	eb 0e                	jmp    402d38 <_generateMoveDatabaseRook+0x2c7>
  402d2a:	83 45 d4 01          	addl   $0x1,-0x2c(%ebp)
  402d2e:	8b 45 d4             	mov    -0x2c(%ebp),%eax
  402d31:	83 e0 07             	and    $0x7,%eax
  402d34:	85 c0                	test   %eax,%eax
  402d36:	75 80                	jne    402cb8 <_generateMoveDatabaseRook+0x247>
  402d38:	8b 45 dc             	mov    -0x24(%ebp),%eax
  402d3b:	83 e8 01             	sub    $0x1,%eax
  402d3e:	89 45 d4             	mov    %eax,-0x2c(%ebp)
  402d41:	eb 76                	jmp    402db9 <_generateMoveDatabaseRook+0x348>
  402d43:	8b 4d d4             	mov    -0x2c(%ebp),%ecx
  402d46:	b8 01 00 00 00       	mov    $0x1,%eax
  402d4b:	ba 00 00 00 00       	mov    $0x0,%edx
  402d50:	0f a5 c2             	shld   %cl,%eax,%edx
  402d53:	d3 e0                	shl    %cl,%eax
  402d55:	f6 c1 20             	test   $0x20,%cl
  402d58:	74 04                	je     402d5e <_generateMoveDatabaseRook+0x2ed>
  402d5a:	89 c2                	mov    %eax,%edx
  402d5c:	31 c0                	xor    %eax,%eax
  402d5e:	09 45 e0             	or     %eax,-0x20(%ebp)
  402d61:	09 55 e4             	or     %edx,-0x1c(%ebp)
  402d64:	8b 45 08             	mov    0x8(%ebp),%eax
  402d67:	8b 90 a4 00 00 00    	mov    0xa4(%eax),%edx
  402d6d:	8b 45 dc             	mov    -0x24(%ebp),%eax
  402d70:	c1 e0 02             	shl    $0x2,%eax
  402d73:	01 d0                	add    %edx,%eax
  402d75:	8b 10                	mov    (%eax),%edx
  402d77:	8b 45 d8             	mov    -0x28(%ebp),%eax
  402d7a:	c1 e0 03             	shl    $0x3,%eax
  402d7d:	01 d0                	add    %edx,%eax
  402d7f:	8b 50 04             	mov    0x4(%eax),%edx
  402d82:	8b 00                	mov    (%eax),%eax
  402d84:	8b 4d d4             	mov    -0x2c(%ebp),%ecx
  402d87:	0f ad d0             	shrd   %cl,%edx,%eax
  402d8a:	d3 ea                	shr    %cl,%edx
  402d8c:	f6 c1 20             	test   $0x20,%cl
  402d8f:	74 04                	je     402d95 <_generateMoveDatabaseRook+0x324>
  402d91:	89 d0                	mov    %edx,%eax
  402d93:	31 d2                	xor    %edx,%edx
  402d95:	89 c7                	mov    %eax,%edi
  402d97:	83 e7 01             	and    $0x1,%edi
  402d9a:	89 7d 98             	mov    %edi,-0x68(%ebp)
  402d9d:	89 d0                	mov    %edx,%eax
  402d9f:	83 e0 00             	and    $0x0,%eax
  402da2:	89 45 9c             	mov    %eax,-0x64(%ebp)
  402da5:	8b 75 98             	mov    -0x68(%ebp),%esi
  402da8:	8b 7d 9c             	mov    -0x64(%ebp),%edi
  402dab:	89 f8                	mov    %edi,%eax
  402dad:	09 f0                	or     %esi,%eax
  402daf:	85 c0                	test   %eax,%eax
  402db1:	74 02                	je     402db5 <_generateMoveDatabaseRook+0x344>
  402db3:	eb 28                	jmp    402ddd <_generateMoveDatabaseRook+0x36c>
  402db5:	83 6d d4 01          	subl   $0x1,-0x2c(%ebp)
  402db9:	8b 55 d4             	mov    -0x2c(%ebp),%edx
  402dbc:	89 d0                	mov    %edx,%eax
  402dbe:	c1 f8 1f             	sar    $0x1f,%eax
  402dc1:	c1 e8 1d             	shr    $0x1d,%eax
  402dc4:	89 c1                	mov    %eax,%ecx
  402dc6:	8d 04 0a             	lea    (%edx,%ecx,1),%eax
  402dc9:	83 e0 07             	and    $0x7,%eax
  402dcc:	29 c8                	sub    %ecx,%eax
  402dce:	83 f8 07             	cmp    $0x7,%eax
  402dd1:	74 0a                	je     402ddd <_generateMoveDatabaseRook+0x36c>
  402dd3:	83 7d d4 00          	cmpl   $0x0,-0x2c(%ebp)
  402dd7:	0f 89 66 ff ff ff    	jns    402d43 <_generateMoveDatabaseRook+0x2d2>
  402ddd:	8b 45 dc             	mov    -0x24(%ebp),%eax
  402de0:	8d 14 85 00 00 00 00 	lea    0x0(,%eax,4),%edx
  402de7:	8b 45 d0             	mov    -0x30(%ebp),%eax
  402dea:	01 d0                	add    %edx,%eax
  402dec:	8b 10                	mov    (%eax),%edx
  402dee:	8b 45 c4             	mov    -0x3c(%ebp),%eax
  402df1:	c1 e0 03             	shl    $0x3,%eax
  402df4:	8d 0c 02             	lea    (%edx,%eax,1),%ecx
  402df7:	8b 45 e0             	mov    -0x20(%ebp),%eax
  402dfa:	8b 55 e4             	mov    -0x1c(%ebp),%edx
  402dfd:	89 01                	mov    %eax,(%ecx)
  402dff:	89 51 04             	mov    %edx,0x4(%ecx)
  402e02:	83 45 d8 01          	addl   $0x1,-0x28(%ebp)
  402e06:	8b 45 d8             	mov    -0x28(%ebp),%eax
  402e09:	3b 45 c8             	cmp    -0x38(%ebp),%eax
  402e0c:	0f 8c 08 fd ff ff    	jl     402b1a <_generateMoveDatabaseRook+0xa9>
  402e12:	83 45 dc 01          	addl   $0x1,-0x24(%ebp)
  402e16:	83 7d dc 3f          	cmpl   $0x3f,-0x24(%ebp)
  402e1a:	0f 8e ab fc ff ff    	jle    402acb <_generateMoveDatabaseRook+0x5a>
  402e20:	8b 45 d0             	mov    -0x30(%ebp),%eax
  402e23:	83 c4 6c             	add    $0x6c,%esp
  402e26:	5b                   	pop    %ebx
  402e27:	5e                   	pop    %esi
  402e28:	5f                   	pop    %edi
  402e29:	5d                   	pop    %ebp
  402e2a:	c3                   	ret    

00402e2b <_generateMoveDatabaseBishop>:
  402e2b:	55                   	push   %ebp
  402e2c:	89 e5                	mov    %esp,%ebp
  402e2e:	57                   	push   %edi
  402e2f:	56                   	push   %esi
  402e30:	53                   	push   %ebx
  402e31:	83 ec 6c             	sub    $0x6c,%esp
  402e34:	e8 e7 af 00 00       	call   40de20 <_mcount>
  402e39:	c7 04 24 00 01 00 00 	movl   $0x100,(%esp)
  402e40:	e8 b3 ab 00 00       	call   40d9f8 <_malloc>
  402e45:	89 45 d0             	mov    %eax,-0x30(%ebp)
  402e48:	c7 45 d8 00 00 00 00 	movl   $0x0,-0x28(%ebp)
  402e4f:	eb 22                	jmp    402e73 <_generateMoveDatabaseBishop+0x48>
  402e51:	8b 45 d8             	mov    -0x28(%ebp),%eax
  402e54:	8d 14 85 00 00 00 00 	lea    0x0(,%eax,4),%edx
  402e5b:	8b 45 d0             	mov    -0x30(%ebp),%eax
  402e5e:	8d 1c 02             	lea    (%edx,%eax,1),%ebx
  402e61:	c7 04 24 00 fd 00 00 	movl   $0xfd00,(%esp)
  402e68:	e8 8b ab 00 00       	call   40d9f8 <_malloc>
  402e6d:	89 03                	mov    %eax,(%ebx)
  402e6f:	83 45 d8 01          	addl   $0x1,-0x28(%ebp)
  402e73:	83 7d d8 3f          	cmpl   $0x3f,-0x28(%ebp)
  402e77:	7e d8                	jle    402e51 <_generateMoveDatabaseBishop+0x26>
  402e79:	c7 45 dc 00 00 00 00 	movl   $0x0,-0x24(%ebp)
  402e80:	e9 81 03 00 00       	jmp    403206 <_generateMoveDatabaseBishop+0x3db>
  402e85:	8b 45 08             	mov    0x8(%ebp),%eax
  402e88:	8b 90 ac 00 00 00    	mov    0xac(%eax),%edx
  402e8e:	8b 45 dc             	mov    -0x24(%ebp),%eax
  402e91:	c1 e0 03             	shl    $0x3,%eax
  402e94:	01 d0                	add    %edx,%eax
  402e96:	8b 50 04             	mov    0x4(%eax),%edx
  402e99:	8b 00                	mov    (%eax),%eax
  402e9b:	89 04 24             	mov    %eax,(%esp)
  402e9e:	89 54 24 04          	mov    %edx,0x4(%esp)
  402ea2:	e8 94 e7 ff ff       	call   40163b <_countSetBits>
  402ea7:	89 45 cc             	mov    %eax,-0x34(%ebp)
  402eaa:	8b 4d cc             	mov    -0x34(%ebp),%ecx
  402ead:	b8 01 00 00 00       	mov    $0x1,%eax
  402eb2:	ba 00 00 00 00       	mov    $0x0,%edx
  402eb7:	0f a5 c2             	shld   %cl,%eax,%edx
  402eba:	d3 e0                	shl    %cl,%eax
  402ebc:	f6 c1 20             	test   $0x20,%cl
  402ebf:	74 04                	je     402ec5 <_generateMoveDatabaseBishop+0x9a>
  402ec1:	89 c2                	mov    %eax,%edx
  402ec3:	31 c0                	xor    %eax,%eax
  402ec5:	89 45 c8             	mov    %eax,-0x38(%ebp)
  402ec8:	c7 45 d8 00 00 00 00 	movl   $0x0,-0x28(%ebp)
  402ecf:	e9 22 03 00 00       	jmp    4031f6 <_generateMoveDatabaseBishop+0x3cb>
  402ed4:	c7 45 e0 00 00 00 00 	movl   $0x0,-0x20(%ebp)
  402edb:	c7 45 e4 00 00 00 00 	movl   $0x0,-0x1c(%ebp)
  402ee2:	8b 45 08             	mov    0x8(%ebp),%eax
  402ee5:	8b 90 b8 00 00 00    	mov    0xb8(%eax),%edx
  402eeb:	8b 45 dc             	mov    -0x24(%ebp),%eax
  402eee:	c1 e0 02             	shl    $0x2,%eax
  402ef1:	01 d0                	add    %edx,%eax
  402ef3:	8b 10                	mov    (%eax),%edx
  402ef5:	8b 45 d8             	mov    -0x28(%ebp),%eax
  402ef8:	c1 e0 03             	shl    $0x3,%eax
  402efb:	01 d0                	add    %edx,%eax
  402efd:	8b 18                	mov    (%eax),%ebx
  402eff:	8b 70 04             	mov    0x4(%eax),%esi
  402f02:	8b 45 08             	mov    0x8(%ebp),%eax
  402f05:	8b 90 b4 00 00 00    	mov    0xb4(%eax),%edx
  402f0b:	8b 45 dc             	mov    -0x24(%ebp),%eax
  402f0e:	c1 e0 03             	shl    $0x3,%eax
  402f11:	01 d0                	add    %edx,%eax
  402f13:	8b 50 04             	mov    0x4(%eax),%edx
  402f16:	8b 00                	mov    (%eax),%eax
  402f18:	89 f7                	mov    %esi,%edi
  402f1a:	0f af f8             	imul   %eax,%edi
  402f1d:	89 d1                	mov    %edx,%ecx
  402f1f:	0f af cb             	imul   %ebx,%ecx
  402f22:	01 f9                	add    %edi,%ecx
  402f24:	f7 e3                	mul    %ebx
  402f26:	89 c3                	mov    %eax,%ebx
  402f28:	89 d6                	mov    %edx,%esi
  402f2a:	8d 04 31             	lea    (%ecx,%esi,1),%eax
  402f2d:	89 c6                	mov    %eax,%esi
  402f2f:	8b 45 08             	mov    0x8(%ebp),%eax
  402f32:	8b 90 b0 00 00 00    	mov    0xb0(%eax),%edx
  402f38:	8b 45 dc             	mov    -0x24(%ebp),%eax
  402f3b:	c1 e0 02             	shl    $0x2,%eax
  402f3e:	01 d0                	add    %edx,%eax
  402f40:	8b 00                	mov    (%eax),%eax
  402f42:	89 c1                	mov    %eax,%ecx
  402f44:	0f ad f3             	shrd   %cl,%esi,%ebx
  402f47:	d3 ee                	shr    %cl,%esi
  402f49:	f6 c1 20             	test   $0x20,%cl
  402f4c:	74 04                	je     402f52 <_generateMoveDatabaseBishop+0x127>
  402f4e:	89 f3                	mov    %esi,%ebx
  402f50:	31 f6                	xor    %esi,%esi
  402f52:	89 d8                	mov    %ebx,%eax
  402f54:	89 f2                	mov    %esi,%edx
  402f56:	89 45 c4             	mov    %eax,-0x3c(%ebp)
  402f59:	8b 45 dc             	mov    -0x24(%ebp),%eax
  402f5c:	83 c0 09             	add    $0x9,%eax
  402f5f:	89 45 d4             	mov    %eax,-0x2c(%ebp)
  402f62:	eb 76                	jmp    402fda <_generateMoveDatabaseBishop+0x1af>
  402f64:	8b 4d d4             	mov    -0x2c(%ebp),%ecx
  402f67:	b8 01 00 00 00       	mov    $0x1,%eax
  402f6c:	ba 00 00 00 00       	mov    $0x0,%edx
  402f71:	0f a5 c2             	shld   %cl,%eax,%edx
  402f74:	d3 e0                	shl    %cl,%eax
  402f76:	f6 c1 20             	test   $0x20,%cl
  402f79:	74 04                	je     402f7f <_generateMoveDatabaseBishop+0x154>
  402f7b:	89 c2                	mov    %eax,%edx
  402f7d:	31 c0                	xor    %eax,%eax
  402f7f:	09 45 e0             	or     %eax,-0x20(%ebp)
  402f82:	09 55 e4             	or     %edx,-0x1c(%ebp)
  402f85:	8b 45 08             	mov    0x8(%ebp),%eax
  402f88:	8b 90 b8 00 00 00    	mov    0xb8(%eax),%edx
  402f8e:	8b 45 dc             	mov    -0x24(%ebp),%eax
  402f91:	c1 e0 02             	shl    $0x2,%eax
  402f94:	01 d0                	add    %edx,%eax
  402f96:	8b 10                	mov    (%eax),%edx
  402f98:	8b 45 d8             	mov    -0x28(%ebp),%eax
  402f9b:	c1 e0 03             	shl    $0x3,%eax
  402f9e:	01 d0                	add    %edx,%eax
  402fa0:	8b 50 04             	mov    0x4(%eax),%edx
  402fa3:	8b 00                	mov    (%eax),%eax
  402fa5:	8b 4d d4             	mov    -0x2c(%ebp),%ecx
  402fa8:	0f ad d0             	shrd   %cl,%edx,%eax
  402fab:	d3 ea                	shr    %cl,%edx
  402fad:	f6 c1 20             	test   $0x20,%cl
  402fb0:	74 04                	je     402fb6 <_generateMoveDatabaseBishop+0x18b>
  402fb2:	89 d0                	mov    %edx,%eax
  402fb4:	31 d2                	xor    %edx,%edx
  402fb6:	89 c3                	mov    %eax,%ebx
  402fb8:	83 e3 01             	and    $0x1,%ebx
  402fbb:	89 5d b0             	mov    %ebx,-0x50(%ebp)
  402fbe:	89 d0                	mov    %edx,%eax
  402fc0:	83 e0 00             	and    $0x0,%eax
  402fc3:	89 45 b4             	mov    %eax,-0x4c(%ebp)
  402fc6:	8b 75 b0             	mov    -0x50(%ebp),%esi
  402fc9:	8b 7d b4             	mov    -0x4c(%ebp),%edi
  402fcc:	89 f8                	mov    %edi,%eax
  402fce:	09 f0                	or     %esi,%eax
  402fd0:	85 c0                	test   %eax,%eax
  402fd2:	74 02                	je     402fd6 <_generateMoveDatabaseBishop+0x1ab>
  402fd4:	eb 18                	jmp    402fee <_generateMoveDatabaseBishop+0x1c3>
  402fd6:	83 45 d4 09          	addl   $0x9,-0x2c(%ebp)
  402fda:	8b 45 d4             	mov    -0x2c(%ebp),%eax
  402fdd:	83 e0 07             	and    $0x7,%eax
  402fe0:	85 c0                	test   %eax,%eax
  402fe2:	74 0a                	je     402fee <_generateMoveDatabaseBishop+0x1c3>
  402fe4:	83 7d d4 3f          	cmpl   $0x3f,-0x2c(%ebp)
  402fe8:	0f 8e 76 ff ff ff    	jle    402f64 <_generateMoveDatabaseBishop+0x139>
  402fee:	8b 45 dc             	mov    -0x24(%ebp),%eax
  402ff1:	83 e8 09             	sub    $0x9,%eax
  402ff4:	89 45 d4             	mov    %eax,-0x2c(%ebp)
  402ff7:	eb 76                	jmp    40306f <_generateMoveDatabaseBishop+0x244>
  402ff9:	8b 4d d4             	mov    -0x2c(%ebp),%ecx
  402ffc:	b8 01 00 00 00       	mov    $0x1,%eax
  403001:	ba 00 00 00 00       	mov    $0x0,%edx
  403006:	0f a5 c2             	shld   %cl,%eax,%edx
  403009:	d3 e0                	shl    %cl,%eax
  40300b:	f6 c1 20             	test   $0x20,%cl
  40300e:	74 04                	je     403014 <_generateMoveDatabaseBishop+0x1e9>
  403010:	89 c2                	mov    %eax,%edx
  403012:	31 c0                	xor    %eax,%eax
  403014:	09 45 e0             	or     %eax,-0x20(%ebp)
  403017:	09 55 e4             	or     %edx,-0x1c(%ebp)
  40301a:	8b 45 08             	mov    0x8(%ebp),%eax
  40301d:	8b 90 b8 00 00 00    	mov    0xb8(%eax),%edx
  403023:	8b 45 dc             	mov    -0x24(%ebp),%eax
  403026:	c1 e0 02             	shl    $0x2,%eax
  403029:	01 d0                	add    %edx,%eax
  40302b:	8b 10                	mov    (%eax),%edx
  40302d:	8b 45 d8             	mov    -0x28(%ebp),%eax
  403030:	c1 e0 03             	shl    $0x3,%eax
  403033:	01 d0                	add    %edx,%eax
  403035:	8b 50 04             	mov    0x4(%eax),%edx
  403038:	8b 00                	mov    (%eax),%eax
  40303a:	8b 4d d4             	mov    -0x2c(%ebp),%ecx
  40303d:	0f ad d0             	shrd   %cl,%edx,%eax
  403040:	d3 ea                	shr    %cl,%edx
  403042:	f6 c1 20             	test   $0x20,%cl
  403045:	74 04                	je     40304b <_generateMoveDatabaseBishop+0x220>
  403047:	89 d0                	mov    %edx,%eax
  403049:	31 d2                	xor    %edx,%edx
  40304b:	89 c6                	mov    %eax,%esi
  40304d:	83 e6 01             	and    $0x1,%esi
  403050:	89 75 a8             	mov    %esi,-0x58(%ebp)
  403053:	89 d0                	mov    %edx,%eax
  403055:	83 e0 00             	and    $0x0,%eax
  403058:	89 45 ac             	mov    %eax,-0x54(%ebp)
  40305b:	8b 75 a8             	mov    -0x58(%ebp),%esi
  40305e:	8b 7d ac             	mov    -0x54(%ebp),%edi
  403061:	89 f8                	mov    %edi,%eax
  403063:	09 f0                	or     %esi,%eax
  403065:	85 c0                	test   %eax,%eax
  403067:	74 02                	je     40306b <_generateMoveDatabaseBishop+0x240>
  403069:	eb 28                	jmp    403093 <_generateMoveDatabaseBishop+0x268>
  40306b:	83 6d d4 09          	subl   $0x9,-0x2c(%ebp)
  40306f:	8b 55 d4             	mov    -0x2c(%ebp),%edx
  403072:	89 d0                	mov    %edx,%eax
  403074:	c1 f8 1f             	sar    $0x1f,%eax
  403077:	c1 e8 1d             	shr    $0x1d,%eax
  40307a:	89 c1                	mov    %eax,%ecx
  40307c:	8d 04 0a             	lea    (%edx,%ecx,1),%eax
  40307f:	83 e0 07             	and    $0x7,%eax
  403082:	29 c8                	sub    %ecx,%eax
  403084:	83 f8 07             	cmp    $0x7,%eax
  403087:	74 0a                	je     403093 <_generateMoveDatabaseBishop+0x268>
  403089:	83 7d d4 00          	cmpl   $0x0,-0x2c(%ebp)
  40308d:	0f 89 66 ff ff ff    	jns    402ff9 <_generateMoveDatabaseBishop+0x1ce>
  403093:	8b 45 dc             	mov    -0x24(%ebp),%eax
  403096:	83 c0 07             	add    $0x7,%eax
  403099:	89 45 d4             	mov    %eax,-0x2c(%ebp)
  40309c:	eb 76                	jmp    403114 <_generateMoveDatabaseBishop+0x2e9>
  40309e:	8b 4d d4             	mov    -0x2c(%ebp),%ecx
  4030a1:	b8 01 00 00 00       	mov    $0x1,%eax
  4030a6:	ba 00 00 00 00       	mov    $0x0,%edx
  4030ab:	0f a5 c2             	shld   %cl,%eax,%edx
  4030ae:	d3 e0                	shl    %cl,%eax
  4030b0:	f6 c1 20             	test   $0x20,%cl
  4030b3:	74 04                	je     4030b9 <_generateMoveDatabaseBishop+0x28e>
  4030b5:	89 c2                	mov    %eax,%edx
  4030b7:	31 c0                	xor    %eax,%eax
  4030b9:	09 45 e0             	or     %eax,-0x20(%ebp)
  4030bc:	09 55 e4             	or     %edx,-0x1c(%ebp)
  4030bf:	8b 45 08             	mov    0x8(%ebp),%eax
  4030c2:	8b 90 b8 00 00 00    	mov    0xb8(%eax),%edx
  4030c8:	8b 45 dc             	mov    -0x24(%ebp),%eax
  4030cb:	c1 e0 02             	shl    $0x2,%eax
  4030ce:	01 d0                	add    %edx,%eax
  4030d0:	8b 10                	mov    (%eax),%edx
  4030d2:	8b 45 d8             	mov    -0x28(%ebp),%eax
  4030d5:	c1 e0 03             	shl    $0x3,%eax
  4030d8:	01 d0                	add    %edx,%eax
  4030da:	8b 50 04             	mov    0x4(%eax),%edx
  4030dd:	8b 00                	mov    (%eax),%eax
  4030df:	8b 4d d4             	mov    -0x2c(%ebp),%ecx
  4030e2:	0f ad d0             	shrd   %cl,%edx,%eax
  4030e5:	d3 ea                	shr    %cl,%edx
  4030e7:	f6 c1 20             	test   $0x20,%cl
  4030ea:	74 04                	je     4030f0 <_generateMoveDatabaseBishop+0x2c5>
  4030ec:	89 d0                	mov    %edx,%eax
  4030ee:	31 d2                	xor    %edx,%edx
  4030f0:	89 c3                	mov    %eax,%ebx
  4030f2:	83 e3 01             	and    $0x1,%ebx
  4030f5:	89 5d a0             	mov    %ebx,-0x60(%ebp)
  4030f8:	89 d0                	mov    %edx,%eax
  4030fa:	83 e0 00             	and    $0x0,%eax
  4030fd:	89 45 a4             	mov    %eax,-0x5c(%ebp)
  403100:	8b 75 a0             	mov    -0x60(%ebp),%esi
  403103:	8b 7d a4             	mov    -0x5c(%ebp),%edi
  403106:	89 f8                	mov    %edi,%eax
  403108:	09 f0                	or     %esi,%eax
  40310a:	85 c0                	test   %eax,%eax
  40310c:	74 02                	je     403110 <_generateMoveDatabaseBishop+0x2e5>
  40310e:	eb 28                	jmp    403138 <_generateMoveDatabaseBishop+0x30d>
  403110:	83 45 d4 07          	addl   $0x7,-0x2c(%ebp)
  403114:	8b 55 d4             	mov    -0x2c(%ebp),%edx
  403117:	89 d0                	mov    %edx,%eax
  403119:	c1 f8 1f             	sar    $0x1f,%eax
  40311c:	c1 e8 1d             	shr    $0x1d,%eax
  40311f:	89 c1                	mov    %eax,%ecx
  403121:	8d 04 0a             	lea    (%edx,%ecx,1),%eax
  403124:	83 e0 07             	and    $0x7,%eax
  403127:	29 c8                	sub    %ecx,%eax
  403129:	83 f8 07             	cmp    $0x7,%eax
  40312c:	74 0a                	je     403138 <_generateMoveDatabaseBishop+0x30d>
  40312e:	83 7d d4 3f          	cmpl   $0x3f,-0x2c(%ebp)
  403132:	0f 8e 66 ff ff ff    	jle    40309e <_generateMoveDatabaseBishop+0x273>
  403138:	8b 45 dc             	mov    -0x24(%ebp),%eax
  40313b:	83 e8 07             	sub    $0x7,%eax
  40313e:	89 45 d4             	mov    %eax,-0x2c(%ebp)
  403141:	eb 76                	jmp    4031b9 <_generateMoveDatabaseBishop+0x38e>
  403143:	8b 4d d4             	mov    -0x2c(%ebp),%ecx
  403146:	b8 01 00 00 00       	mov    $0x1,%eax
  40314b:	ba 00 00 00 00       	mov    $0x0,%edx
  403150:	0f a5 c2             	shld   %cl,%eax,%edx
  403153:	d3 e0                	shl    %cl,%eax
  403155:	f6 c1 20             	test   $0x20,%cl
  403158:	74 04                	je     40315e <_generateMoveDatabaseBishop+0x333>
  40315a:	89 c2                	mov    %eax,%edx
  40315c:	31 c0                	xor    %eax,%eax
  40315e:	09 45 e0             	or     %eax,-0x20(%ebp)
  403161:	09 55 e4             	or     %edx,-0x1c(%ebp)
  403164:	8b 45 08             	mov    0x8(%ebp),%eax
  403167:	8b 90 b8 00 00 00    	mov    0xb8(%eax),%edx
  40316d:	8b 45 dc             	mov    -0x24(%ebp),%eax
  403170:	c1 e0 02             	shl    $0x2,%eax
  403173:	01 d0                	add    %edx,%eax
  403175:	8b 10                	mov    (%eax),%edx
  403177:	8b 45 d8             	mov    -0x28(%ebp),%eax
  40317a:	c1 e0 03             	shl    $0x3,%eax
  40317d:	01 d0                	add    %edx,%eax
  40317f:	8b 50 04             	mov    0x4(%eax),%edx
  403182:	8b 00                	mov    (%eax),%eax
  403184:	8b 4d d4             	mov    -0x2c(%ebp),%ecx
  403187:	0f ad d0             	shrd   %cl,%edx,%eax
  40318a:	d3 ea                	shr    %cl,%edx
  40318c:	f6 c1 20             	test   $0x20,%cl
  40318f:	74 04                	je     403195 <_generateMoveDatabaseBishop+0x36a>
  403191:	89 d0                	mov    %edx,%eax
  403193:	31 d2                	xor    %edx,%edx
  403195:	89 c7                	mov    %eax,%edi
  403197:	83 e7 01             	and    $0x1,%edi
  40319a:	89 7d 98             	mov    %edi,-0x68(%ebp)
  40319d:	89 d0                	mov    %edx,%eax
  40319f:	83 e0 00             	and    $0x0,%eax
  4031a2:	89 45 9c             	mov    %eax,-0x64(%ebp)
  4031a5:	8b 75 98             	mov    -0x68(%ebp),%esi
  4031a8:	8b 7d 9c             	mov    -0x64(%ebp),%edi
  4031ab:	89 f8                	mov    %edi,%eax
  4031ad:	09 f0                	or     %esi,%eax
  4031af:	85 c0                	test   %eax,%eax
  4031b1:	74 02                	je     4031b5 <_generateMoveDatabaseBishop+0x38a>
  4031b3:	eb 18                	jmp    4031cd <_generateMoveDatabaseBishop+0x3a2>
  4031b5:	83 6d d4 07          	subl   $0x7,-0x2c(%ebp)
  4031b9:	8b 45 d4             	mov    -0x2c(%ebp),%eax
  4031bc:	83 e0 07             	and    $0x7,%eax
  4031bf:	85 c0                	test   %eax,%eax
  4031c1:	74 0a                	je     4031cd <_generateMoveDatabaseBishop+0x3a2>
  4031c3:	83 7d d4 00          	cmpl   $0x0,-0x2c(%ebp)
  4031c7:	0f 89 76 ff ff ff    	jns    403143 <_generateMoveDatabaseBishop+0x318>
  4031cd:	8b 45 dc             	mov    -0x24(%ebp),%eax
  4031d0:	8d 14 85 00 00 00 00 	lea    0x0(,%eax,4),%edx
  4031d7:	8b 45 d0             	mov    -0x30(%ebp),%eax
  4031da:	01 d0                	add    %edx,%eax
  4031dc:	8b 10                	mov    (%eax),%edx
  4031de:	8b 45 c4             	mov    -0x3c(%ebp),%eax
  4031e1:	c1 e0 03             	shl    $0x3,%eax
  4031e4:	8d 0c 02             	lea    (%edx,%eax,1),%ecx
  4031e7:	8b 45 e0             	mov    -0x20(%ebp),%eax
  4031ea:	8b 55 e4             	mov    -0x1c(%ebp),%edx
  4031ed:	89 01                	mov    %eax,(%ecx)
  4031ef:	89 51 04             	mov    %edx,0x4(%ecx)
  4031f2:	83 45 d8 01          	addl   $0x1,-0x28(%ebp)
  4031f6:	8b 45 d8             	mov    -0x28(%ebp),%eax
  4031f9:	3b 45 c8             	cmp    -0x38(%ebp),%eax
  4031fc:	0f 8c d2 fc ff ff    	jl     402ed4 <_generateMoveDatabaseBishop+0xa9>
  403202:	83 45 dc 01          	addl   $0x1,-0x24(%ebp)
  403206:	83 7d dc 3f          	cmpl   $0x3f,-0x24(%ebp)
  40320a:	0f 8e 75 fc ff ff    	jle    402e85 <_generateMoveDatabaseBishop+0x5a>
  403210:	8b 45 d0             	mov    -0x30(%ebp),%eax
  403213:	83 c4 6c             	add    $0x6c,%esp
  403216:	5b                   	pop    %ebx
  403217:	5e                   	pop    %esi
  403218:	5f                   	pop    %edi
  403219:	5d                   	pop    %ebp
  40321a:	c3                   	ret    

0040321b <_foo>:
  40321b:	55                   	push   %ebp
  40321c:	89 e5                	mov    %esp,%ebp
  40321e:	83 ec 28             	sub    $0x28,%esp
  403221:	e8 fa ab 00 00       	call   40de20 <_mcount>
  403226:	83 7d 10 00          	cmpl   $0x0,0x10(%ebp)
  40322a:	75 05                	jne    403231 <_foo+0x16>
  40322c:	e9 94 01 00 00       	jmp    4033c5 <_foo+0x1aa>
  403231:	c7 45 ec 00 00 00 00 	movl   $0x0,-0x14(%ebp)
  403238:	8b 45 0c             	mov    0xc(%ebp),%eax
  40323b:	89 44 24 08          	mov    %eax,0x8(%esp)
  40323f:	8d 45 ec             	lea    -0x14(%ebp),%eax
  403242:	89 44 24 04          	mov    %eax,0x4(%esp)
  403246:	8b 45 08             	mov    0x8(%ebp),%eax
  403249:	89 04 24             	mov    %eax,(%esp)
  40324c:	e8 a7 02 00 00       	call   4034f8 <_getAllMoves>
  403251:	89 45 f0             	mov    %eax,-0x10(%ebp)
  403254:	8b 45 ec             	mov    -0x14(%ebp),%eax
  403257:	85 c0                	test   %eax,%eax
  403259:	75 05                	jne    403260 <_foo+0x45>
  40325b:	e9 65 01 00 00       	jmp    4033c5 <_foo+0x1aa>
  403260:	c7 45 f4 00 00 00 00 	movl   $0x0,-0xc(%ebp)
  403267:	e9 42 01 00 00       	jmp    4033ae <_foo+0x193>
  40326c:	8b 45 f4             	mov    -0xc(%ebp),%eax
  40326f:	8d 14 85 00 00 00 00 	lea    0x0(,%eax,4),%edx
  403276:	8b 45 f0             	mov    -0x10(%ebp),%eax
  403279:	01 d0                	add    %edx,%eax
  40327b:	8b 00                	mov    (%eax),%eax
  40327d:	8b 40 10             	mov    0x10(%eax),%eax
  403280:	8b 04 85 50 f8 40 00 	mov    0x40f850(,%eax,4),%eax
  403287:	8b 55 f4             	mov    -0xc(%ebp),%edx
  40328a:	8d 0c 95 00 00 00 00 	lea    0x0(,%edx,4),%ecx
  403291:	8b 55 f0             	mov    -0x10(%ebp),%edx
  403294:	01 ca                	add    %ecx,%edx
  403296:	8b 12                	mov    (%edx),%edx
  403298:	8b 4d 0c             	mov    0xc(%ebp),%ecx
  40329b:	89 4c 24 08          	mov    %ecx,0x8(%esp)
  40329f:	89 54 24 04          	mov    %edx,0x4(%esp)
  4032a3:	8b 55 08             	mov    0x8(%ebp),%edx
  4032a6:	89 14 24             	mov    %edx,(%esp)
  4032a9:	ff d0                	call   *%eax
  4032ab:	a1 30 30 41 00       	mov    0x413030,%eax
  4032b0:	8b 15 34 30 41 00    	mov    0x413034,%edx
  4032b6:	83 c0 01             	add    $0x1,%eax
  4032b9:	83 d2 00             	adc    $0x0,%edx
  4032bc:	a3 30 30 41 00       	mov    %eax,0x413030
  4032c1:	89 15 34 30 41 00    	mov    %edx,0x413034
  4032c7:	a1 30 30 41 00       	mov    0x413030,%eax
  4032cc:	8b 15 34 30 41 00    	mov    0x413034,%edx
  4032d2:	c7 44 24 08 40 42 0f 	movl   $0xf4240,0x8(%esp)
  4032d9:	00 
  4032da:	c7 44 24 0c 00 00 00 	movl   $0x0,0xc(%esp)
  4032e1:	00 
  4032e2:	89 04 24             	mov    %eax,(%esp)
  4032e5:	89 54 24 04          	mov    %edx,0x4(%esp)
  4032e9:	e8 62 44 00 00       	call   407750 <___umoddi3>
  4032ee:	09 d0                	or     %edx,%eax
  4032f0:	85 c0                	test   %eax,%eax
  4032f2:	75 3b                	jne    40332f <_foo+0x114>
  4032f4:	a1 30 30 41 00       	mov    0x413030,%eax
  4032f9:	8b 15 34 30 41 00    	mov    0x413034,%edx
  4032ff:	c7 44 24 08 40 42 0f 	movl   $0xf4240,0x8(%esp)
  403306:	00 
  403307:	c7 44 24 0c 00 00 00 	movl   $0x0,0xc(%esp)
  40330e:	00 
  40330f:	89 04 24             	mov    %eax,(%esp)
  403312:	89 54 24 04          	mov    %edx,0x4(%esp)
  403316:	e8 85 45 00 00       	call   4078a0 <___udivdi3>
  40331b:	89 44 24 04          	mov    %eax,0x4(%esp)
  40331f:	89 54 24 08          	mov    %edx,0x8(%esp)
  403323:	c7 04 24 7c 00 41 00 	movl   $0x41007c,(%esp)
  40332a:	e8 b9 a6 00 00       	call   40d9e8 <_printf>
  40332f:	8b 45 10             	mov    0x10(%ebp),%eax
  403332:	8d 50 ff             	lea    -0x1(%eax),%edx
  403335:	83 7d 0c 00          	cmpl   $0x0,0xc(%ebp)
  403339:	0f 94 c0             	sete   %al
  40333c:	0f b6 c0             	movzbl %al,%eax
  40333f:	89 54 24 08          	mov    %edx,0x8(%esp)
  403343:	89 44 24 04          	mov    %eax,0x4(%esp)
  403347:	8b 45 08             	mov    0x8(%ebp),%eax
  40334a:	89 04 24             	mov    %eax,(%esp)
  40334d:	e8 c9 fe ff ff       	call   40321b <_foo>
  403352:	8b 45 f4             	mov    -0xc(%ebp),%eax
  403355:	8d 14 85 00 00 00 00 	lea    0x0(,%eax,4),%edx
  40335c:	8b 45 f0             	mov    -0x10(%ebp),%eax
  40335f:	01 d0                	add    %edx,%eax
  403361:	8b 00                	mov    (%eax),%eax
  403363:	8b 40 10             	mov    0x10(%eax),%eax
  403366:	8b 04 85 6c f8 40 00 	mov    0x40f86c(,%eax,4),%eax
  40336d:	8b 55 f4             	mov    -0xc(%ebp),%edx
  403370:	8d 0c 95 00 00 00 00 	lea    0x0(,%edx,4),%ecx
  403377:	8b 55 f0             	mov    -0x10(%ebp),%edx
  40337a:	01 ca                	add    %ecx,%edx
  40337c:	8b 12                	mov    (%edx),%edx
  40337e:	8b 4d 0c             	mov    0xc(%ebp),%ecx
  403381:	89 4c 24 08          	mov    %ecx,0x8(%esp)
  403385:	89 54 24 04          	mov    %edx,0x4(%esp)
  403389:	8b 55 08             	mov    0x8(%ebp),%edx
  40338c:	89 14 24             	mov    %edx,(%esp)
  40338f:	ff d0                	call   *%eax
  403391:	8b 45 f4             	mov    -0xc(%ebp),%eax
  403394:	8d 14 85 00 00 00 00 	lea    0x0(,%eax,4),%edx
  40339b:	8b 45 f0             	mov    -0x10(%ebp),%eax
  40339e:	01 d0                	add    %edx,%eax
  4033a0:	8b 00                	mov    (%eax),%eax
  4033a2:	89 04 24             	mov    %eax,(%esp)
  4033a5:	e8 56 a6 00 00       	call   40da00 <_free>
  4033aa:	83 45 f4 01          	addl   $0x1,-0xc(%ebp)
  4033ae:	8b 45 ec             	mov    -0x14(%ebp),%eax
  4033b1:	39 45 f4             	cmp    %eax,-0xc(%ebp)
  4033b4:	0f 8c b2 fe ff ff    	jl     40326c <_foo+0x51>
  4033ba:	8b 45 f0             	mov    -0x10(%ebp),%eax
  4033bd:	89 04 24             	mov    %eax,(%esp)
  4033c0:	e8 3b a6 00 00       	call   40da00 <_free>
  4033c5:	c9                   	leave  
  4033c6:	c3                   	ret    

004033c7 <_main>:
  4033c7:	55                   	push   %ebp
  4033c8:	89 e5                	mov    %esp,%ebp
  4033ca:	57                   	push   %edi
  4033cb:	56                   	push   %esi
  4033cc:	53                   	push   %ebx
  4033cd:	83 e4 f0             	and    $0xfffffff0,%esp
  4033d0:	83 ec 30             	sub    $0x30,%esp
  4033d3:	e8 48 aa 00 00       	call   40de20 <_mcount>
  4033d8:	e8 f3 af 00 00       	call   40e3d0 <__monstartup>
  4033dd:	e8 0e 41 00 00       	call   4074f0 <___main>
  4033e2:	e8 dd e3 ff ff       	call   4017c4 <_BoardInit>
  4033e7:	89 44 24 2c          	mov    %eax,0x2c(%esp)
  4033eb:	c7 44 24 28 00 00 00 	movl   $0x0,0x28(%esp)
  4033f2:	00 
  4033f3:	c7 04 24 00 00 00 00 	movl   $0x0,(%esp)
  4033fa:	e8 11 a6 00 00       	call   40da10 <_time>
  4033ff:	89 44 24 24          	mov    %eax,0x24(%esp)
  403403:	a1 28 30 41 00       	mov    0x413028,%eax
  403408:	c7 44 24 08 05 00 00 	movl   $0x5,0x8(%esp)
  40340f:	00 
  403410:	89 44 24 04          	mov    %eax,0x4(%esp)
  403414:	8b 44 24 2c          	mov    0x2c(%esp),%eax
  403418:	89 04 24             	mov    %eax,(%esp)
  40341b:	e8 fb fd ff ff       	call   40321b <_foo>
  403420:	a1 30 30 41 00       	mov    0x413030,%eax
  403425:	8b 15 34 30 41 00    	mov    0x413034,%edx
  40342b:	89 44 24 04          	mov    %eax,0x4(%esp)
  40342f:	89 54 24 08          	mov    %edx,0x8(%esp)
  403433:	c7 04 24 8b 00 41 00 	movl   $0x41008b,(%esp)
  40343a:	e8 a9 a5 00 00       	call   40d9e8 <_printf>
  40343f:	8b 44 24 2c          	mov    0x2c(%esp),%eax
  403443:	8b 50 04             	mov    0x4(%eax),%edx
  403446:	8b 00                	mov    (%eax),%eax
  403448:	89 44 24 18          	mov    %eax,0x18(%esp)
  40344c:	89 54 24 1c          	mov    %edx,0x1c(%esp)
  403450:	a1 20 f1 40 00       	mov    0x40f120,%eax
  403455:	8b 15 24 f1 40 00    	mov    0x40f124,%edx
  40345b:	8b 7c 24 18          	mov    0x18(%esp),%edi
  40345f:	31 c7                	xor    %eax,%edi
  403461:	89 fb                	mov    %edi,%ebx
  403463:	8b 7c 24 1c          	mov    0x1c(%esp),%edi
  403467:	31 d7                	xor    %edx,%edi
  403469:	89 fe                	mov    %edi,%esi
  40346b:	89 d8                	mov    %ebx,%eax
  40346d:	09 f0                	or     %esi,%eax
  40346f:	85 c0                	test   %eax,%eax
  403471:	0f 94 c0             	sete   %al
  403474:	0f b6 f0             	movzbl %al,%esi
  403477:	8b 44 24 2c          	mov    0x2c(%esp),%eax
  40347b:	8b 48 08             	mov    0x8(%eax),%ecx
  40347e:	8b 58 0c             	mov    0xc(%eax),%ebx
  403481:	a1 28 f1 40 00       	mov    0x40f128,%eax
  403486:	8b 15 2c f1 40 00    	mov    0x40f12c,%edx
  40348c:	89 cf                	mov    %ecx,%edi
  40348e:	31 c7                	xor    %eax,%edi
  403490:	89 7c 24 10          	mov    %edi,0x10(%esp)
  403494:	31 d3                	xor    %edx,%ebx
  403496:	89 5c 24 14          	mov    %ebx,0x14(%esp)
  40349a:	8b 54 24 10          	mov    0x10(%esp),%edx
  40349e:	8b 4c 24 14          	mov    0x14(%esp),%ecx
  4034a2:	89 d0                	mov    %edx,%eax
  4034a4:	09 c8                	or     %ecx,%eax
  4034a6:	85 c0                	test   %eax,%eax
  4034a8:	0f 94 c0             	sete   %al
  4034ab:	0f b6 c0             	movzbl %al,%eax
  4034ae:	89 74 24 08          	mov    %esi,0x8(%esp)
  4034b2:	89 44 24 04          	mov    %eax,0x4(%esp)
  4034b6:	c7 04 24 92 00 41 00 	movl   $0x410092,(%esp)
  4034bd:	e8 26 a5 00 00       	call   40d9e8 <_printf>
  4034c2:	c7 04 24 00 00 00 00 	movl   $0x0,(%esp)
  4034c9:	e8 42 a5 00 00       	call   40da10 <_time>
  4034ce:	2b 44 24 24          	sub    0x24(%esp),%eax
  4034d2:	89 44 24 04          	mov    %eax,0x4(%esp)
  4034d6:	c7 04 24 98 00 41 00 	movl   $0x410098,(%esp)
  4034dd:	e8 06 a5 00 00       	call   40d9e8 <_printf>
  4034e2:	8b 44 24 2c          	mov    0x2c(%esp),%eax
  4034e6:	89 04 24             	mov    %eax,(%esp)
  4034e9:	e8 3c e5 ff ff       	call   401a2a <_BoardDeInit>
  4034ee:	90                   	nop
  4034ef:	8d 65 f4             	lea    -0xc(%ebp),%esp
  4034f2:	5b                   	pop    %ebx
  4034f3:	5e                   	pop    %esi
  4034f4:	5f                   	pop    %edi
  4034f5:	5d                   	pop    %ebp
  4034f6:	c3                   	ret    
  4034f7:	90                   	nop

004034f8 <_getAllMoves>:
  4034f8:	55                   	push   %ebp
  4034f9:	89 e5                	mov    %esp,%ebp
  4034fb:	83 ec 28             	sub    $0x28,%esp
  4034fe:	e8 1d a9 00 00       	call   40de20 <_mcount>
  403503:	c7 04 24 00 04 00 00 	movl   $0x400,(%esp)
  40350a:	e8 e9 a4 00 00       	call   40d9f8 <_malloc>
  40350f:	89 45 f4             	mov    %eax,-0xc(%ebp)
  403512:	8b 45 10             	mov    0x10(%ebp),%eax
  403515:	89 44 24 0c          	mov    %eax,0xc(%esp)
  403519:	8b 45 0c             	mov    0xc(%ebp),%eax
  40351c:	89 44 24 08          	mov    %eax,0x8(%esp)
  403520:	8b 45 f4             	mov    -0xc(%ebp),%eax
  403523:	89 44 24 04          	mov    %eax,0x4(%esp)
  403527:	8b 45 08             	mov    0x8(%ebp),%eax
  40352a:	89 04 24             	mov    %eax,(%esp)
  40352d:	e8 e4 02 00 00       	call   403816 <_getKingMoves>
  403532:	8b 45 10             	mov    0x10(%ebp),%eax
  403535:	89 44 24 0c          	mov    %eax,0xc(%esp)
  403539:	8b 45 0c             	mov    0xc(%ebp),%eax
  40353c:	89 44 24 08          	mov    %eax,0x8(%esp)
  403540:	8b 45 f4             	mov    -0xc(%ebp),%eax
  403543:	89 44 24 04          	mov    %eax,0x4(%esp)
  403547:	8b 45 08             	mov    0x8(%ebp),%eax
  40354a:	89 04 24             	mov    %eax,(%esp)
  40354d:	e8 e8 17 00 00       	call   404d3a <_getQueenMoves>
  403552:	8b 45 10             	mov    0x10(%ebp),%eax
  403555:	89 44 24 0c          	mov    %eax,0xc(%esp)
  403559:	8b 45 0c             	mov    0xc(%ebp),%eax
  40355c:	89 44 24 08          	mov    %eax,0x8(%esp)
  403560:	8b 45 f4             	mov    -0xc(%ebp),%eax
  403563:	89 44 24 04          	mov    %eax,0x4(%esp)
  403567:	8b 45 08             	mov    0x8(%ebp),%eax
  40356a:	89 04 24             	mov    %eax,(%esp)
  40356d:	e8 b5 11 00 00       	call   404727 <_getRookMoves>
  403572:	8b 45 10             	mov    0x10(%ebp),%eax
  403575:	89 44 24 0c          	mov    %eax,0xc(%esp)
  403579:	8b 45 0c             	mov    0xc(%ebp),%eax
  40357c:	89 44 24 08          	mov    %eax,0x8(%esp)
  403580:	8b 45 f4             	mov    -0xc(%ebp),%eax
  403583:	89 44 24 04          	mov    %eax,0x4(%esp)
  403587:	8b 45 08             	mov    0x8(%ebp),%eax
  40358a:	89 04 24             	mov    %eax,(%esp)
  40358d:	e8 62 00 00 00       	call   4035f4 <_getKnightMoves>
  403592:	8b 45 10             	mov    0x10(%ebp),%eax
  403595:	89 44 24 0c          	mov    %eax,0xc(%esp)
  403599:	8b 45 0c             	mov    0xc(%ebp),%eax
  40359c:	89 44 24 08          	mov    %eax,0x8(%esp)
  4035a0:	8b 45 f4             	mov    -0xc(%ebp),%eax
  4035a3:	89 44 24 04          	mov    %eax,0x4(%esp)
  4035a7:	8b 45 08             	mov    0x8(%ebp),%eax
  4035aa:	89 04 24             	mov    %eax,(%esp)
  4035ad:	e8 a8 14 00 00       	call   404a5a <_getBishopMoves>
  4035b2:	8b 45 10             	mov    0x10(%ebp),%eax
  4035b5:	89 44 24 0c          	mov    %eax,0xc(%esp)
  4035b9:	8b 45 0c             	mov    0xc(%ebp),%eax
  4035bc:	89 44 24 08          	mov    %eax,0x8(%esp)
  4035c0:	8b 45 f4             	mov    -0xc(%ebp),%eax
  4035c3:	89 44 24 04          	mov    %eax,0x4(%esp)
  4035c7:	8b 45 08             	mov    0x8(%ebp),%eax
  4035ca:	89 04 24             	mov    %eax,(%esp)
  4035cd:	e8 92 06 00 00       	call   403c64 <_getPawnMoves>
  4035d2:	8b 45 10             	mov    0x10(%ebp),%eax
  4035d5:	89 44 24 0c          	mov    %eax,0xc(%esp)
  4035d9:	8b 45 f4             	mov    -0xc(%ebp),%eax
  4035dc:	89 44 24 08          	mov    %eax,0x8(%esp)
  4035e0:	8b 45 0c             	mov    0xc(%ebp),%eax
  4035e3:	89 44 24 04          	mov    %eax,0x4(%esp)
  4035e7:	8b 45 08             	mov    0x8(%ebp),%eax
  4035ea:	89 04 24             	mov    %eax,(%esp)
  4035ed:	e8 3c 1c 00 00       	call   40522e <_validateCheck>
  4035f2:	c9                   	leave  
  4035f3:	c3                   	ret    

004035f4 <_getKnightMoves>:
  4035f4:	55                   	push   %ebp
  4035f5:	89 e5                	mov    %esp,%ebp
  4035f7:	57                   	push   %edi
  4035f8:	56                   	push   %esi
  4035f9:	53                   	push   %ebx
  4035fa:	83 ec 5c             	sub    $0x5c,%esp
  4035fd:	e8 1e a8 00 00       	call   40de20 <_mcount>
  403602:	a1 28 30 41 00       	mov    0x413028,%eax
  403607:	39 45 14             	cmp    %eax,0x14(%ebp)
  40360a:	75 1f                	jne    40362b <_getKnightMoves+0x37>
  40360c:	8b 45 08             	mov    0x8(%ebp),%eax
  40360f:	8b 50 04             	mov    0x4(%eax),%edx
  403612:	8b 00                	mov    (%eax),%eax
  403614:	89 45 e0             	mov    %eax,-0x20(%ebp)
  403617:	89 55 e4             	mov    %edx,-0x1c(%ebp)
  40361a:	8b 45 08             	mov    0x8(%ebp),%eax
  40361d:	8b 50 0c             	mov    0xc(%eax),%edx
  403620:	8b 40 08             	mov    0x8(%eax),%eax
  403623:	89 45 c8             	mov    %eax,-0x38(%ebp)
  403626:	89 55 cc             	mov    %edx,-0x34(%ebp)
  403629:	eb 27                	jmp    403652 <_getKnightMoves+0x5e>
  40362b:	a1 00 f1 40 00       	mov    0x40f100,%eax
  403630:	39 45 14             	cmp    %eax,0x14(%ebp)
  403633:	75 1d                	jne    403652 <_getKnightMoves+0x5e>
  403635:	8b 45 08             	mov    0x8(%ebp),%eax
  403638:	8b 50 0c             	mov    0xc(%eax),%edx
  40363b:	8b 40 08             	mov    0x8(%eax),%eax
  40363e:	89 45 e0             	mov    %eax,-0x20(%ebp)
  403641:	89 55 e4             	mov    %edx,-0x1c(%ebp)
  403644:	8b 45 08             	mov    0x8(%ebp),%eax
  403647:	8b 50 04             	mov    0x4(%eax),%edx
  40364a:	8b 00                	mov    (%eax),%eax
  40364c:	89 45 c8             	mov    %eax,-0x38(%ebp)
  40364f:	89 55 cc             	mov    %edx,-0x34(%ebp)
  403652:	8b 45 08             	mov    0x8(%ebp),%eax
  403655:	8b 50 2c             	mov    0x2c(%eax),%edx
  403658:	8b 40 28             	mov    0x28(%eax),%eax
  40365b:	89 c1                	mov    %eax,%ecx
  40365d:	23 4d e0             	and    -0x20(%ebp),%ecx
  403660:	89 4d d8             	mov    %ecx,-0x28(%ebp)
  403663:	89 d0                	mov    %edx,%eax
  403665:	23 45 e4             	and    -0x1c(%ebp),%eax
  403668:	89 45 dc             	mov    %eax,-0x24(%ebp)
  40366b:	e9 8e 01 00 00       	jmp    4037fe <_getKnightMoves+0x20a>
  403670:	8b 45 d8             	mov    -0x28(%ebp),%eax
  403673:	8b 55 dc             	mov    -0x24(%ebp),%edx
  403676:	83 c0 ff             	add    $0xffffffff,%eax
  403679:	83 d2 ff             	adc    $0xffffffff,%edx
  40367c:	89 c7                	mov    %eax,%edi
  40367e:	33 7d d8             	xor    -0x28(%ebp),%edi
  403681:	89 fb                	mov    %edi,%ebx
  403683:	89 d0                	mov    %edx,%eax
  403685:	33 45 dc             	xor    -0x24(%ebp),%eax
  403688:	89 c6                	mov    %eax,%esi
  40368a:	69 d6 89 0a cb b4    	imul   $0xb4cb0a89,%esi,%edx
  403690:	69 c3 71 9d f7 03    	imul   $0x3f79d71,%ebx,%eax
  403696:	8d 0c 02             	lea    (%edx,%eax,1),%ecx
  403699:	b8 89 0a cb b4       	mov    $0xb4cb0a89,%eax
  40369e:	f7 e3                	mul    %ebx
  4036a0:	01 d1                	add    %edx,%ecx
  4036a2:	89 ca                	mov    %ecx,%edx
  4036a4:	89 d0                	mov    %edx,%eax
  4036a6:	31 d2                	xor    %edx,%edx
  4036a8:	c1 e8 1a             	shr    $0x1a,%eax
  4036ab:	8b 04 85 00 f0 40 00 	mov    0x40f000(,%eax,4),%eax
  4036b2:	89 45 c4             	mov    %eax,-0x3c(%ebp)
  4036b5:	8b 45 08             	mov    0x8(%ebp),%eax
  4036b8:	8b 90 94 00 00 00    	mov    0x94(%eax),%edx
  4036be:	8b 45 c4             	mov    -0x3c(%ebp),%eax
  4036c1:	c1 e0 03             	shl    $0x3,%eax
  4036c4:	01 d0                	add    %edx,%eax
  4036c6:	8b 10                	mov    (%eax),%edx
  4036c8:	8b 48 04             	mov    0x4(%eax),%ecx
  4036cb:	8b 45 e0             	mov    -0x20(%ebp),%eax
  4036ce:	f7 d0                	not    %eax
  4036d0:	89 45 a8             	mov    %eax,-0x58(%ebp)
  4036d3:	8b 45 e4             	mov    -0x1c(%ebp),%eax
  4036d6:	f7 d0                	not    %eax
  4036d8:	89 45 ac             	mov    %eax,-0x54(%ebp)
  4036db:	8b 45 a8             	mov    -0x58(%ebp),%eax
  4036de:	21 d0                	and    %edx,%eax
  4036e0:	89 45 d0             	mov    %eax,-0x30(%ebp)
  4036e3:	89 c8                	mov    %ecx,%eax
  4036e5:	23 45 ac             	and    -0x54(%ebp),%eax
  4036e8:	89 45 d4             	mov    %eax,-0x2c(%ebp)
  4036eb:	e9 dd 00 00 00       	jmp    4037cd <_getKnightMoves+0x1d9>
  4036f0:	8b 45 d0             	mov    -0x30(%ebp),%eax
  4036f3:	8b 55 d4             	mov    -0x2c(%ebp),%edx
  4036f6:	83 c0 ff             	add    $0xffffffff,%eax
  4036f9:	83 d2 ff             	adc    $0xffffffff,%edx
  4036fc:	89 c7                	mov    %eax,%edi
  4036fe:	33 7d d0             	xor    -0x30(%ebp),%edi
  403701:	89 7d b0             	mov    %edi,-0x50(%ebp)
  403704:	89 d0                	mov    %edx,%eax
  403706:	33 45 d4             	xor    -0x2c(%ebp),%eax
  403709:	89 45 b4             	mov    %eax,-0x4c(%ebp)
  40370c:	69 55 b4 89 0a cb b4 	imul   $0xb4cb0a89,-0x4c(%ebp),%edx
  403713:	69 45 b0 71 9d f7 03 	imul   $0x3f79d71,-0x50(%ebp),%eax
  40371a:	8d 0c 02             	lea    (%edx,%eax,1),%ecx
  40371d:	b8 89 0a cb b4       	mov    $0xb4cb0a89,%eax
  403722:	f7 65 b0             	mull   -0x50(%ebp)
  403725:	01 d1                	add    %edx,%ecx
  403727:	89 ca                	mov    %ecx,%edx
  403729:	89 d0                	mov    %edx,%eax
  40372b:	31 d2                	xor    %edx,%edx
  40372d:	c1 e8 1a             	shr    $0x1a,%eax
  403730:	8b 04 85 00 f0 40 00 	mov    0x40f000(,%eax,4),%eax
  403737:	89 45 c0             	mov    %eax,-0x40(%ebp)
  40373a:	c7 04 24 14 00 00 00 	movl   $0x14,(%esp)
  403741:	e8 b2 a2 00 00       	call   40d9f8 <_malloc>
  403746:	89 45 bc             	mov    %eax,-0x44(%ebp)
  403749:	8b 55 bc             	mov    -0x44(%ebp),%edx
  40374c:	8b 45 c4             	mov    -0x3c(%ebp),%eax
  40374f:	89 02                	mov    %eax,(%edx)
  403751:	8b 55 bc             	mov    -0x44(%ebp),%edx
  403754:	8b 45 c0             	mov    -0x40(%ebp),%eax
  403757:	89 42 04             	mov    %eax,0x4(%edx)
  40375a:	8b 45 08             	mov    0x8(%ebp),%eax
  40375d:	89 44 24 04          	mov    %eax,0x4(%esp)
  403761:	8b 45 c0             	mov    -0x40(%ebp),%eax
  403764:	89 04 24             	mov    %eax,(%esp)
  403767:	e8 2e dd ff ff       	call   40149a <_getSquare>
  40376c:	89 c2                	mov    %eax,%edx
  40376e:	8b 45 bc             	mov    -0x44(%ebp),%eax
  403771:	89 50 08             	mov    %edx,0x8(%eax)
  403774:	8b 15 08 f1 40 00    	mov    0x40f108,%edx
  40377a:	8b 45 bc             	mov    -0x44(%ebp),%eax
  40377d:	89 50 0c             	mov    %edx,0xc(%eax)
  403780:	8b 15 38 30 41 00    	mov    0x413038,%edx
  403786:	8b 45 bc             	mov    -0x44(%ebp),%eax
  403789:	89 50 10             	mov    %edx,0x10(%eax)
  40378c:	8b 45 10             	mov    0x10(%ebp),%eax
  40378f:	8b 08                	mov    (%eax),%ecx
  403791:	8d 51 01             	lea    0x1(%ecx),%edx
  403794:	8b 45 10             	mov    0x10(%ebp),%eax
  403797:	89 10                	mov    %edx,(%eax)
  403799:	89 c8                	mov    %ecx,%eax
  40379b:	8d 14 85 00 00 00 00 	lea    0x0(,%eax,4),%edx
  4037a2:	8b 45 0c             	mov    0xc(%ebp),%eax
  4037a5:	01 c2                	add    %eax,%edx
  4037a7:	8b 45 bc             	mov    -0x44(%ebp),%eax
  4037aa:	89 02                	mov    %eax,(%edx)
  4037ac:	8b 4d c0             	mov    -0x40(%ebp),%ecx
  4037af:	b8 01 00 00 00       	mov    $0x1,%eax
  4037b4:	ba 00 00 00 00       	mov    $0x0,%edx
  4037b9:	0f a5 c2             	shld   %cl,%eax,%edx
  4037bc:	d3 e0                	shl    %cl,%eax
  4037be:	f6 c1 20             	test   $0x20,%cl
  4037c1:	74 04                	je     4037c7 <_getKnightMoves+0x1d3>
  4037c3:	89 c2                	mov    %eax,%edx
  4037c5:	31 c0                	xor    %eax,%eax
  4037c7:	31 45 d0             	xor    %eax,-0x30(%ebp)
  4037ca:	31 55 d4             	xor    %edx,-0x2c(%ebp)
  4037cd:	8b 55 d0             	mov    -0x30(%ebp),%edx
  4037d0:	8b 45 d4             	mov    -0x2c(%ebp),%eax
  4037d3:	09 d0                	or     %edx,%eax
  4037d5:	85 c0                	test   %eax,%eax
  4037d7:	0f 85 13 ff ff ff    	jne    4036f0 <_getKnightMoves+0xfc>
  4037dd:	8b 4d c4             	mov    -0x3c(%ebp),%ecx
  4037e0:	b8 01 00 00 00       	mov    $0x1,%eax
  4037e5:	ba 00 00 00 00       	mov    $0x0,%edx
  4037ea:	0f a5 c2             	shld   %cl,%eax,%edx
  4037ed:	d3 e0                	shl    %cl,%eax
  4037ef:	f6 c1 20             	test   $0x20,%cl
  4037f2:	74 04                	je     4037f8 <_getKnightMoves+0x204>
  4037f4:	89 c2                	mov    %eax,%edx
  4037f6:	31 c0                	xor    %eax,%eax
  4037f8:	31 45 d8             	xor    %eax,-0x28(%ebp)
  4037fb:	31 55 dc             	xor    %edx,-0x24(%ebp)
  4037fe:	8b 55 d8             	mov    -0x28(%ebp),%edx
  403801:	8b 45 dc             	mov    -0x24(%ebp),%eax
  403804:	09 d0                	or     %edx,%eax
  403806:	85 c0                	test   %eax,%eax
  403808:	0f 85 62 fe ff ff    	jne    403670 <_getKnightMoves+0x7c>
  40380e:	83 c4 5c             	add    $0x5c,%esp
  403811:	5b                   	pop    %ebx
  403812:	5e                   	pop    %esi
  403813:	5f                   	pop    %edi
  403814:	5d                   	pop    %ebp
  403815:	c3                   	ret    

00403816 <_getKingMoves>:
  403816:	55                   	push   %ebp
  403817:	89 e5                	mov    %esp,%ebp
  403819:	57                   	push   %edi
  40381a:	56                   	push   %esi
  40381b:	53                   	push   %ebx
  40381c:	81 ec 9c 00 00 00    	sub    $0x9c,%esp
  403822:	e8 f9 a5 00 00       	call   40de20 <_mcount>
  403827:	a1 28 30 41 00       	mov    0x413028,%eax
  40382c:	39 45 14             	cmp    %eax,0x14(%ebp)
  40382f:	75 1f                	jne    403850 <_getKingMoves+0x3a>
  403831:	8b 45 08             	mov    0x8(%ebp),%eax
  403834:	8b 50 04             	mov    0x4(%eax),%edx
  403837:	8b 00                	mov    (%eax),%eax
  403839:	89 45 e0             	mov    %eax,-0x20(%ebp)
  40383c:	89 55 e4             	mov    %edx,-0x1c(%ebp)
  40383f:	8b 45 08             	mov    0x8(%ebp),%eax
  403842:	8b 50 0c             	mov    0xc(%eax),%edx
  403845:	8b 40 08             	mov    0x8(%eax),%eax
  403848:	89 45 d0             	mov    %eax,-0x30(%ebp)
  40384b:	89 55 d4             	mov    %edx,-0x2c(%ebp)
  40384e:	eb 27                	jmp    403877 <_getKingMoves+0x61>
  403850:	a1 00 f1 40 00       	mov    0x40f100,%eax
  403855:	39 45 14             	cmp    %eax,0x14(%ebp)
  403858:	75 1d                	jne    403877 <_getKingMoves+0x61>
  40385a:	8b 45 08             	mov    0x8(%ebp),%eax
  40385d:	8b 50 0c             	mov    0xc(%eax),%edx
  403860:	8b 40 08             	mov    0x8(%eax),%eax
  403863:	89 45 e0             	mov    %eax,-0x20(%ebp)
  403866:	89 55 e4             	mov    %edx,-0x1c(%ebp)
  403869:	8b 45 08             	mov    0x8(%ebp),%eax
  40386c:	8b 50 04             	mov    0x4(%eax),%edx
  40386f:	8b 00                	mov    (%eax),%eax
  403871:	89 45 d0             	mov    %eax,-0x30(%ebp)
  403874:	89 55 d4             	mov    %edx,-0x2c(%ebp)
  403877:	8b 45 08             	mov    0x8(%ebp),%eax
  40387a:	8b 58 10             	mov    0x10(%eax),%ebx
  40387d:	8b 70 14             	mov    0x14(%eax),%esi
  403880:	8b 55 e4             	mov    -0x1c(%ebp),%edx
  403883:	8b 45 e0             	mov    -0x20(%ebp),%eax
  403886:	09 d0                	or     %edx,%eax
  403888:	85 c0                	test   %eax,%eax
  40388a:	0f 94 c0             	sete   %al
  40388d:	89 c1                	mov    %eax,%ecx
  40388f:	0f b6 c1             	movzbl %cl,%eax
  403892:	ba 00 00 00 00       	mov    $0x0,%edx
  403897:	89 df                	mov    %ebx,%edi
  403899:	21 c7                	and    %eax,%edi
  40389b:	89 7d b0             	mov    %edi,-0x50(%ebp)
  40389e:	89 f7                	mov    %esi,%edi
  4038a0:	21 d7                	and    %edx,%edi
  4038a2:	89 7d b4             	mov    %edi,-0x4c(%ebp)
  4038a5:	8b 5d b0             	mov    -0x50(%ebp),%ebx
  4038a8:	8b 75 b4             	mov    -0x4c(%ebp),%esi
  4038ab:	89 f0                	mov    %esi,%eax
  4038ad:	09 d8                	or     %ebx,%eax
  4038af:	85 c0                	test   %eax,%eax
  4038b1:	74 05                	je     4038b8 <_getKingMoves+0xa2>
  4038b3:	e9 a1 03 00 00       	jmp    403c59 <_getKingMoves+0x443>
  4038b8:	8b 45 08             	mov    0x8(%ebp),%eax
  4038bb:	8b 50 14             	mov    0x14(%eax),%edx
  4038be:	8b 40 10             	mov    0x10(%eax),%eax
  4038c1:	89 c7                	mov    %eax,%edi
  4038c3:	23 7d e0             	and    -0x20(%ebp),%edi
  4038c6:	89 7d a8             	mov    %edi,-0x58(%ebp)
  4038c9:	89 d0                	mov    %edx,%eax
  4038cb:	23 45 e4             	and    -0x1c(%ebp),%eax
  4038ce:	89 45 ac             	mov    %eax,-0x54(%ebp)
  4038d1:	8b 45 08             	mov    0x8(%ebp),%eax
  4038d4:	8b 50 14             	mov    0x14(%eax),%edx
  4038d7:	8b 40 10             	mov    0x10(%eax),%eax
  4038da:	89 c7                	mov    %eax,%edi
  4038dc:	23 7d e0             	and    -0x20(%ebp),%edi
  4038df:	89 7d a0             	mov    %edi,-0x60(%ebp)
  4038e2:	89 d0                	mov    %edx,%eax
  4038e4:	23 45 e4             	and    -0x1c(%ebp),%eax
  4038e7:	89 45 a4             	mov    %eax,-0x5c(%ebp)
  4038ea:	8b 45 a0             	mov    -0x60(%ebp),%eax
  4038ed:	8b 55 a4             	mov    -0x5c(%ebp),%edx
  4038f0:	83 c0 ff             	add    $0xffffffff,%eax
  4038f3:	83 d2 ff             	adc    $0xffffffff,%edx
  4038f6:	8b 5d a8             	mov    -0x58(%ebp),%ebx
  4038f9:	8b 75 ac             	mov    -0x54(%ebp),%esi
  4038fc:	89 df                	mov    %ebx,%edi
  4038fe:	31 c7                	xor    %eax,%edi
  403900:	89 7d 98             	mov    %edi,-0x68(%ebp)
  403903:	89 d0                	mov    %edx,%eax
  403905:	31 f0                	xor    %esi,%eax
  403907:	89 45 9c             	mov    %eax,-0x64(%ebp)
  40390a:	8b 75 98             	mov    -0x68(%ebp),%esi
  40390d:	8b 7d 9c             	mov    -0x64(%ebp),%edi
  403910:	69 d7 89 0a cb b4    	imul   $0xb4cb0a89,%edi,%edx
  403916:	69 c6 71 9d f7 03    	imul   $0x3f79d71,%esi,%eax
  40391c:	8d 0c 02             	lea    (%edx,%eax,1),%ecx
  40391f:	b8 89 0a cb b4       	mov    $0xb4cb0a89,%eax
  403924:	f7 e6                	mul    %esi
  403926:	01 d1                	add    %edx,%ecx
  403928:	89 ca                	mov    %ecx,%edx
  40392a:	89 d0                	mov    %edx,%eax
  40392c:	31 d2                	xor    %edx,%edx
  40392e:	c1 e8 1a             	shr    $0x1a,%eax
  403931:	8b 04 85 00 f0 40 00 	mov    0x40f000(,%eax,4),%eax
  403938:	89 45 cc             	mov    %eax,-0x34(%ebp)
  40393b:	8b 45 08             	mov    0x8(%ebp),%eax
  40393e:	8b 90 90 00 00 00    	mov    0x90(%eax),%edx
  403944:	8b 45 cc             	mov    -0x34(%ebp),%eax
  403947:	c1 e0 03             	shl    $0x3,%eax
  40394a:	01 d0                	add    %edx,%eax
  40394c:	8b 10                	mov    (%eax),%edx
  40394e:	8b 48 04             	mov    0x4(%eax),%ecx
  403951:	8b 45 e0             	mov    -0x20(%ebp),%eax
  403954:	f7 d0                	not    %eax
  403956:	89 45 90             	mov    %eax,-0x70(%ebp)
  403959:	8b 45 e4             	mov    -0x1c(%ebp),%eax
  40395c:	f7 d0                	not    %eax
  40395e:	89 45 94             	mov    %eax,-0x6c(%ebp)
  403961:	8b 5d 90             	mov    -0x70(%ebp),%ebx
  403964:	8b 75 94             	mov    -0x6c(%ebp),%esi
  403967:	89 d8                	mov    %ebx,%eax
  403969:	21 d0                	and    %edx,%eax
  40396b:	89 45 d8             	mov    %eax,-0x28(%ebp)
  40396e:	89 f0                	mov    %esi,%eax
  403970:	21 c8                	and    %ecx,%eax
  403972:	89 45 dc             	mov    %eax,-0x24(%ebp)
  403975:	e9 37 01 00 00       	jmp    403ab1 <_getKingMoves+0x29b>
  40397a:	8b 45 d8             	mov    -0x28(%ebp),%eax
  40397d:	8b 55 dc             	mov    -0x24(%ebp),%edx
  403980:	83 c0 ff             	add    $0xffffffff,%eax
  403983:	83 d2 ff             	adc    $0xffffffff,%edx
  403986:	89 c7                	mov    %eax,%edi
  403988:	33 7d d8             	xor    -0x28(%ebp),%edi
  40398b:	89 7d 88             	mov    %edi,-0x78(%ebp)
  40398e:	89 d0                	mov    %edx,%eax
  403990:	33 45 dc             	xor    -0x24(%ebp),%eax
  403993:	89 45 8c             	mov    %eax,-0x74(%ebp)
  403996:	8b 5d 88             	mov    -0x78(%ebp),%ebx
  403999:	8b 75 8c             	mov    -0x74(%ebp),%esi
  40399c:	69 d6 89 0a cb b4    	imul   $0xb4cb0a89,%esi,%edx
  4039a2:	69 c3 71 9d f7 03    	imul   $0x3f79d71,%ebx,%eax
  4039a8:	8d 0c 02             	lea    (%edx,%eax,1),%ecx
  4039ab:	b8 89 0a cb b4       	mov    $0xb4cb0a89,%eax
  4039b0:	f7 e3                	mul    %ebx
  4039b2:	01 d1                	add    %edx,%ecx
  4039b4:	89 ca                	mov    %ecx,%edx
  4039b6:	89 d0                	mov    %edx,%eax
  4039b8:	31 d2                	xor    %edx,%edx
  4039ba:	c1 e8 1a             	shr    $0x1a,%eax
  4039bd:	8b 04 85 00 f0 40 00 	mov    0x40f000(,%eax,4),%eax
  4039c4:	89 45 c8             	mov    %eax,-0x38(%ebp)
  4039c7:	c7 04 24 14 00 00 00 	movl   $0x14,(%esp)
  4039ce:	e8 25 a0 00 00       	call   40d9f8 <_malloc>
  4039d3:	89 45 c4             	mov    %eax,-0x3c(%ebp)
  4039d6:	8b 55 c4             	mov    -0x3c(%ebp),%edx
  4039d9:	8b 45 cc             	mov    -0x34(%ebp),%eax
  4039dc:	89 02                	mov    %eax,(%edx)
  4039de:	8b 55 c4             	mov    -0x3c(%ebp),%edx
  4039e1:	8b 45 c8             	mov    -0x38(%ebp),%eax
  4039e4:	89 42 04             	mov    %eax,0x4(%edx)
  4039e7:	8b 45 08             	mov    0x8(%ebp),%eax
  4039ea:	89 44 24 04          	mov    %eax,0x4(%esp)
  4039ee:	8b 45 c8             	mov    -0x38(%ebp),%eax
  4039f1:	89 04 24             	mov    %eax,(%esp)
  4039f4:	e8 a1 da ff ff       	call   40149a <_getSquare>
  4039f9:	89 c2                	mov    %eax,%edx
  4039fb:	8b 45 c4             	mov    -0x3c(%ebp),%eax
  4039fe:	89 50 08             	mov    %edx,0x8(%eax)
  403a01:	8b 15 14 f1 40 00    	mov    0x40f114,%edx
  403a07:	8b 45 c4             	mov    -0x3c(%ebp),%eax
  403a0a:	89 50 0c             	mov    %edx,0xc(%eax)
  403a0d:	8b 55 08             	mov    0x8(%ebp),%edx
  403a10:	8b 45 14             	mov    0x14(%ebp),%eax
  403a13:	83 c0 0e             	add    $0xe,%eax
  403a16:	8b 44 c2 08          	mov    0x8(%edx,%eax,8),%eax
  403a1a:	85 c0                	test   %eax,%eax
  403a1c:	74 2a                	je     403a48 <_getKingMoves+0x232>
  403a1e:	8b 55 08             	mov    0x8(%ebp),%edx
  403a21:	8b 45 14             	mov    0x14(%ebp),%eax
  403a24:	8b 44 c2 7c          	mov    0x7c(%edx,%eax,8),%eax
  403a28:	85 c0                	test   %eax,%eax
  403a2a:	74 0e                	je     403a3a <_getKingMoves+0x224>
  403a2c:	8b 15 2c f8 40 00    	mov    0x40f82c,%edx
  403a32:	8b 45 c4             	mov    -0x3c(%ebp),%eax
  403a35:	89 50 10             	mov    %edx,0x10(%eax)
  403a38:	eb 36                	jmp    403a70 <_getKingMoves+0x25a>
  403a3a:	8b 15 24 f8 40 00    	mov    0x40f824,%edx
  403a40:	8b 45 c4             	mov    -0x3c(%ebp),%eax
  403a43:	89 50 10             	mov    %edx,0x10(%eax)
  403a46:	eb 28                	jmp    403a70 <_getKingMoves+0x25a>
  403a48:	8b 55 08             	mov    0x8(%ebp),%edx
  403a4b:	8b 45 14             	mov    0x14(%ebp),%eax
  403a4e:	8b 44 c2 7c          	mov    0x7c(%edx,%eax,8),%eax
  403a52:	85 c0                	test   %eax,%eax
  403a54:	74 0e                	je     403a64 <_getKingMoves+0x24e>
  403a56:	8b 15 28 f8 40 00    	mov    0x40f828,%edx
  403a5c:	8b 45 c4             	mov    -0x3c(%ebp),%eax
  403a5f:	89 50 10             	mov    %edx,0x10(%eax)
  403a62:	eb 0c                	jmp    403a70 <_getKingMoves+0x25a>
  403a64:	8b 15 38 30 41 00    	mov    0x413038,%edx
  403a6a:	8b 45 c4             	mov    -0x3c(%ebp),%eax
  403a6d:	89 50 10             	mov    %edx,0x10(%eax)
  403a70:	8b 45 10             	mov    0x10(%ebp),%eax
  403a73:	8b 08                	mov    (%eax),%ecx
  403a75:	8d 51 01             	lea    0x1(%ecx),%edx
  403a78:	8b 45 10             	mov    0x10(%ebp),%eax
  403a7b:	89 10                	mov    %edx,(%eax)
  403a7d:	89 c8                	mov    %ecx,%eax
  403a7f:	8d 14 85 00 00 00 00 	lea    0x0(,%eax,4),%edx
  403a86:	8b 45 0c             	mov    0xc(%ebp),%eax
  403a89:	01 c2                	add    %eax,%edx
  403a8b:	8b 45 c4             	mov    -0x3c(%ebp),%eax
  403a8e:	89 02                	mov    %eax,(%edx)
  403a90:	8b 4d c8             	mov    -0x38(%ebp),%ecx
  403a93:	b8 01 00 00 00       	mov    $0x1,%eax
  403a98:	ba 00 00 00 00       	mov    $0x0,%edx
  403a9d:	0f a5 c2             	shld   %cl,%eax,%edx
  403aa0:	d3 e0                	shl    %cl,%eax
  403aa2:	f6 c1 20             	test   $0x20,%cl
  403aa5:	74 04                	je     403aab <_getKingMoves+0x295>
  403aa7:	89 c2                	mov    %eax,%edx
  403aa9:	31 c0                	xor    %eax,%eax
  403aab:	31 45 d8             	xor    %eax,-0x28(%ebp)
  403aae:	31 55 dc             	xor    %edx,-0x24(%ebp)
  403ab1:	8b 55 d8             	mov    -0x28(%ebp),%edx
  403ab4:	8b 45 dc             	mov    -0x24(%ebp),%eax
  403ab7:	09 d0                	or     %edx,%eax
  403ab9:	85 c0                	test   %eax,%eax
  403abb:	0f 85 b9 fe ff ff    	jne    40397a <_getKingMoves+0x164>
  403ac1:	8b 55 08             	mov    0x8(%ebp),%edx
  403ac4:	8b 45 14             	mov    0x14(%ebp),%eax
  403ac7:	83 c0 20             	add    $0x20,%eax
  403aca:	8b 44 82 08          	mov    0x8(%edx,%eax,4),%eax
  403ace:	85 c0                	test   %eax,%eax
  403ad0:	0f 85 83 01 00 00    	jne    403c59 <_getKingMoves+0x443>
  403ad6:	8b 55 08             	mov    0x8(%ebp),%edx
  403ad9:	8b 45 14             	mov    0x14(%ebp),%eax
  403adc:	83 c0 0e             	add    $0xe,%eax
  403adf:	8b 44 c2 08          	mov    0x8(%edx,%eax,8),%eax
  403ae3:	83 f8 01             	cmp    $0x1,%eax
  403ae6:	0f 85 a8 00 00 00    	jne    403b94 <_getKingMoves+0x37e>
  403aec:	8b 45 08             	mov    0x8(%ebp),%eax
  403aef:	8b 08                	mov    (%eax),%ecx
  403af1:	8b 58 04             	mov    0x4(%eax),%ebx
  403af4:	8b 45 08             	mov    0x8(%ebp),%eax
  403af7:	8b 50 0c             	mov    0xc(%eax),%edx
  403afa:	8b 40 08             	mov    0x8(%eax),%eax
  403afd:	89 cf                	mov    %ecx,%edi
  403aff:	09 c7                	or     %eax,%edi
  403b01:	89 7d 80             	mov    %edi,-0x80(%ebp)
  403b04:	89 df                	mov    %ebx,%edi
  403b06:	09 d7                	or     %edx,%edi
  403b08:	89 7d 84             	mov    %edi,-0x7c(%ebp)
  403b0b:	8b 45 14             	mov    0x14(%ebp),%eax
  403b0e:	8b 14 c5 64 f1 40 00 	mov    0x40f164(,%eax,8),%edx
  403b15:	8b 04 c5 60 f1 40 00 	mov    0x40f160(,%eax,8),%eax
  403b1c:	09 d0                	or     %edx,%eax
  403b1e:	85 c0                	test   %eax,%eax
  403b20:	0f 94 c0             	sete   %al
  403b23:	89 c1                	mov    %eax,%ecx
  403b25:	0f b6 c1             	movzbl %cl,%eax
  403b28:	ba 00 00 00 00       	mov    $0x0,%edx
  403b2d:	8b 5d 80             	mov    -0x80(%ebp),%ebx
  403b30:	8b 75 84             	mov    -0x7c(%ebp),%esi
  403b33:	89 d9                	mov    %ebx,%ecx
  403b35:	21 c1                	and    %eax,%ecx
  403b37:	89 8d 78 ff ff ff    	mov    %ecx,-0x88(%ebp)
  403b3d:	89 d0                	mov    %edx,%eax
  403b3f:	21 f0                	and    %esi,%eax
  403b41:	89 85 7c ff ff ff    	mov    %eax,-0x84(%ebp)
  403b47:	8b 9d 78 ff ff ff    	mov    -0x88(%ebp),%ebx
  403b4d:	8b b5 7c ff ff ff    	mov    -0x84(%ebp),%esi
  403b53:	89 f0                	mov    %esi,%eax
  403b55:	09 d8                	or     %ebx,%eax
  403b57:	85 c0                	test   %eax,%eax
  403b59:	74 39                	je     403b94 <_getKingMoves+0x37e>
  403b5b:	c7 04 24 14 00 00 00 	movl   $0x14,(%esp)
  403b62:	e8 91 9e 00 00       	call   40d9f8 <_malloc>
  403b67:	89 45 c0             	mov    %eax,-0x40(%ebp)
  403b6a:	8b 15 30 f8 40 00    	mov    0x40f830,%edx
  403b70:	8b 45 c0             	mov    -0x40(%ebp),%eax
  403b73:	89 50 10             	mov    %edx,0x10(%eax)
  403b76:	8b 45 10             	mov    0x10(%ebp),%eax
  403b79:	8b 00                	mov    (%eax),%eax
  403b7b:	8d 48 01             	lea    0x1(%eax),%ecx
  403b7e:	8b 55 10             	mov    0x10(%ebp),%edx
  403b81:	89 0a                	mov    %ecx,(%edx)
  403b83:	8d 14 85 00 00 00 00 	lea    0x0(,%eax,4),%edx
  403b8a:	8b 45 0c             	mov    0xc(%ebp),%eax
  403b8d:	01 c2                	add    %eax,%edx
  403b8f:	8b 45 c0             	mov    -0x40(%ebp),%eax
  403b92:	89 02                	mov    %eax,(%edx)
  403b94:	8b 45 08             	mov    0x8(%ebp),%eax
  403b97:	8b 55 14             	mov    0x14(%ebp),%edx
  403b9a:	8b 44 d0 7c          	mov    0x7c(%eax,%edx,8),%eax
  403b9e:	83 f8 01             	cmp    $0x1,%eax
  403ba1:	0f 85 b2 00 00 00    	jne    403c59 <_getKingMoves+0x443>
  403ba7:	8b 45 08             	mov    0x8(%ebp),%eax
  403baa:	8b 08                	mov    (%eax),%ecx
  403bac:	8b 58 04             	mov    0x4(%eax),%ebx
  403baf:	8b 45 08             	mov    0x8(%ebp),%eax
  403bb2:	8b 50 0c             	mov    0xc(%eax),%edx
  403bb5:	8b 40 08             	mov    0x8(%eax),%eax
  403bb8:	89 cf                	mov    %ecx,%edi
  403bba:	09 c7                	or     %eax,%edi
  403bbc:	89 bd 70 ff ff ff    	mov    %edi,-0x90(%ebp)
  403bc2:	09 d3                	or     %edx,%ebx
  403bc4:	89 9d 74 ff ff ff    	mov    %ebx,-0x8c(%ebp)
  403bca:	8b 45 14             	mov    0x14(%ebp),%eax
  403bcd:	8b 14 c5 74 f1 40 00 	mov    0x40f174(,%eax,8),%edx
  403bd4:	8b 04 c5 70 f1 40 00 	mov    0x40f170(,%eax,8),%eax
  403bdb:	09 d0                	or     %edx,%eax
  403bdd:	85 c0                	test   %eax,%eax
  403bdf:	0f 94 c0             	sete   %al
  403be2:	89 c1                	mov    %eax,%ecx
  403be4:	0f b6 c1             	movzbl %cl,%eax
  403be7:	ba 00 00 00 00       	mov    $0x0,%edx
  403bec:	8b 9d 70 ff ff ff    	mov    -0x90(%ebp),%ebx
  403bf2:	8b b5 74 ff ff ff    	mov    -0x8c(%ebp),%esi
  403bf8:	89 d9                	mov    %ebx,%ecx
  403bfa:	21 c1                	and    %eax,%ecx
  403bfc:	89 8d 68 ff ff ff    	mov    %ecx,-0x98(%ebp)
  403c02:	89 d0                	mov    %edx,%eax
  403c04:	21 f0                	and    %esi,%eax
  403c06:	89 85 6c ff ff ff    	mov    %eax,-0x94(%ebp)
  403c0c:	8b 9d 68 ff ff ff    	mov    -0x98(%ebp),%ebx
  403c12:	8b b5 6c ff ff ff    	mov    -0x94(%ebp),%esi
  403c18:	89 f0                	mov    %esi,%eax
  403c1a:	09 d8                	or     %ebx,%eax
  403c1c:	85 c0                	test   %eax,%eax
  403c1e:	74 39                	je     403c59 <_getKingMoves+0x443>
  403c20:	c7 04 24 14 00 00 00 	movl   $0x14,(%esp)
  403c27:	e8 cc 9d 00 00       	call   40d9f8 <_malloc>
  403c2c:	89 45 bc             	mov    %eax,-0x44(%ebp)
  403c2f:	8b 15 34 f8 40 00    	mov    0x40f834,%edx
  403c35:	8b 45 bc             	mov    -0x44(%ebp),%eax
  403c38:	89 50 10             	mov    %edx,0x10(%eax)
  403c3b:	8b 45 10             	mov    0x10(%ebp),%eax
  403c3e:	8b 00                	mov    (%eax),%eax
  403c40:	8d 48 01             	lea    0x1(%eax),%ecx
  403c43:	8b 55 10             	mov    0x10(%ebp),%edx
  403c46:	89 0a                	mov    %ecx,(%edx)
  403c48:	8d 14 85 00 00 00 00 	lea    0x0(,%eax,4),%edx
  403c4f:	8b 45 0c             	mov    0xc(%ebp),%eax
  403c52:	01 c2                	add    %eax,%edx
  403c54:	8b 45 bc             	mov    -0x44(%ebp),%eax
  403c57:	89 02                	mov    %eax,(%edx)
  403c59:	81 c4 9c 00 00 00    	add    $0x9c,%esp
  403c5f:	5b                   	pop    %ebx
  403c60:	5e                   	pop    %esi
  403c61:	5f                   	pop    %edi
  403c62:	5d                   	pop    %ebp
  403c63:	c3                   	ret    

00403c64 <_getPawnMoves>:
  403c64:	55                   	push   %ebp
  403c65:	89 e5                	mov    %esp,%ebp
  403c67:	57                   	push   %edi
  403c68:	56                   	push   %esi
  403c69:	53                   	push   %ebx
  403c6a:	81 ec 7c 01 00 00    	sub    $0x17c,%esp
  403c70:	e8 ab a1 00 00       	call   40de20 <_mcount>
  403c75:	a1 28 30 41 00       	mov    0x413028,%eax
  403c7a:	39 45 14             	cmp    %eax,0x14(%ebp)
  403c7d:	75 34                	jne    403cb3 <_getPawnMoves+0x4f>
  403c7f:	8b 45 08             	mov    0x8(%ebp),%eax
  403c82:	8b 50 04             	mov    0x4(%eax),%edx
  403c85:	8b 00                	mov    (%eax),%eax
  403c87:	89 45 d0             	mov    %eax,-0x30(%ebp)
  403c8a:	89 55 d4             	mov    %edx,-0x2c(%ebp)
  403c8d:	8b 45 08             	mov    0x8(%ebp),%eax
  403c90:	8b 50 0c             	mov    0xc(%eax),%edx
  403c93:	8b 40 08             	mov    0x8(%eax),%eax
  403c96:	89 45 c8             	mov    %eax,-0x38(%ebp)
  403c99:	89 55 cc             	mov    %edx,-0x34(%ebp)
  403c9c:	c7 45 e4 08 00 00 00 	movl   $0x8,-0x1c(%ebp)
  403ca3:	c7 45 e0 07 00 00 00 	movl   $0x7,-0x20(%ebp)
  403caa:	c7 45 dc 09 00 00 00 	movl   $0x9,-0x24(%ebp)
  403cb1:	eb 3c                	jmp    403cef <_getPawnMoves+0x8b>
  403cb3:	a1 00 f1 40 00       	mov    0x40f100,%eax
  403cb8:	39 45 14             	cmp    %eax,0x14(%ebp)
  403cbb:	75 32                	jne    403cef <_getPawnMoves+0x8b>
  403cbd:	8b 45 08             	mov    0x8(%ebp),%eax
  403cc0:	8b 50 0c             	mov    0xc(%eax),%edx
  403cc3:	8b 40 08             	mov    0x8(%eax),%eax
  403cc6:	89 45 d0             	mov    %eax,-0x30(%ebp)
  403cc9:	89 55 d4             	mov    %edx,-0x2c(%ebp)
  403ccc:	8b 45 08             	mov    0x8(%ebp),%eax
  403ccf:	8b 50 04             	mov    0x4(%eax),%edx
  403cd2:	8b 00                	mov    (%eax),%eax
  403cd4:	89 45 c8             	mov    %eax,-0x38(%ebp)
  403cd7:	89 55 cc             	mov    %edx,-0x34(%ebp)
  403cda:	c7 45 e4 f8 ff ff ff 	movl   $0xfffffff8,-0x1c(%ebp)
  403ce1:	c7 45 e0 f9 ff ff ff 	movl   $0xfffffff9,-0x20(%ebp)
  403ce8:	c7 45 dc f7 ff ff ff 	movl   $0xfffffff7,-0x24(%ebp)
  403cef:	8b 45 08             	mov    0x8(%ebp),%eax
  403cf2:	8b 50 3c             	mov    0x3c(%eax),%edx
  403cf5:	8b 40 38             	mov    0x38(%eax),%eax
  403cf8:	89 c1                	mov    %eax,%ecx
  403cfa:	23 4d d0             	and    -0x30(%ebp),%ecx
  403cfd:	89 4d a0             	mov    %ecx,-0x60(%ebp)
  403d00:	89 d0                	mov    %edx,%eax
  403d02:	23 45 d4             	and    -0x2c(%ebp),%eax
  403d05:	89 45 a4             	mov    %eax,-0x5c(%ebp)
  403d08:	a1 38 f8 40 00       	mov    0x40f838,%eax
  403d0d:	89 85 58 ff ff ff    	mov    %eax,-0xa8(%ebp)
  403d13:	a1 3c f8 40 00       	mov    0x40f83c,%eax
  403d18:	89 85 5c ff ff ff    	mov    %eax,-0xa4(%ebp)
  403d1e:	a1 40 f8 40 00       	mov    0x40f840,%eax
  403d23:	89 85 60 ff ff ff    	mov    %eax,-0xa0(%ebp)
  403d29:	a1 44 f8 40 00       	mov    0x40f844,%eax
  403d2e:	89 85 64 ff ff ff    	mov    %eax,-0x9c(%ebp)
  403d34:	a1 28 30 41 00       	mov    0x413028,%eax
  403d39:	39 45 14             	cmp    %eax,0x14(%ebp)
  403d3c:	0f 85 a8 02 00 00    	jne    403fea <_getPawnMoves+0x386>
  403d42:	8b 45 a0             	mov    -0x60(%ebp),%eax
  403d45:	8b 55 a4             	mov    -0x5c(%ebp),%edx
  403d48:	0f a4 c2 08          	shld   $0x8,%eax,%edx
  403d4c:	c1 e0 08             	shl    $0x8,%eax
  403d4f:	89 c1                	mov    %eax,%ecx
  403d51:	89 d3                	mov    %edx,%ebx
  403d53:	8b 55 c8             	mov    -0x38(%ebp),%edx
  403d56:	8b 45 d0             	mov    -0x30(%ebp),%eax
  403d59:	09 d0                	or     %edx,%eax
  403d5b:	89 c6                	mov    %eax,%esi
  403d5d:	8b 55 cc             	mov    -0x34(%ebp),%edx
  403d60:	8b 45 d4             	mov    -0x2c(%ebp),%eax
  403d63:	09 d0                	or     %edx,%eax
  403d65:	89 c7                	mov    %eax,%edi
  403d67:	89 f0                	mov    %esi,%eax
  403d69:	f7 d0                	not    %eax
  403d6b:	89 85 50 ff ff ff    	mov    %eax,-0xb0(%ebp)
  403d71:	89 f8                	mov    %edi,%eax
  403d73:	f7 d0                	not    %eax
  403d75:	89 85 54 ff ff ff    	mov    %eax,-0xac(%ebp)
  403d7b:	8b b5 50 ff ff ff    	mov    -0xb0(%ebp),%esi
  403d81:	8b bd 54 ff ff ff    	mov    -0xac(%ebp),%edi
  403d87:	89 f0                	mov    %esi,%eax
  403d89:	21 c8                	and    %ecx,%eax
  403d8b:	89 45 c0             	mov    %eax,-0x40(%ebp)
  403d8e:	89 f8                	mov    %edi,%eax
  403d90:	21 d8                	and    %ebx,%eax
  403d92:	89 45 c4             	mov    %eax,-0x3c(%ebp)
  403d95:	a1 a0 f1 40 00       	mov    0x40f1a0,%eax
  403d9a:	8b 15 a4 f1 40 00    	mov    0x40f1a4,%edx
  403da0:	89 c1                	mov    %eax,%ecx
  403da2:	23 4d c0             	and    -0x40(%ebp),%ecx
  403da5:	89 4d 98             	mov    %ecx,-0x68(%ebp)
  403da8:	89 d0                	mov    %edx,%eax
  403daa:	23 45 c4             	and    -0x3c(%ebp),%eax
  403dad:	89 45 9c             	mov    %eax,-0x64(%ebp)
  403db0:	a1 a0 f1 40 00       	mov    0x40f1a0,%eax
  403db5:	8b 15 a4 f1 40 00    	mov    0x40f1a4,%edx
  403dbb:	89 c7                	mov    %eax,%edi
  403dbd:	f7 d7                	not    %edi
  403dbf:	89 bd 48 ff ff ff    	mov    %edi,-0xb8(%ebp)
  403dc5:	89 d0                	mov    %edx,%eax
  403dc7:	f7 d0                	not    %eax
  403dc9:	89 85 4c ff ff ff    	mov    %eax,-0xb4(%ebp)
  403dcf:	8b 85 48 ff ff ff    	mov    -0xb8(%ebp),%eax
  403dd5:	8b 95 4c ff ff ff    	mov    -0xb4(%ebp),%edx
  403ddb:	89 c6                	mov    %eax,%esi
  403ddd:	21 75 c0             	and    %esi,-0x40(%ebp)
  403de0:	89 d0                	mov    %edx,%eax
  403de2:	21 45 c4             	and    %eax,-0x3c(%ebp)
  403de5:	a1 c8 f1 40 00       	mov    0x40f1c8,%eax
  403dea:	8b 15 cc f1 40 00    	mov    0x40f1cc,%edx
  403df0:	89 c7                	mov    %eax,%edi
  403df2:	23 7d c0             	and    -0x40(%ebp),%edi
  403df5:	89 bd 40 ff ff ff    	mov    %edi,-0xc0(%ebp)
  403dfb:	89 d0                	mov    %edx,%eax
  403dfd:	23 45 c4             	and    -0x3c(%ebp),%eax
  403e00:	89 85 44 ff ff ff    	mov    %eax,-0xbc(%ebp)
  403e06:	8b 8d 40 ff ff ff    	mov    -0xc0(%ebp),%ecx
  403e0c:	8b 9d 44 ff ff ff    	mov    -0xbc(%ebp),%ebx
  403e12:	0f a4 cb 08          	shld   $0x8,%ecx,%ebx
  403e16:	c1 e1 08             	shl    $0x8,%ecx
  403e19:	8b 55 c8             	mov    -0x38(%ebp),%edx
  403e1c:	8b 45 d0             	mov    -0x30(%ebp),%eax
  403e1f:	09 d0                	or     %edx,%eax
  403e21:	89 85 38 ff ff ff    	mov    %eax,-0xc8(%ebp)
  403e27:	8b 55 cc             	mov    -0x34(%ebp),%edx
  403e2a:	8b 45 d4             	mov    -0x2c(%ebp),%eax
  403e2d:	09 d0                	or     %edx,%eax
  403e2f:	89 85 3c ff ff ff    	mov    %eax,-0xc4(%ebp)
  403e35:	8b 85 38 ff ff ff    	mov    -0xc8(%ebp),%eax
  403e3b:	8b 95 3c ff ff ff    	mov    -0xc4(%ebp),%edx
  403e41:	89 c7                	mov    %eax,%edi
  403e43:	f7 d7                	not    %edi
  403e45:	89 bd 30 ff ff ff    	mov    %edi,-0xd0(%ebp)
  403e4b:	89 d0                	mov    %edx,%eax
  403e4d:	f7 d0                	not    %eax
  403e4f:	89 85 34 ff ff ff    	mov    %eax,-0xcc(%ebp)
  403e55:	8b b5 30 ff ff ff    	mov    -0xd0(%ebp),%esi
  403e5b:	8b bd 34 ff ff ff    	mov    -0xcc(%ebp),%edi
  403e61:	89 f0                	mov    %esi,%eax
  403e63:	21 c8                	and    %ecx,%eax
  403e65:	89 45 b8             	mov    %eax,-0x48(%ebp)
  403e68:	89 f8                	mov    %edi,%eax
  403e6a:	21 d8                	and    %ebx,%eax
  403e6c:	89 45 bc             	mov    %eax,-0x44(%ebp)
  403e6f:	8b 45 a0             	mov    -0x60(%ebp),%eax
  403e72:	8b 55 a4             	mov    -0x5c(%ebp),%edx
  403e75:	0f a4 c2 07          	shld   $0x7,%eax,%edx
  403e79:	c1 e0 07             	shl    $0x7,%eax
  403e7c:	89 c1                	mov    %eax,%ecx
  403e7e:	89 d3                	mov    %edx,%ebx
  403e80:	a1 e0 f1 40 00       	mov    0x40f1e0,%eax
  403e85:	8b 15 e4 f1 40 00    	mov    0x40f1e4,%edx
  403e8b:	89 c7                	mov    %eax,%edi
  403e8d:	f7 d7                	not    %edi
  403e8f:	89 bd 28 ff ff ff    	mov    %edi,-0xd8(%ebp)
  403e95:	89 d0                	mov    %edx,%eax
  403e97:	f7 d0                	not    %eax
  403e99:	89 85 2c ff ff ff    	mov    %eax,-0xd4(%ebp)
  403e9f:	8b 85 28 ff ff ff    	mov    -0xd8(%ebp),%eax
  403ea5:	8b 95 2c ff ff ff    	mov    -0xd4(%ebp),%edx
  403eab:	89 c7                	mov    %eax,%edi
  403ead:	21 cf                	and    %ecx,%edi
  403eaf:	89 bd 20 ff ff ff    	mov    %edi,-0xe0(%ebp)
  403eb5:	89 df                	mov    %ebx,%edi
  403eb7:	21 d7                	and    %edx,%edi
  403eb9:	89 bd 24 ff ff ff    	mov    %edi,-0xdc(%ebp)
  403ebf:	8b 9d 20 ff ff ff    	mov    -0xe0(%ebp),%ebx
  403ec5:	8b b5 24 ff ff ff    	mov    -0xdc(%ebp),%esi
  403ecb:	89 d8                	mov    %ebx,%eax
  403ecd:	23 45 c8             	and    -0x38(%ebp),%eax
  403ed0:	89 45 b0             	mov    %eax,-0x50(%ebp)
  403ed3:	89 f0                	mov    %esi,%eax
  403ed5:	23 45 cc             	and    -0x34(%ebp),%eax
  403ed8:	89 45 b4             	mov    %eax,-0x4c(%ebp)
  403edb:	a1 a0 f1 40 00       	mov    0x40f1a0,%eax
  403ee0:	8b 15 a4 f1 40 00    	mov    0x40f1a4,%edx
  403ee6:	89 c1                	mov    %eax,%ecx
  403ee8:	23 4d b0             	and    -0x50(%ebp),%ecx
  403eeb:	89 4d 90             	mov    %ecx,-0x70(%ebp)
  403eee:	89 d0                	mov    %edx,%eax
  403ef0:	23 45 b4             	and    -0x4c(%ebp),%eax
  403ef3:	89 45 94             	mov    %eax,-0x6c(%ebp)
  403ef6:	a1 a0 f1 40 00       	mov    0x40f1a0,%eax
  403efb:	8b 15 a4 f1 40 00    	mov    0x40f1a4,%edx
  403f01:	89 c7                	mov    %eax,%edi
  403f03:	f7 d7                	not    %edi
  403f05:	89 bd 18 ff ff ff    	mov    %edi,-0xe8(%ebp)
  403f0b:	89 d0                	mov    %edx,%eax
  403f0d:	f7 d0                	not    %eax
  403f0f:	89 85 1c ff ff ff    	mov    %eax,-0xe4(%ebp)
  403f15:	8b 85 18 ff ff ff    	mov    -0xe8(%ebp),%eax
  403f1b:	8b 95 1c ff ff ff    	mov    -0xe4(%ebp),%edx
  403f21:	89 c3                	mov    %eax,%ebx
  403f23:	21 5d b0             	and    %ebx,-0x50(%ebp)
  403f26:	89 d0                	mov    %edx,%eax
  403f28:	21 45 b4             	and    %eax,-0x4c(%ebp)
  403f2b:	8b 45 a0             	mov    -0x60(%ebp),%eax
  403f2e:	8b 55 a4             	mov    -0x5c(%ebp),%edx
  403f31:	0f a4 c2 09          	shld   $0x9,%eax,%edx
  403f35:	c1 e0 09             	shl    $0x9,%eax
  403f38:	89 c1                	mov    %eax,%ecx
  403f3a:	89 d3                	mov    %edx,%ebx
  403f3c:	a1 18 f2 40 00       	mov    0x40f218,%eax
  403f41:	8b 15 1c f2 40 00    	mov    0x40f21c,%edx
  403f47:	89 c7                	mov    %eax,%edi
  403f49:	f7 d7                	not    %edi
  403f4b:	89 bd 10 ff ff ff    	mov    %edi,-0xf0(%ebp)
  403f51:	89 d0                	mov    %edx,%eax
  403f53:	f7 d0                	not    %eax
  403f55:	89 85 14 ff ff ff    	mov    %eax,-0xec(%ebp)
  403f5b:	8b 85 10 ff ff ff    	mov    -0xf0(%ebp),%eax
  403f61:	8b 95 14 ff ff ff    	mov    -0xec(%ebp),%edx
  403f67:	89 c7                	mov    %eax,%edi
  403f69:	21 cf                	and    %ecx,%edi
  403f6b:	89 bd 08 ff ff ff    	mov    %edi,-0xf8(%ebp)
  403f71:	21 d3                	and    %edx,%ebx
  403f73:	89 9d 0c ff ff ff    	mov    %ebx,-0xf4(%ebp)
  403f79:	8b b5 08 ff ff ff    	mov    -0xf8(%ebp),%esi
  403f7f:	8b bd 0c ff ff ff    	mov    -0xf4(%ebp),%edi
  403f85:	89 f0                	mov    %esi,%eax
  403f87:	23 45 c8             	and    -0x38(%ebp),%eax
  403f8a:	89 45 a8             	mov    %eax,-0x58(%ebp)
  403f8d:	89 f8                	mov    %edi,%eax
  403f8f:	23 45 cc             	and    -0x34(%ebp),%eax
  403f92:	89 45 ac             	mov    %eax,-0x54(%ebp)
  403f95:	a1 a0 f1 40 00       	mov    0x40f1a0,%eax
  403f9a:	8b 15 a4 f1 40 00    	mov    0x40f1a4,%edx
  403fa0:	89 c1                	mov    %eax,%ecx
  403fa2:	23 4d a8             	and    -0x58(%ebp),%ecx
  403fa5:	89 4d 88             	mov    %ecx,-0x78(%ebp)
  403fa8:	89 d0                	mov    %edx,%eax
  403faa:	23 45 ac             	and    -0x54(%ebp),%eax
  403fad:	89 45 8c             	mov    %eax,-0x74(%ebp)
  403fb0:	a1 a0 f1 40 00       	mov    0x40f1a0,%eax
  403fb5:	8b 15 a4 f1 40 00    	mov    0x40f1a4,%edx
  403fbb:	89 c3                	mov    %eax,%ebx
  403fbd:	f7 d3                	not    %ebx
  403fbf:	89 9d 00 ff ff ff    	mov    %ebx,-0x100(%ebp)
  403fc5:	89 d0                	mov    %edx,%eax
  403fc7:	f7 d0                	not    %eax
  403fc9:	89 85 04 ff ff ff    	mov    %eax,-0xfc(%ebp)
  403fcf:	8b 85 00 ff ff ff    	mov    -0x100(%ebp),%eax
  403fd5:	8b 95 04 ff ff ff    	mov    -0xfc(%ebp),%edx
  403fdb:	89 c6                	mov    %eax,%esi
  403fdd:	21 75 a8             	and    %esi,-0x58(%ebp)
  403fe0:	89 d0                	mov    %edx,%eax
  403fe2:	21 45 ac             	and    %eax,-0x54(%ebp)
  403fe5:	e9 c8 02 00 00       	jmp    4042b2 <_getPawnMoves+0x64e>
  403fea:	a1 00 f1 40 00       	mov    0x40f100,%eax
  403fef:	39 45 14             	cmp    %eax,0x14(%ebp)
  403ff2:	0f 85 ba 02 00 00    	jne    4042b2 <_getPawnMoves+0x64e>
  403ff8:	8b 45 a0             	mov    -0x60(%ebp),%eax
  403ffb:	8b 55 a4             	mov    -0x5c(%ebp),%edx
  403ffe:	0f ac d0 08          	shrd   $0x8,%edx,%eax
  404002:	c1 ea 08             	shr    $0x8,%edx
  404005:	89 c1                	mov    %eax,%ecx
  404007:	89 d3                	mov    %edx,%ebx
  404009:	8b 55 c8             	mov    -0x38(%ebp),%edx
  40400c:	8b 45 d0             	mov    -0x30(%ebp),%eax
  40400f:	09 d0                	or     %edx,%eax
  404011:	89 85 f8 fe ff ff    	mov    %eax,-0x108(%ebp)
  404017:	8b 55 cc             	mov    -0x34(%ebp),%edx
  40401a:	8b 45 d4             	mov    -0x2c(%ebp),%eax
  40401d:	09 d0                	or     %edx,%eax
  40401f:	89 85 fc fe ff ff    	mov    %eax,-0x104(%ebp)
  404025:	8b 85 f8 fe ff ff    	mov    -0x108(%ebp),%eax
  40402b:	8b 95 fc fe ff ff    	mov    -0x104(%ebp),%edx
  404031:	89 c7                	mov    %eax,%edi
  404033:	f7 d7                	not    %edi
  404035:	89 bd f0 fe ff ff    	mov    %edi,-0x110(%ebp)
  40403b:	89 d0                	mov    %edx,%eax
  40403d:	f7 d0                	not    %eax
  40403f:	89 85 f4 fe ff ff    	mov    %eax,-0x10c(%ebp)
  404045:	8b b5 f0 fe ff ff    	mov    -0x110(%ebp),%esi
  40404b:	8b bd f4 fe ff ff    	mov    -0x10c(%ebp),%edi
  404051:	89 f0                	mov    %esi,%eax
  404053:	21 c8                	and    %ecx,%eax
  404055:	89 45 c0             	mov    %eax,-0x40(%ebp)
  404058:	89 f8                	mov    %edi,%eax
  40405a:	21 d8                	and    %ebx,%eax
  40405c:	89 45 c4             	mov    %eax,-0x3c(%ebp)
  40405f:	a1 d8 f1 40 00       	mov    0x40f1d8,%eax
  404064:	8b 15 dc f1 40 00    	mov    0x40f1dc,%edx
  40406a:	89 c1                	mov    %eax,%ecx
  40406c:	23 4d c0             	and    -0x40(%ebp),%ecx
  40406f:	89 4d 98             	mov    %ecx,-0x68(%ebp)
  404072:	89 d0                	mov    %edx,%eax
  404074:	23 45 c4             	and    -0x3c(%ebp),%eax
  404077:	89 45 9c             	mov    %eax,-0x64(%ebp)
  40407a:	a1 d8 f1 40 00       	mov    0x40f1d8,%eax
  40407f:	8b 15 dc f1 40 00    	mov    0x40f1dc,%edx
  404085:	89 c3                	mov    %eax,%ebx
  404087:	f7 d3                	not    %ebx
  404089:	89 9d e8 fe ff ff    	mov    %ebx,-0x118(%ebp)
  40408f:	89 d0                	mov    %edx,%eax
  404091:	f7 d0                	not    %eax
  404093:	89 85 ec fe ff ff    	mov    %eax,-0x114(%ebp)
  404099:	8b 85 e8 fe ff ff    	mov    -0x118(%ebp),%eax
  40409f:	8b 95 ec fe ff ff    	mov    -0x114(%ebp),%edx
  4040a5:	89 c7                	mov    %eax,%edi
  4040a7:	21 7d c0             	and    %edi,-0x40(%ebp)
  4040aa:	89 d0                	mov    %edx,%eax
  4040ac:	21 45 c4             	and    %eax,-0x3c(%ebp)
  4040af:	a1 b0 f1 40 00       	mov    0x40f1b0,%eax
  4040b4:	8b 15 b4 f1 40 00    	mov    0x40f1b4,%edx
  4040ba:	89 c7                	mov    %eax,%edi
  4040bc:	23 7d c0             	and    -0x40(%ebp),%edi
  4040bf:	89 bd e0 fe ff ff    	mov    %edi,-0x120(%ebp)
  4040c5:	89 d0                	mov    %edx,%eax
  4040c7:	23 45 c4             	and    -0x3c(%ebp),%eax
  4040ca:	89 85 e4 fe ff ff    	mov    %eax,-0x11c(%ebp)
  4040d0:	8b 8d e0 fe ff ff    	mov    -0x120(%ebp),%ecx
  4040d6:	8b 9d e4 fe ff ff    	mov    -0x11c(%ebp),%ebx
  4040dc:	0f ac d9 08          	shrd   $0x8,%ebx,%ecx
  4040e0:	c1 eb 08             	shr    $0x8,%ebx
  4040e3:	8b 55 c8             	mov    -0x38(%ebp),%edx
  4040e6:	8b 45 d0             	mov    -0x30(%ebp),%eax
  4040e9:	09 d0                	or     %edx,%eax
  4040eb:	89 85 d8 fe ff ff    	mov    %eax,-0x128(%ebp)
  4040f1:	8b 55 cc             	mov    -0x34(%ebp),%edx
  4040f4:	8b 45 d4             	mov    -0x2c(%ebp),%eax
  4040f7:	09 d0                	or     %edx,%eax
  4040f9:	89 85 dc fe ff ff    	mov    %eax,-0x124(%ebp)
  4040ff:	8b 85 d8 fe ff ff    	mov    -0x128(%ebp),%eax
  404105:	8b 95 dc fe ff ff    	mov    -0x124(%ebp),%edx
  40410b:	89 c7                	mov    %eax,%edi
  40410d:	f7 d7                	not    %edi
  40410f:	89 bd d0 fe ff ff    	mov    %edi,-0x130(%ebp)
  404115:	89 d0                	mov    %edx,%eax
  404117:	f7 d0                	not    %eax
  404119:	89 85 d4 fe ff ff    	mov    %eax,-0x12c(%ebp)
  40411f:	8b b5 d0 fe ff ff    	mov    -0x130(%ebp),%esi
  404125:	8b bd d4 fe ff ff    	mov    -0x12c(%ebp),%edi
  40412b:	89 f0                	mov    %esi,%eax
  40412d:	21 c8                	and    %ecx,%eax
  40412f:	89 45 b8             	mov    %eax,-0x48(%ebp)
  404132:	89 f8                	mov    %edi,%eax
  404134:	21 d8                	and    %ebx,%eax
  404136:	89 45 bc             	mov    %eax,-0x44(%ebp)
  404139:	8b 45 a0             	mov    -0x60(%ebp),%eax
  40413c:	8b 55 a4             	mov    -0x5c(%ebp),%edx
  40413f:	0f ac d0 07          	shrd   $0x7,%edx,%eax
  404143:	c1 ea 07             	shr    $0x7,%edx
  404146:	89 c1                	mov    %eax,%ecx
  404148:	89 d3                	mov    %edx,%ebx
  40414a:	a1 18 f2 40 00       	mov    0x40f218,%eax
  40414f:	8b 15 1c f2 40 00    	mov    0x40f21c,%edx
  404155:	89 c7                	mov    %eax,%edi
  404157:	f7 d7                	not    %edi
  404159:	89 bd c8 fe ff ff    	mov    %edi,-0x138(%ebp)
  40415f:	89 d0                	mov    %edx,%eax
  404161:	f7 d0                	not    %eax
  404163:	89 85 cc fe ff ff    	mov    %eax,-0x134(%ebp)
  404169:	8b 85 c8 fe ff ff    	mov    -0x138(%ebp),%eax
  40416f:	8b 95 cc fe ff ff    	mov    -0x134(%ebp),%edx
  404175:	89 c6                	mov    %eax,%esi
  404177:	21 ce                	and    %ecx,%esi
  404179:	89 b5 c0 fe ff ff    	mov    %esi,-0x140(%ebp)
  40417f:	21 d3                	and    %edx,%ebx
  404181:	89 9d c4 fe ff ff    	mov    %ebx,-0x13c(%ebp)
  404187:	8b 9d c0 fe ff ff    	mov    -0x140(%ebp),%ebx
  40418d:	8b b5 c4 fe ff ff    	mov    -0x13c(%ebp),%esi
  404193:	89 d8                	mov    %ebx,%eax
  404195:	23 45 c8             	and    -0x38(%ebp),%eax
  404198:	89 45 b0             	mov    %eax,-0x50(%ebp)
  40419b:	89 f0                	mov    %esi,%eax
  40419d:	23 45 cc             	and    -0x34(%ebp),%eax
  4041a0:	89 45 b4             	mov    %eax,-0x4c(%ebp)
  4041a3:	a1 d8 f1 40 00       	mov    0x40f1d8,%eax
  4041a8:	8b 15 dc f1 40 00    	mov    0x40f1dc,%edx
  4041ae:	89 c1                	mov    %eax,%ecx
  4041b0:	23 4d b0             	and    -0x50(%ebp),%ecx
  4041b3:	89 4d 90             	mov    %ecx,-0x70(%ebp)
  4041b6:	89 d0                	mov    %edx,%eax
  4041b8:	23 45 b4             	and    -0x4c(%ebp),%eax
  4041bb:	89 45 94             	mov    %eax,-0x6c(%ebp)
  4041be:	a1 d8 f1 40 00       	mov    0x40f1d8,%eax
  4041c3:	8b 15 dc f1 40 00    	mov    0x40f1dc,%edx
  4041c9:	89 c3                	mov    %eax,%ebx
  4041cb:	f7 d3                	not    %ebx
  4041cd:	89 9d b8 fe ff ff    	mov    %ebx,-0x148(%ebp)
  4041d3:	89 d0                	mov    %edx,%eax
  4041d5:	f7 d0                	not    %eax
  4041d7:	89 85 bc fe ff ff    	mov    %eax,-0x144(%ebp)
  4041dd:	8b 85 b8 fe ff ff    	mov    -0x148(%ebp),%eax
  4041e3:	8b 95 bc fe ff ff    	mov    -0x144(%ebp),%edx
  4041e9:	89 c3                	mov    %eax,%ebx
  4041eb:	21 5d b0             	and    %ebx,-0x50(%ebp)
  4041ee:	89 d0                	mov    %edx,%eax
  4041f0:	21 45 b4             	and    %eax,-0x4c(%ebp)
  4041f3:	8b 45 a0             	mov    -0x60(%ebp),%eax
  4041f6:	8b 55 a4             	mov    -0x5c(%ebp),%edx
  4041f9:	0f ac d0 09          	shrd   $0x9,%edx,%eax
  4041fd:	c1 ea 09             	shr    $0x9,%edx
  404200:	89 c1                	mov    %eax,%ecx
  404202:	89 d3                	mov    %edx,%ebx
  404204:	a1 e0 f1 40 00       	mov    0x40f1e0,%eax
  404209:	8b 15 e4 f1 40 00    	mov    0x40f1e4,%edx
  40420f:	89 c7                	mov    %eax,%edi
  404211:	f7 d7                	not    %edi
  404213:	89 bd b0 fe ff ff    	mov    %edi,-0x150(%ebp)
  404219:	89 d0                	mov    %edx,%eax
  40421b:	f7 d0                	not    %eax
  40421d:	89 85 b4 fe ff ff    	mov    %eax,-0x14c(%ebp)
  404223:	8b 85 b0 fe ff ff    	mov    -0x150(%ebp),%eax
  404229:	8b 95 b4 fe ff ff    	mov    -0x14c(%ebp),%edx
  40422f:	89 c6                	mov    %eax,%esi
  404231:	21 ce                	and    %ecx,%esi
  404233:	89 b5 a8 fe ff ff    	mov    %esi,-0x158(%ebp)
  404239:	21 d3                	and    %edx,%ebx
  40423b:	89 9d ac fe ff ff    	mov    %ebx,-0x154(%ebp)
  404241:	8b 9d a8 fe ff ff    	mov    -0x158(%ebp),%ebx
  404247:	8b b5 ac fe ff ff    	mov    -0x154(%ebp),%esi
  40424d:	89 d8                	mov    %ebx,%eax
  40424f:	23 45 c8             	and    -0x38(%ebp),%eax
  404252:	89 45 a8             	mov    %eax,-0x58(%ebp)
  404255:	89 f0                	mov    %esi,%eax
  404257:	23 45 cc             	and    -0x34(%ebp),%eax
  40425a:	89 45 ac             	mov    %eax,-0x54(%ebp)
  40425d:	a1 d8 f1 40 00       	mov    0x40f1d8,%eax
  404262:	8b 15 dc f1 40 00    	mov    0x40f1dc,%edx
  404268:	89 c1                	mov    %eax,%ecx
  40426a:	23 4d a8             	and    -0x58(%ebp),%ecx
  40426d:	89 4d 88             	mov    %ecx,-0x78(%ebp)
  404270:	89 d0                	mov    %edx,%eax
  404272:	23 45 ac             	and    -0x54(%ebp),%eax
  404275:	89 45 8c             	mov    %eax,-0x74(%ebp)
  404278:	a1 d8 f1 40 00       	mov    0x40f1d8,%eax
  40427d:	8b 15 dc f1 40 00    	mov    0x40f1dc,%edx
  404283:	89 c3                	mov    %eax,%ebx
  404285:	f7 d3                	not    %ebx
  404287:	89 9d a0 fe ff ff    	mov    %ebx,-0x160(%ebp)
  40428d:	89 d0                	mov    %edx,%eax
  40428f:	f7 d0                	not    %eax
  404291:	89 85 a4 fe ff ff    	mov    %eax,-0x15c(%ebp)
  404297:	8b 85 a0 fe ff ff    	mov    -0x160(%ebp),%eax
  40429d:	8b 95 a4 fe ff ff    	mov    -0x15c(%ebp),%edx
  4042a3:	89 c6                	mov    %eax,%esi
  4042a5:	21 75 a8             	and    %esi,-0x58(%ebp)
  4042a8:	89 d0                	mov    %edx,%eax
  4042aa:	21 45 ac             	and    %eax,-0x54(%ebp)
  4042ad:	e9 ea 00 00 00       	jmp    40439c <_getPawnMoves+0x738>
  4042b2:	e9 e5 00 00 00       	jmp    40439c <_getPawnMoves+0x738>
  4042b7:	8b 45 c0             	mov    -0x40(%ebp),%eax
  4042ba:	8b 55 c4             	mov    -0x3c(%ebp),%edx
  4042bd:	83 c0 ff             	add    $0xffffffff,%eax
  4042c0:	83 d2 ff             	adc    $0xffffffff,%edx
  4042c3:	89 c7                	mov    %eax,%edi
  4042c5:	33 7d c0             	xor    -0x40(%ebp),%edi
  4042c8:	89 bd 98 fe ff ff    	mov    %edi,-0x168(%ebp)
  4042ce:	89 d0                	mov    %edx,%eax
  4042d0:	33 45 c4             	xor    -0x3c(%ebp),%eax
  4042d3:	89 85 9c fe ff ff    	mov    %eax,-0x164(%ebp)
  4042d9:	8b 9d 98 fe ff ff    	mov    -0x168(%ebp),%ebx
  4042df:	8b b5 9c fe ff ff    	mov    -0x164(%ebp),%esi
  4042e5:	69 d6 89 0a cb b4    	imul   $0xb4cb0a89,%esi,%edx
  4042eb:	69 c3 71 9d f7 03    	imul   $0x3f79d71,%ebx,%eax
  4042f1:	8d 0c 02             	lea    (%edx,%eax,1),%ecx
  4042f4:	b8 89 0a cb b4       	mov    $0xb4cb0a89,%eax
  4042f9:	f7 e3                	mul    %ebx
  4042fb:	01 d1                	add    %edx,%ecx
  4042fd:	89 ca                	mov    %ecx,%edx
  4042ff:	89 d0                	mov    %edx,%eax
  404301:	31 d2                	xor    %edx,%edx
  404303:	c1 e8 1a             	shr    $0x1a,%eax
  404306:	8b 04 85 00 f0 40 00 	mov    0x40f000(,%eax,4),%eax
  40430d:	89 45 84             	mov    %eax,-0x7c(%ebp)
  404310:	c7 04 24 14 00 00 00 	movl   $0x14,(%esp)
  404317:	e8 dc 96 00 00       	call   40d9f8 <_malloc>
  40431c:	89 45 80             	mov    %eax,-0x80(%ebp)
  40431f:	8b 55 e4             	mov    -0x1c(%ebp),%edx
  404322:	8b 45 84             	mov    -0x7c(%ebp),%eax
  404325:	29 d0                	sub    %edx,%eax
  404327:	89 c2                	mov    %eax,%edx
  404329:	8b 45 80             	mov    -0x80(%ebp),%eax
  40432c:	89 10                	mov    %edx,(%eax)
  40432e:	8b 55 80             	mov    -0x80(%ebp),%edx
  404331:	8b 45 84             	mov    -0x7c(%ebp),%eax
  404334:	89 42 04             	mov    %eax,0x4(%edx)
  404337:	8b 15 18 f1 40 00    	mov    0x40f118,%edx
  40433d:	8b 45 80             	mov    -0x80(%ebp),%eax
  404340:	89 50 08             	mov    %edx,0x8(%eax)
  404343:	8b 15 2c 30 41 00    	mov    0x41302c,%edx
  404349:	8b 45 80             	mov    -0x80(%ebp),%eax
  40434c:	89 50 0c             	mov    %edx,0xc(%eax)
  40434f:	8b 15 38 30 41 00    	mov    0x413038,%edx
  404355:	8b 45 80             	mov    -0x80(%ebp),%eax
  404358:	89 50 10             	mov    %edx,0x10(%eax)
  40435b:	8b 45 10             	mov    0x10(%ebp),%eax
  40435e:	8b 08                	mov    (%eax),%ecx
  404360:	8d 51 01             	lea    0x1(%ecx),%edx
  404363:	8b 45 10             	mov    0x10(%ebp),%eax
  404366:	89 10                	mov    %edx,(%eax)
  404368:	89 c8                	mov    %ecx,%eax
  40436a:	8d 14 85 00 00 00 00 	lea    0x0(,%eax,4),%edx
  404371:	8b 45 0c             	mov    0xc(%ebp),%eax
  404374:	01 c2                	add    %eax,%edx
  404376:	8b 45 80             	mov    -0x80(%ebp),%eax
  404379:	89 02                	mov    %eax,(%edx)
  40437b:	8b 4d 84             	mov    -0x7c(%ebp),%ecx
  40437e:	b8 01 00 00 00       	mov    $0x1,%eax
  404383:	ba 00 00 00 00       	mov    $0x0,%edx
  404388:	0f a5 c2             	shld   %cl,%eax,%edx
  40438b:	d3 e0                	shl    %cl,%eax
  40438d:	f6 c1 20             	test   $0x20,%cl
  404390:	74 04                	je     404396 <_getPawnMoves+0x732>
  404392:	89 c2                	mov    %eax,%edx
  404394:	31 c0                	xor    %eax,%eax
  404396:	31 45 c0             	xor    %eax,-0x40(%ebp)
  404399:	31 55 c4             	xor    %edx,-0x3c(%ebp)
  40439c:	8b 55 c0             	mov    -0x40(%ebp),%edx
  40439f:	8b 45 c4             	mov    -0x3c(%ebp),%eax
  4043a2:	09 d0                	or     %edx,%eax
  4043a4:	85 c0                	test   %eax,%eax
  4043a6:	0f 85 0b ff ff ff    	jne    4042b7 <_getPawnMoves+0x653>
  4043ac:	e9 0f 01 00 00       	jmp    4044c0 <_getPawnMoves+0x85c>
  4043b1:	8b 45 b8             	mov    -0x48(%ebp),%eax
  4043b4:	8b 55 bc             	mov    -0x44(%ebp),%edx
  4043b7:	83 c0 ff             	add    $0xffffffff,%eax
  4043ba:	83 d2 ff             	adc    $0xffffffff,%edx
  4043bd:	89 c6                	mov    %eax,%esi
  4043bf:	33 75 b8             	xor    -0x48(%ebp),%esi
  4043c2:	89 b5 90 fe ff ff    	mov    %esi,-0x170(%ebp)
  4043c8:	89 d0                	mov    %edx,%eax
  4043ca:	33 45 bc             	xor    -0x44(%ebp),%eax
  4043cd:	89 85 94 fe ff ff    	mov    %eax,-0x16c(%ebp)
  4043d3:	8b 9d 90 fe ff ff    	mov    -0x170(%ebp),%ebx
  4043d9:	8b b5 94 fe ff ff    	mov    -0x16c(%ebp),%esi
  4043df:	69 d6 89 0a cb b4    	imul   $0xb4cb0a89,%esi,%edx
  4043e5:	69 c3 71 9d f7 03    	imul   $0x3f79d71,%ebx,%eax
  4043eb:	8d 0c 02             	lea    (%edx,%eax,1),%ecx
  4043ee:	b8 89 0a cb b4       	mov    $0xb4cb0a89,%eax
  4043f3:	f7 e3                	mul    %ebx
  4043f5:	01 d1                	add    %edx,%ecx
  4043f7:	89 ca                	mov    %ecx,%edx
  4043f9:	89 d0                	mov    %edx,%eax
  4043fb:	31 d2                	xor    %edx,%edx
  4043fd:	c1 e8 1a             	shr    $0x1a,%eax
  404400:	8b 04 85 00 f0 40 00 	mov    0x40f000(,%eax,4),%eax
  404407:	89 85 7c ff ff ff    	mov    %eax,-0x84(%ebp)
  40440d:	c7 04 24 14 00 00 00 	movl   $0x14,(%esp)
  404414:	e8 df 95 00 00       	call   40d9f8 <_malloc>
  404419:	89 85 78 ff ff ff    	mov    %eax,-0x88(%ebp)
  40441f:	8b 55 e4             	mov    -0x1c(%ebp),%edx
  404422:	b8 00 00 00 00       	mov    $0x0,%eax
  404427:	29 d0                	sub    %edx,%eax
  404429:	01 c0                	add    %eax,%eax
  40442b:	89 c2                	mov    %eax,%edx
  40442d:	8b 85 7c ff ff ff    	mov    -0x84(%ebp),%eax
  404433:	01 c2                	add    %eax,%edx
  404435:	8b 85 78 ff ff ff    	mov    -0x88(%ebp),%eax
  40443b:	89 10                	mov    %edx,(%eax)
  40443d:	8b 95 78 ff ff ff    	mov    -0x88(%ebp),%edx
  404443:	8b 85 7c ff ff ff    	mov    -0x84(%ebp),%eax
  404449:	89 42 04             	mov    %eax,0x4(%edx)
  40444c:	8b 15 18 f1 40 00    	mov    0x40f118,%edx
  404452:	8b 85 78 ff ff ff    	mov    -0x88(%ebp),%eax
  404458:	89 50 08             	mov    %edx,0x8(%eax)
  40445b:	8b 15 2c 30 41 00    	mov    0x41302c,%edx
  404461:	8b 85 78 ff ff ff    	mov    -0x88(%ebp),%eax
  404467:	89 50 0c             	mov    %edx,0xc(%eax)
  40446a:	8b 15 20 f8 40 00    	mov    0x40f820,%edx
  404470:	8b 85 78 ff ff ff    	mov    -0x88(%ebp),%eax
  404476:	89 50 10             	mov    %edx,0x10(%eax)
  404479:	8b 45 10             	mov    0x10(%ebp),%eax
  40447c:	8b 08                	mov    (%eax),%ecx
  40447e:	8d 51 01             	lea    0x1(%ecx),%edx
  404481:	8b 45 10             	mov    0x10(%ebp),%eax
  404484:	89 10                	mov    %edx,(%eax)
  404486:	89 c8                	mov    %ecx,%eax
  404488:	8d 14 85 00 00 00 00 	lea    0x0(,%eax,4),%edx
  40448f:	8b 45 0c             	mov    0xc(%ebp),%eax
  404492:	01 c2                	add    %eax,%edx
  404494:	8b 85 78 ff ff ff    	mov    -0x88(%ebp),%eax
  40449a:	89 02                	mov    %eax,(%edx)
  40449c:	8b 8d 7c ff ff ff    	mov    -0x84(%ebp),%ecx
  4044a2:	b8 01 00 00 00       	mov    $0x1,%eax
  4044a7:	ba 00 00 00 00       	mov    $0x0,%edx
  4044ac:	0f a5 c2             	shld   %cl,%eax,%edx
  4044af:	d3 e0                	shl    %cl,%eax
  4044b1:	f6 c1 20             	test   $0x20,%cl
  4044b4:	74 04                	je     4044ba <_getPawnMoves+0x856>
  4044b6:	89 c2                	mov    %eax,%edx
  4044b8:	31 c0                	xor    %eax,%eax
  4044ba:	31 45 b8             	xor    %eax,-0x48(%ebp)
  4044bd:	31 55 bc             	xor    %edx,-0x44(%ebp)
  4044c0:	8b 55 b8             	mov    -0x48(%ebp),%edx
  4044c3:	8b 45 bc             	mov    -0x44(%ebp),%eax
  4044c6:	09 d0                	or     %edx,%eax
  4044c8:	85 c0                	test   %eax,%eax
  4044ca:	0f 85 e1 fe ff ff    	jne    4043b1 <_getPawnMoves+0x74d>
  4044d0:	e9 11 01 00 00       	jmp    4045e6 <_getPawnMoves+0x982>
  4044d5:	8b 45 b0             	mov    -0x50(%ebp),%eax
  4044d8:	8b 55 b4             	mov    -0x4c(%ebp),%edx
  4044db:	83 c0 ff             	add    $0xffffffff,%eax
  4044de:	83 d2 ff             	adc    $0xffffffff,%edx
  4044e1:	89 c3                	mov    %eax,%ebx
  4044e3:	33 5d b0             	xor    -0x50(%ebp),%ebx
  4044e6:	89 9d 88 fe ff ff    	mov    %ebx,-0x178(%ebp)
  4044ec:	89 d0                	mov    %edx,%eax
  4044ee:	33 45 b4             	xor    -0x4c(%ebp),%eax
  4044f1:	89 85 8c fe ff ff    	mov    %eax,-0x174(%ebp)
  4044f7:	8b 9d 88 fe ff ff    	mov    -0x178(%ebp),%ebx
  4044fd:	8b b5 8c fe ff ff    	mov    -0x174(%ebp),%esi
  404503:	69 d6 89 0a cb b4    	imul   $0xb4cb0a89,%esi,%edx
  404509:	69 c3 71 9d f7 03    	imul   $0x3f79d71,%ebx,%eax
  40450f:	8d 0c 02             	lea    (%edx,%eax,1),%ecx
  404512:	b8 89 0a cb b4       	mov    $0xb4cb0a89,%eax
  404517:	f7 e3                	mul    %ebx
  404519:	01 d1                	add    %edx,%ecx
  40451b:	89 ca                	mov    %ecx,%edx
  40451d:	89 d0                	mov    %edx,%eax
  40451f:	31 d2                	xor    %edx,%edx
  404521:	c1 e8 1a             	shr    $0x1a,%eax
  404524:	8b 04 85 00 f0 40 00 	mov    0x40f000(,%eax,4),%eax
  40452b:	89 85 74 ff ff ff    	mov    %eax,-0x8c(%ebp)
  404531:	c7 04 24 14 00 00 00 	movl   $0x14,(%esp)
  404538:	e8 bb 94 00 00       	call   40d9f8 <_malloc>
  40453d:	89 85 70 ff ff ff    	mov    %eax,-0x90(%ebp)
  404543:	8b 45 e0             	mov    -0x20(%ebp),%eax
  404546:	8b 95 74 ff ff ff    	mov    -0x8c(%ebp),%edx
  40454c:	29 c2                	sub    %eax,%edx
  40454e:	8b 85 70 ff ff ff    	mov    -0x90(%ebp),%eax
  404554:	89 10                	mov    %edx,(%eax)
  404556:	8b 85 70 ff ff ff    	mov    -0x90(%ebp),%eax
  40455c:	8b 95 74 ff ff ff    	mov    -0x8c(%ebp),%edx
  404562:	89 50 04             	mov    %edx,0x4(%eax)
  404565:	8b 45 08             	mov    0x8(%ebp),%eax
  404568:	89 44 24 04          	mov    %eax,0x4(%esp)
  40456c:	8b 85 74 ff ff ff    	mov    -0x8c(%ebp),%eax
  404572:	89 04 24             	mov    %eax,(%esp)
  404575:	e8 20 cf ff ff       	call   40149a <_getSquare>
  40457a:	8b 95 70 ff ff ff    	mov    -0x90(%ebp),%edx
  404580:	89 42 08             	mov    %eax,0x8(%edx)
  404583:	8b 15 2c 30 41 00    	mov    0x41302c,%edx
  404589:	8b 85 70 ff ff ff    	mov    -0x90(%ebp),%eax
  40458f:	89 50 0c             	mov    %edx,0xc(%eax)
  404592:	8b 15 38 30 41 00    	mov    0x413038,%edx
  404598:	8b 85 70 ff ff ff    	mov    -0x90(%ebp),%eax
  40459e:	89 50 10             	mov    %edx,0x10(%eax)
  4045a1:	8b 45 10             	mov    0x10(%ebp),%eax
  4045a4:	8b 00                	mov    (%eax),%eax
  4045a6:	8d 48 01             	lea    0x1(%eax),%ecx
  4045a9:	8b 55 10             	mov    0x10(%ebp),%edx
  4045ac:	89 0a                	mov    %ecx,(%edx)
  4045ae:	8d 14 85 00 00 00 00 	lea    0x0(,%eax,4),%edx
  4045b5:	8b 45 0c             	mov    0xc(%ebp),%eax
  4045b8:	01 c2                	add    %eax,%edx
  4045ba:	8b 85 70 ff ff ff    	mov    -0x90(%ebp),%eax
  4045c0:	89 02                	mov    %eax,(%edx)
  4045c2:	8b 8d 74 ff ff ff    	mov    -0x8c(%ebp),%ecx
  4045c8:	b8 01 00 00 00       	mov    $0x1,%eax
  4045cd:	ba 00 00 00 00       	mov    $0x0,%edx
  4045d2:	0f a5 c2             	shld   %cl,%eax,%edx
  4045d5:	d3 e0                	shl    %cl,%eax
  4045d7:	f6 c1 20             	test   $0x20,%cl
  4045da:	74 04                	je     4045e0 <_getPawnMoves+0x97c>
  4045dc:	89 c2                	mov    %eax,%edx
  4045de:	31 c0                	xor    %eax,%eax
  4045e0:	31 45 b0             	xor    %eax,-0x50(%ebp)
  4045e3:	31 55 b4             	xor    %edx,-0x4c(%ebp)
  4045e6:	8b 45 b0             	mov    -0x50(%ebp),%eax
  4045e9:	8b 55 b4             	mov    -0x4c(%ebp),%edx
  4045ec:	09 d0                	or     %edx,%eax
  4045ee:	85 c0                	test   %eax,%eax
  4045f0:	0f 85 df fe ff ff    	jne    4044d5 <_getPawnMoves+0x871>
  4045f6:	e9 11 01 00 00       	jmp    40470c <_getPawnMoves+0xaa8>
  4045fb:	8b 45 a8             	mov    -0x58(%ebp),%eax
  4045fe:	8b 55 ac             	mov    -0x54(%ebp),%edx
  404601:	83 c0 ff             	add    $0xffffffff,%eax
  404604:	83 d2 ff             	adc    $0xffffffff,%edx
  404607:	89 c7                	mov    %eax,%edi
  404609:	33 7d a8             	xor    -0x58(%ebp),%edi
  40460c:	89 bd 80 fe ff ff    	mov    %edi,-0x180(%ebp)
  404612:	89 d0                	mov    %edx,%eax
  404614:	33 45 ac             	xor    -0x54(%ebp),%eax
  404617:	89 85 84 fe ff ff    	mov    %eax,-0x17c(%ebp)
  40461d:	8b 9d 80 fe ff ff    	mov    -0x180(%ebp),%ebx
  404623:	8b b5 84 fe ff ff    	mov    -0x17c(%ebp),%esi
  404629:	69 d6 89 0a cb b4    	imul   $0xb4cb0a89,%esi,%edx
  40462f:	69 c3 71 9d f7 03    	imul   $0x3f79d71,%ebx,%eax
  404635:	8d 0c 02             	lea    (%edx,%eax,1),%ecx
  404638:	b8 89 0a cb b4       	mov    $0xb4cb0a89,%eax
  40463d:	f7 e3                	mul    %ebx
  40463f:	01 d1                	add    %edx,%ecx
  404641:	89 ca                	mov    %ecx,%edx
  404643:	89 d0                	mov    %edx,%eax
  404645:	31 d2                	xor    %edx,%edx
  404647:	c1 e8 1a             	shr    $0x1a,%eax
  40464a:	8b 04 85 00 f0 40 00 	mov    0x40f000(,%eax,4),%eax
  404651:	89 85 6c ff ff ff    	mov    %eax,-0x94(%ebp)
  404657:	c7 04 24 14 00 00 00 	movl   $0x14,(%esp)
  40465e:	e8 95 93 00 00       	call   40d9f8 <_malloc>
  404663:	89 85 68 ff ff ff    	mov    %eax,-0x98(%ebp)
  404669:	8b 45 dc             	mov    -0x24(%ebp),%eax
  40466c:	8b 95 6c ff ff ff    	mov    -0x94(%ebp),%edx
  404672:	29 c2                	sub    %eax,%edx
  404674:	8b 85 68 ff ff ff    	mov    -0x98(%ebp),%eax
  40467a:	89 10                	mov    %edx,(%eax)
  40467c:	8b 85 68 ff ff ff    	mov    -0x98(%ebp),%eax
  404682:	8b 95 6c ff ff ff    	mov    -0x94(%ebp),%edx
  404688:	89 50 04             	mov    %edx,0x4(%eax)
  40468b:	8b 45 08             	mov    0x8(%ebp),%eax
  40468e:	89 44 24 04          	mov    %eax,0x4(%esp)
  404692:	8b 85 6c ff ff ff    	mov    -0x94(%ebp),%eax
  404698:	89 04 24             	mov    %eax,(%esp)
  40469b:	e8 fa cd ff ff       	call   40149a <_getSquare>
  4046a0:	8b 95 68 ff ff ff    	mov    -0x98(%ebp),%edx
  4046a6:	89 42 08             	mov    %eax,0x8(%edx)
  4046a9:	8b 15 2c 30 41 00    	mov    0x41302c,%edx
  4046af:	8b 85 68 ff ff ff    	mov    -0x98(%ebp),%eax
  4046b5:	89 50 0c             	mov    %edx,0xc(%eax)
  4046b8:	8b 15 38 30 41 00    	mov    0x413038,%edx
  4046be:	8b 85 68 ff ff ff    	mov    -0x98(%ebp),%eax
  4046c4:	89 50 10             	mov    %edx,0x10(%eax)
  4046c7:	8b 45 10             	mov    0x10(%ebp),%eax
  4046ca:	8b 00                	mov    (%eax),%eax
  4046cc:	8d 48 01             	lea    0x1(%eax),%ecx
  4046cf:	8b 55 10             	mov    0x10(%ebp),%edx
  4046d2:	89 0a                	mov    %ecx,(%edx)
  4046d4:	8d 14 85 00 00 00 00 	lea    0x0(,%eax,4),%edx
  4046db:	8b 45 0c             	mov    0xc(%ebp),%eax
  4046de:	01 c2                	add    %eax,%edx
  4046e0:	8b 85 68 ff ff ff    	mov    -0x98(%ebp),%eax
  4046e6:	89 02                	mov    %eax,(%edx)
  4046e8:	8b 8d 6c ff ff ff    	mov    -0x94(%ebp),%ecx
  4046ee:	b8 01 00 00 00       	mov    $0x1,%eax
  4046f3:	ba 00 00 00 00       	mov    $0x0,%edx
  4046f8:	0f a5 c2             	shld   %cl,%eax,%edx
  4046fb:	d3 e0                	shl    %cl,%eax
  4046fd:	f6 c1 20             	test   $0x20,%cl
  404700:	74 04                	je     404706 <_getPawnMoves+0xaa2>
  404702:	89 c2                	mov    %eax,%edx
  404704:	31 c0                	xor    %eax,%eax
  404706:	31 45 a8             	xor    %eax,-0x58(%ebp)
  404709:	31 55 ac             	xor    %edx,-0x54(%ebp)
  40470c:	8b 45 a8             	mov    -0x58(%ebp),%eax
  40470f:	8b 55 ac             	mov    -0x54(%ebp),%edx
  404712:	09 d0                	or     %edx,%eax
  404714:	85 c0                	test   %eax,%eax
  404716:	0f 85 df fe ff ff    	jne    4045fb <_getPawnMoves+0x997>
  40471c:	81 c4 7c 01 00 00    	add    $0x17c,%esp
  404722:	5b                   	pop    %ebx
  404723:	5e                   	pop    %esi
  404724:	5f                   	pop    %edi
  404725:	5d                   	pop    %ebp
  404726:	c3                   	ret    

00404727 <_getRookMoves>:
  404727:	55                   	push   %ebp
  404728:	89 e5                	mov    %esp,%ebp
  40472a:	57                   	push   %edi
  40472b:	56                   	push   %esi
  40472c:	53                   	push   %ebx
  40472d:	83 ec 7c             	sub    $0x7c,%esp
  404730:	e8 eb 96 00 00       	call   40de20 <_mcount>
  404735:	a1 28 30 41 00       	mov    0x413028,%eax
  40473a:	39 45 14             	cmp    %eax,0x14(%ebp)
  40473d:	75 1f                	jne    40475e <_getRookMoves+0x37>
  40473f:	8b 45 08             	mov    0x8(%ebp),%eax
  404742:	8b 50 04             	mov    0x4(%eax),%edx
  404745:	8b 00                	mov    (%eax),%eax
  404747:	89 45 e0             	mov    %eax,-0x20(%ebp)
  40474a:	89 55 e4             	mov    %edx,-0x1c(%ebp)
  40474d:	8b 45 08             	mov    0x8(%ebp),%eax
  404750:	8b 50 0c             	mov    0xc(%eax),%edx
  404753:	8b 40 08             	mov    0x8(%eax),%eax
  404756:	89 45 c8             	mov    %eax,-0x38(%ebp)
  404759:	89 55 cc             	mov    %edx,-0x34(%ebp)
  40475c:	eb 27                	jmp    404785 <_getRookMoves+0x5e>
  40475e:	a1 00 f1 40 00       	mov    0x40f100,%eax
  404763:	39 45 14             	cmp    %eax,0x14(%ebp)
  404766:	75 1d                	jne    404785 <_getRookMoves+0x5e>
  404768:	8b 45 08             	mov    0x8(%ebp),%eax
  40476b:	8b 50 0c             	mov    0xc(%eax),%edx
  40476e:	8b 40 08             	mov    0x8(%eax),%eax
  404771:	89 45 e0             	mov    %eax,-0x20(%ebp)
  404774:	89 55 e4             	mov    %edx,-0x1c(%ebp)
  404777:	8b 45 08             	mov    0x8(%ebp),%eax
  40477a:	8b 50 04             	mov    0x4(%eax),%edx
  40477d:	8b 00                	mov    (%eax),%eax
  40477f:	89 45 c8             	mov    %eax,-0x38(%ebp)
  404782:	89 55 cc             	mov    %edx,-0x34(%ebp)
  404785:	8b 45 08             	mov    0x8(%ebp),%eax
  404788:	8b 50 24             	mov    0x24(%eax),%edx
  40478b:	8b 40 20             	mov    0x20(%eax),%eax
  40478e:	89 c1                	mov    %eax,%ecx
  404790:	23 4d e0             	and    -0x20(%ebp),%ecx
  404793:	89 4d d8             	mov    %ecx,-0x28(%ebp)
  404796:	89 d0                	mov    %edx,%eax
  404798:	23 45 e4             	and    -0x1c(%ebp),%eax
  40479b:	89 45 dc             	mov    %eax,-0x24(%ebp)
  40479e:	e9 9f 02 00 00       	jmp    404a42 <_getRookMoves+0x31b>
  4047a3:	8b 45 d8             	mov    -0x28(%ebp),%eax
  4047a6:	8b 55 dc             	mov    -0x24(%ebp),%edx
  4047a9:	83 c0 ff             	add    $0xffffffff,%eax
  4047ac:	83 d2 ff             	adc    $0xffffffff,%edx
  4047af:	89 c7                	mov    %eax,%edi
  4047b1:	33 7d d8             	xor    -0x28(%ebp),%edi
  4047b4:	89 7d a0             	mov    %edi,-0x60(%ebp)
  4047b7:	89 d0                	mov    %edx,%eax
  4047b9:	33 45 dc             	xor    -0x24(%ebp),%eax
  4047bc:	89 45 a4             	mov    %eax,-0x5c(%ebp)
  4047bf:	8b 75 a0             	mov    -0x60(%ebp),%esi
  4047c2:	8b 7d a4             	mov    -0x5c(%ebp),%edi
  4047c5:	69 d7 89 0a cb b4    	imul   $0xb4cb0a89,%edi,%edx
  4047cb:	69 c6 71 9d f7 03    	imul   $0x3f79d71,%esi,%eax
  4047d1:	8d 0c 02             	lea    (%edx,%eax,1),%ecx
  4047d4:	b8 89 0a cb b4       	mov    $0xb4cb0a89,%eax
  4047d9:	f7 e6                	mul    %esi
  4047db:	01 d1                	add    %edx,%ecx
  4047dd:	89 ca                	mov    %ecx,%edx
  4047df:	89 d0                	mov    %edx,%eax
  4047e1:	31 d2                	xor    %edx,%edx
  4047e3:	c1 e8 1a             	shr    $0x1a,%eax
  4047e6:	8b 04 85 00 f0 40 00 	mov    0x40f000(,%eax,4),%eax
  4047ed:	89 45 c4             	mov    %eax,-0x3c(%ebp)
  4047f0:	8b 45 08             	mov    0x8(%ebp),%eax
  4047f3:	8b 08                	mov    (%eax),%ecx
  4047f5:	8b 58 04             	mov    0x4(%eax),%ebx
  4047f8:	8b 45 08             	mov    0x8(%ebp),%eax
  4047fb:	8b 50 0c             	mov    0xc(%eax),%edx
  4047fe:	8b 40 08             	mov    0x8(%eax),%eax
  404801:	89 cf                	mov    %ecx,%edi
  404803:	09 c7                	or     %eax,%edi
  404805:	89 7d 98             	mov    %edi,-0x68(%ebp)
  404808:	89 df                	mov    %ebx,%edi
  40480a:	09 d7                	or     %edx,%edi
  40480c:	89 7d 9c             	mov    %edi,-0x64(%ebp)
  40480f:	8b 45 08             	mov    0x8(%ebp),%eax
  404812:	8b 90 98 00 00 00    	mov    0x98(%eax),%edx
  404818:	8b 45 c4             	mov    -0x3c(%ebp),%eax
  40481b:	c1 e0 03             	shl    $0x3,%eax
  40481e:	01 d0                	add    %edx,%eax
  404820:	8b 50 04             	mov    0x4(%eax),%edx
  404823:	8b 00                	mov    (%eax),%eax
  404825:	8b 5d 98             	mov    -0x68(%ebp),%ebx
  404828:	8b 75 9c             	mov    -0x64(%ebp),%esi
  40482b:	89 d9                	mov    %ebx,%ecx
  40482d:	21 c1                	and    %eax,%ecx
  40482f:	89 4d b8             	mov    %ecx,-0x48(%ebp)
  404832:	89 d0                	mov    %edx,%eax
  404834:	21 f0                	and    %esi,%eax
  404836:	89 45 bc             	mov    %eax,-0x44(%ebp)
  404839:	8b 45 08             	mov    0x8(%ebp),%eax
  40483c:	8b 90 a0 00 00 00    	mov    0xa0(%eax),%edx
  404842:	8b 45 c4             	mov    -0x3c(%ebp),%eax
  404845:	c1 e0 03             	shl    $0x3,%eax
  404848:	01 d0                	add    %edx,%eax
  40484a:	8b 50 04             	mov    0x4(%eax),%edx
  40484d:	8b 00                	mov    (%eax),%eax
  40484f:	8b 4d b8             	mov    -0x48(%ebp),%ecx
  404852:	89 cb                	mov    %ecx,%ebx
  404854:	0f af da             	imul   %edx,%ebx
  404857:	8b 4d bc             	mov    -0x44(%ebp),%ecx
  40485a:	0f af c8             	imul   %eax,%ecx
  40485d:	01 d9                	add    %ebx,%ecx
  40485f:	f7 65 b8             	mull   -0x48(%ebp)
  404862:	89 c3                	mov    %eax,%ebx
  404864:	89 d6                	mov    %edx,%esi
  404866:	8d 04 31             	lea    (%ecx,%esi,1),%eax
  404869:	89 c6                	mov    %eax,%esi
  40486b:	8b 45 08             	mov    0x8(%ebp),%eax
  40486e:	8b 90 9c 00 00 00    	mov    0x9c(%eax),%edx
  404874:	8b 45 c4             	mov    -0x3c(%ebp),%eax
  404877:	c1 e0 02             	shl    $0x2,%eax
  40487a:	01 d0                	add    %edx,%eax
  40487c:	8b 00                	mov    (%eax),%eax
  40487e:	89 c1                	mov    %eax,%ecx
  404880:	0f ad f3             	shrd   %cl,%esi,%ebx
  404883:	d3 ee                	shr    %cl,%esi
  404885:	f6 c1 20             	test   $0x20,%cl
  404888:	74 04                	je     40488e <_getRookMoves+0x167>
  40488a:	89 f3                	mov    %esi,%ebx
  40488c:	31 f6                	xor    %esi,%esi
  40488e:	89 d8                	mov    %ebx,%eax
  404890:	89 f2                	mov    %esi,%edx
  404892:	89 45 b4             	mov    %eax,-0x4c(%ebp)
  404895:	8b 45 08             	mov    0x8(%ebp),%eax
  404898:	8b 90 a8 00 00 00    	mov    0xa8(%eax),%edx
  40489e:	8b 45 c4             	mov    -0x3c(%ebp),%eax
  4048a1:	c1 e0 02             	shl    $0x2,%eax
  4048a4:	01 d0                	add    %edx,%eax
  4048a6:	8b 10                	mov    (%eax),%edx
  4048a8:	8b 45 b4             	mov    -0x4c(%ebp),%eax
  4048ab:	c1 e0 03             	shl    $0x3,%eax
  4048ae:	01 d0                	add    %edx,%eax
  4048b0:	8b 10                	mov    (%eax),%edx
  4048b2:	8b 48 04             	mov    0x4(%eax),%ecx
  4048b5:	8b 45 e0             	mov    -0x20(%ebp),%eax
  4048b8:	f7 d0                	not    %eax
  4048ba:	89 45 90             	mov    %eax,-0x70(%ebp)
  4048bd:	8b 45 e4             	mov    -0x1c(%ebp),%eax
  4048c0:	f7 d0                	not    %eax
  4048c2:	89 45 94             	mov    %eax,-0x6c(%ebp)
  4048c5:	8b 5d 90             	mov    -0x70(%ebp),%ebx
  4048c8:	8b 75 94             	mov    -0x6c(%ebp),%esi
  4048cb:	89 d8                	mov    %ebx,%eax
  4048cd:	21 d0                	and    %edx,%eax
  4048cf:	89 45 d0             	mov    %eax,-0x30(%ebp)
  4048d2:	89 c8                	mov    %ecx,%eax
  4048d4:	21 f0                	and    %esi,%eax
  4048d6:	89 45 d4             	mov    %eax,-0x2c(%ebp)
  4048d9:	e9 33 01 00 00       	jmp    404a11 <_getRookMoves+0x2ea>
  4048de:	8b 45 d0             	mov    -0x30(%ebp),%eax
  4048e1:	8b 55 d4             	mov    -0x2c(%ebp),%edx
  4048e4:	83 c0 ff             	add    $0xffffffff,%eax
  4048e7:	83 d2 ff             	adc    $0xffffffff,%edx
  4048ea:	89 c7                	mov    %eax,%edi
  4048ec:	33 7d d0             	xor    -0x30(%ebp),%edi
  4048ef:	89 7d 88             	mov    %edi,-0x78(%ebp)
  4048f2:	89 d0                	mov    %edx,%eax
  4048f4:	33 45 d4             	xor    -0x2c(%ebp),%eax
  4048f7:	89 45 8c             	mov    %eax,-0x74(%ebp)
  4048fa:	8b 5d 88             	mov    -0x78(%ebp),%ebx
  4048fd:	8b 75 8c             	mov    -0x74(%ebp),%esi
  404900:	69 d6 89 0a cb b4    	imul   $0xb4cb0a89,%esi,%edx
  404906:	69 c3 71 9d f7 03    	imul   $0x3f79d71,%ebx,%eax
  40490c:	8d 0c 02             	lea    (%edx,%eax,1),%ecx
  40490f:	b8 89 0a cb b4       	mov    $0xb4cb0a89,%eax
  404914:	f7 e3                	mul    %ebx
  404916:	01 d1                	add    %edx,%ecx
  404918:	89 ca                	mov    %ecx,%edx
  40491a:	89 d0                	mov    %edx,%eax
  40491c:	31 d2                	xor    %edx,%edx
  40491e:	c1 e8 1a             	shr    $0x1a,%eax
  404921:	8b 04 85 00 f0 40 00 	mov    0x40f000(,%eax,4),%eax
  404928:	89 45 b0             	mov    %eax,-0x50(%ebp)
  40492b:	c7 04 24 14 00 00 00 	movl   $0x14,(%esp)
  404932:	e8 c1 90 00 00       	call   40d9f8 <_malloc>
  404937:	89 45 ac             	mov    %eax,-0x54(%ebp)
  40493a:	8b 55 ac             	mov    -0x54(%ebp),%edx
  40493d:	8b 45 c4             	mov    -0x3c(%ebp),%eax
  404940:	89 02                	mov    %eax,(%edx)
  404942:	8b 55 ac             	mov    -0x54(%ebp),%edx
  404945:	8b 45 b0             	mov    -0x50(%ebp),%eax
  404948:	89 42 04             	mov    %eax,0x4(%edx)
  40494b:	8b 45 08             	mov    0x8(%ebp),%eax
  40494e:	89 44 24 04          	mov    %eax,0x4(%esp)
  404952:	8b 45 b0             	mov    -0x50(%ebp),%eax
  404955:	89 04 24             	mov    %eax,(%esp)
  404958:	e8 3d cb ff ff       	call   40149a <_getSquare>
  40495d:	89 c2                	mov    %eax,%edx
  40495f:	8b 45 ac             	mov    -0x54(%ebp),%eax
  404962:	89 50 08             	mov    %edx,0x8(%eax)
  404965:	8b 15 0c f1 40 00    	mov    0x40f10c,%edx
  40496b:	8b 45 ac             	mov    -0x54(%ebp),%eax
  40496e:	89 50 0c             	mov    %edx,0xc(%eax)
  404971:	8b 55 08             	mov    0x8(%ebp),%edx
  404974:	8b 45 14             	mov    0x14(%ebp),%eax
  404977:	83 c0 0e             	add    $0xe,%eax
  40497a:	8b 44 c2 08          	mov    0x8(%edx,%eax,8),%eax
  40497e:	85 c0                	test   %eax,%eax
  404980:	74 1a                	je     40499c <_getRookMoves+0x275>
  404982:	83 7d c4 00          	cmpl   $0x0,-0x3c(%ebp)
  404986:	74 06                	je     40498e <_getRookMoves+0x267>
  404988:	83 7d c4 38          	cmpl   $0x38,-0x3c(%ebp)
  40498c:	75 0e                	jne    40499c <_getRookMoves+0x275>
  40498e:	8b 15 24 f8 40 00    	mov    0x40f824,%edx
  404994:	8b 45 ac             	mov    -0x54(%ebp),%eax
  404997:	89 50 10             	mov    %edx,0x10(%eax)
  40499a:	eb 34                	jmp    4049d0 <_getRookMoves+0x2a9>
  40499c:	8b 55 08             	mov    0x8(%ebp),%edx
  40499f:	8b 45 14             	mov    0x14(%ebp),%eax
  4049a2:	8b 44 c2 7c          	mov    0x7c(%edx,%eax,8),%eax
  4049a6:	85 c0                	test   %eax,%eax
  4049a8:	74 1a                	je     4049c4 <_getRookMoves+0x29d>
  4049aa:	83 7d c4 07          	cmpl   $0x7,-0x3c(%ebp)
  4049ae:	74 06                	je     4049b6 <_getRookMoves+0x28f>
  4049b0:	83 7d c4 3f          	cmpl   $0x3f,-0x3c(%ebp)
  4049b4:	75 0e                	jne    4049c4 <_getRookMoves+0x29d>
  4049b6:	8b 15 28 f8 40 00    	mov    0x40f828,%edx
  4049bc:	8b 45 ac             	mov    -0x54(%ebp),%eax
  4049bf:	89 50 10             	mov    %edx,0x10(%eax)
  4049c2:	eb 0c                	jmp    4049d0 <_getRookMoves+0x2a9>
  4049c4:	8b 15 38 30 41 00    	mov    0x413038,%edx
  4049ca:	8b 45 ac             	mov    -0x54(%ebp),%eax
  4049cd:	89 50 10             	mov    %edx,0x10(%eax)
  4049d0:	8b 45 10             	mov    0x10(%ebp),%eax
  4049d3:	8b 08                	mov    (%eax),%ecx
  4049d5:	8d 51 01             	lea    0x1(%ecx),%edx
  4049d8:	8b 45 10             	mov    0x10(%ebp),%eax
  4049db:	89 10                	mov    %edx,(%eax)
  4049dd:	89 c8                	mov    %ecx,%eax
  4049df:	8d 14 85 00 00 00 00 	lea    0x0(,%eax,4),%edx
  4049e6:	8b 45 0c             	mov    0xc(%ebp),%eax
  4049e9:	01 c2                	add    %eax,%edx
  4049eb:	8b 45 ac             	mov    -0x54(%ebp),%eax
  4049ee:	89 02                	mov    %eax,(%edx)
  4049f0:	8b 4d b0             	mov    -0x50(%ebp),%ecx
  4049f3:	b8 01 00 00 00       	mov    $0x1,%eax
  4049f8:	ba 00 00 00 00       	mov    $0x0,%edx
  4049fd:	0f a5 c2             	shld   %cl,%eax,%edx
  404a00:	d3 e0                	shl    %cl,%eax
  404a02:	f6 c1 20             	test   $0x20,%cl
  404a05:	74 04                	je     404a0b <_getRookMoves+0x2e4>
  404a07:	89 c2                	mov    %eax,%edx
  404a09:	31 c0                	xor    %eax,%eax
  404a0b:	31 45 d0             	xor    %eax,-0x30(%ebp)
  404a0e:	31 55 d4             	xor    %edx,-0x2c(%ebp)
  404a11:	8b 55 d0             	mov    -0x30(%ebp),%edx
  404a14:	8b 45 d4             	mov    -0x2c(%ebp),%eax
  404a17:	09 d0                	or     %edx,%eax
  404a19:	85 c0                	test   %eax,%eax
  404a1b:	0f 85 bd fe ff ff    	jne    4048de <_getRookMoves+0x1b7>
  404a21:	8b 4d c4             	mov    -0x3c(%ebp),%ecx
  404a24:	b8 01 00 00 00       	mov    $0x1,%eax
  404a29:	ba 00 00 00 00       	mov    $0x0,%edx
  404a2e:	0f a5 c2             	shld   %cl,%eax,%edx
  404a31:	d3 e0                	shl    %cl,%eax
  404a33:	f6 c1 20             	test   $0x20,%cl
  404a36:	74 04                	je     404a3c <_getRookMoves+0x315>
  404a38:	89 c2                	mov    %eax,%edx
  404a3a:	31 c0                	xor    %eax,%eax
  404a3c:	31 45 d8             	xor    %eax,-0x28(%ebp)
  404a3f:	31 55 dc             	xor    %edx,-0x24(%ebp)
  404a42:	8b 55 d8             	mov    -0x28(%ebp),%edx
  404a45:	8b 45 dc             	mov    -0x24(%ebp),%eax
  404a48:	09 d0                	or     %edx,%eax
  404a4a:	85 c0                	test   %eax,%eax
  404a4c:	0f 85 51 fd ff ff    	jne    4047a3 <_getRookMoves+0x7c>
  404a52:	83 c4 7c             	add    $0x7c,%esp
  404a55:	5b                   	pop    %ebx
  404a56:	5e                   	pop    %esi
  404a57:	5f                   	pop    %edi
  404a58:	5d                   	pop    %ebp
  404a59:	c3                   	ret    

00404a5a <_getBishopMoves>:
  404a5a:	55                   	push   %ebp
  404a5b:	89 e5                	mov    %esp,%ebp
  404a5d:	57                   	push   %edi
  404a5e:	56                   	push   %esi
  404a5f:	53                   	push   %ebx
  404a60:	83 ec 7c             	sub    $0x7c,%esp
  404a63:	e8 b8 93 00 00       	call   40de20 <_mcount>
  404a68:	a1 28 30 41 00       	mov    0x413028,%eax
  404a6d:	39 45 14             	cmp    %eax,0x14(%ebp)
  404a70:	75 1f                	jne    404a91 <_getBishopMoves+0x37>
  404a72:	8b 45 08             	mov    0x8(%ebp),%eax
  404a75:	8b 50 04             	mov    0x4(%eax),%edx
  404a78:	8b 00                	mov    (%eax),%eax
  404a7a:	89 45 e0             	mov    %eax,-0x20(%ebp)
  404a7d:	89 55 e4             	mov    %edx,-0x1c(%ebp)
  404a80:	8b 45 08             	mov    0x8(%ebp),%eax
  404a83:	8b 50 0c             	mov    0xc(%eax),%edx
  404a86:	8b 40 08             	mov    0x8(%eax),%eax
  404a89:	89 45 c8             	mov    %eax,-0x38(%ebp)
  404a8c:	89 55 cc             	mov    %edx,-0x34(%ebp)
  404a8f:	eb 27                	jmp    404ab8 <_getBishopMoves+0x5e>
  404a91:	a1 00 f1 40 00       	mov    0x40f100,%eax
  404a96:	39 45 14             	cmp    %eax,0x14(%ebp)
  404a99:	75 1d                	jne    404ab8 <_getBishopMoves+0x5e>
  404a9b:	8b 45 08             	mov    0x8(%ebp),%eax
  404a9e:	8b 50 0c             	mov    0xc(%eax),%edx
  404aa1:	8b 40 08             	mov    0x8(%eax),%eax
  404aa4:	89 45 e0             	mov    %eax,-0x20(%ebp)
  404aa7:	89 55 e4             	mov    %edx,-0x1c(%ebp)
  404aaa:	8b 45 08             	mov    0x8(%ebp),%eax
  404aad:	8b 50 04             	mov    0x4(%eax),%edx
  404ab0:	8b 00                	mov    (%eax),%eax
  404ab2:	89 45 c8             	mov    %eax,-0x38(%ebp)
  404ab5:	89 55 cc             	mov    %edx,-0x34(%ebp)
  404ab8:	8b 45 08             	mov    0x8(%ebp),%eax
  404abb:	8b 50 34             	mov    0x34(%eax),%edx
  404abe:	8b 40 30             	mov    0x30(%eax),%eax
  404ac1:	89 c1                	mov    %eax,%ecx
  404ac3:	23 4d e0             	and    -0x20(%ebp),%ecx
  404ac6:	89 4d d8             	mov    %ecx,-0x28(%ebp)
  404ac9:	89 d0                	mov    %edx,%eax
  404acb:	23 45 e4             	and    -0x1c(%ebp),%eax
  404ace:	89 45 dc             	mov    %eax,-0x24(%ebp)
  404ad1:	e9 4c 02 00 00       	jmp    404d22 <_getBishopMoves+0x2c8>
  404ad6:	8b 45 d8             	mov    -0x28(%ebp),%eax
  404ad9:	8b 55 dc             	mov    -0x24(%ebp),%edx
  404adc:	83 c0 ff             	add    $0xffffffff,%eax
  404adf:	83 d2 ff             	adc    $0xffffffff,%edx
  404ae2:	89 c7                	mov    %eax,%edi
  404ae4:	33 7d d8             	xor    -0x28(%ebp),%edi
  404ae7:	89 7d a0             	mov    %edi,-0x60(%ebp)
  404aea:	89 d0                	mov    %edx,%eax
  404aec:	33 45 dc             	xor    -0x24(%ebp),%eax
  404aef:	89 45 a4             	mov    %eax,-0x5c(%ebp)
  404af2:	8b 75 a0             	mov    -0x60(%ebp),%esi
  404af5:	8b 7d a4             	mov    -0x5c(%ebp),%edi
  404af8:	69 d7 89 0a cb b4    	imul   $0xb4cb0a89,%edi,%edx
  404afe:	69 c6 71 9d f7 03    	imul   $0x3f79d71,%esi,%eax
  404b04:	8d 0c 02             	lea    (%edx,%eax,1),%ecx
  404b07:	b8 89 0a cb b4       	mov    $0xb4cb0a89,%eax
  404b0c:	f7 e6                	mul    %esi
  404b0e:	01 d1                	add    %edx,%ecx
  404b10:	89 ca                	mov    %ecx,%edx
  404b12:	89 d0                	mov    %edx,%eax
  404b14:	31 d2                	xor    %edx,%edx
  404b16:	c1 e8 1a             	shr    $0x1a,%eax
  404b19:	8b 04 85 00 f0 40 00 	mov    0x40f000(,%eax,4),%eax
  404b20:	89 45 c4             	mov    %eax,-0x3c(%ebp)
  404b23:	8b 45 08             	mov    0x8(%ebp),%eax
  404b26:	8b 08                	mov    (%eax),%ecx
  404b28:	8b 58 04             	mov    0x4(%eax),%ebx
  404b2b:	8b 45 08             	mov    0x8(%ebp),%eax
  404b2e:	8b 50 0c             	mov    0xc(%eax),%edx
  404b31:	8b 40 08             	mov    0x8(%eax),%eax
  404b34:	89 cf                	mov    %ecx,%edi
  404b36:	09 c7                	or     %eax,%edi
  404b38:	89 7d 98             	mov    %edi,-0x68(%ebp)
  404b3b:	89 df                	mov    %ebx,%edi
  404b3d:	09 d7                	or     %edx,%edi
  404b3f:	89 7d 9c             	mov    %edi,-0x64(%ebp)
  404b42:	8b 45 08             	mov    0x8(%ebp),%eax
  404b45:	8b 90 ac 00 00 00    	mov    0xac(%eax),%edx
  404b4b:	8b 45 c4             	mov    -0x3c(%ebp),%eax
  404b4e:	c1 e0 03             	shl    $0x3,%eax
  404b51:	01 d0                	add    %edx,%eax
  404b53:	8b 50 04             	mov    0x4(%eax),%edx
  404b56:	8b 00                	mov    (%eax),%eax
  404b58:	8b 5d 98             	mov    -0x68(%ebp),%ebx
  404b5b:	8b 75 9c             	mov    -0x64(%ebp),%esi
  404b5e:	89 d9                	mov    %ebx,%ecx
  404b60:	21 c1                	and    %eax,%ecx
  404b62:	89 4d b8             	mov    %ecx,-0x48(%ebp)
  404b65:	89 d0                	mov    %edx,%eax
  404b67:	21 f0                	and    %esi,%eax
  404b69:	89 45 bc             	mov    %eax,-0x44(%ebp)
  404b6c:	8b 45 08             	mov    0x8(%ebp),%eax
  404b6f:	8b 90 b4 00 00 00    	mov    0xb4(%eax),%edx
  404b75:	8b 45 c4             	mov    -0x3c(%ebp),%eax
  404b78:	c1 e0 03             	shl    $0x3,%eax
  404b7b:	01 d0                	add    %edx,%eax
  404b7d:	8b 50 04             	mov    0x4(%eax),%edx
  404b80:	8b 00                	mov    (%eax),%eax
  404b82:	8b 4d b8             	mov    -0x48(%ebp),%ecx
  404b85:	89 cb                	mov    %ecx,%ebx
  404b87:	0f af da             	imul   %edx,%ebx
  404b8a:	8b 4d bc             	mov    -0x44(%ebp),%ecx
  404b8d:	0f af c8             	imul   %eax,%ecx
  404b90:	01 d9                	add    %ebx,%ecx
  404b92:	f7 65 b8             	mull   -0x48(%ebp)
  404b95:	89 c3                	mov    %eax,%ebx
  404b97:	89 d6                	mov    %edx,%esi
  404b99:	8d 04 31             	lea    (%ecx,%esi,1),%eax
  404b9c:	89 c6                	mov    %eax,%esi
  404b9e:	8b 45 08             	mov    0x8(%ebp),%eax
  404ba1:	8b 90 b0 00 00 00    	mov    0xb0(%eax),%edx
  404ba7:	8b 45 c4             	mov    -0x3c(%ebp),%eax
  404baa:	c1 e0 02             	shl    $0x2,%eax
  404bad:	01 d0                	add    %edx,%eax
  404baf:	8b 00                	mov    (%eax),%eax
  404bb1:	89 c1                	mov    %eax,%ecx
  404bb3:	0f ad f3             	shrd   %cl,%esi,%ebx
  404bb6:	d3 ee                	shr    %cl,%esi
  404bb8:	f6 c1 20             	test   $0x20,%cl
  404bbb:	74 04                	je     404bc1 <_getBishopMoves+0x167>
  404bbd:	89 f3                	mov    %esi,%ebx
  404bbf:	31 f6                	xor    %esi,%esi
  404bc1:	89 d8                	mov    %ebx,%eax
  404bc3:	89 f2                	mov    %esi,%edx
  404bc5:	89 45 b4             	mov    %eax,-0x4c(%ebp)
  404bc8:	8b 45 08             	mov    0x8(%ebp),%eax
  404bcb:	8b 90 bc 00 00 00    	mov    0xbc(%eax),%edx
  404bd1:	8b 45 c4             	mov    -0x3c(%ebp),%eax
  404bd4:	c1 e0 02             	shl    $0x2,%eax
  404bd7:	01 d0                	add    %edx,%eax
  404bd9:	8b 10                	mov    (%eax),%edx
  404bdb:	8b 45 b4             	mov    -0x4c(%ebp),%eax
  404bde:	c1 e0 03             	shl    $0x3,%eax
  404be1:	01 d0                	add    %edx,%eax
  404be3:	8b 10                	mov    (%eax),%edx
  404be5:	8b 48 04             	mov    0x4(%eax),%ecx
  404be8:	8b 45 e0             	mov    -0x20(%ebp),%eax
  404beb:	f7 d0                	not    %eax
  404bed:	89 45 90             	mov    %eax,-0x70(%ebp)
  404bf0:	8b 45 e4             	mov    -0x1c(%ebp),%eax
  404bf3:	f7 d0                	not    %eax
  404bf5:	89 45 94             	mov    %eax,-0x6c(%ebp)
  404bf8:	8b 5d 90             	mov    -0x70(%ebp),%ebx
  404bfb:	8b 75 94             	mov    -0x6c(%ebp),%esi
  404bfe:	89 d8                	mov    %ebx,%eax
  404c00:	21 d0                	and    %edx,%eax
  404c02:	89 45 d0             	mov    %eax,-0x30(%ebp)
  404c05:	89 c8                	mov    %ecx,%eax
  404c07:	21 f0                	and    %esi,%eax
  404c09:	89 45 d4             	mov    %eax,-0x2c(%ebp)
  404c0c:	e9 e0 00 00 00       	jmp    404cf1 <_getBishopMoves+0x297>
  404c11:	8b 45 d0             	mov    -0x30(%ebp),%eax
  404c14:	8b 55 d4             	mov    -0x2c(%ebp),%edx
  404c17:	83 c0 ff             	add    $0xffffffff,%eax
  404c1a:	83 d2 ff             	adc    $0xffffffff,%edx
  404c1d:	89 c7                	mov    %eax,%edi
  404c1f:	33 7d d0             	xor    -0x30(%ebp),%edi
  404c22:	89 7d 88             	mov    %edi,-0x78(%ebp)
  404c25:	89 d0                	mov    %edx,%eax
  404c27:	33 45 d4             	xor    -0x2c(%ebp),%eax
  404c2a:	89 45 8c             	mov    %eax,-0x74(%ebp)
  404c2d:	8b 5d 88             	mov    -0x78(%ebp),%ebx
  404c30:	8b 75 8c             	mov    -0x74(%ebp),%esi
  404c33:	69 d6 89 0a cb b4    	imul   $0xb4cb0a89,%esi,%edx
  404c39:	69 c3 71 9d f7 03    	imul   $0x3f79d71,%ebx,%eax
  404c3f:	8d 0c 02             	lea    (%edx,%eax,1),%ecx
  404c42:	b8 89 0a cb b4       	mov    $0xb4cb0a89,%eax
  404c47:	f7 e3                	mul    %ebx
  404c49:	01 d1                	add    %edx,%ecx
  404c4b:	89 ca                	mov    %ecx,%edx
  404c4d:	89 d0                	mov    %edx,%eax
  404c4f:	31 d2                	xor    %edx,%edx
  404c51:	c1 e8 1a             	shr    $0x1a,%eax
  404c54:	8b 04 85 00 f0 40 00 	mov    0x40f000(,%eax,4),%eax
  404c5b:	89 45 b0             	mov    %eax,-0x50(%ebp)
  404c5e:	c7 04 24 14 00 00 00 	movl   $0x14,(%esp)
  404c65:	e8 8e 8d 00 00       	call   40d9f8 <_malloc>
  404c6a:	89 45 ac             	mov    %eax,-0x54(%ebp)
  404c6d:	8b 55 ac             	mov    -0x54(%ebp),%edx
  404c70:	8b 45 c4             	mov    -0x3c(%ebp),%eax
  404c73:	89 02                	mov    %eax,(%edx)
  404c75:	8b 55 ac             	mov    -0x54(%ebp),%edx
  404c78:	8b 45 b0             	mov    -0x50(%ebp),%eax
  404c7b:	89 42 04             	mov    %eax,0x4(%edx)
  404c7e:	8b 45 08             	mov    0x8(%ebp),%eax
  404c81:	89 44 24 04          	mov    %eax,0x4(%esp)
  404c85:	8b 45 b0             	mov    -0x50(%ebp),%eax
  404c88:	89 04 24             	mov    %eax,(%esp)
  404c8b:	e8 0a c8 ff ff       	call   40149a <_getSquare>
  404c90:	89 c2                	mov    %eax,%edx
  404c92:	8b 45 ac             	mov    -0x54(%ebp),%eax
  404c95:	89 50 08             	mov    %edx,0x8(%eax)
  404c98:	8b 15 04 f1 40 00    	mov    0x40f104,%edx
  404c9e:	8b 45 ac             	mov    -0x54(%ebp),%eax
  404ca1:	89 50 0c             	mov    %edx,0xc(%eax)
  404ca4:	8b 15 38 30 41 00    	mov    0x413038,%edx
  404caa:	8b 45 ac             	mov    -0x54(%ebp),%eax
  404cad:	89 50 10             	mov    %edx,0x10(%eax)
  404cb0:	8b 45 10             	mov    0x10(%ebp),%eax
  404cb3:	8b 08                	mov    (%eax),%ecx
  404cb5:	8d 51 01             	lea    0x1(%ecx),%edx
  404cb8:	8b 45 10             	mov    0x10(%ebp),%eax
  404cbb:	89 10                	mov    %edx,(%eax)
  404cbd:	89 c8                	mov    %ecx,%eax
  404cbf:	8d 14 85 00 00 00 00 	lea    0x0(,%eax,4),%edx
  404cc6:	8b 45 0c             	mov    0xc(%ebp),%eax
  404cc9:	01 c2                	add    %eax,%edx
  404ccb:	8b 45 ac             	mov    -0x54(%ebp),%eax
  404cce:	89 02                	mov    %eax,(%edx)
  404cd0:	8b 4d b0             	mov    -0x50(%ebp),%ecx
  404cd3:	b8 01 00 00 00       	mov    $0x1,%eax
  404cd8:	ba 00 00 00 00       	mov    $0x0,%edx
  404cdd:	0f a5 c2             	shld   %cl,%eax,%edx
  404ce0:	d3 e0                	shl    %cl,%eax
  404ce2:	f6 c1 20             	test   $0x20,%cl
  404ce5:	74 04                	je     404ceb <_getBishopMoves+0x291>
  404ce7:	89 c2                	mov    %eax,%edx
  404ce9:	31 c0                	xor    %eax,%eax
  404ceb:	31 45 d0             	xor    %eax,-0x30(%ebp)
  404cee:	31 55 d4             	xor    %edx,-0x2c(%ebp)
  404cf1:	8b 55 d0             	mov    -0x30(%ebp),%edx
  404cf4:	8b 45 d4             	mov    -0x2c(%ebp),%eax
  404cf7:	09 d0                	or     %edx,%eax
  404cf9:	85 c0                	test   %eax,%eax
  404cfb:	0f 85 10 ff ff ff    	jne    404c11 <_getBishopMoves+0x1b7>
  404d01:	8b 4d c4             	mov    -0x3c(%ebp),%ecx
  404d04:	b8 01 00 00 00       	mov    $0x1,%eax
  404d09:	ba 00 00 00 00       	mov    $0x0,%edx
  404d0e:	0f a5 c2             	shld   %cl,%eax,%edx
  404d11:	d3 e0                	shl    %cl,%eax
  404d13:	f6 c1 20             	test   $0x20,%cl
  404d16:	74 04                	je     404d1c <_getBishopMoves+0x2c2>
  404d18:	89 c2                	mov    %eax,%edx
  404d1a:	31 c0                	xor    %eax,%eax
  404d1c:	31 45 d8             	xor    %eax,-0x28(%ebp)
  404d1f:	31 55 dc             	xor    %edx,-0x24(%ebp)
  404d22:	8b 55 d8             	mov    -0x28(%ebp),%edx
  404d25:	8b 45 dc             	mov    -0x24(%ebp),%eax
  404d28:	09 d0                	or     %edx,%eax
  404d2a:	85 c0                	test   %eax,%eax
  404d2c:	0f 85 a4 fd ff ff    	jne    404ad6 <_getBishopMoves+0x7c>
  404d32:	83 c4 7c             	add    $0x7c,%esp
  404d35:	5b                   	pop    %ebx
  404d36:	5e                   	pop    %esi
  404d37:	5f                   	pop    %edi
  404d38:	5d                   	pop    %ebp
  404d39:	c3                   	ret    

00404d3a <_getQueenMoves>:
  404d3a:	55                   	push   %ebp
  404d3b:	89 e5                	mov    %esp,%ebp
  404d3d:	57                   	push   %edi
  404d3e:	56                   	push   %esi
  404d3f:	53                   	push   %ebx
  404d40:	81 ec 9c 00 00 00    	sub    $0x9c,%esp
  404d46:	e8 d5 90 00 00       	call   40de20 <_mcount>
  404d4b:	a1 28 30 41 00       	mov    0x413028,%eax
  404d50:	39 45 14             	cmp    %eax,0x14(%ebp)
  404d53:	75 1f                	jne    404d74 <_getQueenMoves+0x3a>
  404d55:	8b 45 08             	mov    0x8(%ebp),%eax
  404d58:	8b 50 04             	mov    0x4(%eax),%edx
  404d5b:	8b 00                	mov    (%eax),%eax
  404d5d:	89 45 e0             	mov    %eax,-0x20(%ebp)
  404d60:	89 55 e4             	mov    %edx,-0x1c(%ebp)
  404d63:	8b 45 08             	mov    0x8(%ebp),%eax
  404d66:	8b 50 0c             	mov    0xc(%eax),%edx
  404d69:	8b 40 08             	mov    0x8(%eax),%eax
  404d6c:	89 45 c8             	mov    %eax,-0x38(%ebp)
  404d6f:	89 55 cc             	mov    %edx,-0x34(%ebp)
  404d72:	eb 27                	jmp    404d9b <_getQueenMoves+0x61>
  404d74:	a1 00 f1 40 00       	mov    0x40f100,%eax
  404d79:	39 45 14             	cmp    %eax,0x14(%ebp)
  404d7c:	75 1d                	jne    404d9b <_getQueenMoves+0x61>
  404d7e:	8b 45 08             	mov    0x8(%ebp),%eax
  404d81:	8b 50 0c             	mov    0xc(%eax),%edx
  404d84:	8b 40 08             	mov    0x8(%eax),%eax
  404d87:	89 45 e0             	mov    %eax,-0x20(%ebp)
  404d8a:	89 55 e4             	mov    %edx,-0x1c(%ebp)
  404d8d:	8b 45 08             	mov    0x8(%ebp),%eax
  404d90:	8b 50 04             	mov    0x4(%eax),%edx
  404d93:	8b 00                	mov    (%eax),%eax
  404d95:	89 45 c8             	mov    %eax,-0x38(%ebp)
  404d98:	89 55 cc             	mov    %edx,-0x34(%ebp)
  404d9b:	8b 45 08             	mov    0x8(%ebp),%eax
  404d9e:	8b 50 1c             	mov    0x1c(%eax),%edx
  404da1:	8b 40 18             	mov    0x18(%eax),%eax
  404da4:	89 c1                	mov    %eax,%ecx
  404da6:	23 4d e0             	and    -0x20(%ebp),%ecx
  404da9:	89 4d d8             	mov    %ecx,-0x28(%ebp)
  404dac:	89 d0                	mov    %edx,%eax
  404dae:	23 45 e4             	and    -0x1c(%ebp),%eax
  404db1:	89 45 dc             	mov    %eax,-0x24(%ebp)
  404db4:	e9 5a 04 00 00       	jmp    405213 <_getQueenMoves+0x4d9>
  404db9:	8b 45 d8             	mov    -0x28(%ebp),%eax
  404dbc:	8b 55 dc             	mov    -0x24(%ebp),%edx
  404dbf:	83 c0 ff             	add    $0xffffffff,%eax
  404dc2:	83 d2 ff             	adc    $0xffffffff,%edx
  404dc5:	89 c7                	mov    %eax,%edi
  404dc7:	33 7d d8             	xor    -0x28(%ebp),%edi
  404dca:	89 7d 90             	mov    %edi,-0x70(%ebp)
  404dcd:	89 d0                	mov    %edx,%eax
  404dcf:	33 45 dc             	xor    -0x24(%ebp),%eax
  404dd2:	89 45 94             	mov    %eax,-0x6c(%ebp)
  404dd5:	8b 75 90             	mov    -0x70(%ebp),%esi
  404dd8:	8b 7d 94             	mov    -0x6c(%ebp),%edi
  404ddb:	69 d7 89 0a cb b4    	imul   $0xb4cb0a89,%edi,%edx
  404de1:	69 c6 71 9d f7 03    	imul   $0x3f79d71,%esi,%eax
  404de7:	8d 0c 02             	lea    (%edx,%eax,1),%ecx
  404dea:	b8 89 0a cb b4       	mov    $0xb4cb0a89,%eax
  404def:	f7 e6                	mul    %esi
  404df1:	01 d1                	add    %edx,%ecx
  404df3:	89 ca                	mov    %ecx,%edx
  404df5:	89 d0                	mov    %edx,%eax
  404df7:	31 d2                	xor    %edx,%edx
  404df9:	c1 e8 1a             	shr    $0x1a,%eax
  404dfc:	8b 04 85 00 f0 40 00 	mov    0x40f000(,%eax,4),%eax
  404e03:	89 45 c4             	mov    %eax,-0x3c(%ebp)
  404e06:	8b 45 08             	mov    0x8(%ebp),%eax
  404e09:	8b 08                	mov    (%eax),%ecx
  404e0b:	8b 58 04             	mov    0x4(%eax),%ebx
  404e0e:	8b 45 08             	mov    0x8(%ebp),%eax
  404e11:	8b 50 0c             	mov    0xc(%eax),%edx
  404e14:	8b 40 08             	mov    0x8(%eax),%eax
  404e17:	89 cf                	mov    %ecx,%edi
  404e19:	09 c7                	or     %eax,%edi
  404e1b:	89 7d 88             	mov    %edi,-0x78(%ebp)
  404e1e:	89 df                	mov    %ebx,%edi
  404e20:	09 d7                	or     %edx,%edi
  404e22:	89 7d 8c             	mov    %edi,-0x74(%ebp)
  404e25:	8b 45 08             	mov    0x8(%ebp),%eax
  404e28:	8b 90 98 00 00 00    	mov    0x98(%eax),%edx
  404e2e:	8b 45 c4             	mov    -0x3c(%ebp),%eax
  404e31:	c1 e0 03             	shl    $0x3,%eax
  404e34:	01 d0                	add    %edx,%eax
  404e36:	8b 50 04             	mov    0x4(%eax),%edx
  404e39:	8b 00                	mov    (%eax),%eax
  404e3b:	8b 5d 88             	mov    -0x78(%ebp),%ebx
  404e3e:	8b 75 8c             	mov    -0x74(%ebp),%esi
  404e41:	89 d9                	mov    %ebx,%ecx
  404e43:	21 c1                	and    %eax,%ecx
  404e45:	89 4d b8             	mov    %ecx,-0x48(%ebp)
  404e48:	89 d0                	mov    %edx,%eax
  404e4a:	21 f0                	and    %esi,%eax
  404e4c:	89 45 bc             	mov    %eax,-0x44(%ebp)
  404e4f:	8b 45 08             	mov    0x8(%ebp),%eax
  404e52:	8b 90 a0 00 00 00    	mov    0xa0(%eax),%edx
  404e58:	8b 45 c4             	mov    -0x3c(%ebp),%eax
  404e5b:	c1 e0 03             	shl    $0x3,%eax
  404e5e:	01 d0                	add    %edx,%eax
  404e60:	8b 50 04             	mov    0x4(%eax),%edx
  404e63:	8b 00                	mov    (%eax),%eax
  404e65:	8b 4d b8             	mov    -0x48(%ebp),%ecx
  404e68:	89 cb                	mov    %ecx,%ebx
  404e6a:	0f af da             	imul   %edx,%ebx
  404e6d:	8b 4d bc             	mov    -0x44(%ebp),%ecx
  404e70:	0f af c8             	imul   %eax,%ecx
  404e73:	01 d9                	add    %ebx,%ecx
  404e75:	f7 65 b8             	mull   -0x48(%ebp)
  404e78:	89 c3                	mov    %eax,%ebx
  404e7a:	89 d6                	mov    %edx,%esi
  404e7c:	8d 04 31             	lea    (%ecx,%esi,1),%eax
  404e7f:	89 c6                	mov    %eax,%esi
  404e81:	8b 45 08             	mov    0x8(%ebp),%eax
  404e84:	8b 90 9c 00 00 00    	mov    0x9c(%eax),%edx
  404e8a:	8b 45 c4             	mov    -0x3c(%ebp),%eax
  404e8d:	c1 e0 02             	shl    $0x2,%eax
  404e90:	01 d0                	add    %edx,%eax
  404e92:	8b 00                	mov    (%eax),%eax
  404e94:	89 c1                	mov    %eax,%ecx
  404e96:	0f ad f3             	shrd   %cl,%esi,%ebx
  404e99:	d3 ee                	shr    %cl,%esi
  404e9b:	f6 c1 20             	test   $0x20,%cl
  404e9e:	74 04                	je     404ea4 <_getQueenMoves+0x16a>
  404ea0:	89 f3                	mov    %esi,%ebx
  404ea2:	31 f6                	xor    %esi,%esi
  404ea4:	89 d8                	mov    %ebx,%eax
  404ea6:	89 f2                	mov    %esi,%edx
  404ea8:	89 45 b4             	mov    %eax,-0x4c(%ebp)
  404eab:	8b 45 08             	mov    0x8(%ebp),%eax
  404eae:	8b 90 a8 00 00 00    	mov    0xa8(%eax),%edx
  404eb4:	8b 45 c4             	mov    -0x3c(%ebp),%eax
  404eb7:	c1 e0 02             	shl    $0x2,%eax
  404eba:	01 d0                	add    %edx,%eax
  404ebc:	8b 10                	mov    (%eax),%edx
  404ebe:	8b 45 b4             	mov    -0x4c(%ebp),%eax
  404ec1:	c1 e0 03             	shl    $0x3,%eax
  404ec4:	01 d0                	add    %edx,%eax
  404ec6:	8b 10                	mov    (%eax),%edx
  404ec8:	8b 48 04             	mov    0x4(%eax),%ecx
  404ecb:	8b 45 e0             	mov    -0x20(%ebp),%eax
  404ece:	f7 d0                	not    %eax
  404ed0:	89 45 80             	mov    %eax,-0x80(%ebp)
  404ed3:	8b 45 e4             	mov    -0x1c(%ebp),%eax
  404ed6:	f7 d0                	not    %eax
  404ed8:	89 45 84             	mov    %eax,-0x7c(%ebp)
  404edb:	8b 5d 80             	mov    -0x80(%ebp),%ebx
  404ede:	8b 75 84             	mov    -0x7c(%ebp),%esi
  404ee1:	89 d8                	mov    %ebx,%eax
  404ee3:	21 d0                	and    %edx,%eax
  404ee5:	89 45 d0             	mov    %eax,-0x30(%ebp)
  404ee8:	89 c8                	mov    %ecx,%eax
  404eea:	21 f0                	and    %esi,%eax
  404eec:	89 45 d4             	mov    %eax,-0x2c(%ebp)
  404eef:	e9 ec 00 00 00       	jmp    404fe0 <_getQueenMoves+0x2a6>
  404ef4:	8b 45 d0             	mov    -0x30(%ebp),%eax
  404ef7:	8b 55 d4             	mov    -0x2c(%ebp),%edx
  404efa:	83 c0 ff             	add    $0xffffffff,%eax
  404efd:	83 d2 ff             	adc    $0xffffffff,%edx
  404f00:	89 c7                	mov    %eax,%edi
  404f02:	33 7d d0             	xor    -0x30(%ebp),%edi
  404f05:	89 bd 78 ff ff ff    	mov    %edi,-0x88(%ebp)
  404f0b:	89 d0                	mov    %edx,%eax
  404f0d:	33 45 d4             	xor    -0x2c(%ebp),%eax
  404f10:	89 85 7c ff ff ff    	mov    %eax,-0x84(%ebp)
  404f16:	8b b5 78 ff ff ff    	mov    -0x88(%ebp),%esi
  404f1c:	8b bd 7c ff ff ff    	mov    -0x84(%ebp),%edi
  404f22:	69 d7 89 0a cb b4    	imul   $0xb4cb0a89,%edi,%edx
  404f28:	69 c6 71 9d f7 03    	imul   $0x3f79d71,%esi,%eax
  404f2e:	8d 0c 02             	lea    (%edx,%eax,1),%ecx
  404f31:	b8 89 0a cb b4       	mov    $0xb4cb0a89,%eax
  404f36:	f7 e6                	mul    %esi
  404f38:	01 d1                	add    %edx,%ecx
  404f3a:	89 ca                	mov    %ecx,%edx
  404f3c:	89 d0                	mov    %edx,%eax
  404f3e:	31 d2                	xor    %edx,%edx
  404f40:	c1 e8 1a             	shr    $0x1a,%eax
  404f43:	8b 04 85 00 f0 40 00 	mov    0x40f000(,%eax,4),%eax
  404f4a:	89 45 b0             	mov    %eax,-0x50(%ebp)
  404f4d:	c7 04 24 14 00 00 00 	movl   $0x14,(%esp)
  404f54:	e8 9f 8a 00 00       	call   40d9f8 <_malloc>
  404f59:	89 45 ac             	mov    %eax,-0x54(%ebp)
  404f5c:	8b 55 ac             	mov    -0x54(%ebp),%edx
  404f5f:	8b 45 c4             	mov    -0x3c(%ebp),%eax
  404f62:	89 02                	mov    %eax,(%edx)
  404f64:	8b 55 ac             	mov    -0x54(%ebp),%edx
  404f67:	8b 45 b0             	mov    -0x50(%ebp),%eax
  404f6a:	89 42 04             	mov    %eax,0x4(%edx)
  404f6d:	8b 45 08             	mov    0x8(%ebp),%eax
  404f70:	89 44 24 04          	mov    %eax,0x4(%esp)
  404f74:	8b 45 b0             	mov    -0x50(%ebp),%eax
  404f77:	89 04 24             	mov    %eax,(%esp)
  404f7a:	e8 1b c5 ff ff       	call   40149a <_getSquare>
  404f7f:	89 c2                	mov    %eax,%edx
  404f81:	8b 45 ac             	mov    -0x54(%ebp),%eax
  404f84:	89 50 08             	mov    %edx,0x8(%eax)
  404f87:	8b 15 10 f1 40 00    	mov    0x40f110,%edx
  404f8d:	8b 45 ac             	mov    -0x54(%ebp),%eax
  404f90:	89 50 0c             	mov    %edx,0xc(%eax)
  404f93:	8b 15 38 30 41 00    	mov    0x413038,%edx
  404f99:	8b 45 ac             	mov    -0x54(%ebp),%eax
  404f9c:	89 50 10             	mov    %edx,0x10(%eax)
  404f9f:	8b 45 10             	mov    0x10(%ebp),%eax
  404fa2:	8b 08                	mov    (%eax),%ecx
  404fa4:	8d 51 01             	lea    0x1(%ecx),%edx
  404fa7:	8b 45 10             	mov    0x10(%ebp),%eax
  404faa:	89 10                	mov    %edx,(%eax)
  404fac:	89 c8                	mov    %ecx,%eax
  404fae:	8d 14 85 00 00 00 00 	lea    0x0(,%eax,4),%edx
  404fb5:	8b 45 0c             	mov    0xc(%ebp),%eax
  404fb8:	01 c2                	add    %eax,%edx
  404fba:	8b 45 ac             	mov    -0x54(%ebp),%eax
  404fbd:	89 02                	mov    %eax,(%edx)
  404fbf:	8b 4d b0             	mov    -0x50(%ebp),%ecx
  404fc2:	b8 01 00 00 00       	mov    $0x1,%eax
  404fc7:	ba 00 00 00 00       	mov    $0x0,%edx
  404fcc:	0f a5 c2             	shld   %cl,%eax,%edx
  404fcf:	d3 e0                	shl    %cl,%eax
  404fd1:	f6 c1 20             	test   $0x20,%cl
  404fd4:	74 04                	je     404fda <_getQueenMoves+0x2a0>
  404fd6:	89 c2                	mov    %eax,%edx
  404fd8:	31 c0                	xor    %eax,%eax
  404fda:	31 45 d0             	xor    %eax,-0x30(%ebp)
  404fdd:	31 55 d4             	xor    %edx,-0x2c(%ebp)
  404fe0:	8b 55 d0             	mov    -0x30(%ebp),%edx
  404fe3:	8b 45 d4             	mov    -0x2c(%ebp),%eax
  404fe6:	09 d0                	or     %edx,%eax
  404fe8:	85 c0                	test   %eax,%eax
  404fea:	0f 85 04 ff ff ff    	jne    404ef4 <_getQueenMoves+0x1ba>
  404ff0:	8b 45 08             	mov    0x8(%ebp),%eax
  404ff3:	8b 08                	mov    (%eax),%ecx
  404ff5:	8b 58 04             	mov    0x4(%eax),%ebx
  404ff8:	8b 45 08             	mov    0x8(%ebp),%eax
  404ffb:	8b 50 0c             	mov    0xc(%eax),%edx
  404ffe:	8b 40 08             	mov    0x8(%eax),%eax
  405001:	89 cf                	mov    %ecx,%edi
  405003:	09 c7                	or     %eax,%edi
  405005:	89 bd 70 ff ff ff    	mov    %edi,-0x90(%ebp)
  40500b:	89 df                	mov    %ebx,%edi
  40500d:	09 d7                	or     %edx,%edi
  40500f:	89 bd 74 ff ff ff    	mov    %edi,-0x8c(%ebp)
  405015:	8b 45 08             	mov    0x8(%ebp),%eax
  405018:	8b 90 ac 00 00 00    	mov    0xac(%eax),%edx
  40501e:	8b 45 c4             	mov    -0x3c(%ebp),%eax
  405021:	c1 e0 03             	shl    $0x3,%eax
  405024:	01 d0                	add    %edx,%eax
  405026:	8b 50 04             	mov    0x4(%eax),%edx
  405029:	8b 00                	mov    (%eax),%eax
  40502b:	8b 9d 70 ff ff ff    	mov    -0x90(%ebp),%ebx
  405031:	8b b5 74 ff ff ff    	mov    -0x8c(%ebp),%esi
  405037:	89 d9                	mov    %ebx,%ecx
  405039:	21 c1                	and    %eax,%ecx
  40503b:	89 4d b8             	mov    %ecx,-0x48(%ebp)
  40503e:	89 d0                	mov    %edx,%eax
  405040:	21 f0                	and    %esi,%eax
  405042:	89 45 bc             	mov    %eax,-0x44(%ebp)
  405045:	8b 45 08             	mov    0x8(%ebp),%eax
  405048:	8b 90 b4 00 00 00    	mov    0xb4(%eax),%edx
  40504e:	8b 45 c4             	mov    -0x3c(%ebp),%eax
  405051:	c1 e0 03             	shl    $0x3,%eax
  405054:	01 d0                	add    %edx,%eax
  405056:	8b 50 04             	mov    0x4(%eax),%edx
  405059:	8b 00                	mov    (%eax),%eax
  40505b:	8b 4d b8             	mov    -0x48(%ebp),%ecx
  40505e:	89 cb                	mov    %ecx,%ebx
  405060:	0f af da             	imul   %edx,%ebx
  405063:	8b 4d bc             	mov    -0x44(%ebp),%ecx
  405066:	0f af c8             	imul   %eax,%ecx
  405069:	01 d9                	add    %ebx,%ecx
  40506b:	f7 65 b8             	mull   -0x48(%ebp)
  40506e:	89 c3                	mov    %eax,%ebx
  405070:	89 d6                	mov    %edx,%esi
  405072:	8d 04 31             	lea    (%ecx,%esi,1),%eax
  405075:	89 c6                	mov    %eax,%esi
  405077:	8b 45 08             	mov    0x8(%ebp),%eax
  40507a:	8b 90 b0 00 00 00    	mov    0xb0(%eax),%edx
  405080:	8b 45 c4             	mov    -0x3c(%ebp),%eax
  405083:	c1 e0 02             	shl    $0x2,%eax
  405086:	01 d0                	add    %edx,%eax
  405088:	8b 00                	mov    (%eax),%eax
  40508a:	89 c1                	mov    %eax,%ecx
  40508c:	0f ad f3             	shrd   %cl,%esi,%ebx
  40508f:	d3 ee                	shr    %cl,%esi
  405091:	f6 c1 20             	test   $0x20,%cl
  405094:	74 04                	je     40509a <_getQueenMoves+0x360>
  405096:	89 f3                	mov    %esi,%ebx
  405098:	31 f6                	xor    %esi,%esi
  40509a:	89 d8                	mov    %ebx,%eax
  40509c:	89 f2                	mov    %esi,%edx
  40509e:	89 45 b4             	mov    %eax,-0x4c(%ebp)
  4050a1:	8b 45 08             	mov    0x8(%ebp),%eax
  4050a4:	8b 90 bc 00 00 00    	mov    0xbc(%eax),%edx
  4050aa:	8b 45 c4             	mov    -0x3c(%ebp),%eax
  4050ad:	c1 e0 02             	shl    $0x2,%eax
  4050b0:	01 d0                	add    %edx,%eax
  4050b2:	8b 10                	mov    (%eax),%edx
  4050b4:	8b 45 b4             	mov    -0x4c(%ebp),%eax
  4050b7:	c1 e0 03             	shl    $0x3,%eax
  4050ba:	01 d0                	add    %edx,%eax
  4050bc:	8b 10                	mov    (%eax),%edx
  4050be:	8b 48 04             	mov    0x4(%eax),%ecx
  4050c1:	8b 45 e0             	mov    -0x20(%ebp),%eax
  4050c4:	f7 d0                	not    %eax
  4050c6:	89 85 68 ff ff ff    	mov    %eax,-0x98(%ebp)
  4050cc:	8b 45 e4             	mov    -0x1c(%ebp),%eax
  4050cf:	f7 d0                	not    %eax
  4050d1:	89 85 6c ff ff ff    	mov    %eax,-0x94(%ebp)
  4050d7:	8b 9d 68 ff ff ff    	mov    -0x98(%ebp),%ebx
  4050dd:	8b b5 6c ff ff ff    	mov    -0x94(%ebp),%esi
  4050e3:	89 d8                	mov    %ebx,%eax
  4050e5:	21 d0                	and    %edx,%eax
  4050e7:	89 45 d0             	mov    %eax,-0x30(%ebp)
  4050ea:	89 c8                	mov    %ecx,%eax
  4050ec:	21 f0                	and    %esi,%eax
  4050ee:	89 45 d4             	mov    %eax,-0x2c(%ebp)
  4050f1:	e9 ec 00 00 00       	jmp    4051e2 <_getQueenMoves+0x4a8>
  4050f6:	8b 45 d0             	mov    -0x30(%ebp),%eax
  4050f9:	8b 55 d4             	mov    -0x2c(%ebp),%edx
  4050fc:	83 c0 ff             	add    $0xffffffff,%eax
  4050ff:	83 d2 ff             	adc    $0xffffffff,%edx
  405102:	89 c7                	mov    %eax,%edi
  405104:	33 7d d0             	xor    -0x30(%ebp),%edi
  405107:	89 bd 60 ff ff ff    	mov    %edi,-0xa0(%ebp)
  40510d:	89 d0                	mov    %edx,%eax
  40510f:	33 45 d4             	xor    -0x2c(%ebp),%eax
  405112:	89 85 64 ff ff ff    	mov    %eax,-0x9c(%ebp)
  405118:	8b 9d 60 ff ff ff    	mov    -0xa0(%ebp),%ebx
  40511e:	8b b5 64 ff ff ff    	mov    -0x9c(%ebp),%esi
  405124:	69 d6 89 0a cb b4    	imul   $0xb4cb0a89,%esi,%edx
  40512a:	69 c3 71 9d f7 03    	imul   $0x3f79d71,%ebx,%eax
  405130:	8d 0c 02             	lea    (%edx,%eax,1),%ecx
  405133:	b8 89 0a cb b4       	mov    $0xb4cb0a89,%eax
  405138:	f7 e3                	mul    %ebx
  40513a:	01 d1                	add    %edx,%ecx
  40513c:	89 ca                	mov    %ecx,%edx
  40513e:	89 d0                	mov    %edx,%eax
  405140:	31 d2                	xor    %edx,%edx
  405142:	c1 e8 1a             	shr    $0x1a,%eax
  405145:	8b 04 85 00 f0 40 00 	mov    0x40f000(,%eax,4),%eax
  40514c:	89 45 a8             	mov    %eax,-0x58(%ebp)
  40514f:	c7 04 24 14 00 00 00 	movl   $0x14,(%esp)
  405156:	e8 9d 88 00 00       	call   40d9f8 <_malloc>
  40515b:	89 45 a4             	mov    %eax,-0x5c(%ebp)
  40515e:	8b 55 a4             	mov    -0x5c(%ebp),%edx
  405161:	8b 45 c4             	mov    -0x3c(%ebp),%eax
  405164:	89 02                	mov    %eax,(%edx)
  405166:	8b 55 a4             	mov    -0x5c(%ebp),%edx
  405169:	8b 45 a8             	mov    -0x58(%ebp),%eax
  40516c:	89 42 04             	mov    %eax,0x4(%edx)
  40516f:	8b 45 08             	mov    0x8(%ebp),%eax
  405172:	89 44 24 04          	mov    %eax,0x4(%esp)
  405176:	8b 45 a8             	mov    -0x58(%ebp),%eax
  405179:	89 04 24             	mov    %eax,(%esp)
  40517c:	e8 19 c3 ff ff       	call   40149a <_getSquare>
  405181:	89 c2                	mov    %eax,%edx
  405183:	8b 45 a4             	mov    -0x5c(%ebp),%eax
  405186:	89 50 08             	mov    %edx,0x8(%eax)
  405189:	8b 15 10 f1 40 00    	mov    0x40f110,%edx
  40518f:	8b 45 a4             	mov    -0x5c(%ebp),%eax
  405192:	89 50 0c             	mov    %edx,0xc(%eax)
  405195:	8b 15 38 30 41 00    	mov    0x413038,%edx
  40519b:	8b 45 a4             	mov    -0x5c(%ebp),%eax
  40519e:	89 50 10             	mov    %edx,0x10(%eax)
  4051a1:	8b 45 10             	mov    0x10(%ebp),%eax
  4051a4:	8b 08                	mov    (%eax),%ecx
  4051a6:	8d 51 01             	lea    0x1(%ecx),%edx
  4051a9:	8b 45 10             	mov    0x10(%ebp),%eax
  4051ac:	89 10                	mov    %edx,(%eax)
  4051ae:	89 c8                	mov    %ecx,%eax
  4051b0:	8d 14 85 00 00 00 00 	lea    0x0(,%eax,4),%edx
  4051b7:	8b 45 0c             	mov    0xc(%ebp),%eax
  4051ba:	01 c2                	add    %eax,%edx
  4051bc:	8b 45 a4             	mov    -0x5c(%ebp),%eax
  4051bf:	89 02                	mov    %eax,(%edx)
  4051c1:	8b 4d a8             	mov    -0x58(%ebp),%ecx
  4051c4:	b8 01 00 00 00       	mov    $0x1,%eax
  4051c9:	ba 00 00 00 00       	mov    $0x0,%edx
  4051ce:	0f a5 c2             	shld   %cl,%eax,%edx
  4051d1:	d3 e0                	shl    %cl,%eax
  4051d3:	f6 c1 20             	test   $0x20,%cl
  4051d6:	74 04                	je     4051dc <_getQueenMoves+0x4a2>
  4051d8:	89 c2                	mov    %eax,%edx
  4051da:	31 c0                	xor    %eax,%eax
  4051dc:	31 45 d0             	xor    %eax,-0x30(%ebp)
  4051df:	31 55 d4             	xor    %edx,-0x2c(%ebp)
  4051e2:	8b 55 d0             	mov    -0x30(%ebp),%edx
  4051e5:	8b 45 d4             	mov    -0x2c(%ebp),%eax
  4051e8:	09 d0                	or     %edx,%eax
  4051ea:	85 c0                	test   %eax,%eax
  4051ec:	0f 85 04 ff ff ff    	jne    4050f6 <_getQueenMoves+0x3bc>
  4051f2:	8b 4d c4             	mov    -0x3c(%ebp),%ecx
  4051f5:	b8 01 00 00 00       	mov    $0x1,%eax
  4051fa:	ba 00 00 00 00       	mov    $0x0,%edx
  4051ff:	0f a5 c2             	shld   %cl,%eax,%edx
  405202:	d3 e0                	shl    %cl,%eax
  405204:	f6 c1 20             	test   $0x20,%cl
  405207:	74 04                	je     40520d <_getQueenMoves+0x4d3>
  405209:	89 c2                	mov    %eax,%edx
  40520b:	31 c0                	xor    %eax,%eax
  40520d:	31 45 d8             	xor    %eax,-0x28(%ebp)
  405210:	31 55 dc             	xor    %edx,-0x24(%ebp)
  405213:	8b 55 d8             	mov    -0x28(%ebp),%edx
  405216:	8b 45 dc             	mov    -0x24(%ebp),%eax
  405219:	09 d0                	or     %edx,%eax
  40521b:	85 c0                	test   %eax,%eax
  40521d:	0f 85 96 fb ff ff    	jne    404db9 <_getQueenMoves+0x7f>
  405223:	81 c4 9c 00 00 00    	add    $0x9c,%esp
  405229:	5b                   	pop    %ebx
  40522a:	5e                   	pop    %esi
  40522b:	5f                   	pop    %edi
  40522c:	5d                   	pop    %ebp
  40522d:	c3                   	ret    

0040522e <_validateCheck>:
  40522e:	55                   	push   %ebp
  40522f:	89 e5                	mov    %esp,%ebp
  405231:	83 ec 28             	sub    $0x28,%esp
  405234:	e8 e7 8b 00 00       	call   40de20 <_mcount>
  405239:	c7 04 24 00 04 00 00 	movl   $0x400,(%esp)
  405240:	e8 b3 87 00 00       	call   40d9f8 <_malloc>
  405245:	89 45 f0             	mov    %eax,-0x10(%ebp)
  405248:	8b 45 0c             	mov    0xc(%ebp),%eax
  40524b:	8b 00                	mov    (%eax),%eax
  40524d:	89 45 ec             	mov    %eax,-0x14(%ebp)
  405250:	8b 45 0c             	mov    0xc(%ebp),%eax
  405253:	c7 00 00 00 00 00    	movl   $0x0,(%eax)
  405259:	c7 45 f4 00 00 00 00 	movl   $0x0,-0xc(%ebp)
  405260:	e9 e4 00 00 00       	jmp    405349 <_validateCheck+0x11b>
  405265:	8b 45 f4             	mov    -0xc(%ebp),%eax
  405268:	8d 14 85 00 00 00 00 	lea    0x0(,%eax,4),%edx
  40526f:	8b 45 10             	mov    0x10(%ebp),%eax
  405272:	01 d0                	add    %edx,%eax
  405274:	8b 00                	mov    (%eax),%eax
  405276:	8b 40 10             	mov    0x10(%eax),%eax
  405279:	8b 04 85 50 f8 40 00 	mov    0x40f850(,%eax,4),%eax
  405280:	8b 55 f4             	mov    -0xc(%ebp),%edx
  405283:	8d 0c 95 00 00 00 00 	lea    0x0(,%edx,4),%ecx
  40528a:	8b 55 10             	mov    0x10(%ebp),%edx
  40528d:	01 ca                	add    %ecx,%edx
  40528f:	8b 12                	mov    (%edx),%edx
  405291:	8b 4d 14             	mov    0x14(%ebp),%ecx
  405294:	89 4c 24 08          	mov    %ecx,0x8(%esp)
  405298:	89 54 24 04          	mov    %edx,0x4(%esp)
  40529c:	8b 55 08             	mov    0x8(%ebp),%edx
  40529f:	89 14 24             	mov    %edx,(%esp)
  4052a2:	ff d0                	call   *%eax
  4052a4:	8b 45 14             	mov    0x14(%ebp),%eax
  4052a7:	89 44 24 04          	mov    %eax,0x4(%esp)
  4052ab:	8b 45 08             	mov    0x8(%ebp),%eax
  4052ae:	89 04 24             	mov    %eax,(%esp)
  4052b1:	e8 af 00 00 00       	call   405365 <_validateMove>
  4052b6:	89 45 e8             	mov    %eax,-0x18(%ebp)
  4052b9:	8b 45 f4             	mov    -0xc(%ebp),%eax
  4052bc:	8d 14 85 00 00 00 00 	lea    0x0(,%eax,4),%edx
  4052c3:	8b 45 10             	mov    0x10(%ebp),%eax
  4052c6:	01 d0                	add    %edx,%eax
  4052c8:	8b 00                	mov    (%eax),%eax
  4052ca:	8b 40 10             	mov    0x10(%eax),%eax
  4052cd:	8b 04 85 6c f8 40 00 	mov    0x40f86c(,%eax,4),%eax
  4052d4:	8b 55 f4             	mov    -0xc(%ebp),%edx
  4052d7:	8d 0c 95 00 00 00 00 	lea    0x0(,%edx,4),%ecx
  4052de:	8b 55 10             	mov    0x10(%ebp),%edx
  4052e1:	01 ca                	add    %ecx,%edx
  4052e3:	8b 12                	mov    (%edx),%edx
  4052e5:	8b 4d 14             	mov    0x14(%ebp),%ecx
  4052e8:	89 4c 24 08          	mov    %ecx,0x8(%esp)
  4052ec:	89 54 24 04          	mov    %edx,0x4(%esp)
  4052f0:	8b 55 08             	mov    0x8(%ebp),%edx
  4052f3:	89 14 24             	mov    %edx,(%esp)
  4052f6:	ff d0                	call   *%eax
  4052f8:	83 7d e8 01          	cmpl   $0x1,-0x18(%ebp)
  4052fc:	75 2e                	jne    40532c <_validateCheck+0xfe>
  4052fe:	8b 45 0c             	mov    0xc(%ebp),%eax
  405301:	8b 00                	mov    (%eax),%eax
  405303:	8d 48 01             	lea    0x1(%eax),%ecx
  405306:	8b 55 0c             	mov    0xc(%ebp),%edx
  405309:	89 0a                	mov    %ecx,(%edx)
  40530b:	8d 14 85 00 00 00 00 	lea    0x0(,%eax,4),%edx
  405312:	8b 45 f0             	mov    -0x10(%ebp),%eax
  405315:	01 c2                	add    %eax,%edx
  405317:	8b 45 f4             	mov    -0xc(%ebp),%eax
  40531a:	8d 0c 85 00 00 00 00 	lea    0x0(,%eax,4),%ecx
  405321:	8b 45 10             	mov    0x10(%ebp),%eax
  405324:	01 c8                	add    %ecx,%eax
  405326:	8b 00                	mov    (%eax),%eax
  405328:	89 02                	mov    %eax,(%edx)
  40532a:	eb 19                	jmp    405345 <_validateCheck+0x117>
  40532c:	8b 45 f4             	mov    -0xc(%ebp),%eax
  40532f:	8d 14 85 00 00 00 00 	lea    0x0(,%eax,4),%edx
  405336:	8b 45 10             	mov    0x10(%ebp),%eax
  405339:	01 d0                	add    %edx,%eax
  40533b:	8b 00                	mov    (%eax),%eax
  40533d:	89 04 24             	mov    %eax,(%esp)
  405340:	e8 bb 86 00 00       	call   40da00 <_free>
  405345:	83 45 f4 01          	addl   $0x1,-0xc(%ebp)
  405349:	8b 45 f4             	mov    -0xc(%ebp),%eax
  40534c:	3b 45 ec             	cmp    -0x14(%ebp),%eax
  40534f:	0f 8c 10 ff ff ff    	jl     405265 <_validateCheck+0x37>
  405355:	8b 45 10             	mov    0x10(%ebp),%eax
  405358:	89 04 24             	mov    %eax,(%esp)
  40535b:	e8 a0 86 00 00       	call   40da00 <_free>
  405360:	8b 45 f0             	mov    -0x10(%ebp),%eax
  405363:	c9                   	leave  
  405364:	c3                   	ret    

00405365 <_validateMove>:
  405365:	55                   	push   %ebp
  405366:	89 e5                	mov    %esp,%ebp
  405368:	57                   	push   %edi
  405369:	56                   	push   %esi
  40536a:	53                   	push   %ebx
  40536b:	81 ec 0c 01 00 00    	sub    $0x10c,%esp
  405371:	e8 aa 8a 00 00       	call   40de20 <_mcount>
  405376:	8b 55 08             	mov    0x8(%ebp),%edx
  405379:	8b 45 0c             	mov    0xc(%ebp),%eax
  40537c:	83 c0 10             	add    $0x10,%eax
  40537f:	8b 44 82 08          	mov    0x8(%edx,%eax,4),%eax
  405383:	8b 50 04             	mov    0x4(%eax),%edx
  405386:	8b 00                	mov    (%eax),%eax
  405388:	89 45 e8             	mov    %eax,-0x18(%ebp)
  40538b:	89 55 ec             	mov    %edx,-0x14(%ebp)
  40538e:	83 7d 0c 00          	cmpl   $0x0,0xc(%ebp)
  405392:	0f 94 c0             	sete   %al
  405395:	0f b6 c0             	movzbl %al,%eax
  405398:	8b 55 08             	mov    0x8(%ebp),%edx
  40539b:	83 c0 10             	add    $0x10,%eax
  40539e:	8b 44 82 08          	mov    0x8(%edx,%eax,4),%eax
  4053a2:	8b 50 04             	mov    0x4(%eax),%edx
  4053a5:	8b 00                	mov    (%eax),%eax
  4053a7:	89 45 e0             	mov    %eax,-0x20(%ebp)
  4053aa:	89 55 e4             	mov    %edx,-0x1c(%ebp)
  4053ad:	8b 55 e0             	mov    -0x20(%ebp),%edx
  4053b0:	8b 45 e8             	mov    -0x18(%ebp),%eax
  4053b3:	09 d0                	or     %edx,%eax
  4053b5:	89 45 d8             	mov    %eax,-0x28(%ebp)
  4053b8:	8b 55 e4             	mov    -0x1c(%ebp),%edx
  4053bb:	8b 45 ec             	mov    -0x14(%ebp),%eax
  4053be:	09 d0                	or     %edx,%eax
  4053c0:	89 45 dc             	mov    %eax,-0x24(%ebp)
  4053c3:	8b 45 08             	mov    0x8(%ebp),%eax
  4053c6:	8b 50 14             	mov    0x14(%eax),%edx
  4053c9:	8b 40 10             	mov    0x10(%eax),%eax
  4053cc:	89 c1                	mov    %eax,%ecx
  4053ce:	23 4d e8             	and    -0x18(%ebp),%ecx
  4053d1:	89 4d d0             	mov    %ecx,-0x30(%ebp)
  4053d4:	89 d0                	mov    %edx,%eax
  4053d6:	23 45 ec             	and    -0x14(%ebp),%eax
  4053d9:	89 45 d4             	mov    %eax,-0x2c(%ebp)
  4053dc:	8b 45 d0             	mov    -0x30(%ebp),%eax
  4053df:	8b 55 d4             	mov    -0x2c(%ebp),%edx
  4053e2:	83 c0 ff             	add    $0xffffffff,%eax
  4053e5:	83 d2 ff             	adc    $0xffffffff,%edx
  4053e8:	89 c7                	mov    %eax,%edi
  4053ea:	33 7d d0             	xor    -0x30(%ebp),%edi
  4053ed:	89 fb                	mov    %edi,%ebx
  4053ef:	89 d0                	mov    %edx,%eax
  4053f1:	33 45 d4             	xor    -0x2c(%ebp),%eax
  4053f4:	89 c6                	mov    %eax,%esi
  4053f6:	69 d6 89 0a cb b4    	imul   $0xb4cb0a89,%esi,%edx
  4053fc:	69 c3 71 9d f7 03    	imul   $0x3f79d71,%ebx,%eax
  405402:	8d 0c 02             	lea    (%edx,%eax,1),%ecx
  405405:	b8 89 0a cb b4       	mov    $0xb4cb0a89,%eax
  40540a:	f7 e3                	mul    %ebx
  40540c:	01 d1                	add    %edx,%ecx
  40540e:	89 ca                	mov    %ecx,%edx
  405410:	89 d0                	mov    %edx,%eax
  405412:	31 d2                	xor    %edx,%edx
  405414:	c1 e8 1a             	shr    $0x1a,%eax
  405417:	8b 04 85 00 f0 40 00 	mov    0x40f000(,%eax,4),%eax
  40541e:	89 45 cc             	mov    %eax,-0x34(%ebp)
  405421:	8b 45 08             	mov    0x8(%ebp),%eax
  405424:	8b 90 ac 00 00 00    	mov    0xac(%eax),%edx
  40542a:	8b 45 cc             	mov    -0x34(%ebp),%eax
  40542d:	c1 e0 03             	shl    $0x3,%eax
  405430:	01 d0                	add    %edx,%eax
  405432:	8b 50 04             	mov    0x4(%eax),%edx
  405435:	8b 00                	mov    (%eax),%eax
  405437:	89 c1                	mov    %eax,%ecx
  405439:	23 4d d8             	and    -0x28(%ebp),%ecx
  40543c:	89 4d c0             	mov    %ecx,-0x40(%ebp)
  40543f:	89 d0                	mov    %edx,%eax
  405441:	23 45 dc             	and    -0x24(%ebp),%eax
  405444:	89 45 c4             	mov    %eax,-0x3c(%ebp)
  405447:	8b 45 08             	mov    0x8(%ebp),%eax
  40544a:	8b 90 b4 00 00 00    	mov    0xb4(%eax),%edx
  405450:	8b 45 cc             	mov    -0x34(%ebp),%eax
  405453:	c1 e0 03             	shl    $0x3,%eax
  405456:	01 d0                	add    %edx,%eax
  405458:	8b 50 04             	mov    0x4(%eax),%edx
  40545b:	8b 00                	mov    (%eax),%eax
  40545d:	8b 4d c0             	mov    -0x40(%ebp),%ecx
  405460:	89 cb                	mov    %ecx,%ebx
  405462:	0f af da             	imul   %edx,%ebx
  405465:	8b 4d c4             	mov    -0x3c(%ebp),%ecx
  405468:	0f af c8             	imul   %eax,%ecx
  40546b:	01 d9                	add    %ebx,%ecx
  40546d:	f7 65 c0             	mull   -0x40(%ebp)
  405470:	89 c3                	mov    %eax,%ebx
  405472:	89 d6                	mov    %edx,%esi
  405474:	8d 04 31             	lea    (%ecx,%esi,1),%eax
  405477:	89 c6                	mov    %eax,%esi
  405479:	8b 45 08             	mov    0x8(%ebp),%eax
  40547c:	8b 90 b0 00 00 00    	mov    0xb0(%eax),%edx
  405482:	8b 45 cc             	mov    -0x34(%ebp),%eax
  405485:	c1 e0 02             	shl    $0x2,%eax
  405488:	01 d0                	add    %edx,%eax
  40548a:	8b 00                	mov    (%eax),%eax
  40548c:	89 c1                	mov    %eax,%ecx
  40548e:	0f ad f3             	shrd   %cl,%esi,%ebx
  405491:	d3 ee                	shr    %cl,%esi
  405493:	f6 c1 20             	test   $0x20,%cl
  405496:	74 04                	je     40549c <_validateMove+0x137>
  405498:	89 f3                	mov    %esi,%ebx
  40549a:	31 f6                	xor    %esi,%esi
  40549c:	89 d8                	mov    %ebx,%eax
  40549e:	89 f2                	mov    %esi,%edx
  4054a0:	89 45 bc             	mov    %eax,-0x44(%ebp)
  4054a3:	8b 45 08             	mov    0x8(%ebp),%eax
  4054a6:	8b 90 bc 00 00 00    	mov    0xbc(%eax),%edx
  4054ac:	8b 45 cc             	mov    -0x34(%ebp),%eax
  4054af:	c1 e0 02             	shl    $0x2,%eax
  4054b2:	01 d0                	add    %edx,%eax
  4054b4:	8b 10                	mov    (%eax),%edx
  4054b6:	8b 45 bc             	mov    -0x44(%ebp),%eax
  4054b9:	c1 e0 03             	shl    $0x3,%eax
  4054bc:	01 d0                	add    %edx,%eax
  4054be:	8b 10                	mov    (%eax),%edx
  4054c0:	8b 48 04             	mov    0x4(%eax),%ecx
  4054c3:	8b 45 e8             	mov    -0x18(%ebp),%eax
  4054c6:	f7 d0                	not    %eax
  4054c8:	89 45 98             	mov    %eax,-0x68(%ebp)
  4054cb:	8b 45 ec             	mov    -0x14(%ebp),%eax
  4054ce:	f7 d0                	not    %eax
  4054d0:	89 45 9c             	mov    %eax,-0x64(%ebp)
  4054d3:	8b 75 98             	mov    -0x68(%ebp),%esi
  4054d6:	8b 7d 9c             	mov    -0x64(%ebp),%edi
  4054d9:	89 f0                	mov    %esi,%eax
  4054db:	21 d0                	and    %edx,%eax
  4054dd:	89 45 b0             	mov    %eax,-0x50(%ebp)
  4054e0:	89 f8                	mov    %edi,%eax
  4054e2:	21 c8                	and    %ecx,%eax
  4054e4:	89 45 b4             	mov    %eax,-0x4c(%ebp)
  4054e7:	8b 45 08             	mov    0x8(%ebp),%eax
  4054ea:	8b 48 30             	mov    0x30(%eax),%ecx
  4054ed:	8b 58 34             	mov    0x34(%eax),%ebx
  4054f0:	8b 45 08             	mov    0x8(%ebp),%eax
  4054f3:	8b 50 1c             	mov    0x1c(%eax),%edx
  4054f6:	8b 40 18             	mov    0x18(%eax),%eax
  4054f9:	89 cf                	mov    %ecx,%edi
  4054fb:	09 c7                	or     %eax,%edi
  4054fd:	89 7d 90             	mov    %edi,-0x70(%ebp)
  405500:	89 df                	mov    %ebx,%edi
  405502:	09 d7                	or     %edx,%edi
  405504:	89 7d 94             	mov    %edi,-0x6c(%ebp)
  405507:	8b 45 90             	mov    -0x70(%ebp),%eax
  40550a:	8b 55 94             	mov    -0x6c(%ebp),%edx
  40550d:	89 c7                	mov    %eax,%edi
  40550f:	23 7d e0             	and    -0x20(%ebp),%edi
  405512:	89 7d 88             	mov    %edi,-0x78(%ebp)
  405515:	89 d0                	mov    %edx,%eax
  405517:	23 45 e4             	and    -0x1c(%ebp),%eax
  40551a:	89 45 8c             	mov    %eax,-0x74(%ebp)
  40551d:	8b 45 88             	mov    -0x78(%ebp),%eax
  405520:	8b 55 8c             	mov    -0x74(%ebp),%edx
  405523:	89 c7                	mov    %eax,%edi
  405525:	23 7d b0             	and    -0x50(%ebp),%edi
  405528:	89 7d 80             	mov    %edi,-0x80(%ebp)
  40552b:	89 d0                	mov    %edx,%eax
  40552d:	23 45 b4             	and    -0x4c(%ebp),%eax
  405530:	89 45 84             	mov    %eax,-0x7c(%ebp)
  405533:	8b 75 80             	mov    -0x80(%ebp),%esi
  405536:	8b 7d 84             	mov    -0x7c(%ebp),%edi
  405539:	89 f8                	mov    %edi,%eax
  40553b:	09 f0                	or     %esi,%eax
  40553d:	85 c0                	test   %eax,%eax
  40553f:	74 0a                	je     40554b <_validateMove+0x1e6>
  405541:	b8 00 00 00 00       	mov    $0x0,%eax
  405546:	e9 82 04 00 00       	jmp    4059cd <_validateMove+0x668>
  40554b:	8b 45 08             	mov    0x8(%ebp),%eax
  40554e:	8b 90 98 00 00 00    	mov    0x98(%eax),%edx
  405554:	8b 45 cc             	mov    -0x34(%ebp),%eax
  405557:	c1 e0 03             	shl    $0x3,%eax
  40555a:	01 d0                	add    %edx,%eax
  40555c:	8b 50 04             	mov    0x4(%eax),%edx
  40555f:	8b 00                	mov    (%eax),%eax
  405561:	89 c1                	mov    %eax,%ecx
  405563:	23 4d d8             	and    -0x28(%ebp),%ecx
  405566:	89 4d c0             	mov    %ecx,-0x40(%ebp)
  405569:	89 d0                	mov    %edx,%eax
  40556b:	23 45 dc             	and    -0x24(%ebp),%eax
  40556e:	89 45 c4             	mov    %eax,-0x3c(%ebp)
  405571:	8b 45 08             	mov    0x8(%ebp),%eax
  405574:	8b 90 a0 00 00 00    	mov    0xa0(%eax),%edx
  40557a:	8b 45 cc             	mov    -0x34(%ebp),%eax
  40557d:	c1 e0 03             	shl    $0x3,%eax
  405580:	01 d0                	add    %edx,%eax
  405582:	8b 50 04             	mov    0x4(%eax),%edx
  405585:	8b 00                	mov    (%eax),%eax
  405587:	8b 4d c0             	mov    -0x40(%ebp),%ecx
  40558a:	89 cb                	mov    %ecx,%ebx
  40558c:	0f af da             	imul   %edx,%ebx
  40558f:	8b 4d c4             	mov    -0x3c(%ebp),%ecx
  405592:	0f af c8             	imul   %eax,%ecx
  405595:	01 d9                	add    %ebx,%ecx
  405597:	f7 65 c0             	mull   -0x40(%ebp)
  40559a:	89 c3                	mov    %eax,%ebx
  40559c:	89 d6                	mov    %edx,%esi
  40559e:	8d 04 31             	lea    (%ecx,%esi,1),%eax
  4055a1:	89 c6                	mov    %eax,%esi
  4055a3:	8b 45 08             	mov    0x8(%ebp),%eax
  4055a6:	8b 90 9c 00 00 00    	mov    0x9c(%eax),%edx
  4055ac:	8b 45 cc             	mov    -0x34(%ebp),%eax
  4055af:	c1 e0 02             	shl    $0x2,%eax
  4055b2:	01 d0                	add    %edx,%eax
  4055b4:	8b 00                	mov    (%eax),%eax
  4055b6:	89 c1                	mov    %eax,%ecx
  4055b8:	0f ad f3             	shrd   %cl,%esi,%ebx
  4055bb:	d3 ee                	shr    %cl,%esi
  4055bd:	f6 c1 20             	test   $0x20,%cl
  4055c0:	74 04                	je     4055c6 <_validateMove+0x261>
  4055c2:	89 f3                	mov    %esi,%ebx
  4055c4:	31 f6                	xor    %esi,%esi
  4055c6:	89 d8                	mov    %ebx,%eax
  4055c8:	89 f2                	mov    %esi,%edx
  4055ca:	89 45 bc             	mov    %eax,-0x44(%ebp)
  4055cd:	8b 45 08             	mov    0x8(%ebp),%eax
  4055d0:	8b 90 a8 00 00 00    	mov    0xa8(%eax),%edx
  4055d6:	8b 45 cc             	mov    -0x34(%ebp),%eax
  4055d9:	c1 e0 02             	shl    $0x2,%eax
  4055dc:	01 d0                	add    %edx,%eax
  4055de:	8b 10                	mov    (%eax),%edx
  4055e0:	8b 45 bc             	mov    -0x44(%ebp),%eax
  4055e3:	c1 e0 03             	shl    $0x3,%eax
  4055e6:	01 d0                	add    %edx,%eax
  4055e8:	8b 50 04             	mov    0x4(%eax),%edx
  4055eb:	8b 00                	mov    (%eax),%eax
  4055ed:	89 45 b0             	mov    %eax,-0x50(%ebp)
  4055f0:	89 55 b4             	mov    %edx,-0x4c(%ebp)
  4055f3:	8b 45 08             	mov    0x8(%ebp),%eax
  4055f6:	8b 48 20             	mov    0x20(%eax),%ecx
  4055f9:	8b 58 24             	mov    0x24(%eax),%ebx
  4055fc:	8b 45 08             	mov    0x8(%ebp),%eax
  4055ff:	8b 50 1c             	mov    0x1c(%eax),%edx
  405602:	8b 40 18             	mov    0x18(%eax),%eax
  405605:	89 ce                	mov    %ecx,%esi
  405607:	09 c6                	or     %eax,%esi
  405609:	89 b5 78 ff ff ff    	mov    %esi,-0x88(%ebp)
  40560f:	89 df                	mov    %ebx,%edi
  405611:	09 d7                	or     %edx,%edi
  405613:	89 bd 7c ff ff ff    	mov    %edi,-0x84(%ebp)
  405619:	8b 85 78 ff ff ff    	mov    -0x88(%ebp),%eax
  40561f:	8b 95 7c ff ff ff    	mov    -0x84(%ebp),%edx
  405625:	89 c6                	mov    %eax,%esi
  405627:	23 75 e0             	and    -0x20(%ebp),%esi
  40562a:	89 b5 70 ff ff ff    	mov    %esi,-0x90(%ebp)
  405630:	89 d0                	mov    %edx,%eax
  405632:	23 45 e4             	and    -0x1c(%ebp),%eax
  405635:	89 85 74 ff ff ff    	mov    %eax,-0x8c(%ebp)
  40563b:	8b 85 70 ff ff ff    	mov    -0x90(%ebp),%eax
  405641:	8b 95 74 ff ff ff    	mov    -0x8c(%ebp),%edx
  405647:	89 c7                	mov    %eax,%edi
  405649:	23 7d b0             	and    -0x50(%ebp),%edi
  40564c:	89 bd 68 ff ff ff    	mov    %edi,-0x98(%ebp)
  405652:	89 d0                	mov    %edx,%eax
  405654:	23 45 b4             	and    -0x4c(%ebp),%eax
  405657:	89 85 6c ff ff ff    	mov    %eax,-0x94(%ebp)
  40565d:	8b b5 68 ff ff ff    	mov    -0x98(%ebp),%esi
  405663:	8b bd 6c ff ff ff    	mov    -0x94(%ebp),%edi
  405669:	89 f8                	mov    %edi,%eax
  40566b:	09 f0                	or     %esi,%eax
  40566d:	85 c0                	test   %eax,%eax
  40566f:	74 0a                	je     40567b <_validateMove+0x316>
  405671:	b8 00 00 00 00       	mov    $0x0,%eax
  405676:	e9 52 03 00 00       	jmp    4059cd <_validateMove+0x668>
  40567b:	8b 45 08             	mov    0x8(%ebp),%eax
  40567e:	8b 90 94 00 00 00    	mov    0x94(%eax),%edx
  405684:	8b 45 cc             	mov    -0x34(%ebp),%eax
  405687:	c1 e0 03             	shl    $0x3,%eax
  40568a:	01 d0                	add    %edx,%eax
  40568c:	8b 08                	mov    (%eax),%ecx
  40568e:	8b 58 04             	mov    0x4(%eax),%ebx
  405691:	8b 45 08             	mov    0x8(%ebp),%eax
  405694:	8b 50 2c             	mov    0x2c(%eax),%edx
  405697:	8b 40 28             	mov    0x28(%eax),%eax
  40569a:	89 c6                	mov    %eax,%esi
  40569c:	23 75 e0             	and    -0x20(%ebp),%esi
  40569f:	89 b5 60 ff ff ff    	mov    %esi,-0xa0(%ebp)
  4056a5:	89 d0                	mov    %edx,%eax
  4056a7:	23 45 e4             	and    -0x1c(%ebp),%eax
  4056aa:	89 85 64 ff ff ff    	mov    %eax,-0x9c(%ebp)
  4056b0:	8b 85 60 ff ff ff    	mov    -0xa0(%ebp),%eax
  4056b6:	8b 95 64 ff ff ff    	mov    -0x9c(%ebp),%edx
  4056bc:	89 c7                	mov    %eax,%edi
  4056be:	21 cf                	and    %ecx,%edi
  4056c0:	89 bd 58 ff ff ff    	mov    %edi,-0xa8(%ebp)
  4056c6:	21 d3                	and    %edx,%ebx
  4056c8:	89 9d 5c ff ff ff    	mov    %ebx,-0xa4(%ebp)
  4056ce:	8b b5 58 ff ff ff    	mov    -0xa8(%ebp),%esi
  4056d4:	8b bd 5c ff ff ff    	mov    -0xa4(%ebp),%edi
  4056da:	89 f8                	mov    %edi,%eax
  4056dc:	09 f0                	or     %esi,%eax
  4056de:	85 c0                	test   %eax,%eax
  4056e0:	74 0a                	je     4056ec <_validateMove+0x387>
  4056e2:	b8 00 00 00 00       	mov    $0x0,%eax
  4056e7:	e9 e1 02 00 00       	jmp    4059cd <_validateMove+0x668>
  4056ec:	8b 45 08             	mov    0x8(%ebp),%eax
  4056ef:	8b 50 3c             	mov    0x3c(%eax),%edx
  4056f2:	8b 40 38             	mov    0x38(%eax),%eax
  4056f5:	89 c1                	mov    %eax,%ecx
  4056f7:	23 4d e0             	and    -0x20(%ebp),%ecx
  4056fa:	89 4d a8             	mov    %ecx,-0x58(%ebp)
  4056fd:	89 d0                	mov    %edx,%eax
  4056ff:	23 45 e4             	and    -0x1c(%ebp),%eax
  405702:	89 45 ac             	mov    %eax,-0x54(%ebp)
  405705:	a1 28 30 41 00       	mov    0x413028,%eax
  40570a:	39 45 0c             	cmp    %eax,0xc(%ebp)
  40570d:	0f 85 20 01 00 00    	jne    405833 <_validateMove+0x4ce>
  405713:	8b 45 d0             	mov    -0x30(%ebp),%eax
  405716:	8b 55 d4             	mov    -0x2c(%ebp),%edx
  405719:	0f a4 c2 07          	shld   $0x7,%eax,%edx
  40571d:	c1 e0 07             	shl    $0x7,%eax
  405720:	89 c1                	mov    %eax,%ecx
  405722:	89 d3                	mov    %edx,%ebx
  405724:	a1 e0 f1 40 00       	mov    0x40f1e0,%eax
  405729:	8b 15 e4 f1 40 00    	mov    0x40f1e4,%edx
  40572f:	89 c6                	mov    %eax,%esi
  405731:	f7 d6                	not    %esi
  405733:	89 b5 50 ff ff ff    	mov    %esi,-0xb0(%ebp)
  405739:	89 d0                	mov    %edx,%eax
  40573b:	f7 d0                	not    %eax
  40573d:	89 85 54 ff ff ff    	mov    %eax,-0xac(%ebp)
  405743:	8b 85 50 ff ff ff    	mov    -0xb0(%ebp),%eax
  405749:	8b 95 54 ff ff ff    	mov    -0xac(%ebp),%edx
  40574f:	89 c7                	mov    %eax,%edi
  405751:	21 cf                	and    %ecx,%edi
  405753:	89 bd 48 ff ff ff    	mov    %edi,-0xb8(%ebp)
  405759:	21 d3                	and    %edx,%ebx
  40575b:	89 9d 4c ff ff ff    	mov    %ebx,-0xb4(%ebp)
  405761:	8b 85 48 ff ff ff    	mov    -0xb8(%ebp),%eax
  405767:	8b 95 4c ff ff ff    	mov    -0xb4(%ebp),%edx
  40576d:	89 c3                	mov    %eax,%ebx
  40576f:	23 5d a8             	and    -0x58(%ebp),%ebx
  405772:	89 9d 40 ff ff ff    	mov    %ebx,-0xc0(%ebp)
  405778:	89 d0                	mov    %edx,%eax
  40577a:	23 45 ac             	and    -0x54(%ebp),%eax
  40577d:	89 85 44 ff ff ff    	mov    %eax,-0xbc(%ebp)
  405783:	8b b5 40 ff ff ff    	mov    -0xc0(%ebp),%esi
  405789:	8b bd 44 ff ff ff    	mov    -0xbc(%ebp),%edi
  40578f:	89 f8                	mov    %edi,%eax
  405791:	09 f0                	or     %esi,%eax
  405793:	85 c0                	test   %eax,%eax
  405795:	74 0a                	je     4057a1 <_validateMove+0x43c>
  405797:	b8 00 00 00 00       	mov    $0x0,%eax
  40579c:	e9 2c 02 00 00       	jmp    4059cd <_validateMove+0x668>
  4057a1:	8b 45 d0             	mov    -0x30(%ebp),%eax
  4057a4:	8b 55 d4             	mov    -0x2c(%ebp),%edx
  4057a7:	0f a4 c2 09          	shld   $0x9,%eax,%edx
  4057ab:	c1 e0 09             	shl    $0x9,%eax
  4057ae:	89 c1                	mov    %eax,%ecx
  4057b0:	89 d3                	mov    %edx,%ebx
  4057b2:	a1 18 f2 40 00       	mov    0x40f218,%eax
  4057b7:	8b 15 1c f2 40 00    	mov    0x40f21c,%edx
  4057bd:	89 c6                	mov    %eax,%esi
  4057bf:	f7 d6                	not    %esi
  4057c1:	89 b5 38 ff ff ff    	mov    %esi,-0xc8(%ebp)
  4057c7:	89 d0                	mov    %edx,%eax
  4057c9:	f7 d0                	not    %eax
  4057cb:	89 85 3c ff ff ff    	mov    %eax,-0xc4(%ebp)
  4057d1:	8b 85 38 ff ff ff    	mov    -0xc8(%ebp),%eax
  4057d7:	8b 95 3c ff ff ff    	mov    -0xc4(%ebp),%edx
  4057dd:	89 c7                	mov    %eax,%edi
  4057df:	21 cf                	and    %ecx,%edi
  4057e1:	89 bd 30 ff ff ff    	mov    %edi,-0xd0(%ebp)
  4057e7:	21 d3                	and    %edx,%ebx
  4057e9:	89 9d 34 ff ff ff    	mov    %ebx,-0xcc(%ebp)
  4057ef:	8b 85 30 ff ff ff    	mov    -0xd0(%ebp),%eax
  4057f5:	8b 95 34 ff ff ff    	mov    -0xcc(%ebp),%edx
  4057fb:	89 c6                	mov    %eax,%esi
  4057fd:	23 75 a8             	and    -0x58(%ebp),%esi
  405800:	89 b5 28 ff ff ff    	mov    %esi,-0xd8(%ebp)
  405806:	89 d0                	mov    %edx,%eax
  405808:	23 45 ac             	and    -0x54(%ebp),%eax
  40580b:	89 85 2c ff ff ff    	mov    %eax,-0xd4(%ebp)
  405811:	8b b5 28 ff ff ff    	mov    -0xd8(%ebp),%esi
  405817:	8b bd 2c ff ff ff    	mov    -0xd4(%ebp),%edi
  40581d:	89 f8                	mov    %edi,%eax
  40581f:	09 f0                	or     %esi,%eax
  405821:	85 c0                	test   %eax,%eax
  405823:	0f 84 31 01 00 00    	je     40595a <_validateMove+0x5f5>
  405829:	b8 00 00 00 00       	mov    $0x0,%eax
  40582e:	e9 9a 01 00 00       	jmp    4059cd <_validateMove+0x668>
  405833:	a1 00 f1 40 00       	mov    0x40f100,%eax
  405838:	39 45 0c             	cmp    %eax,0xc(%ebp)
  40583b:	0f 85 19 01 00 00    	jne    40595a <_validateMove+0x5f5>
  405841:	8b 45 d0             	mov    -0x30(%ebp),%eax
  405844:	8b 55 d4             	mov    -0x2c(%ebp),%edx
  405847:	0f ac d0 07          	shrd   $0x7,%edx,%eax
  40584b:	c1 ea 07             	shr    $0x7,%edx
  40584e:	89 c1                	mov    %eax,%ecx
  405850:	89 d3                	mov    %edx,%ebx
  405852:	a1 18 f2 40 00       	mov    0x40f218,%eax
  405857:	8b 15 1c f2 40 00    	mov    0x40f21c,%edx
  40585d:	89 c7                	mov    %eax,%edi
  40585f:	f7 d7                	not    %edi
  405861:	89 bd 20 ff ff ff    	mov    %edi,-0xe0(%ebp)
  405867:	89 d0                	mov    %edx,%eax
  405869:	f7 d0                	not    %eax
  40586b:	89 85 24 ff ff ff    	mov    %eax,-0xdc(%ebp)
  405871:	8b 85 20 ff ff ff    	mov    -0xe0(%ebp),%eax
  405877:	8b 95 24 ff ff ff    	mov    -0xdc(%ebp),%edx
  40587d:	89 c6                	mov    %eax,%esi
  40587f:	21 ce                	and    %ecx,%esi
  405881:	89 b5 18 ff ff ff    	mov    %esi,-0xe8(%ebp)
  405887:	21 d3                	and    %edx,%ebx
  405889:	89 9d 1c ff ff ff    	mov    %ebx,-0xe4(%ebp)
  40588f:	8b 85 18 ff ff ff    	mov    -0xe8(%ebp),%eax
  405895:	8b 95 1c ff ff ff    	mov    -0xe4(%ebp),%edx
  40589b:	89 c7                	mov    %eax,%edi
  40589d:	23 7d a8             	and    -0x58(%ebp),%edi
  4058a0:	89 bd 10 ff ff ff    	mov    %edi,-0xf0(%ebp)
  4058a6:	89 d0                	mov    %edx,%eax
  4058a8:	23 45 ac             	and    -0x54(%ebp),%eax
  4058ab:	89 85 14 ff ff ff    	mov    %eax,-0xec(%ebp)
  4058b1:	8b 9d 10 ff ff ff    	mov    -0xf0(%ebp),%ebx
  4058b7:	8b b5 14 ff ff ff    	mov    -0xec(%ebp),%esi
  4058bd:	89 f0                	mov    %esi,%eax
  4058bf:	09 d8                	or     %ebx,%eax
  4058c1:	85 c0                	test   %eax,%eax
  4058c3:	74 0a                	je     4058cf <_validateMove+0x56a>
  4058c5:	b8 00 00 00 00       	mov    $0x0,%eax
  4058ca:	e9 fe 00 00 00       	jmp    4059cd <_validateMove+0x668>
  4058cf:	8b 45 d0             	mov    -0x30(%ebp),%eax
  4058d2:	8b 55 d4             	mov    -0x2c(%ebp),%edx
  4058d5:	0f ac d0 09          	shrd   $0x9,%edx,%eax
  4058d9:	c1 ea 09             	shr    $0x9,%edx
  4058dc:	89 c1                	mov    %eax,%ecx
  4058de:	89 d3                	mov    %edx,%ebx
  4058e0:	a1 e0 f1 40 00       	mov    0x40f1e0,%eax
  4058e5:	8b 15 e4 f1 40 00    	mov    0x40f1e4,%edx
  4058eb:	89 c6                	mov    %eax,%esi
  4058ed:	f7 d6                	not    %esi
  4058ef:	89 b5 08 ff ff ff    	mov    %esi,-0xf8(%ebp)
  4058f5:	89 d0                	mov    %edx,%eax
  4058f7:	f7 d0                	not    %eax
  4058f9:	89 85 0c ff ff ff    	mov    %eax,-0xf4(%ebp)
  4058ff:	8b 85 08 ff ff ff    	mov    -0xf8(%ebp),%eax
  405905:	8b 95 0c ff ff ff    	mov    -0xf4(%ebp),%edx
  40590b:	89 c7                	mov    %eax,%edi
  40590d:	21 cf                	and    %ecx,%edi
  40590f:	89 bd 00 ff ff ff    	mov    %edi,-0x100(%ebp)
  405915:	21 d3                	and    %edx,%ebx
  405917:	89 9d 04 ff ff ff    	mov    %ebx,-0xfc(%ebp)
  40591d:	8b 85 00 ff ff ff    	mov    -0x100(%ebp),%eax
  405923:	8b 95 04 ff ff ff    	mov    -0xfc(%ebp),%edx
  405929:	89 c3                	mov    %eax,%ebx
  40592b:	23 5d a8             	and    -0x58(%ebp),%ebx
  40592e:	89 9d f8 fe ff ff    	mov    %ebx,-0x108(%ebp)
  405934:	89 d0                	mov    %edx,%eax
  405936:	23 45 ac             	and    -0x54(%ebp),%eax
  405939:	89 85 fc fe ff ff    	mov    %eax,-0x104(%ebp)
  40593f:	8b 9d f8 fe ff ff    	mov    -0x108(%ebp),%ebx
  405945:	8b b5 fc fe ff ff    	mov    -0x104(%ebp),%esi
  40594b:	89 f0                	mov    %esi,%eax
  40594d:	09 d8                	or     %ebx,%eax
  40594f:	85 c0                	test   %eax,%eax
  405951:	74 07                	je     40595a <_validateMove+0x5f5>
  405953:	b8 00 00 00 00       	mov    $0x0,%eax
  405958:	eb 73                	jmp    4059cd <_validateMove+0x668>
  40595a:	8b 45 08             	mov    0x8(%ebp),%eax
  40595d:	8b 80 90 00 00 00    	mov    0x90(%eax),%eax
  405963:	8b 55 cc             	mov    -0x34(%ebp),%edx
  405966:	c1 e2 03             	shl    $0x3,%edx
  405969:	01 d0                	add    %edx,%eax
  40596b:	8b 08                	mov    (%eax),%ecx
  40596d:	8b 58 04             	mov    0x4(%eax),%ebx
  405970:	8b 45 08             	mov    0x8(%ebp),%eax
  405973:	8b 50 14             	mov    0x14(%eax),%edx
  405976:	8b 40 10             	mov    0x10(%eax),%eax
  405979:	89 c6                	mov    %eax,%esi
  40597b:	23 75 e0             	and    -0x20(%ebp),%esi
  40597e:	89 b5 f0 fe ff ff    	mov    %esi,-0x110(%ebp)
  405984:	89 d0                	mov    %edx,%eax
  405986:	23 45 e4             	and    -0x1c(%ebp),%eax
  405989:	89 85 f4 fe ff ff    	mov    %eax,-0x10c(%ebp)
  40598f:	8b 85 f0 fe ff ff    	mov    -0x110(%ebp),%eax
  405995:	8b 95 f4 fe ff ff    	mov    -0x10c(%ebp),%edx
  40599b:	89 c7                	mov    %eax,%edi
  40599d:	21 cf                	and    %ecx,%edi
  40599f:	89 bd e8 fe ff ff    	mov    %edi,-0x118(%ebp)
  4059a5:	21 d3                	and    %edx,%ebx
  4059a7:	89 9d ec fe ff ff    	mov    %ebx,-0x114(%ebp)
  4059ad:	8b 9d e8 fe ff ff    	mov    -0x118(%ebp),%ebx
  4059b3:	8b b5 ec fe ff ff    	mov    -0x114(%ebp),%esi
  4059b9:	89 f0                	mov    %esi,%eax
  4059bb:	09 d8                	or     %ebx,%eax
  4059bd:	85 c0                	test   %eax,%eax
  4059bf:	74 07                	je     4059c8 <_validateMove+0x663>
  4059c1:	b8 00 00 00 00       	mov    $0x0,%eax
  4059c6:	eb 05                	jmp    4059cd <_validateMove+0x668>
  4059c8:	b8 01 00 00 00       	mov    $0x1,%eax
  4059cd:	81 c4 0c 01 00 00    	add    $0x10c,%esp
  4059d3:	5b                   	pop    %ebx
  4059d4:	5e                   	pop    %esi
  4059d5:	5f                   	pop    %edi
  4059d6:	5d                   	pop    %ebp
  4059d7:	c3                   	ret    

004059d8 <_ApplyNormalMove>:
  4059d8:	55                   	push   %ebp
  4059d9:	89 e5                	mov    %esp,%ebp
  4059db:	57                   	push   %edi
  4059dc:	56                   	push   %esi
  4059dd:	53                   	push   %ebx
  4059de:	83 ec 44             	sub    $0x44,%esp
  4059e1:	e8 3a 84 00 00       	call   40de20 <_mcount>
  4059e6:	8b 55 08             	mov    0x8(%ebp),%edx
  4059e9:	8b 45 10             	mov    0x10(%ebp),%eax
  4059ec:	83 c0 10             	add    $0x10,%eax
  4059ef:	8b 44 82 08          	mov    0x8(%edx,%eax,4),%eax
  4059f3:	89 45 ec             	mov    %eax,-0x14(%ebp)
  4059f6:	83 7d 10 00          	cmpl   $0x0,0x10(%ebp)
  4059fa:	0f 94 c0             	sete   %al
  4059fd:	0f b6 c0             	movzbl %al,%eax
  405a00:	8b 55 08             	mov    0x8(%ebp),%edx
  405a03:	83 c0 10             	add    $0x10,%eax
  405a06:	8b 44 82 08          	mov    0x8(%edx,%eax,4),%eax
  405a0a:	89 45 e8             	mov    %eax,-0x18(%ebp)
  405a0d:	8b 45 0c             	mov    0xc(%ebp),%eax
  405a10:	8b 40 0c             	mov    0xc(%eax),%eax
  405a13:	8b 55 08             	mov    0x8(%ebp),%edx
  405a16:	83 c0 14             	add    $0x14,%eax
  405a19:	8b 04 82             	mov    (%edx,%eax,4),%eax
  405a1c:	89 45 e4             	mov    %eax,-0x1c(%ebp)
  405a1f:	8b 45 0c             	mov    0xc(%ebp),%eax
  405a22:	8b 40 08             	mov    0x8(%eax),%eax
  405a25:	8b 55 08             	mov    0x8(%ebp),%edx
  405a28:	83 c0 14             	add    $0x14,%eax
  405a2b:	8b 04 82             	mov    (%edx,%eax,4),%eax
  405a2e:	89 45 e0             	mov    %eax,-0x20(%ebp)
  405a31:	8b 45 ec             	mov    -0x14(%ebp),%eax
  405a34:	8b 18                	mov    (%eax),%ebx
  405a36:	8b 70 04             	mov    0x4(%eax),%esi
  405a39:	8b 45 0c             	mov    0xc(%ebp),%eax
  405a3c:	8b 08                	mov    (%eax),%ecx
  405a3e:	b8 01 00 00 00       	mov    $0x1,%eax
  405a43:	ba 00 00 00 00       	mov    $0x0,%edx
  405a48:	0f a5 c2             	shld   %cl,%eax,%edx
  405a4b:	d3 e0                	shl    %cl,%eax
  405a4d:	f6 c1 20             	test   $0x20,%cl
  405a50:	74 04                	je     405a56 <_ApplyNormalMove+0x7e>
  405a52:	89 c2                	mov    %eax,%edx
  405a54:	31 c0                	xor    %eax,%eax
  405a56:	89 df                	mov    %ebx,%edi
  405a58:	31 c7                	xor    %eax,%edi
  405a5a:	89 7d d8             	mov    %edi,-0x28(%ebp)
  405a5d:	31 d6                	xor    %edx,%esi
  405a5f:	89 75 dc             	mov    %esi,-0x24(%ebp)
  405a62:	8b 45 ec             	mov    -0x14(%ebp),%eax
  405a65:	8b 55 d8             	mov    -0x28(%ebp),%edx
  405a68:	8b 4d dc             	mov    -0x24(%ebp),%ecx
  405a6b:	89 10                	mov    %edx,(%eax)
  405a6d:	89 48 04             	mov    %ecx,0x4(%eax)
  405a70:	8b 45 ec             	mov    -0x14(%ebp),%eax
  405a73:	8b 18                	mov    (%eax),%ebx
  405a75:	8b 70 04             	mov    0x4(%eax),%esi
  405a78:	8b 45 0c             	mov    0xc(%ebp),%eax
  405a7b:	8b 48 04             	mov    0x4(%eax),%ecx
  405a7e:	b8 01 00 00 00       	mov    $0x1,%eax
  405a83:	ba 00 00 00 00       	mov    $0x0,%edx
  405a88:	0f a5 c2             	shld   %cl,%eax,%edx
  405a8b:	d3 e0                	shl    %cl,%eax
  405a8d:	f6 c1 20             	test   $0x20,%cl
  405a90:	74 04                	je     405a96 <_ApplyNormalMove+0xbe>
  405a92:	89 c2                	mov    %eax,%edx
  405a94:	31 c0                	xor    %eax,%eax
  405a96:	89 df                	mov    %ebx,%edi
  405a98:	09 c7                	or     %eax,%edi
  405a9a:	89 7d d0             	mov    %edi,-0x30(%ebp)
  405a9d:	09 d6                	or     %edx,%esi
  405a9f:	89 75 d4             	mov    %esi,-0x2c(%ebp)
  405aa2:	8b 45 ec             	mov    -0x14(%ebp),%eax
  405aa5:	8b 55 d0             	mov    -0x30(%ebp),%edx
  405aa8:	8b 4d d4             	mov    -0x2c(%ebp),%ecx
  405aab:	89 10                	mov    %edx,(%eax)
  405aad:	89 48 04             	mov    %ecx,0x4(%eax)
  405ab0:	8b 45 0c             	mov    0xc(%ebp),%eax
  405ab3:	8b 50 08             	mov    0x8(%eax),%edx
  405ab6:	a1 18 f1 40 00       	mov    0x40f118,%eax
  405abb:	39 c2                	cmp    %eax,%edx
  405abd:	74 40                	je     405aff <_ApplyNormalMove+0x127>
  405abf:	8b 45 e8             	mov    -0x18(%ebp),%eax
  405ac2:	8b 18                	mov    (%eax),%ebx
  405ac4:	8b 70 04             	mov    0x4(%eax),%esi
  405ac7:	8b 45 0c             	mov    0xc(%ebp),%eax
  405aca:	8b 48 04             	mov    0x4(%eax),%ecx
  405acd:	b8 01 00 00 00       	mov    $0x1,%eax
  405ad2:	ba 00 00 00 00       	mov    $0x0,%edx
  405ad7:	0f a5 c2             	shld   %cl,%eax,%edx
  405ada:	d3 e0                	shl    %cl,%eax
  405adc:	f6 c1 20             	test   $0x20,%cl
  405adf:	74 04                	je     405ae5 <_ApplyNormalMove+0x10d>
  405ae1:	89 c2                	mov    %eax,%edx
  405ae3:	31 c0                	xor    %eax,%eax
  405ae5:	89 df                	mov    %ebx,%edi
  405ae7:	31 c7                	xor    %eax,%edi
  405ae9:	89 7d c8             	mov    %edi,-0x38(%ebp)
  405aec:	31 d6                	xor    %edx,%esi
  405aee:	89 75 cc             	mov    %esi,-0x34(%ebp)
  405af1:	8b 45 e8             	mov    -0x18(%ebp),%eax
  405af4:	8b 55 c8             	mov    -0x38(%ebp),%edx
  405af7:	8b 4d cc             	mov    -0x34(%ebp),%ecx
  405afa:	89 10                	mov    %edx,(%eax)
  405afc:	89 48 04             	mov    %ecx,0x4(%eax)
  405aff:	8b 45 e0             	mov    -0x20(%ebp),%eax
  405b02:	8b 18                	mov    (%eax),%ebx
  405b04:	8b 70 04             	mov    0x4(%eax),%esi
  405b07:	8b 45 0c             	mov    0xc(%ebp),%eax
  405b0a:	8b 48 04             	mov    0x4(%eax),%ecx
  405b0d:	b8 01 00 00 00       	mov    $0x1,%eax
  405b12:	ba 00 00 00 00       	mov    $0x0,%edx
  405b17:	0f a5 c2             	shld   %cl,%eax,%edx
  405b1a:	d3 e0                	shl    %cl,%eax
  405b1c:	f6 c1 20             	test   $0x20,%cl
  405b1f:	74 04                	je     405b25 <_ApplyNormalMove+0x14d>
  405b21:	89 c2                	mov    %eax,%edx
  405b23:	31 c0                	xor    %eax,%eax
  405b25:	89 df                	mov    %ebx,%edi
  405b27:	31 c7                	xor    %eax,%edi
  405b29:	89 7d c0             	mov    %edi,-0x40(%ebp)
  405b2c:	31 d6                	xor    %edx,%esi
  405b2e:	89 75 c4             	mov    %esi,-0x3c(%ebp)
  405b31:	8b 45 e0             	mov    -0x20(%ebp),%eax
  405b34:	8b 75 c0             	mov    -0x40(%ebp),%esi
  405b37:	8b 7d c4             	mov    -0x3c(%ebp),%edi
  405b3a:	89 30                	mov    %esi,(%eax)
  405b3c:	89 78 04             	mov    %edi,0x4(%eax)
  405b3f:	8b 45 e4             	mov    -0x1c(%ebp),%eax
  405b42:	8b 18                	mov    (%eax),%ebx
  405b44:	8b 70 04             	mov    0x4(%eax),%esi
  405b47:	8b 45 0c             	mov    0xc(%ebp),%eax
  405b4a:	8b 48 04             	mov    0x4(%eax),%ecx
  405b4d:	b8 01 00 00 00       	mov    $0x1,%eax
  405b52:	ba 00 00 00 00       	mov    $0x0,%edx
  405b57:	0f a5 c2             	shld   %cl,%eax,%edx
  405b5a:	d3 e0                	shl    %cl,%eax
  405b5c:	f6 c1 20             	test   $0x20,%cl
  405b5f:	74 04                	je     405b65 <_ApplyNormalMove+0x18d>
  405b61:	89 c2                	mov    %eax,%edx
  405b63:	31 c0                	xor    %eax,%eax
  405b65:	89 d9                	mov    %ebx,%ecx
  405b67:	09 c1                	or     %eax,%ecx
  405b69:	89 4d b8             	mov    %ecx,-0x48(%ebp)
  405b6c:	09 d6                	or     %edx,%esi
  405b6e:	89 75 bc             	mov    %esi,-0x44(%ebp)
  405b71:	8b 45 e4             	mov    -0x1c(%ebp),%eax
  405b74:	8b 55 b8             	mov    -0x48(%ebp),%edx
  405b77:	8b 4d bc             	mov    -0x44(%ebp),%ecx
  405b7a:	89 10                	mov    %edx,(%eax)
  405b7c:	89 48 04             	mov    %ecx,0x4(%eax)
  405b7f:	8b 45 e4             	mov    -0x1c(%ebp),%eax
  405b82:	8b 18                	mov    (%eax),%ebx
  405b84:	8b 70 04             	mov    0x4(%eax),%esi
  405b87:	8b 45 0c             	mov    0xc(%ebp),%eax
  405b8a:	8b 08                	mov    (%eax),%ecx
  405b8c:	b8 01 00 00 00       	mov    $0x1,%eax
  405b91:	ba 00 00 00 00       	mov    $0x0,%edx
  405b96:	0f a5 c2             	shld   %cl,%eax,%edx
  405b99:	d3 e0                	shl    %cl,%eax
  405b9b:	f6 c1 20             	test   $0x20,%cl
  405b9e:	74 04                	je     405ba4 <_ApplyNormalMove+0x1cc>
  405ba0:	89 c2                	mov    %eax,%edx
  405ba2:	31 c0                	xor    %eax,%eax
  405ba4:	89 df                	mov    %ebx,%edi
  405ba6:	31 c7                	xor    %eax,%edi
  405ba8:	89 7d b0             	mov    %edi,-0x50(%ebp)
  405bab:	89 f1                	mov    %esi,%ecx
  405bad:	31 d1                	xor    %edx,%ecx
  405baf:	89 4d b4             	mov    %ecx,-0x4c(%ebp)
  405bb2:	8b 45 e4             	mov    -0x1c(%ebp),%eax
  405bb5:	8b 75 b0             	mov    -0x50(%ebp),%esi
  405bb8:	8b 7d b4             	mov    -0x4c(%ebp),%edi
  405bbb:	89 30                	mov    %esi,(%eax)
  405bbd:	89 78 04             	mov    %edi,0x4(%eax)
  405bc0:	83 c4 44             	add    $0x44,%esp
  405bc3:	5b                   	pop    %ebx
  405bc4:	5e                   	pop    %esi
  405bc5:	5f                   	pop    %edi
  405bc6:	5d                   	pop    %ebp
  405bc7:	c3                   	ret    

00405bc8 <_RevertNormalMove>:
  405bc8:	55                   	push   %ebp
  405bc9:	89 e5                	mov    %esp,%ebp
  405bcb:	57                   	push   %edi
  405bcc:	56                   	push   %esi
  405bcd:	53                   	push   %ebx
  405bce:	83 ec 44             	sub    $0x44,%esp
  405bd1:	e8 4a 82 00 00       	call   40de20 <_mcount>
  405bd6:	8b 55 08             	mov    0x8(%ebp),%edx
  405bd9:	8b 45 10             	mov    0x10(%ebp),%eax
  405bdc:	83 c0 10             	add    $0x10,%eax
  405bdf:	8b 44 82 08          	mov    0x8(%edx,%eax,4),%eax
  405be3:	89 45 ec             	mov    %eax,-0x14(%ebp)
  405be6:	83 7d 10 00          	cmpl   $0x0,0x10(%ebp)
  405bea:	0f 94 c0             	sete   %al
  405bed:	0f b6 c0             	movzbl %al,%eax
  405bf0:	8b 55 08             	mov    0x8(%ebp),%edx
  405bf3:	83 c0 10             	add    $0x10,%eax
  405bf6:	8b 44 82 08          	mov    0x8(%edx,%eax,4),%eax
  405bfa:	89 45 e8             	mov    %eax,-0x18(%ebp)
  405bfd:	8b 45 0c             	mov    0xc(%ebp),%eax
  405c00:	8b 40 0c             	mov    0xc(%eax),%eax
  405c03:	8b 55 08             	mov    0x8(%ebp),%edx
  405c06:	83 c0 14             	add    $0x14,%eax
  405c09:	8b 04 82             	mov    (%edx,%eax,4),%eax
  405c0c:	89 45 e4             	mov    %eax,-0x1c(%ebp)
  405c0f:	8b 45 0c             	mov    0xc(%ebp),%eax
  405c12:	8b 40 08             	mov    0x8(%eax),%eax
  405c15:	8b 55 08             	mov    0x8(%ebp),%edx
  405c18:	83 c0 14             	add    $0x14,%eax
  405c1b:	8b 04 82             	mov    (%edx,%eax,4),%eax
  405c1e:	89 45 e0             	mov    %eax,-0x20(%ebp)
  405c21:	8b 45 ec             	mov    -0x14(%ebp),%eax
  405c24:	8b 18                	mov    (%eax),%ebx
  405c26:	8b 70 04             	mov    0x4(%eax),%esi
  405c29:	8b 45 0c             	mov    0xc(%ebp),%eax
  405c2c:	8b 08                	mov    (%eax),%ecx
  405c2e:	b8 01 00 00 00       	mov    $0x1,%eax
  405c33:	ba 00 00 00 00       	mov    $0x0,%edx
  405c38:	0f a5 c2             	shld   %cl,%eax,%edx
  405c3b:	d3 e0                	shl    %cl,%eax
  405c3d:	f6 c1 20             	test   $0x20,%cl
  405c40:	74 04                	je     405c46 <_RevertNormalMove+0x7e>
  405c42:	89 c2                	mov    %eax,%edx
  405c44:	31 c0                	xor    %eax,%eax
  405c46:	89 df                	mov    %ebx,%edi
  405c48:	09 c7                	or     %eax,%edi
  405c4a:	89 7d d8             	mov    %edi,-0x28(%ebp)
  405c4d:	09 d6                	or     %edx,%esi
  405c4f:	89 75 dc             	mov    %esi,-0x24(%ebp)
  405c52:	8b 45 ec             	mov    -0x14(%ebp),%eax
  405c55:	8b 55 d8             	mov    -0x28(%ebp),%edx
  405c58:	8b 4d dc             	mov    -0x24(%ebp),%ecx
  405c5b:	89 10                	mov    %edx,(%eax)
  405c5d:	89 48 04             	mov    %ecx,0x4(%eax)
  405c60:	8b 45 ec             	mov    -0x14(%ebp),%eax
  405c63:	8b 18                	mov    (%eax),%ebx
  405c65:	8b 70 04             	mov    0x4(%eax),%esi
  405c68:	8b 45 0c             	mov    0xc(%ebp),%eax
  405c6b:	8b 48 04             	mov    0x4(%eax),%ecx
  405c6e:	b8 01 00 00 00       	mov    $0x1,%eax
  405c73:	ba 00 00 00 00       	mov    $0x0,%edx
  405c78:	0f a5 c2             	shld   %cl,%eax,%edx
  405c7b:	d3 e0                	shl    %cl,%eax
  405c7d:	f6 c1 20             	test   $0x20,%cl
  405c80:	74 04                	je     405c86 <_RevertNormalMove+0xbe>
  405c82:	89 c2                	mov    %eax,%edx
  405c84:	31 c0                	xor    %eax,%eax
  405c86:	89 df                	mov    %ebx,%edi
  405c88:	31 c7                	xor    %eax,%edi
  405c8a:	89 7d d0             	mov    %edi,-0x30(%ebp)
  405c8d:	31 d6                	xor    %edx,%esi
  405c8f:	89 75 d4             	mov    %esi,-0x2c(%ebp)
  405c92:	8b 45 ec             	mov    -0x14(%ebp),%eax
  405c95:	8b 55 d0             	mov    -0x30(%ebp),%edx
  405c98:	8b 4d d4             	mov    -0x2c(%ebp),%ecx
  405c9b:	89 10                	mov    %edx,(%eax)
  405c9d:	89 48 04             	mov    %ecx,0x4(%eax)
  405ca0:	8b 45 0c             	mov    0xc(%ebp),%eax
  405ca3:	8b 50 08             	mov    0x8(%eax),%edx
  405ca6:	a1 18 f1 40 00       	mov    0x40f118,%eax
  405cab:	39 c2                	cmp    %eax,%edx
  405cad:	74 40                	je     405cef <_RevertNormalMove+0x127>
  405caf:	8b 45 e8             	mov    -0x18(%ebp),%eax
  405cb2:	8b 18                	mov    (%eax),%ebx
  405cb4:	8b 70 04             	mov    0x4(%eax),%esi
  405cb7:	8b 45 0c             	mov    0xc(%ebp),%eax
  405cba:	8b 48 04             	mov    0x4(%eax),%ecx
  405cbd:	b8 01 00 00 00       	mov    $0x1,%eax
  405cc2:	ba 00 00 00 00       	mov    $0x0,%edx
  405cc7:	0f a5 c2             	shld   %cl,%eax,%edx
  405cca:	d3 e0                	shl    %cl,%eax
  405ccc:	f6 c1 20             	test   $0x20,%cl
  405ccf:	74 04                	je     405cd5 <_RevertNormalMove+0x10d>
  405cd1:	89 c2                	mov    %eax,%edx
  405cd3:	31 c0                	xor    %eax,%eax
  405cd5:	89 df                	mov    %ebx,%edi
  405cd7:	09 c7                	or     %eax,%edi
  405cd9:	89 7d c8             	mov    %edi,-0x38(%ebp)
  405cdc:	09 d6                	or     %edx,%esi
  405cde:	89 75 cc             	mov    %esi,-0x34(%ebp)
  405ce1:	8b 45 e8             	mov    -0x18(%ebp),%eax
  405ce4:	8b 55 c8             	mov    -0x38(%ebp),%edx
  405ce7:	8b 4d cc             	mov    -0x34(%ebp),%ecx
  405cea:	89 10                	mov    %edx,(%eax)
  405cec:	89 48 04             	mov    %ecx,0x4(%eax)
  405cef:	8b 45 e4             	mov    -0x1c(%ebp),%eax
  405cf2:	8b 18                	mov    (%eax),%ebx
  405cf4:	8b 70 04             	mov    0x4(%eax),%esi
  405cf7:	8b 45 0c             	mov    0xc(%ebp),%eax
  405cfa:	8b 08                	mov    (%eax),%ecx
  405cfc:	b8 01 00 00 00       	mov    $0x1,%eax
  405d01:	ba 00 00 00 00       	mov    $0x0,%edx
  405d06:	0f a5 c2             	shld   %cl,%eax,%edx
  405d09:	d3 e0                	shl    %cl,%eax
  405d0b:	f6 c1 20             	test   $0x20,%cl
  405d0e:	74 04                	je     405d14 <_RevertNormalMove+0x14c>
  405d10:	89 c2                	mov    %eax,%edx
  405d12:	31 c0                	xor    %eax,%eax
  405d14:	89 df                	mov    %ebx,%edi
  405d16:	09 c7                	or     %eax,%edi
  405d18:	89 7d c0             	mov    %edi,-0x40(%ebp)
  405d1b:	09 d6                	or     %edx,%esi
  405d1d:	89 75 c4             	mov    %esi,-0x3c(%ebp)
  405d20:	8b 45 e4             	mov    -0x1c(%ebp),%eax
  405d23:	8b 75 c0             	mov    -0x40(%ebp),%esi
  405d26:	8b 7d c4             	mov    -0x3c(%ebp),%edi
  405d29:	89 30                	mov    %esi,(%eax)
  405d2b:	89 78 04             	mov    %edi,0x4(%eax)
  405d2e:	8b 45 e4             	mov    -0x1c(%ebp),%eax
  405d31:	8b 18                	mov    (%eax),%ebx
  405d33:	8b 70 04             	mov    0x4(%eax),%esi
  405d36:	8b 45 0c             	mov    0xc(%ebp),%eax
  405d39:	8b 48 04             	mov    0x4(%eax),%ecx
  405d3c:	b8 01 00 00 00       	mov    $0x1,%eax
  405d41:	ba 00 00 00 00       	mov    $0x0,%edx
  405d46:	0f a5 c2             	shld   %cl,%eax,%edx
  405d49:	d3 e0                	shl    %cl,%eax
  405d4b:	f6 c1 20             	test   $0x20,%cl
  405d4e:	74 04                	je     405d54 <_RevertNormalMove+0x18c>
  405d50:	89 c2                	mov    %eax,%edx
  405d52:	31 c0                	xor    %eax,%eax
  405d54:	89 d9                	mov    %ebx,%ecx
  405d56:	31 c1                	xor    %eax,%ecx
  405d58:	89 4d b8             	mov    %ecx,-0x48(%ebp)
  405d5b:	31 d6                	xor    %edx,%esi
  405d5d:	89 75 bc             	mov    %esi,-0x44(%ebp)
  405d60:	8b 45 e4             	mov    -0x1c(%ebp),%eax
  405d63:	8b 55 b8             	mov    -0x48(%ebp),%edx
  405d66:	8b 4d bc             	mov    -0x44(%ebp),%ecx
  405d69:	89 10                	mov    %edx,(%eax)
  405d6b:	89 48 04             	mov    %ecx,0x4(%eax)
  405d6e:	8b 45 e0             	mov    -0x20(%ebp),%eax
  405d71:	8b 18                	mov    (%eax),%ebx
  405d73:	8b 70 04             	mov    0x4(%eax),%esi
  405d76:	8b 45 0c             	mov    0xc(%ebp),%eax
  405d79:	8b 48 04             	mov    0x4(%eax),%ecx
  405d7c:	b8 01 00 00 00       	mov    $0x1,%eax
  405d81:	ba 00 00 00 00       	mov    $0x0,%edx
  405d86:	0f a5 c2             	shld   %cl,%eax,%edx
  405d89:	d3 e0                	shl    %cl,%eax
  405d8b:	f6 c1 20             	test   $0x20,%cl
  405d8e:	74 04                	je     405d94 <_RevertNormalMove+0x1cc>
  405d90:	89 c2                	mov    %eax,%edx
  405d92:	31 c0                	xor    %eax,%eax
  405d94:	89 df                	mov    %ebx,%edi
  405d96:	09 c7                	or     %eax,%edi
  405d98:	89 7d b0             	mov    %edi,-0x50(%ebp)
  405d9b:	89 f1                	mov    %esi,%ecx
  405d9d:	09 d1                	or     %edx,%ecx
  405d9f:	89 4d b4             	mov    %ecx,-0x4c(%ebp)
  405da2:	8b 45 e0             	mov    -0x20(%ebp),%eax
  405da5:	8b 75 b0             	mov    -0x50(%ebp),%esi
  405da8:	8b 7d b4             	mov    -0x4c(%ebp),%edi
  405dab:	89 30                	mov    %esi,(%eax)
  405dad:	89 78 04             	mov    %edi,0x4(%eax)
  405db0:	83 c4 44             	add    $0x44,%esp
  405db3:	5b                   	pop    %ebx
  405db4:	5e                   	pop    %esi
  405db5:	5f                   	pop    %edi
  405db6:	5d                   	pop    %ebp
  405db7:	c3                   	ret    

00405db8 <_ApplyPawnDoublePushMove>:
  405db8:	55                   	push   %ebp
  405db9:	89 e5                	mov    %esp,%ebp
  405dbb:	57                   	push   %edi
  405dbc:	56                   	push   %esi
  405dbd:	53                   	push   %ebx
  405dbe:	83 ec 34             	sub    $0x34,%esp
  405dc1:	e8 5a 80 00 00       	call   40de20 <_mcount>
  405dc6:	8b 55 08             	mov    0x8(%ebp),%edx
  405dc9:	8b 45 10             	mov    0x10(%ebp),%eax
  405dcc:	83 c0 10             	add    $0x10,%eax
  405dcf:	8b 44 82 08          	mov    0x8(%edx,%eax,4),%eax
  405dd3:	89 45 ec             	mov    %eax,-0x14(%ebp)
  405dd6:	8b 45 ec             	mov    -0x14(%ebp),%eax
  405dd9:	8b 18                	mov    (%eax),%ebx
  405ddb:	8b 70 04             	mov    0x4(%eax),%esi
  405dde:	8b 45 0c             	mov    0xc(%ebp),%eax
  405de1:	8b 08                	mov    (%eax),%ecx
  405de3:	b8 01 00 00 00       	mov    $0x1,%eax
  405de8:	ba 00 00 00 00       	mov    $0x0,%edx
  405ded:	0f a5 c2             	shld   %cl,%eax,%edx
  405df0:	d3 e0                	shl    %cl,%eax
  405df2:	f6 c1 20             	test   $0x20,%cl
  405df5:	74 04                	je     405dfb <_ApplyPawnDoublePushMove+0x43>
  405df7:	89 c2                	mov    %eax,%edx
  405df9:	31 c0                	xor    %eax,%eax
  405dfb:	89 df                	mov    %ebx,%edi
  405dfd:	31 c7                	xor    %eax,%edi
  405dff:	89 7d d8             	mov    %edi,-0x28(%ebp)
  405e02:	31 d6                	xor    %edx,%esi
  405e04:	89 75 dc             	mov    %esi,-0x24(%ebp)
  405e07:	8b 45 ec             	mov    -0x14(%ebp),%eax
  405e0a:	8b 55 d8             	mov    -0x28(%ebp),%edx
  405e0d:	8b 4d dc             	mov    -0x24(%ebp),%ecx
  405e10:	89 10                	mov    %edx,(%eax)
  405e12:	89 48 04             	mov    %ecx,0x4(%eax)
  405e15:	8b 45 ec             	mov    -0x14(%ebp),%eax
  405e18:	8b 18                	mov    (%eax),%ebx
  405e1a:	8b 70 04             	mov    0x4(%eax),%esi
  405e1d:	8b 45 0c             	mov    0xc(%ebp),%eax
  405e20:	8b 48 04             	mov    0x4(%eax),%ecx
  405e23:	b8 01 00 00 00       	mov    $0x1,%eax
  405e28:	ba 00 00 00 00       	mov    $0x0,%edx
  405e2d:	0f a5 c2             	shld   %cl,%eax,%edx
  405e30:	d3 e0                	shl    %cl,%eax
  405e32:	f6 c1 20             	test   $0x20,%cl
  405e35:	74 04                	je     405e3b <_ApplyPawnDoublePushMove+0x83>
  405e37:	89 c2                	mov    %eax,%edx
  405e39:	31 c0                	xor    %eax,%eax
  405e3b:	89 df                	mov    %ebx,%edi
  405e3d:	09 c7                	or     %eax,%edi
  405e3f:	89 7d d0             	mov    %edi,-0x30(%ebp)
  405e42:	09 d6                	or     %edx,%esi
  405e44:	89 75 d4             	mov    %esi,-0x2c(%ebp)
  405e47:	8b 45 ec             	mov    -0x14(%ebp),%eax
  405e4a:	8b 55 d0             	mov    -0x30(%ebp),%edx
  405e4d:	8b 4d d4             	mov    -0x2c(%ebp),%ecx
  405e50:	89 10                	mov    %edx,(%eax)
  405e52:	89 48 04             	mov    %ecx,0x4(%eax)
  405e55:	8b 45 08             	mov    0x8(%ebp),%eax
  405e58:	8b 58 38             	mov    0x38(%eax),%ebx
  405e5b:	8b 70 3c             	mov    0x3c(%eax),%esi
  405e5e:	8b 45 0c             	mov    0xc(%ebp),%eax
  405e61:	8b 08                	mov    (%eax),%ecx
  405e63:	b8 01 00 00 00       	mov    $0x1,%eax
  405e68:	ba 00 00 00 00       	mov    $0x0,%edx
  405e6d:	0f a5 c2             	shld   %cl,%eax,%edx
  405e70:	d3 e0                	shl    %cl,%eax
  405e72:	f6 c1 20             	test   $0x20,%cl
  405e75:	74 04                	je     405e7b <_ApplyPawnDoublePushMove+0xc3>
  405e77:	89 c2                	mov    %eax,%edx
  405e79:	31 c0                	xor    %eax,%eax
  405e7b:	89 df                	mov    %ebx,%edi
  405e7d:	31 c7                	xor    %eax,%edi
  405e7f:	89 7d c8             	mov    %edi,-0x38(%ebp)
  405e82:	31 d6                	xor    %edx,%esi
  405e84:	89 75 cc             	mov    %esi,-0x34(%ebp)
  405e87:	8b 45 08             	mov    0x8(%ebp),%eax
  405e8a:	8b 55 c8             	mov    -0x38(%ebp),%edx
  405e8d:	8b 4d cc             	mov    -0x34(%ebp),%ecx
  405e90:	89 50 38             	mov    %edx,0x38(%eax)
  405e93:	89 48 3c             	mov    %ecx,0x3c(%eax)
  405e96:	8b 45 08             	mov    0x8(%ebp),%eax
  405e99:	8b 58 38             	mov    0x38(%eax),%ebx
  405e9c:	8b 70 3c             	mov    0x3c(%eax),%esi
  405e9f:	8b 45 0c             	mov    0xc(%ebp),%eax
  405ea2:	8b 48 04             	mov    0x4(%eax),%ecx
  405ea5:	b8 01 00 00 00       	mov    $0x1,%eax
  405eaa:	ba 00 00 00 00       	mov    $0x0,%edx
  405eaf:	0f a5 c2             	shld   %cl,%eax,%edx
  405eb2:	d3 e0                	shl    %cl,%eax
  405eb4:	f6 c1 20             	test   $0x20,%cl
  405eb7:	74 04                	je     405ebd <_ApplyPawnDoublePushMove+0x105>
  405eb9:	89 c2                	mov    %eax,%edx
  405ebb:	31 c0                	xor    %eax,%eax
  405ebd:	89 d9                	mov    %ebx,%ecx
  405ebf:	09 c1                	or     %eax,%ecx
  405ec1:	89 4d c0             	mov    %ecx,-0x40(%ebp)
  405ec4:	09 d6                	or     %edx,%esi
  405ec6:	89 75 c4             	mov    %esi,-0x3c(%ebp)
  405ec9:	8b 45 08             	mov    0x8(%ebp),%eax
  405ecc:	8b 55 c0             	mov    -0x40(%ebp),%edx
  405ecf:	8b 4d c4             	mov    -0x3c(%ebp),%ecx
  405ed2:	89 50 38             	mov    %edx,0x38(%eax)
  405ed5:	89 48 3c             	mov    %ecx,0x3c(%eax)
  405ed8:	83 c4 34             	add    $0x34,%esp
  405edb:	5b                   	pop    %ebx
  405edc:	5e                   	pop    %esi
  405edd:	5f                   	pop    %edi
  405ede:	5d                   	pop    %ebp
  405edf:	c3                   	ret    

00405ee0 <_RevertPawnDoublePushMove>:
  405ee0:	55                   	push   %ebp
  405ee1:	89 e5                	mov    %esp,%ebp
  405ee3:	57                   	push   %edi
  405ee4:	56                   	push   %esi
  405ee5:	53                   	push   %ebx
  405ee6:	83 ec 34             	sub    $0x34,%esp
  405ee9:	e8 32 7f 00 00       	call   40de20 <_mcount>
  405eee:	8b 55 08             	mov    0x8(%ebp),%edx
  405ef1:	8b 45 10             	mov    0x10(%ebp),%eax
  405ef4:	83 c0 10             	add    $0x10,%eax
  405ef7:	8b 44 82 08          	mov    0x8(%edx,%eax,4),%eax
  405efb:	89 45 ec             	mov    %eax,-0x14(%ebp)
  405efe:	8b 45 ec             	mov    -0x14(%ebp),%eax
  405f01:	8b 18                	mov    (%eax),%ebx
  405f03:	8b 70 04             	mov    0x4(%eax),%esi
  405f06:	8b 45 0c             	mov    0xc(%ebp),%eax
  405f09:	8b 48 04             	mov    0x4(%eax),%ecx
  405f0c:	b8 01 00 00 00       	mov    $0x1,%eax
  405f11:	ba 00 00 00 00       	mov    $0x0,%edx
  405f16:	0f a5 c2             	shld   %cl,%eax,%edx
  405f19:	d3 e0                	shl    %cl,%eax
  405f1b:	f6 c1 20             	test   $0x20,%cl
  405f1e:	74 04                	je     405f24 <_RevertPawnDoublePushMove+0x44>
  405f20:	89 c2                	mov    %eax,%edx
  405f22:	31 c0                	xor    %eax,%eax
  405f24:	89 df                	mov    %ebx,%edi
  405f26:	31 c7                	xor    %eax,%edi
  405f28:	89 7d d8             	mov    %edi,-0x28(%ebp)
  405f2b:	31 d6                	xor    %edx,%esi
  405f2d:	89 75 dc             	mov    %esi,-0x24(%ebp)
  405f30:	8b 45 ec             	mov    -0x14(%ebp),%eax
  405f33:	8b 55 d8             	mov    -0x28(%ebp),%edx
  405f36:	8b 4d dc             	mov    -0x24(%ebp),%ecx
  405f39:	89 10                	mov    %edx,(%eax)
  405f3b:	89 48 04             	mov    %ecx,0x4(%eax)
  405f3e:	8b 45 ec             	mov    -0x14(%ebp),%eax
  405f41:	8b 18                	mov    (%eax),%ebx
  405f43:	8b 70 04             	mov    0x4(%eax),%esi
  405f46:	8b 45 0c             	mov    0xc(%ebp),%eax
  405f49:	8b 08                	mov    (%eax),%ecx
  405f4b:	b8 01 00 00 00       	mov    $0x1,%eax
  405f50:	ba 00 00 00 00       	mov    $0x0,%edx
  405f55:	0f a5 c2             	shld   %cl,%eax,%edx
  405f58:	d3 e0                	shl    %cl,%eax
  405f5a:	f6 c1 20             	test   $0x20,%cl
  405f5d:	74 04                	je     405f63 <_RevertPawnDoublePushMove+0x83>
  405f5f:	89 c2                	mov    %eax,%edx
  405f61:	31 c0                	xor    %eax,%eax
  405f63:	89 df                	mov    %ebx,%edi
  405f65:	09 c7                	or     %eax,%edi
  405f67:	89 7d d0             	mov    %edi,-0x30(%ebp)
  405f6a:	09 d6                	or     %edx,%esi
  405f6c:	89 75 d4             	mov    %esi,-0x2c(%ebp)
  405f6f:	8b 45 ec             	mov    -0x14(%ebp),%eax
  405f72:	8b 55 d0             	mov    -0x30(%ebp),%edx
  405f75:	8b 4d d4             	mov    -0x2c(%ebp),%ecx
  405f78:	89 10                	mov    %edx,(%eax)
  405f7a:	89 48 04             	mov    %ecx,0x4(%eax)
  405f7d:	8b 45 08             	mov    0x8(%ebp),%eax
  405f80:	8b 58 38             	mov    0x38(%eax),%ebx
  405f83:	8b 70 3c             	mov    0x3c(%eax),%esi
  405f86:	8b 45 0c             	mov    0xc(%ebp),%eax
  405f89:	8b 48 04             	mov    0x4(%eax),%ecx
  405f8c:	b8 01 00 00 00       	mov    $0x1,%eax
  405f91:	ba 00 00 00 00       	mov    $0x0,%edx
  405f96:	0f a5 c2             	shld   %cl,%eax,%edx
  405f99:	d3 e0                	shl    %cl,%eax
  405f9b:	f6 c1 20             	test   $0x20,%cl
  405f9e:	74 04                	je     405fa4 <_RevertPawnDoublePushMove+0xc4>
  405fa0:	89 c2                	mov    %eax,%edx
  405fa2:	31 c0                	xor    %eax,%eax
  405fa4:	89 df                	mov    %ebx,%edi
  405fa6:	31 c7                	xor    %eax,%edi
  405fa8:	89 7d c8             	mov    %edi,-0x38(%ebp)
  405fab:	31 d6                	xor    %edx,%esi
  405fad:	89 75 cc             	mov    %esi,-0x34(%ebp)
  405fb0:	8b 45 08             	mov    0x8(%ebp),%eax
  405fb3:	8b 55 c8             	mov    -0x38(%ebp),%edx
  405fb6:	8b 4d cc             	mov    -0x34(%ebp),%ecx
  405fb9:	89 50 38             	mov    %edx,0x38(%eax)
  405fbc:	89 48 3c             	mov    %ecx,0x3c(%eax)
  405fbf:	8b 45 08             	mov    0x8(%ebp),%eax
  405fc2:	8b 58 38             	mov    0x38(%eax),%ebx
  405fc5:	8b 70 3c             	mov    0x3c(%eax),%esi
  405fc8:	8b 45 0c             	mov    0xc(%ebp),%eax
  405fcb:	8b 08                	mov    (%eax),%ecx
  405fcd:	b8 01 00 00 00       	mov    $0x1,%eax
  405fd2:	ba 00 00 00 00       	mov    $0x0,%edx
  405fd7:	0f a5 c2             	shld   %cl,%eax,%edx
  405fda:	d3 e0                	shl    %cl,%eax
  405fdc:	f6 c1 20             	test   $0x20,%cl
  405fdf:	74 04                	je     405fe5 <_RevertPawnDoublePushMove+0x105>
  405fe1:	89 c2                	mov    %eax,%edx
  405fe3:	31 c0                	xor    %eax,%eax
  405fe5:	89 d9                	mov    %ebx,%ecx
  405fe7:	09 c1                	or     %eax,%ecx
  405fe9:	89 4d c0             	mov    %ecx,-0x40(%ebp)
  405fec:	09 d6                	or     %edx,%esi
  405fee:	89 75 c4             	mov    %esi,-0x3c(%ebp)
  405ff1:	8b 45 08             	mov    0x8(%ebp),%eax
  405ff4:	8b 55 c0             	mov    -0x40(%ebp),%edx
  405ff7:	8b 4d c4             	mov    -0x3c(%ebp),%ecx
  405ffa:	89 50 38             	mov    %edx,0x38(%eax)
  405ffd:	89 48 3c             	mov    %ecx,0x3c(%eax)
  406000:	83 c4 34             	add    $0x34,%esp
  406003:	5b                   	pop    %ebx
  406004:	5e                   	pop    %esi
  406005:	5f                   	pop    %edi
  406006:	5d                   	pop    %ebp
  406007:	c3                   	ret    

00406008 <_ApplyBreaksLeftCastleMove>:
  406008:	55                   	push   %ebp
  406009:	89 e5                	mov    %esp,%ebp
  40600b:	83 ec 10             	sub    $0x10,%esp
  40600e:	e8 0d 7e 00 00       	call   40de20 <_mcount>
  406013:	8b 45 10             	mov    0x10(%ebp),%eax
  406016:	89 44 24 08          	mov    %eax,0x8(%esp)
  40601a:	8b 45 0c             	mov    0xc(%ebp),%eax
  40601d:	89 44 24 04          	mov    %eax,0x4(%esp)
  406021:	8b 45 08             	mov    0x8(%ebp),%eax
  406024:	89 04 24             	mov    %eax,(%esp)
  406027:	e8 ac f9 ff ff       	call   4059d8 <_ApplyNormalMove>
  40602c:	8b 45 08             	mov    0x8(%ebp),%eax
  40602f:	8b 55 10             	mov    0x10(%ebp),%edx
  406032:	83 c2 0e             	add    $0xe,%edx
  406035:	c7 44 d0 08 00 00 00 	movl   $0x0,0x8(%eax,%edx,8)
  40603c:	00 
  40603d:	c9                   	leave  
  40603e:	c3                   	ret    

0040603f <_RevertBreaksLeftCastleMove>:
  40603f:	55                   	push   %ebp
  406040:	89 e5                	mov    %esp,%ebp
  406042:	83 ec 10             	sub    $0x10,%esp
  406045:	e8 d6 7d 00 00       	call   40de20 <_mcount>
  40604a:	8b 45 10             	mov    0x10(%ebp),%eax
  40604d:	89 44 24 08          	mov    %eax,0x8(%esp)
  406051:	8b 45 0c             	mov    0xc(%ebp),%eax
  406054:	89 44 24 04          	mov    %eax,0x4(%esp)
  406058:	8b 45 08             	mov    0x8(%ebp),%eax
  40605b:	89 04 24             	mov    %eax,(%esp)
  40605e:	e8 65 fb ff ff       	call   405bc8 <_RevertNormalMove>
  406063:	8b 45 08             	mov    0x8(%ebp),%eax
  406066:	8b 55 10             	mov    0x10(%ebp),%edx
  406069:	83 c2 0e             	add    $0xe,%edx
  40606c:	c7 44 d0 08 01 00 00 	movl   $0x1,0x8(%eax,%edx,8)
  406073:	00 
  406074:	c9                   	leave  
  406075:	c3                   	ret    

00406076 <_ApplyBreaksRightCastleMove>:
  406076:	55                   	push   %ebp
  406077:	89 e5                	mov    %esp,%ebp
  406079:	83 ec 10             	sub    $0x10,%esp
  40607c:	e8 9f 7d 00 00       	call   40de20 <_mcount>
  406081:	8b 45 10             	mov    0x10(%ebp),%eax
  406084:	89 44 24 08          	mov    %eax,0x8(%esp)
  406088:	8b 45 0c             	mov    0xc(%ebp),%eax
  40608b:	89 44 24 04          	mov    %eax,0x4(%esp)
  40608f:	8b 45 08             	mov    0x8(%ebp),%eax
  406092:	89 04 24             	mov    %eax,(%esp)
  406095:	e8 3e f9 ff ff       	call   4059d8 <_ApplyNormalMove>
  40609a:	8b 45 08             	mov    0x8(%ebp),%eax
  40609d:	8b 55 10             	mov    0x10(%ebp),%edx
  4060a0:	c7 44 d0 7c 00 00 00 	movl   $0x0,0x7c(%eax,%edx,8)
  4060a7:	00 
  4060a8:	c9                   	leave  
  4060a9:	c3                   	ret    

004060aa <_RevertBreaksRightCastleMove>:
  4060aa:	55                   	push   %ebp
  4060ab:	89 e5                	mov    %esp,%ebp
  4060ad:	83 ec 10             	sub    $0x10,%esp
  4060b0:	e8 6b 7d 00 00       	call   40de20 <_mcount>
  4060b5:	8b 45 10             	mov    0x10(%ebp),%eax
  4060b8:	89 44 24 08          	mov    %eax,0x8(%esp)
  4060bc:	8b 45 0c             	mov    0xc(%ebp),%eax
  4060bf:	89 44 24 04          	mov    %eax,0x4(%esp)
  4060c3:	8b 45 08             	mov    0x8(%ebp),%eax
  4060c6:	89 04 24             	mov    %eax,(%esp)
  4060c9:	e8 fa fa ff ff       	call   405bc8 <_RevertNormalMove>
  4060ce:	8b 45 08             	mov    0x8(%ebp),%eax
  4060d1:	8b 55 10             	mov    0x10(%ebp),%edx
  4060d4:	c7 44 d0 7c 01 00 00 	movl   $0x1,0x7c(%eax,%edx,8)
  4060db:	00 
  4060dc:	c9                   	leave  
  4060dd:	c3                   	ret    

004060de <_ApplyBreaksBothCastlesMove>:
  4060de:	55                   	push   %ebp
  4060df:	89 e5                	mov    %esp,%ebp
  4060e1:	83 ec 10             	sub    $0x10,%esp
  4060e4:	e8 37 7d 00 00       	call   40de20 <_mcount>
  4060e9:	8b 45 10             	mov    0x10(%ebp),%eax
  4060ec:	89 44 24 08          	mov    %eax,0x8(%esp)
  4060f0:	8b 45 0c             	mov    0xc(%ebp),%eax
  4060f3:	89 44 24 04          	mov    %eax,0x4(%esp)
  4060f7:	8b 45 08             	mov    0x8(%ebp),%eax
  4060fa:	89 04 24             	mov    %eax,(%esp)
  4060fd:	e8 d6 f8 ff ff       	call   4059d8 <_ApplyNormalMove>
  406102:	8b 45 08             	mov    0x8(%ebp),%eax
  406105:	8b 55 10             	mov    0x10(%ebp),%edx
  406108:	83 c2 0e             	add    $0xe,%edx
  40610b:	c7 44 d0 08 00 00 00 	movl   $0x0,0x8(%eax,%edx,8)
  406112:	00 
  406113:	8b 45 08             	mov    0x8(%ebp),%eax
  406116:	8b 55 10             	mov    0x10(%ebp),%edx
  406119:	c7 44 d0 7c 00 00 00 	movl   $0x0,0x7c(%eax,%edx,8)
  406120:	00 
  406121:	c9                   	leave  
  406122:	c3                   	ret    

00406123 <_RevertBreaksBothCastlesMove>:
  406123:	55                   	push   %ebp
  406124:	89 e5                	mov    %esp,%ebp
  406126:	83 ec 10             	sub    $0x10,%esp
  406129:	e8 f2 7c 00 00       	call   40de20 <_mcount>
  40612e:	8b 45 10             	mov    0x10(%ebp),%eax
  406131:	89 44 24 08          	mov    %eax,0x8(%esp)
  406135:	8b 45 0c             	mov    0xc(%ebp),%eax
  406138:	89 44 24 04          	mov    %eax,0x4(%esp)
  40613c:	8b 45 08             	mov    0x8(%ebp),%eax
  40613f:	89 04 24             	mov    %eax,(%esp)
  406142:	e8 81 fa ff ff       	call   405bc8 <_RevertNormalMove>
  406147:	8b 45 08             	mov    0x8(%ebp),%eax
  40614a:	8b 55 10             	mov    0x10(%ebp),%edx
  40614d:	83 c2 0e             	add    $0xe,%edx
  406150:	c7 44 d0 08 01 00 00 	movl   $0x1,0x8(%eax,%edx,8)
  406157:	00 
  406158:	8b 45 08             	mov    0x8(%ebp),%eax
  40615b:	8b 55 10             	mov    0x10(%ebp),%edx
  40615e:	c7 44 d0 7c 01 00 00 	movl   $0x1,0x7c(%eax,%edx,8)
  406165:	00 
  406166:	c9                   	leave  
  406167:	c3                   	ret    

00406168 <_ApplyLeftCastleMove>:
  406168:	55                   	push   %ebp
  406169:	89 e5                	mov    %esp,%ebp
  40616b:	57                   	push   %edi
  40616c:	56                   	push   %esi
  40616d:	53                   	push   %ebx
  40616e:	83 ec 64             	sub    $0x64,%esp
  406171:	e8 aa 7c 00 00       	call   40de20 <_mcount>
  406176:	8b 55 08             	mov    0x8(%ebp),%edx
  406179:	8b 45 10             	mov    0x10(%ebp),%eax
  40617c:	83 c0 10             	add    $0x10,%eax
  40617f:	8b 44 82 08          	mov    0x8(%edx,%eax,4),%eax
  406183:	89 45 ec             	mov    %eax,-0x14(%ebp)
  406186:	a1 28 30 41 00       	mov    0x413028,%eax
  40618b:	39 45 10             	cmp    %eax,0x10(%ebp)
  40618e:	75 07                	jne    406197 <_ApplyLeftCastleMove+0x2f>
  406190:	b8 04 00 00 00       	mov    $0x4,%eax
  406195:	eb 05                	jmp    40619c <_ApplyLeftCastleMove+0x34>
  406197:	b8 3c 00 00 00       	mov    $0x3c,%eax
  40619c:	89 45 e8             	mov    %eax,-0x18(%ebp)
  40619f:	a1 28 30 41 00       	mov    0x413028,%eax
  4061a4:	39 45 10             	cmp    %eax,0x10(%ebp)
  4061a7:	75 07                	jne    4061b0 <_ApplyLeftCastleMove+0x48>
  4061a9:	b8 00 00 00 00       	mov    $0x0,%eax
  4061ae:	eb 05                	jmp    4061b5 <_ApplyLeftCastleMove+0x4d>
  4061b0:	b8 38 00 00 00       	mov    $0x38,%eax
  4061b5:	89 45 e4             	mov    %eax,-0x1c(%ebp)
  4061b8:	8b 45 e8             	mov    -0x18(%ebp),%eax
  4061bb:	83 e8 02             	sub    $0x2,%eax
  4061be:	89 45 e0             	mov    %eax,-0x20(%ebp)
  4061c1:	8b 45 e8             	mov    -0x18(%ebp),%eax
  4061c4:	83 e8 01             	sub    $0x1,%eax
  4061c7:	89 45 dc             	mov    %eax,-0x24(%ebp)
  4061ca:	8b 45 ec             	mov    -0x14(%ebp),%eax
  4061cd:	8b 18                	mov    (%eax),%ebx
  4061cf:	8b 70 04             	mov    0x4(%eax),%esi
  4061d2:	8b 4d e8             	mov    -0x18(%ebp),%ecx
  4061d5:	b8 01 00 00 00       	mov    $0x1,%eax
  4061da:	ba 00 00 00 00       	mov    $0x0,%edx
  4061df:	0f a5 c2             	shld   %cl,%eax,%edx
  4061e2:	d3 e0                	shl    %cl,%eax
  4061e4:	f6 c1 20             	test   $0x20,%cl
  4061e7:	74 04                	je     4061ed <_ApplyLeftCastleMove+0x85>
  4061e9:	89 c2                	mov    %eax,%edx
  4061eb:	31 c0                	xor    %eax,%eax
  4061ed:	89 df                	mov    %ebx,%edi
  4061ef:	31 c7                	xor    %eax,%edi
  4061f1:	89 7d c8             	mov    %edi,-0x38(%ebp)
  4061f4:	31 d6                	xor    %edx,%esi
  4061f6:	89 75 cc             	mov    %esi,-0x34(%ebp)
  4061f9:	8b 45 ec             	mov    -0x14(%ebp),%eax
  4061fc:	8b 5d c8             	mov    -0x38(%ebp),%ebx
  4061ff:	8b 75 cc             	mov    -0x34(%ebp),%esi
  406202:	89 18                	mov    %ebx,(%eax)
  406204:	89 70 04             	mov    %esi,0x4(%eax)
  406207:	8b 45 ec             	mov    -0x14(%ebp),%eax
  40620a:	8b 18                	mov    (%eax),%ebx
  40620c:	8b 70 04             	mov    0x4(%eax),%esi
  40620f:	8b 4d e4             	mov    -0x1c(%ebp),%ecx
  406212:	b8 01 00 00 00       	mov    $0x1,%eax
  406217:	ba 00 00 00 00       	mov    $0x0,%edx
  40621c:	0f a5 c2             	shld   %cl,%eax,%edx
  40621f:	d3 e0                	shl    %cl,%eax
  406221:	f6 c1 20             	test   $0x20,%cl
  406224:	74 04                	je     40622a <_ApplyLeftCastleMove+0xc2>
  406226:	89 c2                	mov    %eax,%edx
  406228:	31 c0                	xor    %eax,%eax
  40622a:	89 df                	mov    %ebx,%edi
  40622c:	31 c7                	xor    %eax,%edi
  40622e:	89 7d c0             	mov    %edi,-0x40(%ebp)
  406231:	31 d6                	xor    %edx,%esi
  406233:	89 75 c4             	mov    %esi,-0x3c(%ebp)
  406236:	8b 45 ec             	mov    -0x14(%ebp),%eax
  406239:	8b 5d c0             	mov    -0x40(%ebp),%ebx
  40623c:	8b 75 c4             	mov    -0x3c(%ebp),%esi
  40623f:	89 18                	mov    %ebx,(%eax)
  406241:	89 70 04             	mov    %esi,0x4(%eax)
  406244:	8b 45 ec             	mov    -0x14(%ebp),%eax
  406247:	8b 18                	mov    (%eax),%ebx
  406249:	8b 70 04             	mov    0x4(%eax),%esi
  40624c:	8b 4d e0             	mov    -0x20(%ebp),%ecx
  40624f:	b8 01 00 00 00       	mov    $0x1,%eax
  406254:	ba 00 00 00 00       	mov    $0x0,%edx
  406259:	0f a5 c2             	shld   %cl,%eax,%edx
  40625c:	d3 e0                	shl    %cl,%eax
  40625e:	f6 c1 20             	test   $0x20,%cl
  406261:	74 04                	je     406267 <_ApplyLeftCastleMove+0xff>
  406263:	89 c2                	mov    %eax,%edx
  406265:	31 c0                	xor    %eax,%eax
  406267:	89 df                	mov    %ebx,%edi
  406269:	09 c7                	or     %eax,%edi
  40626b:	89 7d b8             	mov    %edi,-0x48(%ebp)
  40626e:	09 d6                	or     %edx,%esi
  406270:	89 75 bc             	mov    %esi,-0x44(%ebp)
  406273:	8b 45 ec             	mov    -0x14(%ebp),%eax
  406276:	8b 55 b8             	mov    -0x48(%ebp),%edx
  406279:	8b 4d bc             	mov    -0x44(%ebp),%ecx
  40627c:	89 10                	mov    %edx,(%eax)
  40627e:	89 48 04             	mov    %ecx,0x4(%eax)
  406281:	8b 45 ec             	mov    -0x14(%ebp),%eax
  406284:	8b 18                	mov    (%eax),%ebx
  406286:	8b 70 04             	mov    0x4(%eax),%esi
  406289:	8b 4d dc             	mov    -0x24(%ebp),%ecx
  40628c:	b8 01 00 00 00       	mov    $0x1,%eax
  406291:	ba 00 00 00 00       	mov    $0x0,%edx
  406296:	0f a5 c2             	shld   %cl,%eax,%edx
  406299:	d3 e0                	shl    %cl,%eax
  40629b:	f6 c1 20             	test   $0x20,%cl
  40629e:	74 04                	je     4062a4 <_ApplyLeftCastleMove+0x13c>
  4062a0:	89 c2                	mov    %eax,%edx
  4062a2:	31 c0                	xor    %eax,%eax
  4062a4:	89 d9                	mov    %ebx,%ecx
  4062a6:	09 c1                	or     %eax,%ecx
  4062a8:	89 4d b0             	mov    %ecx,-0x50(%ebp)
  4062ab:	09 d6                	or     %edx,%esi
  4062ad:	89 75 b4             	mov    %esi,-0x4c(%ebp)
  4062b0:	8b 45 ec             	mov    -0x14(%ebp),%eax
  4062b3:	8b 5d b0             	mov    -0x50(%ebp),%ebx
  4062b6:	8b 75 b4             	mov    -0x4c(%ebp),%esi
  4062b9:	89 18                	mov    %ebx,(%eax)
  4062bb:	89 70 04             	mov    %esi,0x4(%eax)
  4062be:	a1 14 f1 40 00       	mov    0x40f114,%eax
  4062c3:	8b 55 08             	mov    0x8(%ebp),%edx
  4062c6:	83 c0 14             	add    $0x14,%eax
  4062c9:	8b 3c 82             	mov    (%edx,%eax,4),%edi
  4062cc:	a1 14 f1 40 00       	mov    0x40f114,%eax
  4062d1:	8b 55 08             	mov    0x8(%ebp),%edx
  4062d4:	83 c0 14             	add    $0x14,%eax
  4062d7:	8b 04 82             	mov    (%edx,%eax,4),%eax
  4062da:	8b 18                	mov    (%eax),%ebx
  4062dc:	8b 70 04             	mov    0x4(%eax),%esi
  4062df:	8b 4d e8             	mov    -0x18(%ebp),%ecx
  4062e2:	b8 01 00 00 00       	mov    $0x1,%eax
  4062e7:	ba 00 00 00 00       	mov    $0x0,%edx
  4062ec:	0f a5 c2             	shld   %cl,%eax,%edx
  4062ef:	d3 e0                	shl    %cl,%eax
  4062f1:	f6 c1 20             	test   $0x20,%cl
  4062f4:	74 04                	je     4062fa <_ApplyLeftCastleMove+0x192>
  4062f6:	89 c2                	mov    %eax,%edx
  4062f8:	31 c0                	xor    %eax,%eax
  4062fa:	89 d9                	mov    %ebx,%ecx
  4062fc:	31 c1                	xor    %eax,%ecx
  4062fe:	89 4d a8             	mov    %ecx,-0x58(%ebp)
  406301:	31 d6                	xor    %edx,%esi
  406303:	89 75 ac             	mov    %esi,-0x54(%ebp)
  406306:	8b 45 a8             	mov    -0x58(%ebp),%eax
  406309:	8b 55 ac             	mov    -0x54(%ebp),%edx
  40630c:	89 07                	mov    %eax,(%edi)
  40630e:	89 57 04             	mov    %edx,0x4(%edi)
  406311:	a1 0c f1 40 00       	mov    0x40f10c,%eax
  406316:	8b 55 08             	mov    0x8(%ebp),%edx
  406319:	83 c0 14             	add    $0x14,%eax
  40631c:	8b 3c 82             	mov    (%edx,%eax,4),%edi
  40631f:	a1 0c f1 40 00       	mov    0x40f10c,%eax
  406324:	8b 55 08             	mov    0x8(%ebp),%edx
  406327:	83 c0 14             	add    $0x14,%eax
  40632a:	8b 04 82             	mov    (%edx,%eax,4),%eax
  40632d:	8b 18                	mov    (%eax),%ebx
  40632f:	8b 70 04             	mov    0x4(%eax),%esi
  406332:	8b 4d e4             	mov    -0x1c(%ebp),%ecx
  406335:	b8 01 00 00 00       	mov    $0x1,%eax
  40633a:	ba 00 00 00 00       	mov    $0x0,%edx
  40633f:	0f a5 c2             	shld   %cl,%eax,%edx
  406342:	d3 e0                	shl    %cl,%eax
  406344:	f6 c1 20             	test   $0x20,%cl
  406347:	74 04                	je     40634d <_ApplyLeftCastleMove+0x1e5>
  406349:	89 c2                	mov    %eax,%edx
  40634b:	31 c0                	xor    %eax,%eax
  40634d:	89 d9                	mov    %ebx,%ecx
  40634f:	31 c1                	xor    %eax,%ecx
  406351:	89 4d a0             	mov    %ecx,-0x60(%ebp)
  406354:	31 d6                	xor    %edx,%esi
  406356:	89 75 a4             	mov    %esi,-0x5c(%ebp)
  406359:	8b 45 a0             	mov    -0x60(%ebp),%eax
  40635c:	8b 55 a4             	mov    -0x5c(%ebp),%edx
  40635f:	89 07                	mov    %eax,(%edi)
  406361:	89 57 04             	mov    %edx,0x4(%edi)
  406364:	8b 15 14 f1 40 00    	mov    0x40f114,%edx
  40636a:	8b 45 08             	mov    0x8(%ebp),%eax
  40636d:	83 c2 14             	add    $0x14,%edx
  406370:	8b 3c 90             	mov    (%eax,%edx,4),%edi
  406373:	a1 14 f1 40 00       	mov    0x40f114,%eax
  406378:	8b 55 08             	mov    0x8(%ebp),%edx
  40637b:	83 c0 14             	add    $0x14,%eax
  40637e:	8b 04 82             	mov    (%edx,%eax,4),%eax
  406381:	8b 18                	mov    (%eax),%ebx
  406383:	8b 70 04             	mov    0x4(%eax),%esi
  406386:	8b 4d e0             	mov    -0x20(%ebp),%ecx
  406389:	b8 01 00 00 00       	mov    $0x1,%eax
  40638e:	ba 00 00 00 00       	mov    $0x0,%edx
  406393:	0f a5 c2             	shld   %cl,%eax,%edx
  406396:	d3 e0                	shl    %cl,%eax
  406398:	f6 c1 20             	test   $0x20,%cl
  40639b:	74 04                	je     4063a1 <_ApplyLeftCastleMove+0x239>
  40639d:	89 c2                	mov    %eax,%edx
  40639f:	31 c0                	xor    %eax,%eax
  4063a1:	89 d9                	mov    %ebx,%ecx
  4063a3:	09 c1                	or     %eax,%ecx
  4063a5:	89 4d 98             	mov    %ecx,-0x68(%ebp)
  4063a8:	09 d6                	or     %edx,%esi
  4063aa:	89 75 9c             	mov    %esi,-0x64(%ebp)
  4063ad:	8b 45 98             	mov    -0x68(%ebp),%eax
  4063b0:	8b 55 9c             	mov    -0x64(%ebp),%edx
  4063b3:	89 07                	mov    %eax,(%edi)
  4063b5:	89 57 04             	mov    %edx,0x4(%edi)
  4063b8:	8b 15 0c f1 40 00    	mov    0x40f10c,%edx
  4063be:	8b 45 08             	mov    0x8(%ebp),%eax
  4063c1:	83 c2 14             	add    $0x14,%edx
  4063c4:	8b 3c 90             	mov    (%eax,%edx,4),%edi
  4063c7:	8b 15 0c f1 40 00    	mov    0x40f10c,%edx
  4063cd:	8b 45 08             	mov    0x8(%ebp),%eax
  4063d0:	83 c2 14             	add    $0x14,%edx
  4063d3:	8b 04 90             	mov    (%eax,%edx,4),%eax
  4063d6:	8b 18                	mov    (%eax),%ebx
  4063d8:	8b 70 04             	mov    0x4(%eax),%esi
  4063db:	8b 4d dc             	mov    -0x24(%ebp),%ecx
  4063de:	b8 01 00 00 00       	mov    $0x1,%eax
  4063e3:	ba 00 00 00 00       	mov    $0x0,%edx
  4063e8:	0f a5 c2             	shld   %cl,%eax,%edx
  4063eb:	d3 e0                	shl    %cl,%eax
  4063ed:	f6 c1 20             	test   $0x20,%cl
  4063f0:	74 04                	je     4063f6 <_ApplyLeftCastleMove+0x28e>
  4063f2:	89 c2                	mov    %eax,%edx
  4063f4:	31 c0                	xor    %eax,%eax
  4063f6:	89 d9                	mov    %ebx,%ecx
  4063f8:	09 c1                	or     %eax,%ecx
  4063fa:	89 4d 90             	mov    %ecx,-0x70(%ebp)
  4063fd:	09 d6                	or     %edx,%esi
  4063ff:	89 75 94             	mov    %esi,-0x6c(%ebp)
  406402:	8b 45 90             	mov    -0x70(%ebp),%eax
  406405:	8b 55 94             	mov    -0x6c(%ebp),%edx
  406408:	89 07                	mov    %eax,(%edi)
  40640a:	89 57 04             	mov    %edx,0x4(%edi)
  40640d:	8b 45 08             	mov    0x8(%ebp),%eax
  406410:	8b 55 10             	mov    0x10(%ebp),%edx
  406413:	83 c2 20             	add    $0x20,%edx
  406416:	c7 44 90 08 01 00 00 	movl   $0x1,0x8(%eax,%edx,4)
  40641d:	00 
  40641e:	83 c4 64             	add    $0x64,%esp
  406421:	5b                   	pop    %ebx
  406422:	5e                   	pop    %esi
  406423:	5f                   	pop    %edi
  406424:	5d                   	pop    %ebp
  406425:	c3                   	ret    

00406426 <_RevertLeftCastleMove>:
  406426:	55                   	push   %ebp
  406427:	89 e5                	mov    %esp,%ebp
  406429:	57                   	push   %edi
  40642a:	56                   	push   %esi
  40642b:	53                   	push   %ebx
  40642c:	83 ec 64             	sub    $0x64,%esp
  40642f:	e8 ec 79 00 00       	call   40de20 <_mcount>
  406434:	8b 55 08             	mov    0x8(%ebp),%edx
  406437:	8b 45 10             	mov    0x10(%ebp),%eax
  40643a:	83 c0 10             	add    $0x10,%eax
  40643d:	8b 44 82 08          	mov    0x8(%edx,%eax,4),%eax
  406441:	89 45 ec             	mov    %eax,-0x14(%ebp)
  406444:	a1 28 30 41 00       	mov    0x413028,%eax
  406449:	39 45 10             	cmp    %eax,0x10(%ebp)
  40644c:	75 07                	jne    406455 <_RevertLeftCastleMove+0x2f>
  40644e:	b8 04 00 00 00       	mov    $0x4,%eax
  406453:	eb 05                	jmp    40645a <_RevertLeftCastleMove+0x34>
  406455:	b8 3c 00 00 00       	mov    $0x3c,%eax
  40645a:	89 45 e8             	mov    %eax,-0x18(%ebp)
  40645d:	a1 28 30 41 00       	mov    0x413028,%eax
  406462:	39 45 10             	cmp    %eax,0x10(%ebp)
  406465:	75 07                	jne    40646e <_RevertLeftCastleMove+0x48>
  406467:	b8 00 00 00 00       	mov    $0x0,%eax
  40646c:	eb 05                	jmp    406473 <_RevertLeftCastleMove+0x4d>
  40646e:	b8 38 00 00 00       	mov    $0x38,%eax
  406473:	89 45 e4             	mov    %eax,-0x1c(%ebp)
  406476:	8b 45 e8             	mov    -0x18(%ebp),%eax
  406479:	83 e8 02             	sub    $0x2,%eax
  40647c:	89 45 e0             	mov    %eax,-0x20(%ebp)
  40647f:	8b 45 e8             	mov    -0x18(%ebp),%eax
  406482:	83 e8 01             	sub    $0x1,%eax
  406485:	89 45 dc             	mov    %eax,-0x24(%ebp)
  406488:	8b 45 ec             	mov    -0x14(%ebp),%eax
  40648b:	8b 18                	mov    (%eax),%ebx
  40648d:	8b 70 04             	mov    0x4(%eax),%esi
  406490:	8b 4d e8             	mov    -0x18(%ebp),%ecx
  406493:	b8 01 00 00 00       	mov    $0x1,%eax
  406498:	ba 00 00 00 00       	mov    $0x0,%edx
  40649d:	0f a5 c2             	shld   %cl,%eax,%edx
  4064a0:	d3 e0                	shl    %cl,%eax
  4064a2:	f6 c1 20             	test   $0x20,%cl
  4064a5:	74 04                	je     4064ab <_RevertLeftCastleMove+0x85>
  4064a7:	89 c2                	mov    %eax,%edx
  4064a9:	31 c0                	xor    %eax,%eax
  4064ab:	89 df                	mov    %ebx,%edi
  4064ad:	09 c7                	or     %eax,%edi
  4064af:	89 7d c8             	mov    %edi,-0x38(%ebp)
  4064b2:	09 d6                	or     %edx,%esi
  4064b4:	89 75 cc             	mov    %esi,-0x34(%ebp)
  4064b7:	8b 45 ec             	mov    -0x14(%ebp),%eax
  4064ba:	8b 5d c8             	mov    -0x38(%ebp),%ebx
  4064bd:	8b 75 cc             	mov    -0x34(%ebp),%esi
  4064c0:	89 18                	mov    %ebx,(%eax)
  4064c2:	89 70 04             	mov    %esi,0x4(%eax)
  4064c5:	8b 45 ec             	mov    -0x14(%ebp),%eax
  4064c8:	8b 18                	mov    (%eax),%ebx
  4064ca:	8b 70 04             	mov    0x4(%eax),%esi
  4064cd:	8b 4d e4             	mov    -0x1c(%ebp),%ecx
  4064d0:	b8 01 00 00 00       	mov    $0x1,%eax
  4064d5:	ba 00 00 00 00       	mov    $0x0,%edx
  4064da:	0f a5 c2             	shld   %cl,%eax,%edx
  4064dd:	d3 e0                	shl    %cl,%eax
  4064df:	f6 c1 20             	test   $0x20,%cl
  4064e2:	74 04                	je     4064e8 <_RevertLeftCastleMove+0xc2>
  4064e4:	89 c2                	mov    %eax,%edx
  4064e6:	31 c0                	xor    %eax,%eax
  4064e8:	89 df                	mov    %ebx,%edi
  4064ea:	09 c7                	or     %eax,%edi
  4064ec:	89 7d c0             	mov    %edi,-0x40(%ebp)
  4064ef:	09 d6                	or     %edx,%esi
  4064f1:	89 75 c4             	mov    %esi,-0x3c(%ebp)
  4064f4:	8b 45 ec             	mov    -0x14(%ebp),%eax
  4064f7:	8b 5d c0             	mov    -0x40(%ebp),%ebx
  4064fa:	8b 75 c4             	mov    -0x3c(%ebp),%esi
  4064fd:	89 18                	mov    %ebx,(%eax)
  4064ff:	89 70 04             	mov    %esi,0x4(%eax)
  406502:	8b 45 ec             	mov    -0x14(%ebp),%eax
  406505:	8b 18                	mov    (%eax),%ebx
  406507:	8b 70 04             	mov    0x4(%eax),%esi
  40650a:	8b 4d e0             	mov    -0x20(%ebp),%ecx
  40650d:	b8 01 00 00 00       	mov    $0x1,%eax
  406512:	ba 00 00 00 00       	mov    $0x0,%edx
  406517:	0f a5 c2             	shld   %cl,%eax,%edx
  40651a:	d3 e0                	shl    %cl,%eax
  40651c:	f6 c1 20             	test   $0x20,%cl
  40651f:	74 04                	je     406525 <_RevertLeftCastleMove+0xff>
  406521:	89 c2                	mov    %eax,%edx
  406523:	31 c0                	xor    %eax,%eax
  406525:	89 df                	mov    %ebx,%edi
  406527:	31 c7                	xor    %eax,%edi
  406529:	89 7d b8             	mov    %edi,-0x48(%ebp)
  40652c:	31 d6                	xor    %edx,%esi
  40652e:	89 75 bc             	mov    %esi,-0x44(%ebp)
  406531:	8b 45 ec             	mov    -0x14(%ebp),%eax
  406534:	8b 55 b8             	mov    -0x48(%ebp),%edx
  406537:	8b 4d bc             	mov    -0x44(%ebp),%ecx
  40653a:	89 10                	mov    %edx,(%eax)
  40653c:	89 48 04             	mov    %ecx,0x4(%eax)
  40653f:	8b 45 ec             	mov    -0x14(%ebp),%eax
  406542:	8b 18                	mov    (%eax),%ebx
  406544:	8b 70 04             	mov    0x4(%eax),%esi
  406547:	8b 4d dc             	mov    -0x24(%ebp),%ecx
  40654a:	b8 01 00 00 00       	mov    $0x1,%eax
  40654f:	ba 00 00 00 00       	mov    $0x0,%edx
  406554:	0f a5 c2             	shld   %cl,%eax,%edx
  406557:	d3 e0                	shl    %cl,%eax
  406559:	f6 c1 20             	test   $0x20,%cl
  40655c:	74 04                	je     406562 <_RevertLeftCastleMove+0x13c>
  40655e:	89 c2                	mov    %eax,%edx
  406560:	31 c0                	xor    %eax,%eax
  406562:	89 d9                	mov    %ebx,%ecx
  406564:	31 c1                	xor    %eax,%ecx
  406566:	89 4d b0             	mov    %ecx,-0x50(%ebp)
  406569:	31 d6                	xor    %edx,%esi
  40656b:	89 75 b4             	mov    %esi,-0x4c(%ebp)
  40656e:	8b 45 ec             	mov    -0x14(%ebp),%eax
  406571:	8b 5d b0             	mov    -0x50(%ebp),%ebx
  406574:	8b 75 b4             	mov    -0x4c(%ebp),%esi
  406577:	89 18                	mov    %ebx,(%eax)
  406579:	89 70 04             	mov    %esi,0x4(%eax)
  40657c:	a1 14 f1 40 00       	mov    0x40f114,%eax
  406581:	8b 55 08             	mov    0x8(%ebp),%edx
  406584:	83 c0 14             	add    $0x14,%eax
  406587:	8b 3c 82             	mov    (%edx,%eax,4),%edi
  40658a:	a1 14 f1 40 00       	mov    0x40f114,%eax
  40658f:	8b 55 08             	mov    0x8(%ebp),%edx
  406592:	83 c0 14             	add    $0x14,%eax
  406595:	8b 04 82             	mov    (%edx,%eax,4),%eax
  406598:	8b 18                	mov    (%eax),%ebx
  40659a:	8b 70 04             	mov    0x4(%eax),%esi
  40659d:	8b 4d e8             	mov    -0x18(%ebp),%ecx
  4065a0:	b8 01 00 00 00       	mov    $0x1,%eax
  4065a5:	ba 00 00 00 00       	mov    $0x0,%edx
  4065aa:	0f a5 c2             	shld   %cl,%eax,%edx
  4065ad:	d3 e0                	shl    %cl,%eax
  4065af:	f6 c1 20             	test   $0x20,%cl
  4065b2:	74 04                	je     4065b8 <_RevertLeftCastleMove+0x192>
  4065b4:	89 c2                	mov    %eax,%edx
  4065b6:	31 c0                	xor    %eax,%eax
  4065b8:	89 d9                	mov    %ebx,%ecx
  4065ba:	09 c1                	or     %eax,%ecx
  4065bc:	89 4d a8             	mov    %ecx,-0x58(%ebp)
  4065bf:	09 d6                	or     %edx,%esi
  4065c1:	89 75 ac             	mov    %esi,-0x54(%ebp)
  4065c4:	8b 45 a8             	mov    -0x58(%ebp),%eax
  4065c7:	8b 55 ac             	mov    -0x54(%ebp),%edx
  4065ca:	89 07                	mov    %eax,(%edi)
  4065cc:	89 57 04             	mov    %edx,0x4(%edi)
  4065cf:	a1 0c f1 40 00       	mov    0x40f10c,%eax
  4065d4:	8b 55 08             	mov    0x8(%ebp),%edx
  4065d7:	83 c0 14             	add    $0x14,%eax
  4065da:	8b 3c 82             	mov    (%edx,%eax,4),%edi
  4065dd:	a1 0c f1 40 00       	mov    0x40f10c,%eax
  4065e2:	8b 55 08             	mov    0x8(%ebp),%edx
  4065e5:	83 c0 14             	add    $0x14,%eax
  4065e8:	8b 04 82             	mov    (%edx,%eax,4),%eax
  4065eb:	8b 18                	mov    (%eax),%ebx
  4065ed:	8b 70 04             	mov    0x4(%eax),%esi
  4065f0:	8b 4d e4             	mov    -0x1c(%ebp),%ecx
  4065f3:	b8 01 00 00 00       	mov    $0x1,%eax
  4065f8:	ba 00 00 00 00       	mov    $0x0,%edx
  4065fd:	0f a5 c2             	shld   %cl,%eax,%edx
  406600:	d3 e0                	shl    %cl,%eax
  406602:	f6 c1 20             	test   $0x20,%cl
  406605:	74 04                	je     40660b <_RevertLeftCastleMove+0x1e5>
  406607:	89 c2                	mov    %eax,%edx
  406609:	31 c0                	xor    %eax,%eax
  40660b:	89 d9                	mov    %ebx,%ecx
  40660d:	09 c1                	or     %eax,%ecx
  40660f:	89 4d a0             	mov    %ecx,-0x60(%ebp)
  406612:	09 d6                	or     %edx,%esi
  406614:	89 75 a4             	mov    %esi,-0x5c(%ebp)
  406617:	8b 45 a0             	mov    -0x60(%ebp),%eax
  40661a:	8b 55 a4             	mov    -0x5c(%ebp),%edx
  40661d:	89 07                	mov    %eax,(%edi)
  40661f:	89 57 04             	mov    %edx,0x4(%edi)
  406622:	8b 15 14 f1 40 00    	mov    0x40f114,%edx
  406628:	8b 45 08             	mov    0x8(%ebp),%eax
  40662b:	83 c2 14             	add    $0x14,%edx
  40662e:	8b 3c 90             	mov    (%eax,%edx,4),%edi
  406631:	a1 14 f1 40 00       	mov    0x40f114,%eax
  406636:	8b 55 08             	mov    0x8(%ebp),%edx
  406639:	83 c0 14             	add    $0x14,%eax
  40663c:	8b 04 82             	mov    (%edx,%eax,4),%eax
  40663f:	8b 18                	mov    (%eax),%ebx
  406641:	8b 70 04             	mov    0x4(%eax),%esi
  406644:	8b 4d e0             	mov    -0x20(%ebp),%ecx
  406647:	b8 01 00 00 00       	mov    $0x1,%eax
  40664c:	ba 00 00 00 00       	mov    $0x0,%edx
  406651:	0f a5 c2             	shld   %cl,%eax,%edx
  406654:	d3 e0                	shl    %cl,%eax
  406656:	f6 c1 20             	test   $0x20,%cl
  406659:	74 04                	je     40665f <_RevertLeftCastleMove+0x239>
  40665b:	89 c2                	mov    %eax,%edx
  40665d:	31 c0                	xor    %eax,%eax
  40665f:	89 d9                	mov    %ebx,%ecx
  406661:	31 c1                	xor    %eax,%ecx
  406663:	89 4d 98             	mov    %ecx,-0x68(%ebp)
  406666:	31 d6                	xor    %edx,%esi
  406668:	89 75 9c             	mov    %esi,-0x64(%ebp)
  40666b:	8b 45 98             	mov    -0x68(%ebp),%eax
  40666e:	8b 55 9c             	mov    -0x64(%ebp),%edx
  406671:	89 07                	mov    %eax,(%edi)
  406673:	89 57 04             	mov    %edx,0x4(%edi)
  406676:	8b 15 0c f1 40 00    	mov    0x40f10c,%edx
  40667c:	8b 45 08             	mov    0x8(%ebp),%eax
  40667f:	83 c2 14             	add    $0x14,%edx
  406682:	8b 3c 90             	mov    (%eax,%edx,4),%edi
  406685:	8b 15 0c f1 40 00    	mov    0x40f10c,%edx
  40668b:	8b 45 08             	mov    0x8(%ebp),%eax
  40668e:	83 c2 14             	add    $0x14,%edx
  406691:	8b 04 90             	mov    (%eax,%edx,4),%eax
  406694:	8b 18                	mov    (%eax),%ebx
  406696:	8b 70 04             	mov    0x4(%eax),%esi
  406699:	8b 4d dc             	mov    -0x24(%ebp),%ecx
  40669c:	b8 01 00 00 00       	mov    $0x1,%eax
  4066a1:	ba 00 00 00 00       	mov    $0x0,%edx
  4066a6:	0f a5 c2             	shld   %cl,%eax,%edx
  4066a9:	d3 e0                	shl    %cl,%eax
  4066ab:	f6 c1 20             	test   $0x20,%cl
  4066ae:	74 04                	je     4066b4 <_RevertLeftCastleMove+0x28e>
  4066b0:	89 c2                	mov    %eax,%edx
  4066b2:	31 c0                	xor    %eax,%eax
  4066b4:	89 d9                	mov    %ebx,%ecx
  4066b6:	31 c1                	xor    %eax,%ecx
  4066b8:	89 4d 90             	mov    %ecx,-0x70(%ebp)
  4066bb:	31 d6                	xor    %edx,%esi
  4066bd:	89 75 94             	mov    %esi,-0x6c(%ebp)
  4066c0:	8b 45 90             	mov    -0x70(%ebp),%eax
  4066c3:	8b 55 94             	mov    -0x6c(%ebp),%edx
  4066c6:	89 07                	mov    %eax,(%edi)
  4066c8:	89 57 04             	mov    %edx,0x4(%edi)
  4066cb:	8b 45 08             	mov    0x8(%ebp),%eax
  4066ce:	8b 55 10             	mov    0x10(%ebp),%edx
  4066d1:	83 c2 20             	add    $0x20,%edx
  4066d4:	c7 44 90 08 00 00 00 	movl   $0x0,0x8(%eax,%edx,4)
  4066db:	00 
  4066dc:	83 c4 64             	add    $0x64,%esp
  4066df:	5b                   	pop    %ebx
  4066e0:	5e                   	pop    %esi
  4066e1:	5f                   	pop    %edi
  4066e2:	5d                   	pop    %ebp
  4066e3:	c3                   	ret    

004066e4 <_ApplyRightCastleMove>:
  4066e4:	55                   	push   %ebp
  4066e5:	89 e5                	mov    %esp,%ebp
  4066e7:	57                   	push   %edi
  4066e8:	56                   	push   %esi
  4066e9:	53                   	push   %ebx
  4066ea:	83 ec 64             	sub    $0x64,%esp
  4066ed:	e8 2e 77 00 00       	call   40de20 <_mcount>
  4066f2:	8b 55 08             	mov    0x8(%ebp),%edx
  4066f5:	8b 45 10             	mov    0x10(%ebp),%eax
  4066f8:	83 c0 10             	add    $0x10,%eax
  4066fb:	8b 44 82 08          	mov    0x8(%edx,%eax,4),%eax
  4066ff:	89 45 ec             	mov    %eax,-0x14(%ebp)
  406702:	a1 28 30 41 00       	mov    0x413028,%eax
  406707:	39 45 10             	cmp    %eax,0x10(%ebp)
  40670a:	75 07                	jne    406713 <_ApplyRightCastleMove+0x2f>
  40670c:	b8 04 00 00 00       	mov    $0x4,%eax
  406711:	eb 05                	jmp    406718 <_ApplyRightCastleMove+0x34>
  406713:	b8 3c 00 00 00       	mov    $0x3c,%eax
  406718:	89 45 e8             	mov    %eax,-0x18(%ebp)
  40671b:	a1 28 30 41 00       	mov    0x413028,%eax
  406720:	39 45 10             	cmp    %eax,0x10(%ebp)
  406723:	75 07                	jne    40672c <_ApplyRightCastleMove+0x48>
  406725:	b8 07 00 00 00       	mov    $0x7,%eax
  40672a:	eb 05                	jmp    406731 <_ApplyRightCastleMove+0x4d>
  40672c:	b8 3f 00 00 00       	mov    $0x3f,%eax
  406731:	89 45 e4             	mov    %eax,-0x1c(%ebp)
  406734:	8b 45 e8             	mov    -0x18(%ebp),%eax
  406737:	83 c0 02             	add    $0x2,%eax
  40673a:	89 45 e0             	mov    %eax,-0x20(%ebp)
  40673d:	8b 45 e8             	mov    -0x18(%ebp),%eax
  406740:	83 c0 01             	add    $0x1,%eax
  406743:	89 45 dc             	mov    %eax,-0x24(%ebp)
  406746:	8b 45 ec             	mov    -0x14(%ebp),%eax
  406749:	8b 18                	mov    (%eax),%ebx
  40674b:	8b 70 04             	mov    0x4(%eax),%esi
  40674e:	8b 4d e8             	mov    -0x18(%ebp),%ecx
  406751:	b8 01 00 00 00       	mov    $0x1,%eax
  406756:	ba 00 00 00 00       	mov    $0x0,%edx
  40675b:	0f a5 c2             	shld   %cl,%eax,%edx
  40675e:	d3 e0                	shl    %cl,%eax
  406760:	f6 c1 20             	test   $0x20,%cl
  406763:	74 04                	je     406769 <_ApplyRightCastleMove+0x85>
  406765:	89 c2                	mov    %eax,%edx
  406767:	31 c0                	xor    %eax,%eax
  406769:	89 df                	mov    %ebx,%edi
  40676b:	31 c7                	xor    %eax,%edi
  40676d:	89 7d c8             	mov    %edi,-0x38(%ebp)
  406770:	31 d6                	xor    %edx,%esi
  406772:	89 75 cc             	mov    %esi,-0x34(%ebp)
  406775:	8b 45 ec             	mov    -0x14(%ebp),%eax
  406778:	8b 5d c8             	mov    -0x38(%ebp),%ebx
  40677b:	8b 75 cc             	mov    -0x34(%ebp),%esi
  40677e:	89 18                	mov    %ebx,(%eax)
  406780:	89 70 04             	mov    %esi,0x4(%eax)
  406783:	8b 45 ec             	mov    -0x14(%ebp),%eax
  406786:	8b 18                	mov    (%eax),%ebx
  406788:	8b 70 04             	mov    0x4(%eax),%esi
  40678b:	8b 4d e4             	mov    -0x1c(%ebp),%ecx
  40678e:	b8 01 00 00 00       	mov    $0x1,%eax
  406793:	ba 00 00 00 00       	mov    $0x0,%edx
  406798:	0f a5 c2             	shld   %cl,%eax,%edx
  40679b:	d3 e0                	shl    %cl,%eax
  40679d:	f6 c1 20             	test   $0x20,%cl
  4067a0:	74 04                	je     4067a6 <_ApplyRightCastleMove+0xc2>
  4067a2:	89 c2                	mov    %eax,%edx
  4067a4:	31 c0                	xor    %eax,%eax
  4067a6:	89 df                	mov    %ebx,%edi
  4067a8:	31 c7                	xor    %eax,%edi
  4067aa:	89 7d c0             	mov    %edi,-0x40(%ebp)
  4067ad:	31 d6                	xor    %edx,%esi
  4067af:	89 75 c4             	mov    %esi,-0x3c(%ebp)
  4067b2:	8b 45 ec             	mov    -0x14(%ebp),%eax
  4067b5:	8b 5d c0             	mov    -0x40(%ebp),%ebx
  4067b8:	8b 75 c4             	mov    -0x3c(%ebp),%esi
  4067bb:	89 18                	mov    %ebx,(%eax)
  4067bd:	89 70 04             	mov    %esi,0x4(%eax)
  4067c0:	8b 45 ec             	mov    -0x14(%ebp),%eax
  4067c3:	8b 18                	mov    (%eax),%ebx
  4067c5:	8b 70 04             	mov    0x4(%eax),%esi
  4067c8:	8b 4d e0             	mov    -0x20(%ebp),%ecx
  4067cb:	b8 01 00 00 00       	mov    $0x1,%eax
  4067d0:	ba 00 00 00 00       	mov    $0x0,%edx
  4067d5:	0f a5 c2             	shld   %cl,%eax,%edx
  4067d8:	d3 e0                	shl    %cl,%eax
  4067da:	f6 c1 20             	test   $0x20,%cl
  4067dd:	74 04                	je     4067e3 <_ApplyRightCastleMove+0xff>
  4067df:	89 c2                	mov    %eax,%edx
  4067e1:	31 c0                	xor    %eax,%eax
  4067e3:	89 df                	mov    %ebx,%edi
  4067e5:	09 c7                	or     %eax,%edi
  4067e7:	89 7d b8             	mov    %edi,-0x48(%ebp)
  4067ea:	09 d6                	or     %edx,%esi
  4067ec:	89 75 bc             	mov    %esi,-0x44(%ebp)
  4067ef:	8b 45 ec             	mov    -0x14(%ebp),%eax
  4067f2:	8b 55 b8             	mov    -0x48(%ebp),%edx
  4067f5:	8b 4d bc             	mov    -0x44(%ebp),%ecx
  4067f8:	89 10                	mov    %edx,(%eax)
  4067fa:	89 48 04             	mov    %ecx,0x4(%eax)
  4067fd:	8b 45 ec             	mov    -0x14(%ebp),%eax
  406800:	8b 18                	mov    (%eax),%ebx
  406802:	8b 70 04             	mov    0x4(%eax),%esi
  406805:	8b 4d dc             	mov    -0x24(%ebp),%ecx
  406808:	b8 01 00 00 00       	mov    $0x1,%eax
  40680d:	ba 00 00 00 00       	mov    $0x0,%edx
  406812:	0f a5 c2             	shld   %cl,%eax,%edx
  406815:	d3 e0                	shl    %cl,%eax
  406817:	f6 c1 20             	test   $0x20,%cl
  40681a:	74 04                	je     406820 <_ApplyRightCastleMove+0x13c>
  40681c:	89 c2                	mov    %eax,%edx
  40681e:	31 c0                	xor    %eax,%eax
  406820:	89 d9                	mov    %ebx,%ecx
  406822:	09 c1                	or     %eax,%ecx
  406824:	89 4d b0             	mov    %ecx,-0x50(%ebp)
  406827:	09 d6                	or     %edx,%esi
  406829:	89 75 b4             	mov    %esi,-0x4c(%ebp)
  40682c:	8b 45 ec             	mov    -0x14(%ebp),%eax
  40682f:	8b 5d b0             	mov    -0x50(%ebp),%ebx
  406832:	8b 75 b4             	mov    -0x4c(%ebp),%esi
  406835:	89 18                	mov    %ebx,(%eax)
  406837:	89 70 04             	mov    %esi,0x4(%eax)
  40683a:	a1 14 f1 40 00       	mov    0x40f114,%eax
  40683f:	8b 55 08             	mov    0x8(%ebp),%edx
  406842:	83 c0 14             	add    $0x14,%eax
  406845:	8b 3c 82             	mov    (%edx,%eax,4),%edi
  406848:	a1 14 f1 40 00       	mov    0x40f114,%eax
  40684d:	8b 55 08             	mov    0x8(%ebp),%edx
  406850:	83 c0 14             	add    $0x14,%eax
  406853:	8b 04 82             	mov    (%edx,%eax,4),%eax
  406856:	8b 18                	mov    (%eax),%ebx
  406858:	8b 70 04             	mov    0x4(%eax),%esi
  40685b:	8b 4d e8             	mov    -0x18(%ebp),%ecx
  40685e:	b8 01 00 00 00       	mov    $0x1,%eax
  406863:	ba 00 00 00 00       	mov    $0x0,%edx
  406868:	0f a5 c2             	shld   %cl,%eax,%edx
  40686b:	d3 e0                	shl    %cl,%eax
  40686d:	f6 c1 20             	test   $0x20,%cl
  406870:	74 04                	je     406876 <_ApplyRightCastleMove+0x192>
  406872:	89 c2                	mov    %eax,%edx
  406874:	31 c0                	xor    %eax,%eax
  406876:	89 d9                	mov    %ebx,%ecx
  406878:	31 c1                	xor    %eax,%ecx
  40687a:	89 4d a8             	mov    %ecx,-0x58(%ebp)
  40687d:	31 d6                	xor    %edx,%esi
  40687f:	89 75 ac             	mov    %esi,-0x54(%ebp)
  406882:	8b 45 a8             	mov    -0x58(%ebp),%eax
  406885:	8b 55 ac             	mov    -0x54(%ebp),%edx
  406888:	89 07                	mov    %eax,(%edi)
  40688a:	89 57 04             	mov    %edx,0x4(%edi)
  40688d:	a1 0c f1 40 00       	mov    0x40f10c,%eax
  406892:	8b 55 08             	mov    0x8(%ebp),%edx
  406895:	83 c0 14             	add    $0x14,%eax
  406898:	8b 3c 82             	mov    (%edx,%eax,4),%edi
  40689b:	a1 0c f1 40 00       	mov    0x40f10c,%eax
  4068a0:	8b 55 08             	mov    0x8(%ebp),%edx
  4068a3:	83 c0 14             	add    $0x14,%eax
  4068a6:	8b 04 82             	mov    (%edx,%eax,4),%eax
  4068a9:	8b 18                	mov    (%eax),%ebx
  4068ab:	8b 70 04             	mov    0x4(%eax),%esi
  4068ae:	8b 4d e4             	mov    -0x1c(%ebp),%ecx
  4068b1:	b8 01 00 00 00       	mov    $0x1,%eax
  4068b6:	ba 00 00 00 00       	mov    $0x0,%edx
  4068bb:	0f a5 c2             	shld   %cl,%eax,%edx
  4068be:	d3 e0                	shl    %cl,%eax
  4068c0:	f6 c1 20             	test   $0x20,%cl
  4068c3:	74 04                	je     4068c9 <_ApplyRightCastleMove+0x1e5>
  4068c5:	89 c2                	mov    %eax,%edx
  4068c7:	31 c0                	xor    %eax,%eax
  4068c9:	89 d9                	mov    %ebx,%ecx
  4068cb:	31 c1                	xor    %eax,%ecx
  4068cd:	89 4d a0             	mov    %ecx,-0x60(%ebp)
  4068d0:	31 d6                	xor    %edx,%esi
  4068d2:	89 75 a4             	mov    %esi,-0x5c(%ebp)
  4068d5:	8b 45 a0             	mov    -0x60(%ebp),%eax
  4068d8:	8b 55 a4             	mov    -0x5c(%ebp),%edx
  4068db:	89 07                	mov    %eax,(%edi)
  4068dd:	89 57 04             	mov    %edx,0x4(%edi)
  4068e0:	8b 15 14 f1 40 00    	mov    0x40f114,%edx
  4068e6:	8b 45 08             	mov    0x8(%ebp),%eax
  4068e9:	83 c2 14             	add    $0x14,%edx
  4068ec:	8b 3c 90             	mov    (%eax,%edx,4),%edi
  4068ef:	a1 14 f1 40 00       	mov    0x40f114,%eax
  4068f4:	8b 55 08             	mov    0x8(%ebp),%edx
  4068f7:	83 c0 14             	add    $0x14,%eax
  4068fa:	8b 04 82             	mov    (%edx,%eax,4),%eax
  4068fd:	8b 18                	mov    (%eax),%ebx
  4068ff:	8b 70 04             	mov    0x4(%eax),%esi
  406902:	8b 4d e0             	mov    -0x20(%ebp),%ecx
  406905:	b8 01 00 00 00       	mov    $0x1,%eax
  40690a:	ba 00 00 00 00       	mov    $0x0,%edx
  40690f:	0f a5 c2             	shld   %cl,%eax,%edx
  406912:	d3 e0                	shl    %cl,%eax
  406914:	f6 c1 20             	test   $0x20,%cl
  406917:	74 04                	je     40691d <_ApplyRightCastleMove+0x239>
  406919:	89 c2                	mov    %eax,%edx
  40691b:	31 c0                	xor    %eax,%eax
  40691d:	89 d9                	mov    %ebx,%ecx
  40691f:	09 c1                	or     %eax,%ecx
  406921:	89 4d 98             	mov    %ecx,-0x68(%ebp)
  406924:	09 d6                	or     %edx,%esi
  406926:	89 75 9c             	mov    %esi,-0x64(%ebp)
  406929:	8b 45 98             	mov    -0x68(%ebp),%eax
  40692c:	8b 55 9c             	mov    -0x64(%ebp),%edx
  40692f:	89 07                	mov    %eax,(%edi)
  406931:	89 57 04             	mov    %edx,0x4(%edi)
  406934:	8b 15 0c f1 40 00    	mov    0x40f10c,%edx
  40693a:	8b 45 08             	mov    0x8(%ebp),%eax
  40693d:	83 c2 14             	add    $0x14,%edx
  406940:	8b 3c 90             	mov    (%eax,%edx,4),%edi
  406943:	8b 15 0c f1 40 00    	mov    0x40f10c,%edx
  406949:	8b 45 08             	mov    0x8(%ebp),%eax
  40694c:	83 c2 14             	add    $0x14,%edx
  40694f:	8b 04 90             	mov    (%eax,%edx,4),%eax
  406952:	8b 18                	mov    (%eax),%ebx
  406954:	8b 70 04             	mov    0x4(%eax),%esi
  406957:	8b 4d dc             	mov    -0x24(%ebp),%ecx
  40695a:	b8 01 00 00 00       	mov    $0x1,%eax
  40695f:	ba 00 00 00 00       	mov    $0x0,%edx
  406964:	0f a5 c2             	shld   %cl,%eax,%edx
  406967:	d3 e0                	shl    %cl,%eax
  406969:	f6 c1 20             	test   $0x20,%cl
  40696c:	74 04                	je     406972 <_ApplyRightCastleMove+0x28e>
  40696e:	89 c2                	mov    %eax,%edx
  406970:	31 c0                	xor    %eax,%eax
  406972:	89 d9                	mov    %ebx,%ecx
  406974:	09 c1                	or     %eax,%ecx
  406976:	89 4d 90             	mov    %ecx,-0x70(%ebp)
  406979:	09 d6                	or     %edx,%esi
  40697b:	89 75 94             	mov    %esi,-0x6c(%ebp)
  40697e:	8b 45 90             	mov    -0x70(%ebp),%eax
  406981:	8b 55 94             	mov    -0x6c(%ebp),%edx
  406984:	89 07                	mov    %eax,(%edi)
  406986:	89 57 04             	mov    %edx,0x4(%edi)
  406989:	8b 45 08             	mov    0x8(%ebp),%eax
  40698c:	8b 55 10             	mov    0x10(%ebp),%edx
  40698f:	83 c2 20             	add    $0x20,%edx
  406992:	c7 44 90 08 01 00 00 	movl   $0x1,0x8(%eax,%edx,4)
  406999:	00 
  40699a:	83 c4 64             	add    $0x64,%esp
  40699d:	5b                   	pop    %ebx
  40699e:	5e                   	pop    %esi
  40699f:	5f                   	pop    %edi
  4069a0:	5d                   	pop    %ebp
  4069a1:	c3                   	ret    

004069a2 <_RevertRightCastleMove>:
  4069a2:	55                   	push   %ebp
  4069a3:	89 e5                	mov    %esp,%ebp
  4069a5:	57                   	push   %edi
  4069a6:	56                   	push   %esi
  4069a7:	53                   	push   %ebx
  4069a8:	83 ec 64             	sub    $0x64,%esp
  4069ab:	e8 70 74 00 00       	call   40de20 <_mcount>
  4069b0:	8b 55 08             	mov    0x8(%ebp),%edx
  4069b3:	8b 45 10             	mov    0x10(%ebp),%eax
  4069b6:	83 c0 10             	add    $0x10,%eax
  4069b9:	8b 44 82 08          	mov    0x8(%edx,%eax,4),%eax
  4069bd:	89 45 ec             	mov    %eax,-0x14(%ebp)
  4069c0:	a1 28 30 41 00       	mov    0x413028,%eax
  4069c5:	39 45 10             	cmp    %eax,0x10(%ebp)
  4069c8:	75 07                	jne    4069d1 <_RevertRightCastleMove+0x2f>
  4069ca:	b8 04 00 00 00       	mov    $0x4,%eax
  4069cf:	eb 05                	jmp    4069d6 <_RevertRightCastleMove+0x34>
  4069d1:	b8 3c 00 00 00       	mov    $0x3c,%eax
  4069d6:	89 45 e8             	mov    %eax,-0x18(%ebp)
  4069d9:	a1 28 30 41 00       	mov    0x413028,%eax
  4069de:	39 45 10             	cmp    %eax,0x10(%ebp)
  4069e1:	75 07                	jne    4069ea <_RevertRightCastleMove+0x48>
  4069e3:	b8 07 00 00 00       	mov    $0x7,%eax
  4069e8:	eb 05                	jmp    4069ef <_RevertRightCastleMove+0x4d>
  4069ea:	b8 3f 00 00 00       	mov    $0x3f,%eax
  4069ef:	89 45 e4             	mov    %eax,-0x1c(%ebp)
  4069f2:	8b 45 e8             	mov    -0x18(%ebp),%eax
  4069f5:	83 c0 02             	add    $0x2,%eax
  4069f8:	89 45 e0             	mov    %eax,-0x20(%ebp)
  4069fb:	8b 45 e8             	mov    -0x18(%ebp),%eax
  4069fe:	83 c0 01             	add    $0x1,%eax
  406a01:	89 45 dc             	mov    %eax,-0x24(%ebp)
  406a04:	8b 45 ec             	mov    -0x14(%ebp),%eax
  406a07:	8b 18                	mov    (%eax),%ebx
  406a09:	8b 70 04             	mov    0x4(%eax),%esi
  406a0c:	8b 4d e8             	mov    -0x18(%ebp),%ecx
  406a0f:	b8 01 00 00 00       	mov    $0x1,%eax
  406a14:	ba 00 00 00 00       	mov    $0x0,%edx
  406a19:	0f a5 c2             	shld   %cl,%eax,%edx
  406a1c:	d3 e0                	shl    %cl,%eax
  406a1e:	f6 c1 20             	test   $0x20,%cl
  406a21:	74 04                	je     406a27 <_RevertRightCastleMove+0x85>
  406a23:	89 c2                	mov    %eax,%edx
  406a25:	31 c0                	xor    %eax,%eax
  406a27:	89 df                	mov    %ebx,%edi
  406a29:	09 c7                	or     %eax,%edi
  406a2b:	89 7d c8             	mov    %edi,-0x38(%ebp)
  406a2e:	09 d6                	or     %edx,%esi
  406a30:	89 75 cc             	mov    %esi,-0x34(%ebp)
  406a33:	8b 45 ec             	mov    -0x14(%ebp),%eax
  406a36:	8b 5d c8             	mov    -0x38(%ebp),%ebx
  406a39:	8b 75 cc             	mov    -0x34(%ebp),%esi
  406a3c:	89 18                	mov    %ebx,(%eax)
  406a3e:	89 70 04             	mov    %esi,0x4(%eax)
  406a41:	8b 45 ec             	mov    -0x14(%ebp),%eax
  406a44:	8b 18                	mov    (%eax),%ebx
  406a46:	8b 70 04             	mov    0x4(%eax),%esi
  406a49:	8b 4d e4             	mov    -0x1c(%ebp),%ecx
  406a4c:	b8 01 00 00 00       	mov    $0x1,%eax
  406a51:	ba 00 00 00 00       	mov    $0x0,%edx
  406a56:	0f a5 c2             	shld   %cl,%eax,%edx
  406a59:	d3 e0                	shl    %cl,%eax
  406a5b:	f6 c1 20             	test   $0x20,%cl
  406a5e:	74 04                	je     406a64 <_RevertRightCastleMove+0xc2>
  406a60:	89 c2                	mov    %eax,%edx
  406a62:	31 c0                	xor    %eax,%eax
  406a64:	89 df                	mov    %ebx,%edi
  406a66:	09 c7                	or     %eax,%edi
  406a68:	89 7d c0             	mov    %edi,-0x40(%ebp)
  406a6b:	09 d6                	or     %edx,%esi
  406a6d:	89 75 c4             	mov    %esi,-0x3c(%ebp)
  406a70:	8b 45 ec             	mov    -0x14(%ebp),%eax
  406a73:	8b 5d c0             	mov    -0x40(%ebp),%ebx
  406a76:	8b 75 c4             	mov    -0x3c(%ebp),%esi
  406a79:	89 18                	mov    %ebx,(%eax)
  406a7b:	89 70 04             	mov    %esi,0x4(%eax)
  406a7e:	8b 45 ec             	mov    -0x14(%ebp),%eax
  406a81:	8b 18                	mov    (%eax),%ebx
  406a83:	8b 70 04             	mov    0x4(%eax),%esi
  406a86:	8b 4d e0             	mov    -0x20(%ebp),%ecx
  406a89:	b8 01 00 00 00       	mov    $0x1,%eax
  406a8e:	ba 00 00 00 00       	mov    $0x0,%edx
  406a93:	0f a5 c2             	shld   %cl,%eax,%edx
  406a96:	d3 e0                	shl    %cl,%eax
  406a98:	f6 c1 20             	test   $0x20,%cl
  406a9b:	74 04                	je     406aa1 <_RevertRightCastleMove+0xff>
  406a9d:	89 c2                	mov    %eax,%edx
  406a9f:	31 c0                	xor    %eax,%eax
  406aa1:	89 df                	mov    %ebx,%edi
  406aa3:	31 c7                	xor    %eax,%edi
  406aa5:	89 7d b8             	mov    %edi,-0x48(%ebp)
  406aa8:	31 d6                	xor    %edx,%esi
  406aaa:	89 75 bc             	mov    %esi,-0x44(%ebp)
  406aad:	8b 45 ec             	mov    -0x14(%ebp),%eax
  406ab0:	8b 55 b8             	mov    -0x48(%ebp),%edx
  406ab3:	8b 4d bc             	mov    -0x44(%ebp),%ecx
  406ab6:	89 10                	mov    %edx,(%eax)
  406ab8:	89 48 04             	mov    %ecx,0x4(%eax)
  406abb:	8b 45 ec             	mov    -0x14(%ebp),%eax
  406abe:	8b 18                	mov    (%eax),%ebx
  406ac0:	8b 70 04             	mov    0x4(%eax),%esi
  406ac3:	8b 4d dc             	mov    -0x24(%ebp),%ecx
  406ac6:	b8 01 00 00 00       	mov    $0x1,%eax
  406acb:	ba 00 00 00 00       	mov    $0x0,%edx
  406ad0:	0f a5 c2             	shld   %cl,%eax,%edx
  406ad3:	d3 e0                	shl    %cl,%eax
  406ad5:	f6 c1 20             	test   $0x20,%cl
  406ad8:	74 04                	je     406ade <_RevertRightCastleMove+0x13c>
  406ada:	89 c2                	mov    %eax,%edx
  406adc:	31 c0                	xor    %eax,%eax
  406ade:	89 d9                	mov    %ebx,%ecx
  406ae0:	31 c1                	xor    %eax,%ecx
  406ae2:	89 4d b0             	mov    %ecx,-0x50(%ebp)
  406ae5:	31 d6                	xor    %edx,%esi
  406ae7:	89 75 b4             	mov    %esi,-0x4c(%ebp)
  406aea:	8b 45 ec             	mov    -0x14(%ebp),%eax
  406aed:	8b 5d b0             	mov    -0x50(%ebp),%ebx
  406af0:	8b 75 b4             	mov    -0x4c(%ebp),%esi
  406af3:	89 18                	mov    %ebx,(%eax)
  406af5:	89 70 04             	mov    %esi,0x4(%eax)
  406af8:	a1 14 f1 40 00       	mov    0x40f114,%eax
  406afd:	8b 55 08             	mov    0x8(%ebp),%edx
  406b00:	83 c0 14             	add    $0x14,%eax
  406b03:	8b 3c 82             	mov    (%edx,%eax,4),%edi
  406b06:	a1 14 f1 40 00       	mov    0x40f114,%eax
  406b0b:	8b 55 08             	mov    0x8(%ebp),%edx
  406b0e:	83 c0 14             	add    $0x14,%eax
  406b11:	8b 04 82             	mov    (%edx,%eax,4),%eax
  406b14:	8b 18                	mov    (%eax),%ebx
  406b16:	8b 70 04             	mov    0x4(%eax),%esi
  406b19:	8b 4d e8             	mov    -0x18(%ebp),%ecx
  406b1c:	b8 01 00 00 00       	mov    $0x1,%eax
  406b21:	ba 00 00 00 00       	mov    $0x0,%edx
  406b26:	0f a5 c2             	shld   %cl,%eax,%edx
  406b29:	d3 e0                	shl    %cl,%eax
  406b2b:	f6 c1 20             	test   $0x20,%cl
  406b2e:	74 04                	je     406b34 <_RevertRightCastleMove+0x192>
  406b30:	89 c2                	mov    %eax,%edx
  406b32:	31 c0                	xor    %eax,%eax
  406b34:	89 d9                	mov    %ebx,%ecx
  406b36:	09 c1                	or     %eax,%ecx
  406b38:	89 4d a8             	mov    %ecx,-0x58(%ebp)
  406b3b:	09 d6                	or     %edx,%esi
  406b3d:	89 75 ac             	mov    %esi,-0x54(%ebp)
  406b40:	8b 45 a8             	mov    -0x58(%ebp),%eax
  406b43:	8b 55 ac             	mov    -0x54(%ebp),%edx
  406b46:	89 07                	mov    %eax,(%edi)
  406b48:	89 57 04             	mov    %edx,0x4(%edi)
  406b4b:	a1 0c f1 40 00       	mov    0x40f10c,%eax
  406b50:	8b 55 08             	mov    0x8(%ebp),%edx
  406b53:	83 c0 14             	add    $0x14,%eax
  406b56:	8b 3c 82             	mov    (%edx,%eax,4),%edi
  406b59:	a1 0c f1 40 00       	mov    0x40f10c,%eax
  406b5e:	8b 55 08             	mov    0x8(%ebp),%edx
  406b61:	83 c0 14             	add    $0x14,%eax
  406b64:	8b 04 82             	mov    (%edx,%eax,4),%eax
  406b67:	8b 18                	mov    (%eax),%ebx
  406b69:	8b 70 04             	mov    0x4(%eax),%esi
  406b6c:	8b 4d e4             	mov    -0x1c(%ebp),%ecx
  406b6f:	b8 01 00 00 00       	mov    $0x1,%eax
  406b74:	ba 00 00 00 00       	mov    $0x0,%edx
  406b79:	0f a5 c2             	shld   %cl,%eax,%edx
  406b7c:	d3 e0                	shl    %cl,%eax
  406b7e:	f6 c1 20             	test   $0x20,%cl
  406b81:	74 04                	je     406b87 <_RevertRightCastleMove+0x1e5>
  406b83:	89 c2                	mov    %eax,%edx
  406b85:	31 c0                	xor    %eax,%eax
  406b87:	89 d9                	mov    %ebx,%ecx
  406b89:	09 c1                	or     %eax,%ecx
  406b8b:	89 4d a0             	mov    %ecx,-0x60(%ebp)
  406b8e:	09 d6                	or     %edx,%esi
  406b90:	89 75 a4             	mov    %esi,-0x5c(%ebp)
  406b93:	8b 45 a0             	mov    -0x60(%ebp),%eax
  406b96:	8b 55 a4             	mov    -0x5c(%ebp),%edx
  406b99:	89 07                	mov    %eax,(%edi)
  406b9b:	89 57 04             	mov    %edx,0x4(%edi)
  406b9e:	8b 15 14 f1 40 00    	mov    0x40f114,%edx
  406ba4:	8b 45 08             	mov    0x8(%ebp),%eax
  406ba7:	83 c2 14             	add    $0x14,%edx
  406baa:	8b 3c 90             	mov    (%eax,%edx,4),%edi
  406bad:	a1 14 f1 40 00       	mov    0x40f114,%eax
  406bb2:	8b 55 08             	mov    0x8(%ebp),%edx
  406bb5:	83 c0 14             	add    $0x14,%eax
  406bb8:	8b 04 82             	mov    (%edx,%eax,4),%eax
  406bbb:	8b 18                	mov    (%eax),%ebx
  406bbd:	8b 70 04             	mov    0x4(%eax),%esi
  406bc0:	8b 4d e0             	mov    -0x20(%ebp),%ecx
  406bc3:	b8 01 00 00 00       	mov    $0x1,%eax
  406bc8:	ba 00 00 00 00       	mov    $0x0,%edx
  406bcd:	0f a5 c2             	shld   %cl,%eax,%edx
  406bd0:	d3 e0                	shl    %cl,%eax
  406bd2:	f6 c1 20             	test   $0x20,%cl
  406bd5:	74 04                	je     406bdb <_RevertRightCastleMove+0x239>
  406bd7:	89 c2                	mov    %eax,%edx
  406bd9:	31 c0                	xor    %eax,%eax
  406bdb:	89 d9                	mov    %ebx,%ecx
  406bdd:	31 c1                	xor    %eax,%ecx
  406bdf:	89 4d 98             	mov    %ecx,-0x68(%ebp)
  406be2:	31 d6                	xor    %edx,%esi
  406be4:	89 75 9c             	mov    %esi,-0x64(%ebp)
  406be7:	8b 45 98             	mov    -0x68(%ebp),%eax
  406bea:	8b 55 9c             	mov    -0x64(%ebp),%edx
  406bed:	89 07                	mov    %eax,(%edi)
  406bef:	89 57 04             	mov    %edx,0x4(%edi)
  406bf2:	8b 15 0c f1 40 00    	mov    0x40f10c,%edx
  406bf8:	8b 45 08             	mov    0x8(%ebp),%eax
  406bfb:	83 c2 14             	add    $0x14,%edx
  406bfe:	8b 3c 90             	mov    (%eax,%edx,4),%edi
  406c01:	8b 15 0c f1 40 00    	mov    0x40f10c,%edx
  406c07:	8b 45 08             	mov    0x8(%ebp),%eax
  406c0a:	83 c2 14             	add    $0x14,%edx
  406c0d:	8b 04 90             	mov    (%eax,%edx,4),%eax
  406c10:	8b 18                	mov    (%eax),%ebx
  406c12:	8b 70 04             	mov    0x4(%eax),%esi
  406c15:	8b 4d dc             	mov    -0x24(%ebp),%ecx
  406c18:	b8 01 00 00 00       	mov    $0x1,%eax
  406c1d:	ba 00 00 00 00       	mov    $0x0,%edx
  406c22:	0f a5 c2             	shld   %cl,%eax,%edx
  406c25:	d3 e0                	shl    %cl,%eax
  406c27:	f6 c1 20             	test   $0x20,%cl
  406c2a:	74 04                	je     406c30 <_RevertRightCastleMove+0x28e>
  406c2c:	89 c2                	mov    %eax,%edx
  406c2e:	31 c0                	xor    %eax,%eax
  406c30:	89 d9                	mov    %ebx,%ecx
  406c32:	31 c1                	xor    %eax,%ecx
  406c34:	89 4d 90             	mov    %ecx,-0x70(%ebp)
  406c37:	31 d6                	xor    %edx,%esi
  406c39:	89 75 94             	mov    %esi,-0x6c(%ebp)
  406c3c:	8b 45 90             	mov    -0x70(%ebp),%eax
  406c3f:	8b 55 94             	mov    -0x6c(%ebp),%edx
  406c42:	89 07                	mov    %eax,(%edi)
  406c44:	89 57 04             	mov    %edx,0x4(%edi)
  406c47:	8b 45 08             	mov    0x8(%ebp),%eax
  406c4a:	8b 55 10             	mov    0x10(%ebp),%edx
  406c4d:	83 c2 20             	add    $0x20,%edx
  406c50:	c7 44 90 08 00 00 00 	movl   $0x0,0x8(%eax,%edx,4)
  406c57:	00 
  406c58:	83 c4 64             	add    $0x64,%esp
  406c5b:	5b                   	pop    %ebx
  406c5c:	5e                   	pop    %esi
  406c5d:	5f                   	pop    %edi
  406c5e:	5d                   	pop    %ebp
  406c5f:	c3                   	ret    

00406c60 <___dyn_tls_dtor@12>:
  406c60:	83 ec 1c             	sub    $0x1c,%esp
  406c63:	8b 44 24 24          	mov    0x24(%esp),%eax
  406c67:	85 c0                	test   %eax,%eax
  406c69:	74 15                	je     406c80 <___dyn_tls_dtor@12+0x20>
  406c6b:	83 f8 03             	cmp    $0x3,%eax
  406c6e:	74 10                	je     406c80 <___dyn_tls_dtor@12+0x20>
  406c70:	b8 01 00 00 00       	mov    $0x1,%eax
  406c75:	83 c4 1c             	add    $0x1c,%esp
  406c78:	c2 0c 00             	ret    $0xc
  406c7b:	90                   	nop
  406c7c:	8d 74 26 00          	lea    0x0(%esi,%eiz,1),%esi
  406c80:	8b 54 24 28          	mov    0x28(%esp),%edx
  406c84:	89 44 24 04          	mov    %eax,0x4(%esp)
  406c88:	8b 44 24 20          	mov    0x20(%esp),%eax
  406c8c:	89 54 24 08          	mov    %edx,0x8(%esp)
  406c90:	89 04 24             	mov    %eax,(%esp)
  406c93:	e8 18 0a 00 00       	call   4076b0 <___mingw_TLScallback>
  406c98:	b8 01 00 00 00       	mov    $0x1,%eax
  406c9d:	83 c4 1c             	add    $0x1c,%esp
  406ca0:	c2 0c 00             	ret    $0xc
  406ca3:	8d b6 00 00 00 00    	lea    0x0(%esi),%esi
  406ca9:	8d bc 27 00 00 00 00 	lea    0x0(%edi,%eiz,1),%edi

00406cb0 <___dyn_tls_init@12>:
  406cb0:	56                   	push   %esi
  406cb1:	53                   	push   %ebx
  406cb2:	83 ec 14             	sub    $0x14,%esp
  406cb5:	83 3d 5c 30 41 00 02 	cmpl   $0x2,0x41305c
  406cbc:	8b 44 24 24          	mov    0x24(%esp),%eax
  406cc0:	74 0a                	je     406ccc <___dyn_tls_init@12+0x1c>
  406cc2:	c7 05 5c 30 41 00 02 	movl   $0x2,0x41305c
  406cc9:	00 00 00 
  406ccc:	83 f8 02             	cmp    $0x2,%eax
  406ccf:	74 12                	je     406ce3 <___dyn_tls_init@12+0x33>
  406cd1:	83 f8 01             	cmp    $0x1,%eax
  406cd4:	74 42                	je     406d18 <___dyn_tls_init@12+0x68>
  406cd6:	83 c4 14             	add    $0x14,%esp
  406cd9:	b8 01 00 00 00       	mov    $0x1,%eax
  406cde:	5b                   	pop    %ebx
  406cdf:	5e                   	pop    %esi
  406ce0:	c2 0c 00             	ret    $0xc
  406ce3:	be 14 50 41 00       	mov    $0x415014,%esi
  406ce8:	81 ee 14 50 41 00    	sub    $0x415014,%esi
  406cee:	c1 fe 02             	sar    $0x2,%esi
  406cf1:	85 f6                	test   %esi,%esi
  406cf3:	7e e1                	jle    406cd6 <___dyn_tls_init@12+0x26>
  406cf5:	31 db                	xor    %ebx,%ebx
  406cf7:	8b 04 9d 14 50 41 00 	mov    0x415014(,%ebx,4),%eax
  406cfe:	85 c0                	test   %eax,%eax
  406d00:	74 02                	je     406d04 <___dyn_tls_init@12+0x54>
  406d02:	ff d0                	call   *%eax
  406d04:	83 c3 01             	add    $0x1,%ebx
  406d07:	39 f3                	cmp    %esi,%ebx
  406d09:	75 ec                	jne    406cf7 <___dyn_tls_init@12+0x47>
  406d0b:	83 c4 14             	add    $0x14,%esp
  406d0e:	b8 01 00 00 00       	mov    $0x1,%eax
  406d13:	5b                   	pop    %ebx
  406d14:	5e                   	pop    %esi
  406d15:	c2 0c 00             	ret    $0xc
  406d18:	8b 44 24 28          	mov    0x28(%esp),%eax
  406d1c:	c7 44 24 04 01 00 00 	movl   $0x1,0x4(%esp)
  406d23:	00 
  406d24:	89 44 24 08          	mov    %eax,0x8(%esp)
  406d28:	8b 44 24 20          	mov    0x20(%esp),%eax
  406d2c:	89 04 24             	mov    %eax,(%esp)
  406d2f:	e8 7c 09 00 00       	call   4076b0 <___mingw_TLScallback>
  406d34:	eb a0                	jmp    406cd6 <___dyn_tls_init@12+0x26>
  406d36:	8d 76 00             	lea    0x0(%esi),%esi
  406d39:	8d bc 27 00 00 00 00 	lea    0x0(%edi,%eiz,1),%edi

00406d40 <___tlregdtor>:
  406d40:	31 c0                	xor    %eax,%eax
  406d42:	c3                   	ret    
  406d43:	90                   	nop
  406d44:	90                   	nop
  406d45:	90                   	nop
  406d46:	90                   	nop
  406d47:	90                   	nop
  406d48:	90                   	nop
  406d49:	90                   	nop
  406d4a:	90                   	nop
  406d4b:	90                   	nop
  406d4c:	90                   	nop
  406d4d:	90                   	nop
  406d4e:	90                   	nop
  406d4f:	90                   	nop

00406d50 <__fpreset>:
  406d50:	db e3                	fninit 
  406d52:	c3                   	ret    
  406d53:	90                   	nop
  406d54:	90                   	nop
  406d55:	90                   	nop
  406d56:	90                   	nop
  406d57:	90                   	nop
  406d58:	90                   	nop
  406d59:	90                   	nop
  406d5a:	90                   	nop
  406d5b:	90                   	nop
  406d5c:	90                   	nop
  406d5d:	90                   	nop
  406d5e:	90                   	nop
  406d5f:	90                   	nop

00406d60 <___cpu_features_init>:
  406d60:	9c                   	pushf  
  406d61:	9c                   	pushf  
  406d62:	58                   	pop    %eax
  406d63:	89 c2                	mov    %eax,%edx
  406d65:	35 00 00 20 00       	xor    $0x200000,%eax
  406d6a:	50                   	push   %eax
  406d6b:	9d                   	popf   
  406d6c:	9c                   	pushf  
  406d6d:	58                   	pop    %eax
  406d6e:	9d                   	popf   
  406d6f:	31 d0                	xor    %edx,%eax
  406d71:	a9 00 00 20 00       	test   $0x200000,%eax
  406d76:	0f 84 a5 00 00 00    	je     406e21 <___cpu_features_init+0xc1>
  406d7c:	53                   	push   %ebx
  406d7d:	31 c0                	xor    %eax,%eax
  406d7f:	0f a2                	cpuid  
  406d81:	85 c0                	test   %eax,%eax
  406d83:	0f 84 97 00 00 00    	je     406e20 <___cpu_features_init+0xc0>
  406d89:	b8 01 00 00 00       	mov    $0x1,%eax
  406d8e:	0f a2                	cpuid  
  406d90:	f6 c6 01             	test   $0x1,%dh
  406d93:	74 07                	je     406d9c <___cpu_features_init+0x3c>
  406d95:	83 0d 50 30 41 00 01 	orl    $0x1,0x413050
  406d9c:	f6 c6 80             	test   $0x80,%dh
  406d9f:	74 07                	je     406da8 <___cpu_features_init+0x48>
  406da1:	83 0d 50 30 41 00 02 	orl    $0x2,0x413050
  406da8:	f7 c2 00 00 80 00    	test   $0x800000,%edx
  406dae:	74 07                	je     406db7 <___cpu_features_init+0x57>
  406db0:	83 0d 50 30 41 00 04 	orl    $0x4,0x413050
  406db7:	f7 c2 00 00 00 01    	test   $0x1000000,%edx
  406dbd:	74 07                	je     406dc6 <___cpu_features_init+0x66>
  406dbf:	83 0d 50 30 41 00 08 	orl    $0x8,0x413050
  406dc6:	f7 c2 00 00 00 02    	test   $0x2000000,%edx
  406dcc:	74 07                	je     406dd5 <___cpu_features_init+0x75>
  406dce:	83 0d 50 30 41 00 10 	orl    $0x10,0x413050
  406dd5:	81 e2 00 00 00 04    	and    $0x4000000,%edx
  406ddb:	74 07                	je     406de4 <___cpu_features_init+0x84>
  406ddd:	83 0d 50 30 41 00 20 	orl    $0x20,0x413050
  406de4:	f6 c1 01             	test   $0x1,%cl
  406de7:	74 07                	je     406df0 <___cpu_features_init+0x90>
  406de9:	83 0d 50 30 41 00 40 	orl    $0x40,0x413050
  406df0:	80 e5 20             	and    $0x20,%ch
  406df3:	75 2e                	jne    406e23 <___cpu_features_init+0xc3>
  406df5:	b8 00 00 00 80       	mov    $0x80000000,%eax
  406dfa:	0f a2                	cpuid  
  406dfc:	3d 00 00 00 80       	cmp    $0x80000000,%eax
  406e01:	76 1d                	jbe    406e20 <___cpu_features_init+0xc0>
  406e03:	b8 01 00 00 80       	mov    $0x80000001,%eax
  406e08:	0f a2                	cpuid  
  406e0a:	85 d2                	test   %edx,%edx
  406e0c:	78 22                	js     406e30 <___cpu_features_init+0xd0>
  406e0e:	81 e2 00 00 00 40    	and    $0x40000000,%edx
  406e14:	74 0a                	je     406e20 <___cpu_features_init+0xc0>
  406e16:	81 0d 50 30 41 00 00 	orl    $0x200,0x413050
  406e1d:	02 00 00 
  406e20:	5b                   	pop    %ebx
  406e21:	f3 c3                	repz ret 
  406e23:	81 0d 50 30 41 00 80 	orl    $0x80,0x413050
  406e2a:	00 00 00 
  406e2d:	eb c6                	jmp    406df5 <___cpu_features_init+0x95>
  406e2f:	90                   	nop
  406e30:	81 0d 50 30 41 00 00 	orl    $0x100,0x413050
  406e37:	01 00 00 
  406e3a:	eb d2                	jmp    406e0e <___cpu_features_init+0xae>
  406e3c:	90                   	nop
  406e3d:	90                   	nop
  406e3e:	90                   	nop
  406e3f:	90                   	nop

00406e40 <__setargv>:
  406e40:	55                   	push   %ebp
  406e41:	89 e5                	mov    %esp,%ebp
  406e43:	57                   	push   %edi
  406e44:	56                   	push   %esi
  406e45:	53                   	push   %ebx
  406e46:	83 ec 4c             	sub    $0x4c,%esp
  406e49:	f6 05 8c f8 40 00 02 	testb  $0x2,0x40f88c
  406e50:	0f 84 ba 02 00 00    	je     407110 <__setargv+0x2d0>
  406e56:	e8 65 74 00 00       	call   40e2c0 <_GetCommandLineA@0>
  406e5b:	89 65 c0             	mov    %esp,-0x40(%ebp)
  406e5e:	89 04 24             	mov    %eax,(%esp)
  406e61:	89 c6                	mov    %eax,%esi
  406e63:	e8 b0 6b 00 00       	call   40da18 <_strlen>
  406e68:	8d 44 00 11          	lea    0x11(%eax,%eax,1),%eax
  406e6c:	83 e0 f0             	and    $0xfffffff0,%eax
  406e6f:	e8 3c 0b 00 00       	call   4079b0 <___chkstk_ms>
  406e74:	29 c4                	sub    %eax,%esp
  406e76:	8d 44 24 10          	lea    0x10(%esp),%eax
  406e7a:	89 c2                	mov    %eax,%edx
  406e7c:	89 45 c4             	mov    %eax,-0x3c(%ebp)
  406e7f:	a1 8c f8 40 00       	mov    0x40f88c,%eax
  406e84:	c7 45 e4 00 00 00 00 	movl   $0x0,-0x1c(%ebp)
  406e8b:	c7 45 d0 00 00 00 00 	movl   $0x0,-0x30(%ebp)
  406e92:	c7 45 cc 00 00 00 00 	movl   $0x0,-0x34(%ebp)
  406e99:	83 e0 40             	and    $0x40,%eax
  406e9c:	83 f8 01             	cmp    $0x1,%eax
  406e9f:	19 c0                	sbb    %eax,%eax
  406ea1:	89 45 c8             	mov    %eax,-0x38(%ebp)
  406ea4:	31 c0                	xor    %eax,%eax
  406ea6:	81 65 c8 00 c0 ff ff 	andl   $0xffffc000,-0x38(%ebp)
  406ead:	81 45 c8 10 40 00 00 	addl   $0x4010,-0x38(%ebp)
  406eb4:	89 55 d4             	mov    %edx,-0x2c(%ebp)
  406eb7:	83 c6 01             	add    $0x1,%esi
  406eba:	0f b6 5e ff          	movzbl -0x1(%esi),%ebx
  406ebe:	0f be cb             	movsbl %bl,%ecx
  406ec1:	85 c9                	test   %ecx,%ecx
  406ec3:	74 7b                	je     406f40 <__setargv+0x100>
  406ec5:	80 fb 3f             	cmp    $0x3f,%bl
  406ec8:	0f 84 13 01 00 00    	je     406fe1 <__setargv+0x1a1>
  406ece:	0f 8f ec 00 00 00    	jg     406fc0 <__setargv+0x180>
  406ed4:	80 fb 27             	cmp    $0x27,%bl
  406ed7:	0f 84 e3 01 00 00    	je     4070c0 <__setargv+0x280>
  406edd:	80 fb 2a             	cmp    $0x2a,%bl
  406ee0:	0f 84 fb 00 00 00    	je     406fe1 <__setargv+0x1a1>
  406ee6:	80 fb 22             	cmp    $0x22,%bl
  406ee9:	0f 85 36 01 00 00    	jne    407025 <__setargv+0x1e5>
  406eef:	89 c3                	mov    %eax,%ebx
  406ef1:	d1 fb                	sar    %ebx
  406ef3:	0f 84 3e 02 00 00    	je     407137 <__setargv+0x2f7>
  406ef9:	8b 55 d4             	mov    -0x2c(%ebp),%edx
  406efc:	01 d3                	add    %edx,%ebx
  406efe:	66 90                	xchg   %ax,%ax
  406f00:	83 c2 01             	add    $0x1,%edx
  406f03:	39 da                	cmp    %ebx,%edx
  406f05:	c6 42 ff 5c          	movb   $0x5c,-0x1(%edx)
  406f09:	75 f5                	jne    406f00 <__setargv+0xc0>
  406f0b:	a8 01                	test   $0x1,%al
  406f0d:	0f 85 93 00 00 00    	jne    406fa6 <__setargv+0x166>
  406f13:	83 7d d0 27          	cmpl   $0x27,-0x30(%ebp)
  406f17:	0f 84 89 00 00 00    	je     406fa6 <__setargv+0x166>
  406f1d:	83 c6 01             	add    $0x1,%esi
  406f20:	31 c0                	xor    %eax,%eax
  406f22:	89 5d d4             	mov    %ebx,-0x2c(%ebp)
  406f25:	0f b6 5e ff          	movzbl -0x1(%esi),%ebx
  406f29:	31 4d d0             	xor    %ecx,-0x30(%ebp)
  406f2c:	c7 45 cc 01 00 00 00 	movl   $0x1,-0x34(%ebp)
  406f33:	0f be cb             	movsbl %bl,%ecx
  406f36:	85 c9                	test   %ecx,%ecx
  406f38:	75 8b                	jne    406ec5 <__setargv+0x85>
  406f3a:	8d b6 00 00 00 00    	lea    0x0(%esi),%esi
  406f40:	85 c0                	test   %eax,%eax
  406f42:	8b 55 d4             	mov    -0x2c(%ebp),%edx
  406f45:	0f 84 f4 01 00 00    	je     40713f <__setargv+0x2ff>
  406f4b:	01 d0                	add    %edx,%eax
  406f4d:	8d 76 00             	lea    0x0(%esi),%esi
  406f50:	83 c2 01             	add    $0x1,%edx
  406f53:	39 c2                	cmp    %eax,%edx
  406f55:	c6 42 ff 5c          	movb   $0x5c,-0x1(%edx)
  406f59:	75 f5                	jne    406f50 <__setargv+0x110>
  406f5b:	8b 55 cc             	mov    -0x34(%ebp),%edx
  406f5e:	85 d2                	test   %edx,%edx
  406f60:	75 05                	jne    406f67 <__setargv+0x127>
  406f62:	39 45 c4             	cmp    %eax,-0x3c(%ebp)
  406f65:	73 24                	jae    406f8b <__setargv+0x14b>
  406f67:	c6 00 00             	movb   $0x0,(%eax)
  406f6a:	8d 45 d8             	lea    -0x28(%ebp),%eax
  406f6d:	89 44 24 0c          	mov    %eax,0xc(%esp)
  406f71:	c7 44 24 08 00 00 00 	movl   $0x0,0x8(%esp)
  406f78:	00 
  406f79:	8b 45 c8             	mov    -0x38(%ebp),%eax
  406f7c:	89 44 24 04          	mov    %eax,0x4(%esp)
  406f80:	8b 45 c4             	mov    -0x3c(%ebp),%eax
  406f83:	89 04 24             	mov    %eax,(%esp)
  406f86:	e8 55 16 00 00       	call   4085e0 <___mingw_glob>
  406f8b:	8b 45 dc             	mov    -0x24(%ebp),%eax
  406f8e:	a3 04 30 41 00       	mov    %eax,0x413004
  406f93:	8b 45 e0             	mov    -0x20(%ebp),%eax
  406f96:	a3 00 30 41 00       	mov    %eax,0x413000
  406f9b:	8b 65 c0             	mov    -0x40(%ebp),%esp
  406f9e:	8d 65 f4             	lea    -0xc(%ebp),%esp
  406fa1:	5b                   	pop    %ebx
  406fa2:	5e                   	pop    %esi
  406fa3:	5f                   	pop    %edi
  406fa4:	5d                   	pop    %ebp
  406fa5:	c3                   	ret    
  406fa6:	8d 43 01             	lea    0x1(%ebx),%eax
  406fa9:	89 45 d4             	mov    %eax,-0x2c(%ebp)
  406fac:	31 c0                	xor    %eax,%eax
  406fae:	c6 03 22             	movb   $0x22,(%ebx)
  406fb1:	c7 45 cc 01 00 00 00 	movl   $0x1,-0x34(%ebp)
  406fb8:	e9 fa fe ff ff       	jmp    406eb7 <__setargv+0x77>
  406fbd:	8d 76 00             	lea    0x0(%esi),%esi
  406fc0:	80 fb 5c             	cmp    $0x5c,%bl
  406fc3:	0f 84 3f 01 00 00    	je     407108 <__setargv+0x2c8>
  406fc9:	80 fb 7f             	cmp    $0x7f,%bl
  406fcc:	74 13                	je     406fe1 <__setargv+0x1a1>
  406fce:	80 fb 5b             	cmp    $0x5b,%bl
  406fd1:	75 52                	jne    407025 <__setargv+0x1e5>
  406fd3:	f6 05 8c f8 40 00 20 	testb  $0x20,0x40f88c
  406fda:	bf 01 00 00 00       	mov    $0x1,%edi
  406fdf:	74 0a                	je     406feb <__setargv+0x1ab>
  406fe1:	8b 55 d0             	mov    -0x30(%ebp),%edx
  406fe4:	85 d2                	test   %edx,%edx
  406fe6:	0f 95 c2             	setne  %dl
  406fe9:	89 d7                	mov    %edx,%edi
  406feb:	85 c0                	test   %eax,%eax
  406fed:	0f 84 34 01 00 00    	je     407127 <__setargv+0x2e7>
  406ff3:	8b 55 d4             	mov    -0x2c(%ebp),%edx
  406ff6:	01 d0                	add    %edx,%eax
  406ff8:	83 c2 01             	add    $0x1,%edx
  406ffb:	39 c2                	cmp    %eax,%edx
  406ffd:	c6 42 ff 5c          	movb   $0x5c,-0x1(%edx)
  407001:	75 f5                	jne    406ff8 <__setargv+0x1b8>
  407003:	89 fa                	mov    %edi,%edx
  407005:	84 d2                	test   %dl,%dl
  407007:	0f 85 a3 00 00 00    	jne    4070b0 <__setargv+0x270>
  40700d:	83 f9 7f             	cmp    $0x7f,%ecx
  407010:	0f 84 9a 00 00 00    	je     4070b0 <__setargv+0x270>
  407016:	8d 48 01             	lea    0x1(%eax),%ecx
  407019:	88 18                	mov    %bl,(%eax)
  40701b:	31 c0                	xor    %eax,%eax
  40701d:	89 4d d4             	mov    %ecx,-0x2c(%ebp)
  407020:	e9 92 fe ff ff       	jmp    406eb7 <__setargv+0x77>
  407025:	8b 7d d4             	mov    -0x2c(%ebp),%edi
  407028:	8b 55 d4             	mov    -0x2c(%ebp),%edx
  40702b:	01 c7                	add    %eax,%edi
  40702d:	85 c0                	test   %eax,%eax
  40702f:	0f 84 fa 00 00 00    	je     40712f <__setargv+0x2ef>
  407035:	83 c2 01             	add    $0x1,%edx
  407038:	39 fa                	cmp    %edi,%edx
  40703a:	c6 42 ff 5c          	movb   $0x5c,-0x1(%edx)
  40703e:	75 f5                	jne    407035 <__setargv+0x1f5>
  407040:	8b 45 d0             	mov    -0x30(%ebp),%eax
  407043:	85 c0                	test   %eax,%eax
  407045:	75 59                	jne    4070a0 <__setargv+0x260>
  407047:	89 0c 24             	mov    %ecx,(%esp)
  40704a:	e8 d1 69 00 00       	call   40da20 <_isspace>
  40704f:	85 c0                	test   %eax,%eax
  407051:	74 4d                	je     4070a0 <__setargv+0x260>
  407053:	8b 4d cc             	mov    -0x34(%ebp),%ecx
  407056:	85 c9                	test   %ecx,%ecx
  407058:	75 09                	jne    407063 <__setargv+0x223>
  40705a:	39 7d c4             	cmp    %edi,-0x3c(%ebp)
  40705d:	0f 83 ba 00 00 00    	jae    40711d <__setargv+0x2dd>
  407063:	8d 45 d8             	lea    -0x28(%ebp),%eax
  407066:	c6 07 00             	movb   $0x0,(%edi)
  407069:	89 44 24 0c          	mov    %eax,0xc(%esp)
  40706d:	c7 44 24 08 00 00 00 	movl   $0x0,0x8(%esp)
  407074:	00 
  407075:	8b 45 c8             	mov    -0x38(%ebp),%eax
  407078:	89 44 24 04          	mov    %eax,0x4(%esp)
  40707c:	8b 7d c4             	mov    -0x3c(%ebp),%edi
  40707f:	89 3c 24             	mov    %edi,(%esp)
  407082:	e8 59 15 00 00       	call   4085e0 <___mingw_glob>
  407087:	31 c0                	xor    %eax,%eax
  407089:	83 4d c8 01          	orl    $0x1,-0x38(%ebp)
  40708d:	89 7d d4             	mov    %edi,-0x2c(%ebp)
  407090:	c7 45 cc 00 00 00 00 	movl   $0x0,-0x34(%ebp)
  407097:	e9 1b fe ff ff       	jmp    406eb7 <__setargv+0x77>
  40709c:	8d 74 26 00          	lea    0x0(%esi,%eiz,1),%esi
  4070a0:	8d 47 01             	lea    0x1(%edi),%eax
  4070a3:	89 45 d4             	mov    %eax,-0x2c(%ebp)
  4070a6:	31 c0                	xor    %eax,%eax
  4070a8:	88 1f                	mov    %bl,(%edi)
  4070aa:	e9 08 fe ff ff       	jmp    406eb7 <__setargv+0x77>
  4070af:	90                   	nop
  4070b0:	c6 00 7f             	movb   $0x7f,(%eax)
  4070b3:	83 c0 01             	add    $0x1,%eax
  4070b6:	e9 5b ff ff ff       	jmp    407016 <__setargv+0x1d6>
  4070bb:	90                   	nop
  4070bc:	8d 74 26 00          	lea    0x0(%esi,%eiz,1),%esi
  4070c0:	f6 05 8c f8 40 00 10 	testb  $0x10,0x40f88c
  4070c7:	0f 84 58 ff ff ff    	je     407025 <__setargv+0x1e5>
  4070cd:	89 c3                	mov    %eax,%ebx
  4070cf:	d1 fb                	sar    %ebx
  4070d1:	74 73                	je     407146 <__setargv+0x306>
  4070d3:	8b 55 d4             	mov    -0x2c(%ebp),%edx
  4070d6:	01 d3                	add    %edx,%ebx
  4070d8:	83 c2 01             	add    $0x1,%edx
  4070db:	39 da                	cmp    %ebx,%edx
  4070dd:	c6 42 ff 5c          	movb   $0x5c,-0x1(%edx)
  4070e1:	75 f5                	jne    4070d8 <__setargv+0x298>
  4070e3:	a8 01                	test   $0x1,%al
  4070e5:	75 0a                	jne    4070f1 <__setargv+0x2b1>
  4070e7:	83 7d d0 22          	cmpl   $0x22,-0x30(%ebp)
  4070eb:	0f 85 2c fe ff ff    	jne    406f1d <__setargv+0xdd>
  4070f1:	8d 43 01             	lea    0x1(%ebx),%eax
  4070f4:	89 45 d4             	mov    %eax,-0x2c(%ebp)
  4070f7:	31 c0                	xor    %eax,%eax
  4070f9:	c6 03 27             	movb   $0x27,(%ebx)
  4070fc:	c7 45 cc 01 00 00 00 	movl   $0x1,-0x34(%ebp)
  407103:	e9 af fd ff ff       	jmp    406eb7 <__setargv+0x77>
  407108:	83 c0 01             	add    $0x1,%eax
  40710b:	e9 a7 fd ff ff       	jmp    406eb7 <__setargv+0x77>
  407110:	e8 4b a1 ff ff       	call   401260 <__mingw32_init_mainargs>
  407115:	8d 65 f4             	lea    -0xc(%ebp),%esp
  407118:	5b                   	pop    %ebx
  407119:	5e                   	pop    %esi
  40711a:	5f                   	pop    %edi
  40711b:	5d                   	pop    %ebp
  40711c:	c3                   	ret    
  40711d:	89 7d d4             	mov    %edi,-0x2c(%ebp)
  407120:	31 c0                	xor    %eax,%eax
  407122:	e9 90 fd ff ff       	jmp    406eb7 <__setargv+0x77>
  407127:	8b 45 d4             	mov    -0x2c(%ebp),%eax
  40712a:	e9 d4 fe ff ff       	jmp    407003 <__setargv+0x1c3>
  40712f:	8b 7d d4             	mov    -0x2c(%ebp),%edi
  407132:	e9 09 ff ff ff       	jmp    407040 <__setargv+0x200>
  407137:	8b 5d d4             	mov    -0x2c(%ebp),%ebx
  40713a:	e9 cc fd ff ff       	jmp    406f0b <__setargv+0xcb>
  40713f:	89 d0                	mov    %edx,%eax
  407141:	e9 15 fe ff ff       	jmp    406f5b <__setargv+0x11b>
  407146:	8b 5d d4             	mov    -0x2c(%ebp),%ebx
  407149:	eb 98                	jmp    4070e3 <__setargv+0x2a3>
  40714b:	90                   	nop
  40714c:	90                   	nop
  40714d:	90                   	nop
  40714e:	90                   	nop
  40714f:	90                   	nop

00407150 <___report_error>:
  407150:	56                   	push   %esi
  407151:	53                   	push   %ebx
  407152:	83 ec 14             	sub    $0x14,%esp
  407155:	a1 44 42 41 00       	mov    0x414244,%eax
  40715a:	c7 44 24 08 17 00 00 	movl   $0x17,0x8(%esp)
  407161:	00 
  407162:	8d 74 24 24          	lea    0x24(%esp),%esi
  407166:	c7 44 24 04 01 00 00 	movl   $0x1,0x4(%esp)
  40716d:	00 
  40716e:	c7 04 24 b4 00 41 00 	movl   $0x4100b4,(%esp)
  407175:	8d 58 40             	lea    0x40(%eax),%ebx
  407178:	89 5c 24 0c          	mov    %ebx,0xc(%esp)
  40717c:	e8 a7 68 00 00       	call   40da28 <_fwrite>
  407181:	8b 44 24 20          	mov    0x20(%esp),%eax
  407185:	89 74 24 08          	mov    %esi,0x8(%esp)
  407189:	89 1c 24             	mov    %ebx,(%esp)
  40718c:	89 44 24 04          	mov    %eax,0x4(%esp)
  407190:	e8 9b 68 00 00       	call   40da30 <_vfprintf>
  407195:	e8 9e 68 00 00       	call   40da38 <_abort>
  40719a:	8d b6 00 00 00 00    	lea    0x0(%esi),%esi

004071a0 <___write_memory.part.0>:
  4071a0:	55                   	push   %ebp
  4071a1:	89 e5                	mov    %esp,%ebp
  4071a3:	57                   	push   %edi
  4071a4:	89 cf                	mov    %ecx,%edi
  4071a6:	56                   	push   %esi
  4071a7:	89 d6                	mov    %edx,%esi
  4071a9:	53                   	push   %ebx
  4071aa:	89 c3                	mov    %eax,%ebx
  4071ac:	83 ec 4c             	sub    $0x4c,%esp
  4071af:	8d 45 cc             	lea    -0x34(%ebp),%eax
  4071b2:	c7 44 24 08 1c 00 00 	movl   $0x1c,0x8(%esp)
  4071b9:	00 
  4071ba:	89 44 24 04          	mov    %eax,0x4(%esp)
  4071be:	89 1c 24             	mov    %ebx,(%esp)
  4071c1:	e8 02 71 00 00       	call   40e2c8 <_VirtualQuery@12>
  4071c6:	83 ec 0c             	sub    $0xc,%esp
  4071c9:	85 c0                	test   %eax,%eax
  4071cb:	0f 84 9a 00 00 00    	je     40726b <___write_memory.part.0+0xcb>
  4071d1:	8b 45 e0             	mov    -0x20(%ebp),%eax
  4071d4:	83 f8 04             	cmp    $0x4,%eax
  4071d7:	75 18                	jne    4071f1 <___write_memory.part.0+0x51>
  4071d9:	89 7c 24 08          	mov    %edi,0x8(%esp)
  4071dd:	89 74 24 04          	mov    %esi,0x4(%esp)
  4071e1:	89 1c 24             	mov    %ebx,(%esp)
  4071e4:	e8 57 68 00 00       	call   40da40 <_memcpy>
  4071e9:	8d 65 f4             	lea    -0xc(%ebp),%esp
  4071ec:	5b                   	pop    %ebx
  4071ed:	5e                   	pop    %esi
  4071ee:	5f                   	pop    %edi
  4071ef:	5d                   	pop    %ebp
  4071f0:	c3                   	ret    
  4071f1:	83 f8 40             	cmp    $0x40,%eax
  4071f4:	74 e3                	je     4071d9 <___write_memory.part.0+0x39>
  4071f6:	8b 45 d8             	mov    -0x28(%ebp),%eax
  4071f9:	8d 55 c8             	lea    -0x38(%ebp),%edx
  4071fc:	89 54 24 0c          	mov    %edx,0xc(%esp)
  407200:	c7 44 24 08 40 00 00 	movl   $0x40,0x8(%esp)
  407207:	00 
  407208:	89 55 c4             	mov    %edx,-0x3c(%ebp)
  40720b:	89 44 24 04          	mov    %eax,0x4(%esp)
  40720f:	8b 45 cc             	mov    -0x34(%ebp),%eax
  407212:	89 04 24             	mov    %eax,(%esp)
  407215:	e8 b6 70 00 00       	call   40e2d0 <_VirtualProtect@16>
  40721a:	8b 4d e0             	mov    -0x20(%ebp),%ecx
  40721d:	89 4d c0             	mov    %ecx,-0x40(%ebp)
  407220:	83 ec 10             	sub    $0x10,%esp
  407223:	89 7c 24 08          	mov    %edi,0x8(%esp)
  407227:	89 74 24 04          	mov    %esi,0x4(%esp)
  40722b:	89 1c 24             	mov    %ebx,(%esp)
  40722e:	e8 0d 68 00 00       	call   40da40 <_memcpy>
  407233:	8b 4d c0             	mov    -0x40(%ebp),%ecx
  407236:	83 f9 04             	cmp    $0x4,%ecx
  407239:	74 ae                	je     4071e9 <___write_memory.part.0+0x49>
  40723b:	83 f9 40             	cmp    $0x40,%ecx
  40723e:	74 a9                	je     4071e9 <___write_memory.part.0+0x49>
  407240:	8b 45 c8             	mov    -0x38(%ebp),%eax
  407243:	8b 55 c4             	mov    -0x3c(%ebp),%edx
  407246:	89 44 24 08          	mov    %eax,0x8(%esp)
  40724a:	8b 45 d8             	mov    -0x28(%ebp),%eax
  40724d:	89 54 24 0c          	mov    %edx,0xc(%esp)
  407251:	89 44 24 04          	mov    %eax,0x4(%esp)
  407255:	8b 45 cc             	mov    -0x34(%ebp),%eax
  407258:	89 04 24             	mov    %eax,(%esp)
  40725b:	e8 70 70 00 00       	call   40e2d0 <_VirtualProtect@16>
  407260:	83 ec 10             	sub    $0x10,%esp
  407263:	8d 65 f4             	lea    -0xc(%ebp),%esp
  407266:	5b                   	pop    %ebx
  407267:	5e                   	pop    %esi
  407268:	5f                   	pop    %edi
  407269:	5d                   	pop    %ebp
  40726a:	c3                   	ret    
  40726b:	89 5c 24 08          	mov    %ebx,0x8(%esp)
  40726f:	c7 44 24 04 1c 00 00 	movl   $0x1c,0x4(%esp)
  407276:	00 
  407277:	c7 04 24 cc 00 41 00 	movl   $0x4100cc,(%esp)
  40727e:	e8 cd fe ff ff       	call   407150 <___report_error>
  407283:	8d b6 00 00 00 00    	lea    0x0(%esi),%esi
  407289:	8d bc 27 00 00 00 00 	lea    0x0(%edi,%eiz,1),%edi

00407290 <__pei386_runtime_relocator>:
  407290:	a1 54 30 41 00       	mov    0x413054,%eax
  407295:	85 c0                	test   %eax,%eax
  407297:	74 07                	je     4072a0 <__pei386_runtime_relocator+0x10>
  407299:	c3                   	ret    
  40729a:	8d b6 00 00 00 00    	lea    0x0(%esi),%esi
  4072a0:	b8 34 08 41 00       	mov    $0x410834,%eax
  4072a5:	2d 34 08 41 00       	sub    $0x410834,%eax
  4072aa:	83 f8 07             	cmp    $0x7,%eax
  4072ad:	c7 05 54 30 41 00 01 	movl   $0x1,0x413054
  4072b4:	00 00 00 
  4072b7:	7e e0                	jle    407299 <__pei386_runtime_relocator+0x9>
  4072b9:	57                   	push   %edi
  4072ba:	56                   	push   %esi
  4072bb:	53                   	push   %ebx
  4072bc:	83 ec 20             	sub    $0x20,%esp
  4072bf:	83 f8 0b             	cmp    $0xb,%eax
  4072c2:	0f 8e de 00 00 00    	jle    4073a6 <__pei386_runtime_relocator+0x116>
  4072c8:	8b 35 34 08 41 00    	mov    0x410834,%esi
  4072ce:	85 f6                	test   %esi,%esi
  4072d0:	0f 85 8a 00 00 00    	jne    407360 <__pei386_runtime_relocator+0xd0>
  4072d6:	8b 1d 38 08 41 00    	mov    0x410838,%ebx
  4072dc:	85 db                	test   %ebx,%ebx
  4072de:	0f 85 7c 00 00 00    	jne    407360 <__pei386_runtime_relocator+0xd0>
  4072e4:	8b 0d 3c 08 41 00    	mov    0x41083c,%ecx
  4072ea:	bb 40 08 41 00       	mov    $0x410840,%ebx
  4072ef:	85 c9                	test   %ecx,%ecx
  4072f1:	0f 84 b4 00 00 00    	je     4073ab <__pei386_runtime_relocator+0x11b>
  4072f7:	bb 34 08 41 00       	mov    $0x410834,%ebx
  4072fc:	8b 43 08             	mov    0x8(%ebx),%eax
  4072ff:	83 f8 01             	cmp    $0x1,%eax
  407302:	0f 85 49 01 00 00    	jne    407451 <__pei386_runtime_relocator+0x1c1>
  407308:	83 c3 0c             	add    $0xc,%ebx
  40730b:	81 fb 34 08 41 00    	cmp    $0x410834,%ebx
  407311:	0f 83 88 00 00 00    	jae    40739f <__pei386_runtime_relocator+0x10f>
  407317:	0f b6 53 08          	movzbl 0x8(%ebx),%edx
  40731b:	8b 73 04             	mov    0x4(%ebx),%esi
  40731e:	8b 0b                	mov    (%ebx),%ecx
  407320:	83 fa 10             	cmp    $0x10,%edx
  407323:	8d 86 00 00 40 00    	lea    0x400000(%esi),%eax
  407329:	8b b9 00 00 40 00    	mov    0x400000(%ecx),%edi
  40732f:	0f 84 8b 00 00 00    	je     4073c0 <__pei386_runtime_relocator+0x130>
  407335:	83 fa 20             	cmp    $0x20,%edx
  407338:	0f 84 f2 00 00 00    	je     407430 <__pei386_runtime_relocator+0x1a0>
  40733e:	83 fa 08             	cmp    $0x8,%edx
  407341:	0f 84 af 00 00 00    	je     4073f6 <__pei386_runtime_relocator+0x166>
  407347:	89 54 24 04          	mov    %edx,0x4(%esp)
  40734b:	c7 04 24 34 01 41 00 	movl   $0x410134,(%esp)
  407352:	c7 44 24 1c 00 00 00 	movl   $0x0,0x1c(%esp)
  407359:	00 
  40735a:	e8 f1 fd ff ff       	call   407150 <___report_error>
  40735f:	90                   	nop
  407360:	bb 34 08 41 00       	mov    $0x410834,%ebx
  407365:	81 fb 34 08 41 00    	cmp    $0x410834,%ebx
  40736b:	73 32                	jae    40739f <__pei386_runtime_relocator+0x10f>
  40736d:	8d 76 00             	lea    0x0(%esi),%esi
  407370:	8b 53 04             	mov    0x4(%ebx),%edx
  407373:	b9 04 00 00 00       	mov    $0x4,%ecx
  407378:	83 c3 08             	add    $0x8,%ebx
  40737b:	8d 82 00 00 40 00    	lea    0x400000(%edx),%eax
  407381:	8b 92 00 00 40 00    	mov    0x400000(%edx),%edx
  407387:	03 53 f8             	add    -0x8(%ebx),%edx
  40738a:	89 54 24 1c          	mov    %edx,0x1c(%esp)
  40738e:	8d 54 24 1c          	lea    0x1c(%esp),%edx
  407392:	e8 09 fe ff ff       	call   4071a0 <___write_memory.part.0>
  407397:	81 fb 34 08 41 00    	cmp    $0x410834,%ebx
  40739d:	72 d1                	jb     407370 <__pei386_runtime_relocator+0xe0>
  40739f:	83 c4 20             	add    $0x20,%esp
  4073a2:	5b                   	pop    %ebx
  4073a3:	5e                   	pop    %esi
  4073a4:	5f                   	pop    %edi
  4073a5:	c3                   	ret    
  4073a6:	bb 34 08 41 00       	mov    $0x410834,%ebx
  4073ab:	8b 13                	mov    (%ebx),%edx
  4073ad:	85 d2                	test   %edx,%edx
  4073af:	75 b4                	jne    407365 <__pei386_runtime_relocator+0xd5>
  4073b1:	8b 43 04             	mov    0x4(%ebx),%eax
  4073b4:	85 c0                	test   %eax,%eax
  4073b6:	0f 84 40 ff ff ff    	je     4072fc <__pei386_runtime_relocator+0x6c>
  4073bc:	eb a7                	jmp    407365 <__pei386_runtime_relocator+0xd5>
  4073be:	66 90                	xchg   %ax,%ax
  4073c0:	0f b7 b6 00 00 40 00 	movzwl 0x400000(%esi),%esi
  4073c7:	66 85 f6             	test   %si,%si
  4073ca:	0f b7 d6             	movzwl %si,%edx
  4073cd:	79 06                	jns    4073d5 <__pei386_runtime_relocator+0x145>
  4073cf:	81 ca 00 00 ff ff    	or     $0xffff0000,%edx
  4073d5:	29 ca                	sub    %ecx,%edx
  4073d7:	b9 02 00 00 00       	mov    $0x2,%ecx
  4073dc:	81 ea 00 00 40 00    	sub    $0x400000,%edx
  4073e2:	01 fa                	add    %edi,%edx
  4073e4:	89 54 24 1c          	mov    %edx,0x1c(%esp)
  4073e8:	8d 54 24 1c          	lea    0x1c(%esp),%edx
  4073ec:	e8 af fd ff ff       	call   4071a0 <___write_memory.part.0>
  4073f1:	e9 12 ff ff ff       	jmp    407308 <__pei386_runtime_relocator+0x78>
  4073f6:	0f b6 10             	movzbl (%eax),%edx
  4073f9:	84 d2                	test   %dl,%dl
  4073fb:	0f b6 f2             	movzbl %dl,%esi
  4073fe:	79 06                	jns    407406 <__pei386_runtime_relocator+0x176>
  407400:	81 ce 00 ff ff ff    	or     $0xffffff00,%esi
  407406:	81 ee 00 00 40 00    	sub    $0x400000,%esi
  40740c:	89 f2                	mov    %esi,%edx
  40740e:	29 ca                	sub    %ecx,%edx
  407410:	b9 01 00 00 00       	mov    $0x1,%ecx
  407415:	01 fa                	add    %edi,%edx
  407417:	89 54 24 1c          	mov    %edx,0x1c(%esp)
  40741b:	8d 54 24 1c          	lea    0x1c(%esp),%edx
  40741f:	e8 7c fd ff ff       	call   4071a0 <___write_memory.part.0>
  407424:	e9 df fe ff ff       	jmp    407308 <__pei386_runtime_relocator+0x78>
  407429:	8d b4 26 00 00 00 00 	lea    0x0(%esi,%eiz,1),%esi
  407430:	81 c1 00 00 40 00    	add    $0x400000,%ecx
  407436:	29 cf                	sub    %ecx,%edi
  407438:	b9 04 00 00 00       	mov    $0x4,%ecx
  40743d:	03 38                	add    (%eax),%edi
  40743f:	8d 54 24 1c          	lea    0x1c(%esp),%edx
  407443:	89 7c 24 1c          	mov    %edi,0x1c(%esp)
  407447:	e8 54 fd ff ff       	call   4071a0 <___write_memory.part.0>
  40744c:	e9 b7 fe ff ff       	jmp    407308 <__pei386_runtime_relocator+0x78>
  407451:	89 44 24 04          	mov    %eax,0x4(%esp)
  407455:	c7 04 24 00 01 41 00 	movl   $0x410100,(%esp)
  40745c:	e8 ef fc ff ff       	call   407150 <___report_error>
  407461:	90                   	nop
  407462:	90                   	nop
  407463:	90                   	nop
  407464:	90                   	nop
  407465:	90                   	nop
  407466:	90                   	nop
  407467:	90                   	nop
  407468:	90                   	nop
  407469:	90                   	nop
  40746a:	90                   	nop
  40746b:	90                   	nop
  40746c:	90                   	nop
  40746d:	90                   	nop
  40746e:	90                   	nop
  40746f:	90                   	nop

00407470 <___do_global_dtors>:
  407470:	a1 90 f8 40 00       	mov    0x40f890,%eax
  407475:	8b 00                	mov    (%eax),%eax
  407477:	85 c0                	test   %eax,%eax
  407479:	74 1f                	je     40749a <___do_global_dtors+0x2a>
  40747b:	83 ec 0c             	sub    $0xc,%esp
  40747e:	66 90                	xchg   %ax,%ax
  407480:	ff d0                	call   *%eax
  407482:	a1 90 f8 40 00       	mov    0x40f890,%eax
  407487:	8d 50 04             	lea    0x4(%eax),%edx
  40748a:	8b 40 04             	mov    0x4(%eax),%eax
  40748d:	89 15 90 f8 40 00    	mov    %edx,0x40f890
  407493:	85 c0                	test   %eax,%eax
  407495:	75 e9                	jne    407480 <___do_global_dtors+0x10>
  407497:	83 c4 0c             	add    $0xc,%esp
  40749a:	f3 c3                	repz ret 
  40749c:	8d 74 26 00          	lea    0x0(%esi,%eiz,1),%esi

004074a0 <___do_global_ctors>:
  4074a0:	53                   	push   %ebx
  4074a1:	83 ec 18             	sub    $0x18,%esp
  4074a4:	8b 1d 30 e4 40 00    	mov    0x40e430,%ebx
  4074aa:	83 fb ff             	cmp    $0xffffffff,%ebx
  4074ad:	74 24                	je     4074d3 <___do_global_ctors+0x33>
  4074af:	85 db                	test   %ebx,%ebx
  4074b1:	74 0f                	je     4074c2 <___do_global_ctors+0x22>
  4074b3:	ff 14 9d 30 e4 40 00 	call   *0x40e430(,%ebx,4)
  4074ba:	83 eb 01             	sub    $0x1,%ebx
  4074bd:	8d 76 00             	lea    0x0(%esi),%esi
  4074c0:	75 f1                	jne    4074b3 <___do_global_ctors+0x13>
  4074c2:	c7 04 24 70 74 40 00 	movl   $0x407470,(%esp)
  4074c9:	e8 12 9e ff ff       	call   4012e0 <_atexit>
  4074ce:	83 c4 18             	add    $0x18,%esp
  4074d1:	5b                   	pop    %ebx
  4074d2:	c3                   	ret    
  4074d3:	31 db                	xor    %ebx,%ebx
  4074d5:	eb 02                	jmp    4074d9 <___do_global_ctors+0x39>
  4074d7:	89 c3                	mov    %eax,%ebx
  4074d9:	8d 43 01             	lea    0x1(%ebx),%eax
  4074dc:	8b 14 85 30 e4 40 00 	mov    0x40e430(,%eax,4),%edx
  4074e3:	85 d2                	test   %edx,%edx
  4074e5:	75 f0                	jne    4074d7 <___do_global_ctors+0x37>
  4074e7:	eb c6                	jmp    4074af <___do_global_ctors+0xf>
  4074e9:	8d b4 26 00 00 00 00 	lea    0x0(%esi,%eiz,1),%esi

004074f0 <___main>:
  4074f0:	8b 0d 58 30 41 00    	mov    0x413058,%ecx
  4074f6:	85 c9                	test   %ecx,%ecx
  4074f8:	74 06                	je     407500 <___main+0x10>
  4074fa:	f3 c3                	repz ret 
  4074fc:	8d 74 26 00          	lea    0x0(%esi,%eiz,1),%esi
  407500:	c7 05 58 30 41 00 01 	movl   $0x1,0x413058
  407507:	00 00 00 
  40750a:	eb 94                	jmp    4074a0 <___do_global_ctors>
  40750c:	90                   	nop
  40750d:	90                   	nop
  40750e:	90                   	nop
  40750f:	90                   	nop

00407510 <___mingwthr_run_key_dtors.part.0>:
  407510:	55                   	push   %ebp
  407511:	89 e5                	mov    %esp,%ebp
  407513:	56                   	push   %esi
  407514:	53                   	push   %ebx
  407515:	83 ec 10             	sub    $0x10,%esp
  407518:	c7 04 24 68 30 41 00 	movl   $0x413068,(%esp)
  40751f:	e8 b4 6d 00 00       	call   40e2d8 <_EnterCriticalSection@4>
  407524:	8b 1d 60 30 41 00    	mov    0x413060,%ebx
  40752a:	83 ec 04             	sub    $0x4,%esp
  40752d:	85 db                	test   %ebx,%ebx
  40752f:	74 2b                	je     40755c <___mingwthr_run_key_dtors.part.0+0x4c>
  407531:	8b 03                	mov    (%ebx),%eax
  407533:	89 04 24             	mov    %eax,(%esp)
  407536:	e8 a5 6d 00 00       	call   40e2e0 <_TlsGetValue@4>
  40753b:	83 ec 04             	sub    $0x4,%esp
  40753e:	89 c6                	mov    %eax,%esi
  407540:	e8 a3 6d 00 00       	call   40e2e8 <_GetLastError@0>
  407545:	85 c0                	test   %eax,%eax
  407547:	75 0c                	jne    407555 <___mingwthr_run_key_dtors.part.0+0x45>
  407549:	85 f6                	test   %esi,%esi
  40754b:	74 08                	je     407555 <___mingwthr_run_key_dtors.part.0+0x45>
  40754d:	8b 43 04             	mov    0x4(%ebx),%eax
  407550:	89 34 24             	mov    %esi,(%esp)
  407553:	ff d0                	call   *%eax
  407555:	8b 5b 08             	mov    0x8(%ebx),%ebx
  407558:	85 db                	test   %ebx,%ebx
  40755a:	75 d5                	jne    407531 <___mingwthr_run_key_dtors.part.0+0x21>
  40755c:	c7 04 24 68 30 41 00 	movl   $0x413068,(%esp)
  407563:	e8 88 6d 00 00       	call   40e2f0 <_LeaveCriticalSection@4>
  407568:	83 ec 04             	sub    $0x4,%esp
  40756b:	8d 65 f8             	lea    -0x8(%ebp),%esp
  40756e:	5b                   	pop    %ebx
  40756f:	5e                   	pop    %esi
  407570:	5d                   	pop    %ebp
  407571:	c3                   	ret    
  407572:	8d b4 26 00 00 00 00 	lea    0x0(%esi,%eiz,1),%esi
  407579:	8d bc 27 00 00 00 00 	lea    0x0(%edi,%eiz,1),%edi

00407580 <____w64_mingwthr_add_key_dtor>:
  407580:	55                   	push   %ebp
  407581:	89 e5                	mov    %esp,%ebp
  407583:	56                   	push   %esi
  407584:	31 f6                	xor    %esi,%esi
  407586:	53                   	push   %ebx
  407587:	83 ec 10             	sub    $0x10,%esp
  40758a:	a1 64 30 41 00       	mov    0x413064,%eax
  40758f:	85 c0                	test   %eax,%eax
  407591:	75 0d                	jne    4075a0 <____w64_mingwthr_add_key_dtor+0x20>
  407593:	8d 65 f8             	lea    -0x8(%ebp),%esp
  407596:	89 f0                	mov    %esi,%eax
  407598:	5b                   	pop    %ebx
  407599:	5e                   	pop    %esi
  40759a:	5d                   	pop    %ebp
  40759b:	c3                   	ret    
  40759c:	8d 74 26 00          	lea    0x0(%esi,%eiz,1),%esi
  4075a0:	c7 44 24 04 0c 00 00 	movl   $0xc,0x4(%esp)
  4075a7:	00 
  4075a8:	c7 04 24 01 00 00 00 	movl   $0x1,(%esp)
  4075af:	e8 54 64 00 00       	call   40da08 <_calloc>
  4075b4:	85 c0                	test   %eax,%eax
  4075b6:	89 c3                	mov    %eax,%ebx
  4075b8:	74 40                	je     4075fa <____w64_mingwthr_add_key_dtor+0x7a>
  4075ba:	8b 45 08             	mov    0x8(%ebp),%eax
  4075bd:	c7 04 24 68 30 41 00 	movl   $0x413068,(%esp)
  4075c4:	89 03                	mov    %eax,(%ebx)
  4075c6:	8b 45 0c             	mov    0xc(%ebp),%eax
  4075c9:	89 43 04             	mov    %eax,0x4(%ebx)
  4075cc:	e8 07 6d 00 00       	call   40e2d8 <_EnterCriticalSection@4>
  4075d1:	a1 60 30 41 00       	mov    0x413060,%eax
  4075d6:	89 1d 60 30 41 00    	mov    %ebx,0x413060
  4075dc:	89 43 08             	mov    %eax,0x8(%ebx)
  4075df:	83 ec 04             	sub    $0x4,%esp
  4075e2:	c7 04 24 68 30 41 00 	movl   $0x413068,(%esp)
  4075e9:	e8 02 6d 00 00       	call   40e2f0 <_LeaveCriticalSection@4>
  4075ee:	89 f0                	mov    %esi,%eax
  4075f0:	83 ec 04             	sub    $0x4,%esp
  4075f3:	8d 65 f8             	lea    -0x8(%ebp),%esp
  4075f6:	5b                   	pop    %ebx
  4075f7:	5e                   	pop    %esi
  4075f8:	5d                   	pop    %ebp
  4075f9:	c3                   	ret    
  4075fa:	be ff ff ff ff       	mov    $0xffffffff,%esi
  4075ff:	eb 92                	jmp    407593 <____w64_mingwthr_add_key_dtor+0x13>
  407601:	eb 0d                	jmp    407610 <____w64_mingwthr_remove_key_dtor>
  407603:	90                   	nop
  407604:	90                   	nop
  407605:	90                   	nop
  407606:	90                   	nop
  407607:	90                   	nop
  407608:	90                   	nop
  407609:	90                   	nop
  40760a:	90                   	nop
  40760b:	90                   	nop
  40760c:	90                   	nop
  40760d:	90                   	nop
  40760e:	90                   	nop
  40760f:	90                   	nop

00407610 <____w64_mingwthr_remove_key_dtor>:
  407610:	55                   	push   %ebp
  407611:	89 e5                	mov    %esp,%ebp
  407613:	53                   	push   %ebx
  407614:	83 ec 14             	sub    $0x14,%esp
  407617:	a1 64 30 41 00       	mov    0x413064,%eax
  40761c:	8b 5d 08             	mov    0x8(%ebp),%ebx
  40761f:	85 c0                	test   %eax,%eax
  407621:	75 0d                	jne    407630 <____w64_mingwthr_remove_key_dtor+0x20>
  407623:	31 c0                	xor    %eax,%eax
  407625:	8b 5d fc             	mov    -0x4(%ebp),%ebx
  407628:	c9                   	leave  
  407629:	c3                   	ret    
  40762a:	8d b6 00 00 00 00    	lea    0x0(%esi),%esi
  407630:	c7 04 24 68 30 41 00 	movl   $0x413068,(%esp)
  407637:	e8 9c 6c 00 00       	call   40e2d8 <_EnterCriticalSection@4>
  40763c:	8b 15 60 30 41 00    	mov    0x413060,%edx
  407642:	83 ec 04             	sub    $0x4,%esp
  407645:	85 d2                	test   %edx,%edx
  407647:	74 17                	je     407660 <____w64_mingwthr_remove_key_dtor+0x50>
  407649:	8b 02                	mov    (%edx),%eax
  40764b:	39 d8                	cmp    %ebx,%eax
  40764d:	75 0a                	jne    407659 <____w64_mingwthr_remove_key_dtor+0x49>
  40764f:	eb 44                	jmp    407695 <____w64_mingwthr_remove_key_dtor+0x85>
  407651:	8b 08                	mov    (%eax),%ecx
  407653:	39 d9                	cmp    %ebx,%ecx
  407655:	74 1f                	je     407676 <____w64_mingwthr_remove_key_dtor+0x66>
  407657:	89 c2                	mov    %eax,%edx
  407659:	8b 42 08             	mov    0x8(%edx),%eax
  40765c:	85 c0                	test   %eax,%eax
  40765e:	75 f1                	jne    407651 <____w64_mingwthr_remove_key_dtor+0x41>
  407660:	c7 04 24 68 30 41 00 	movl   $0x413068,(%esp)
  407667:	e8 84 6c 00 00       	call   40e2f0 <_LeaveCriticalSection@4>
  40766c:	83 ec 04             	sub    $0x4,%esp
  40766f:	31 c0                	xor    %eax,%eax
  407671:	8b 5d fc             	mov    -0x4(%ebp),%ebx
  407674:	c9                   	leave  
  407675:	c3                   	ret    
  407676:	8b 48 08             	mov    0x8(%eax),%ecx
  407679:	89 4a 08             	mov    %ecx,0x8(%edx)
  40767c:	89 04 24             	mov    %eax,(%esp)
  40767f:	e8 7c 63 00 00       	call   40da00 <_free>
  407684:	c7 04 24 68 30 41 00 	movl   $0x413068,(%esp)
  40768b:	e8 60 6c 00 00       	call   40e2f0 <_LeaveCriticalSection@4>
  407690:	83 ec 04             	sub    $0x4,%esp
  407693:	eb da                	jmp    40766f <____w64_mingwthr_remove_key_dtor+0x5f>
  407695:	8b 42 08             	mov    0x8(%edx),%eax
  407698:	a3 60 30 41 00       	mov    %eax,0x413060
  40769d:	89 d0                	mov    %edx,%eax
  40769f:	eb db                	jmp    40767c <____w64_mingwthr_remove_key_dtor+0x6c>
  4076a1:	eb 0d                	jmp    4076b0 <___mingw_TLScallback>
  4076a3:	90                   	nop
  4076a4:	90                   	nop
  4076a5:	90                   	nop
  4076a6:	90                   	nop
  4076a7:	90                   	nop
  4076a8:	90                   	nop
  4076a9:	90                   	nop
  4076aa:	90                   	nop
  4076ab:	90                   	nop
  4076ac:	90                   	nop
  4076ad:	90                   	nop
  4076ae:	90                   	nop
  4076af:	90                   	nop

004076b0 <___mingw_TLScallback>:
  4076b0:	55                   	push   %ebp
  4076b1:	89 e5                	mov    %esp,%ebp
  4076b3:	83 ec 18             	sub    $0x18,%esp
  4076b6:	8b 45 0c             	mov    0xc(%ebp),%eax
  4076b9:	83 f8 01             	cmp    $0x1,%eax
  4076bc:	74 45                	je     407703 <___mingw_TLScallback+0x53>
  4076be:	72 15                	jb     4076d5 <___mingw_TLScallback+0x25>
  4076c0:	83 f8 03             	cmp    $0x3,%eax
  4076c3:	75 09                	jne    4076ce <___mingw_TLScallback+0x1e>
  4076c5:	a1 64 30 41 00       	mov    0x413064,%eax
  4076ca:	85 c0                	test   %eax,%eax
  4076cc:	75 63                	jne    407731 <___mingw_TLScallback+0x81>
  4076ce:	b8 01 00 00 00       	mov    $0x1,%eax
  4076d3:	c9                   	leave  
  4076d4:	c3                   	ret    
  4076d5:	a1 64 30 41 00       	mov    0x413064,%eax
  4076da:	85 c0                	test   %eax,%eax
  4076dc:	75 5a                	jne    407738 <___mingw_TLScallback+0x88>
  4076de:	a1 64 30 41 00       	mov    0x413064,%eax
  4076e3:	83 f8 01             	cmp    $0x1,%eax
  4076e6:	75 e6                	jne    4076ce <___mingw_TLScallback+0x1e>
  4076e8:	c7 04 24 68 30 41 00 	movl   $0x413068,(%esp)
  4076ef:	c7 05 64 30 41 00 00 	movl   $0x0,0x413064
  4076f6:	00 00 00 
  4076f9:	e8 fa 6b 00 00       	call   40e2f8 <_DeleteCriticalSection@4>
  4076fe:	83 ec 04             	sub    $0x4,%esp
  407701:	eb cb                	jmp    4076ce <___mingw_TLScallback+0x1e>
  407703:	a1 64 30 41 00       	mov    0x413064,%eax
  407708:	85 c0                	test   %eax,%eax
  40770a:	74 14                	je     407720 <___mingw_TLScallback+0x70>
  40770c:	c7 05 64 30 41 00 01 	movl   $0x1,0x413064
  407713:	00 00 00 
  407716:	b8 01 00 00 00       	mov    $0x1,%eax
  40771b:	c9                   	leave  
  40771c:	c3                   	ret    
  40771d:	8d 76 00             	lea    0x0(%esi),%esi
  407720:	c7 04 24 68 30 41 00 	movl   $0x413068,(%esp)
  407727:	e8 d4 6b 00 00       	call   40e300 <_InitializeCriticalSection@4>
  40772c:	83 ec 04             	sub    $0x4,%esp
  40772f:	eb db                	jmp    40770c <___mingw_TLScallback+0x5c>
  407731:	e8 da fd ff ff       	call   407510 <___mingwthr_run_key_dtors.part.0>
  407736:	eb 96                	jmp    4076ce <___mingw_TLScallback+0x1e>
  407738:	90                   	nop
  407739:	8d b4 26 00 00 00 00 	lea    0x0(%esi,%eiz,1),%esi
  407740:	e8 cb fd ff ff       	call   407510 <___mingwthr_run_key_dtors.part.0>
  407745:	eb 97                	jmp    4076de <___mingw_TLScallback+0x2e>
  407747:	90                   	nop
  407748:	90                   	nop
  407749:	90                   	nop
  40774a:	90                   	nop
  40774b:	90                   	nop
  40774c:	90                   	nop
  40774d:	90                   	nop
  40774e:	90                   	nop
  40774f:	90                   	nop

00407750 <___umoddi3>:
  407750:	55                   	push   %ebp
  407751:	57                   	push   %edi
  407752:	56                   	push   %esi
  407753:	53                   	push   %ebx
  407754:	83 ec 1c             	sub    $0x1c,%esp
  407757:	8b 44 24 3c          	mov    0x3c(%esp),%eax
  40775b:	8b 4c 24 30          	mov    0x30(%esp),%ecx
  40775f:	8b 6c 24 34          	mov    0x34(%esp),%ebp
  407763:	8b 5c 24 38          	mov    0x38(%esp),%ebx
  407767:	85 c0                	test   %eax,%eax
  407769:	89 c2                	mov    %eax,%edx
  40776b:	89 4c 24 0c          	mov    %ecx,0xc(%esp)
  40776f:	89 ee                	mov    %ebp,%esi
  407771:	89 1c 24             	mov    %ebx,(%esp)
  407774:	89 4c 24 04          	mov    %ecx,0x4(%esp)
  407778:	89 6c 24 08          	mov    %ebp,0x8(%esp)
  40777c:	75 16                	jne    407794 <___umoddi3+0x44>
  40777e:	39 eb                	cmp    %ebp,%ebx
  407780:	76 4e                	jbe    4077d0 <___umoddi3+0x80>
  407782:	89 c8                	mov    %ecx,%eax
  407784:	89 ea                	mov    %ebp,%edx
  407786:	f7 f3                	div    %ebx
  407788:	89 d0                	mov    %edx,%eax
  40778a:	31 d2                	xor    %edx,%edx
  40778c:	83 c4 1c             	add    $0x1c,%esp
  40778f:	5b                   	pop    %ebx
  407790:	5e                   	pop    %esi
  407791:	5f                   	pop    %edi
  407792:	5d                   	pop    %ebp
  407793:	c3                   	ret    
  407794:	39 e8                	cmp    %ebp,%eax
  407796:	77 58                	ja     4077f0 <___umoddi3+0xa0>
  407798:	0f bd f8             	bsr    %eax,%edi
  40779b:	83 f7 1f             	xor    $0x1f,%edi
  40779e:	75 60                	jne    407800 <___umoddi3+0xb0>
  4077a0:	8b 7c 24 04          	mov    0x4(%esp),%edi
  4077a4:	39 3c 24             	cmp    %edi,(%esp)
  4077a7:	0f 87 e4 00 00 00    	ja     407891 <___umoddi3+0x141>
  4077ad:	89 ef                	mov    %ebp,%edi
  4077af:	89 ce                	mov    %ecx,%esi
  4077b1:	29 de                	sub    %ebx,%esi
  4077b3:	19 c7                	sbb    %eax,%edi
  4077b5:	89 74 24 04          	mov    %esi,0x4(%esp)
  4077b9:	89 7c 24 08          	mov    %edi,0x8(%esp)
  4077bd:	8b 44 24 04          	mov    0x4(%esp),%eax
  4077c1:	8b 54 24 08          	mov    0x8(%esp),%edx
  4077c5:	83 c4 1c             	add    $0x1c,%esp
  4077c8:	5b                   	pop    %ebx
  4077c9:	5e                   	pop    %esi
  4077ca:	5f                   	pop    %edi
  4077cb:	5d                   	pop    %ebp
  4077cc:	c3                   	ret    
  4077cd:	8d 76 00             	lea    0x0(%esi),%esi
  4077d0:	85 db                	test   %ebx,%ebx
  4077d2:	89 df                	mov    %ebx,%edi
  4077d4:	75 0b                	jne    4077e1 <___umoddi3+0x91>
  4077d6:	b8 01 00 00 00       	mov    $0x1,%eax
  4077db:	31 d2                	xor    %edx,%edx
  4077dd:	f7 f3                	div    %ebx
  4077df:	89 c7                	mov    %eax,%edi
  4077e1:	89 e8                	mov    %ebp,%eax
  4077e3:	31 d2                	xor    %edx,%edx
  4077e5:	f7 f7                	div    %edi
  4077e7:	89 c8                	mov    %ecx,%eax
  4077e9:	f7 f7                	div    %edi
  4077eb:	eb 9b                	jmp    407788 <___umoddi3+0x38>
  4077ed:	8d 76 00             	lea    0x0(%esi),%esi
  4077f0:	89 c8                	mov    %ecx,%eax
  4077f2:	89 ea                	mov    %ebp,%edx
  4077f4:	83 c4 1c             	add    $0x1c,%esp
  4077f7:	5b                   	pop    %ebx
  4077f8:	5e                   	pop    %esi
  4077f9:	5f                   	pop    %edi
  4077fa:	5d                   	pop    %ebp
  4077fb:	c3                   	ret    
  4077fc:	8d 74 26 00          	lea    0x0(%esi,%eiz,1),%esi
  407800:	8b 2c 24             	mov    (%esp),%ebp
  407803:	bb 20 00 00 00       	mov    $0x20,%ebx
  407808:	89 f9                	mov    %edi,%ecx
  40780a:	29 fb                	sub    %edi,%ebx
  40780c:	d3 e2                	shl    %cl,%edx
  40780e:	89 d9                	mov    %ebx,%ecx
  407810:	89 e8                	mov    %ebp,%eax
  407812:	d3 e8                	shr    %cl,%eax
  407814:	89 f9                	mov    %edi,%ecx
  407816:	89 04 24             	mov    %eax,(%esp)
  407819:	89 e8                	mov    %ebp,%eax
  40781b:	d3 e0                	shl    %cl,%eax
  40781d:	89 d9                	mov    %ebx,%ecx
  40781f:	89 c5                	mov    %eax,%ebp
  407821:	89 44 24 08          	mov    %eax,0x8(%esp)
  407825:	8b 44 24 0c          	mov    0xc(%esp),%eax
  407829:	09 14 24             	or     %edx,(%esp)
  40782c:	89 f2                	mov    %esi,%edx
  40782e:	d3 ea                	shr    %cl,%edx
  407830:	89 f9                	mov    %edi,%ecx
  407832:	d3 e6                	shl    %cl,%esi
  407834:	89 d9                	mov    %ebx,%ecx
  407836:	d3 e8                	shr    %cl,%eax
  407838:	89 f9                	mov    %edi,%ecx
  40783a:	09 f0                	or     %esi,%eax
  40783c:	8b 74 24 0c          	mov    0xc(%esp),%esi
  407840:	f7 34 24             	divl   (%esp)
  407843:	d3 e6                	shl    %cl,%esi
  407845:	89 74 24 04          	mov    %esi,0x4(%esp)
  407849:	89 d6                	mov    %edx,%esi
  40784b:	f7 e5                	mul    %ebp
  40784d:	39 d6                	cmp    %edx,%esi
  40784f:	89 c1                	mov    %eax,%ecx
  407851:	89 d5                	mov    %edx,%ebp
  407853:	72 2f                	jb     407884 <___umoddi3+0x134>
  407855:	39 44 24 04          	cmp    %eax,0x4(%esp)
  407859:	72 25                	jb     407880 <___umoddi3+0x130>
  40785b:	8b 44 24 04          	mov    0x4(%esp),%eax
  40785f:	29 c8                	sub    %ecx,%eax
  407861:	19 ee                	sbb    %ebp,%esi
  407863:	89 f9                	mov    %edi,%ecx
  407865:	89 f2                	mov    %esi,%edx
  407867:	d3 e8                	shr    %cl,%eax
  407869:	89 d9                	mov    %ebx,%ecx
  40786b:	d3 e2                	shl    %cl,%edx
  40786d:	89 f9                	mov    %edi,%ecx
  40786f:	d3 ee                	shr    %cl,%esi
  407871:	09 d0                	or     %edx,%eax
  407873:	89 f2                	mov    %esi,%edx
  407875:	83 c4 1c             	add    $0x1c,%esp
  407878:	5b                   	pop    %ebx
  407879:	5e                   	pop    %esi
  40787a:	5f                   	pop    %edi
  40787b:	5d                   	pop    %ebp
  40787c:	c3                   	ret    
  40787d:	8d 76 00             	lea    0x0(%esi),%esi
  407880:	39 d6                	cmp    %edx,%esi
  407882:	75 d7                	jne    40785b <___umoddi3+0x10b>
  407884:	89 d5                	mov    %edx,%ebp
  407886:	89 c1                	mov    %eax,%ecx
  407888:	2b 4c 24 08          	sub    0x8(%esp),%ecx
  40788c:	1b 2c 24             	sbb    (%esp),%ebp
  40788f:	eb ca                	jmp    40785b <___umoddi3+0x10b>
  407891:	3b 44 24 08          	cmp    0x8(%esp),%eax
  407895:	0f 82 12 ff ff ff    	jb     4077ad <___umoddi3+0x5d>
  40789b:	e9 1d ff ff ff       	jmp    4077bd <___umoddi3+0x6d>

004078a0 <___udivdi3>:
  4078a0:	55                   	push   %ebp
  4078a1:	57                   	push   %edi
  4078a2:	56                   	push   %esi
  4078a3:	53                   	push   %ebx
  4078a4:	83 ec 14             	sub    $0x14,%esp
  4078a7:	8b 74 24 34          	mov    0x34(%esp),%esi
  4078ab:	8b 7c 24 28          	mov    0x28(%esp),%edi
  4078af:	8b 6c 24 2c          	mov    0x2c(%esp),%ebp
  4078b3:	8b 4c 24 30          	mov    0x30(%esp),%ecx
  4078b7:	85 f6                	test   %esi,%esi
  4078b9:	89 3c 24             	mov    %edi,(%esp)
  4078bc:	89 e8                	mov    %ebp,%eax
  4078be:	89 ca                	mov    %ecx,%edx
  4078c0:	75 2e                	jne    4078f0 <___udivdi3+0x50>
  4078c2:	39 e9                	cmp    %ebp,%ecx
  4078c4:	77 5c                	ja     407922 <___udivdi3+0x82>
  4078c6:	85 c9                	test   %ecx,%ecx
  4078c8:	89 cb                	mov    %ecx,%ebx
  4078ca:	75 0b                	jne    4078d7 <___udivdi3+0x37>
  4078cc:	b8 01 00 00 00       	mov    $0x1,%eax
  4078d1:	31 d2                	xor    %edx,%edx
  4078d3:	f7 f1                	div    %ecx
  4078d5:	89 c3                	mov    %eax,%ebx
  4078d7:	89 e8                	mov    %ebp,%eax
  4078d9:	31 d2                	xor    %edx,%edx
  4078db:	f7 f3                	div    %ebx
  4078dd:	89 c5                	mov    %eax,%ebp
  4078df:	89 f8                	mov    %edi,%eax
  4078e1:	f7 f3                	div    %ebx
  4078e3:	89 ea                	mov    %ebp,%edx
  4078e5:	83 c4 14             	add    $0x14,%esp
  4078e8:	5b                   	pop    %ebx
  4078e9:	5e                   	pop    %esi
  4078ea:	5f                   	pop    %edi
  4078eb:	5d                   	pop    %ebp
  4078ec:	c3                   	ret    
  4078ed:	8d 76 00             	lea    0x0(%esi),%esi
  4078f0:	39 ee                	cmp    %ebp,%esi
  4078f2:	77 22                	ja     407916 <___udivdi3+0x76>
  4078f4:	0f bd de             	bsr    %esi,%ebx
  4078f7:	83 f3 1f             	xor    $0x1f,%ebx
  4078fa:	75 36                	jne    407932 <___udivdi3+0x92>
  4078fc:	3b 0c 24             	cmp    (%esp),%ecx
  4078ff:	ba 00 00 00 00       	mov    $0x0,%edx
  407904:	0f 86 86 00 00 00    	jbe    407990 <___udivdi3+0xf0>
  40790a:	39 ee                	cmp    %ebp,%esi
  40790c:	0f 82 7e 00 00 00    	jb     407990 <___udivdi3+0xf0>
  407912:	31 c0                	xor    %eax,%eax
  407914:	eb cf                	jmp    4078e5 <___udivdi3+0x45>
  407916:	31 d2                	xor    %edx,%edx
  407918:	31 c0                	xor    %eax,%eax
  40791a:	83 c4 14             	add    $0x14,%esp
  40791d:	5b                   	pop    %ebx
  40791e:	5e                   	pop    %esi
  40791f:	5f                   	pop    %edi
  407920:	5d                   	pop    %ebp
  407921:	c3                   	ret    
  407922:	89 f8                	mov    %edi,%eax
  407924:	89 ea                	mov    %ebp,%edx
  407926:	f7 f1                	div    %ecx
  407928:	31 d2                	xor    %edx,%edx
  40792a:	83 c4 14             	add    $0x14,%esp
  40792d:	5b                   	pop    %ebx
  40792e:	5e                   	pop    %esi
  40792f:	5f                   	pop    %edi
  407930:	5d                   	pop    %ebp
  407931:	c3                   	ret    
  407932:	bf 20 00 00 00       	mov    $0x20,%edi
  407937:	89 d9                	mov    %ebx,%ecx
  407939:	29 df                	sub    %ebx,%edi
  40793b:	89 d5                	mov    %edx,%ebp
  40793d:	d3 e6                	shl    %cl,%esi
  40793f:	89 f9                	mov    %edi,%ecx
  407941:	d3 ed                	shr    %cl,%ebp
  407943:	89 d9                	mov    %ebx,%ecx
  407945:	d3 e2                	shl    %cl,%edx
  407947:	09 f5                	or     %esi,%ebp
  407949:	89 54 24 04          	mov    %edx,0x4(%esp)
  40794d:	8b 14 24             	mov    (%esp),%edx
  407950:	89 f9                	mov    %edi,%ecx
  407952:	89 c6                	mov    %eax,%esi
  407954:	d3 ee                	shr    %cl,%esi
  407956:	89 d9                	mov    %ebx,%ecx
  407958:	d3 e0                	shl    %cl,%eax
  40795a:	89 f9                	mov    %edi,%ecx
  40795c:	d3 ea                	shr    %cl,%edx
  40795e:	89 d7                	mov    %edx,%edi
  407960:	89 f2                	mov    %esi,%edx
  407962:	09 c7                	or     %eax,%edi
  407964:	89 f8                	mov    %edi,%eax
  407966:	f7 f5                	div    %ebp
  407968:	89 d6                	mov    %edx,%esi
  40796a:	89 c7                	mov    %eax,%edi
  40796c:	f7 64 24 04          	mull   0x4(%esp)
  407970:	39 d6                	cmp    %edx,%esi
  407972:	72 2c                	jb     4079a0 <___udivdi3+0x100>
  407974:	8b 2c 24             	mov    (%esp),%ebp
  407977:	89 d9                	mov    %ebx,%ecx
  407979:	d3 e5                	shl    %cl,%ebp
  40797b:	39 c5                	cmp    %eax,%ebp
  40797d:	73 04                	jae    407983 <___udivdi3+0xe3>
  40797f:	39 d6                	cmp    %edx,%esi
  407981:	74 1d                	je     4079a0 <___udivdi3+0x100>
  407983:	89 f8                	mov    %edi,%eax
  407985:	31 d2                	xor    %edx,%edx
  407987:	e9 59 ff ff ff       	jmp    4078e5 <___udivdi3+0x45>
  40798c:	8d 74 26 00          	lea    0x0(%esi,%eiz,1),%esi
  407990:	b8 01 00 00 00       	mov    $0x1,%eax
  407995:	e9 4b ff ff ff       	jmp    4078e5 <___udivdi3+0x45>
  40799a:	8d b6 00 00 00 00    	lea    0x0(%esi),%esi
  4079a0:	8d 47 ff             	lea    -0x1(%edi),%eax
  4079a3:	31 d2                	xor    %edx,%edx
  4079a5:	83 c4 14             	add    $0x14,%esp
  4079a8:	5b                   	pop    %ebx
  4079a9:	5e                   	pop    %esi
  4079aa:	5f                   	pop    %edi
  4079ab:	5d                   	pop    %ebp
  4079ac:	c3                   	ret    
  4079ad:	90                   	nop
  4079ae:	90                   	nop
  4079af:	90                   	nop

004079b0 <___chkstk_ms>:
  4079b0:	51                   	push   %ecx
  4079b1:	50                   	push   %eax
  4079b2:	3d 00 10 00 00       	cmp    $0x1000,%eax
  4079b7:	8d 4c 24 0c          	lea    0xc(%esp),%ecx
  4079bb:	72 15                	jb     4079d2 <___chkstk_ms+0x22>
  4079bd:	81 e9 00 10 00 00    	sub    $0x1000,%ecx
  4079c3:	83 09 00             	orl    $0x0,(%ecx)
  4079c6:	2d 00 10 00 00       	sub    $0x1000,%eax
  4079cb:	3d 00 10 00 00       	cmp    $0x1000,%eax
  4079d0:	77 eb                	ja     4079bd <___chkstk_ms+0xd>
  4079d2:	29 c1                	sub    %eax,%ecx
  4079d4:	83 09 00             	orl    $0x0,(%ecx)
  4079d7:	58                   	pop    %eax
  4079d8:	59                   	pop    %ecx
  4079d9:	c3                   	ret    
  4079da:	90                   	nop
  4079db:	90                   	nop

004079dc <.text>:
  4079dc:	66 90                	xchg   %ax,%ax
  4079de:	66 90                	xchg   %ax,%ax

004079e0 <_is_glob_pattern>:
  4079e0:	57                   	push   %edi
  4079e1:	85 c0                	test   %eax,%eax
  4079e3:	56                   	push   %esi
  4079e4:	53                   	push   %ebx
  4079e5:	89 c3                	mov    %eax,%ebx
  4079e7:	74 44                	je     407a2d <_is_glob_pattern+0x4d>
  4079e9:	0f be 0b             	movsbl (%ebx),%ecx
  4079ec:	89 d6                	mov    %edx,%esi
  4079ee:	31 c0                	xor    %eax,%eax
  4079f0:	83 e6 20             	and    $0x20,%esi
  4079f3:	8d 53 01             	lea    0x1(%ebx),%edx
  4079f6:	85 c9                	test   %ecx,%ecx
  4079f8:	74 33                	je     407a2d <_is_glob_pattern+0x4d>
  4079fa:	8d b6 00 00 00 00    	lea    0x0(%esi),%esi
  407a00:	85 f6                	test   %esi,%esi
  407a02:	89 f7                	mov    %esi,%edi
  407a04:	75 05                	jne    407a0b <_is_glob_pattern+0x2b>
  407a06:	83 f9 7f             	cmp    $0x7f,%ecx
  407a09:	74 45                	je     407a50 <_is_glob_pattern+0x70>
  407a0b:	85 c0                	test   %eax,%eax
  407a0d:	75 26                	jne    407a35 <_is_glob_pattern+0x55>
  407a0f:	83 f9 3f             	cmp    $0x3f,%ecx
  407a12:	74 51                	je     407a65 <_is_glob_pattern+0x85>
  407a14:	83 f9 2a             	cmp    $0x2a,%ecx
  407a17:	74 4c                	je     407a65 <_is_glob_pattern+0x85>
  407a19:	31 c0                	xor    %eax,%eax
  407a1b:	83 f9 5b             	cmp    $0x5b,%ecx
  407a1e:	0f 94 c0             	sete   %al
  407a21:	89 d3                	mov    %edx,%ebx
  407a23:	0f be 0b             	movsbl (%ebx),%ecx
  407a26:	8d 53 01             	lea    0x1(%ebx),%edx
  407a29:	85 c9                	test   %ecx,%ecx
  407a2b:	75 d3                	jne    407a00 <_is_glob_pattern+0x20>
  407a2d:	31 ff                	xor    %edi,%edi
  407a2f:	89 f8                	mov    %edi,%eax
  407a31:	5b                   	pop    %ebx
  407a32:	5e                   	pop    %esi
  407a33:	5f                   	pop    %edi
  407a34:	c3                   	ret    
  407a35:	83 f9 5d             	cmp    $0x5d,%ecx
  407a38:	74 26                	je     407a60 <_is_glob_pattern+0x80>
  407a3a:	83 f9 21             	cmp    $0x21,%ecx
  407a3d:	89 d3                	mov    %edx,%ebx
  407a3f:	0f 95 c1             	setne  %cl
  407a42:	0f b6 c9             	movzbl %cl,%ecx
  407a45:	01 c8                	add    %ecx,%eax
  407a47:	eb da                	jmp    407a23 <_is_glob_pattern+0x43>
  407a49:	8d b4 26 00 00 00 00 	lea    0x0(%esi,%eiz,1),%esi
  407a50:	80 7b 01 00          	cmpb   $0x0,0x1(%ebx)
  407a54:	8d 53 02             	lea    0x2(%ebx),%edx
  407a57:	75 b2                	jne    407a0b <_is_glob_pattern+0x2b>
  407a59:	eb d4                	jmp    407a2f <_is_glob_pattern+0x4f>
  407a5b:	90                   	nop
  407a5c:	8d 74 26 00          	lea    0x0(%esi,%eiz,1),%esi
  407a60:	83 f8 01             	cmp    $0x1,%eax
  407a63:	7e d5                	jle    407a3a <_is_glob_pattern+0x5a>
  407a65:	bf 01 00 00 00       	mov    $0x1,%edi
  407a6a:	89 f8                	mov    %edi,%eax
  407a6c:	5b                   	pop    %ebx
  407a6d:	5e                   	pop    %esi
  407a6e:	5f                   	pop    %edi
  407a6f:	c3                   	ret    

00407a70 <_glob_in_set>:
  407a70:	55                   	push   %ebp
  407a71:	57                   	push   %edi
  407a72:	56                   	push   %esi
  407a73:	53                   	push   %ebx
  407a74:	83 ec 04             	sub    $0x4,%esp
  407a77:	0f b6 18             	movzbl (%eax),%ebx
  407a7a:	89 0c 24             	mov    %ecx,(%esp)
  407a7d:	0f be fb             	movsbl %bl,%edi
  407a80:	83 ff 5d             	cmp    $0x5d,%edi
  407a83:	0f 84 d7 00 00 00    	je     407b60 <_glob_in_set+0xf0>
  407a89:	83 ff 2d             	cmp    $0x2d,%edi
  407a8c:	89 d9                	mov    %ebx,%ecx
  407a8e:	75 2e                	jne    407abe <_glob_in_set+0x4e>
  407a90:	e9 cb 00 00 00       	jmp    407b60 <_glob_in_set+0xf0>
  407a95:	85 db                	test   %ebx,%ebx
  407a97:	0f 84 b3 00 00 00    	je     407b50 <_glob_in_set+0xe0>
  407a9d:	83 fb 5c             	cmp    $0x5c,%ebx
  407aa0:	0f 84 aa 00 00 00    	je     407b50 <_glob_in_set+0xe0>
  407aa6:	83 fb 2f             	cmp    $0x2f,%ebx
  407aa9:	0f 84 a1 00 00 00    	je     407b50 <_glob_in_set+0xe0>
  407aaf:	89 df                	mov    %ebx,%edi
  407ab1:	0f b6 0e             	movzbl (%esi),%ecx
  407ab4:	89 f0                	mov    %esi,%eax
  407ab6:	39 d7                	cmp    %edx,%edi
  407ab8:	0f 84 ca 00 00 00    	je     407b88 <_glob_in_set+0x118>
  407abe:	0f be d9             	movsbl %cl,%ebx
  407ac1:	83 fb 5d             	cmp    $0x5d,%ebx
  407ac4:	8d 70 01             	lea    0x1(%eax),%esi
  407ac7:	0f 84 83 00 00 00    	je     407b50 <_glob_in_set+0xe0>
  407acd:	83 fb 2d             	cmp    $0x2d,%ebx
  407ad0:	75 c3                	jne    407a95 <_glob_in_set+0x25>
  407ad2:	0f b6 58 01          	movzbl 0x1(%eax),%ebx
  407ad6:	80 fb 5d             	cmp    $0x5d,%bl
  407ad9:	0f 84 95 00 00 00    	je     407b74 <_glob_in_set+0x104>
  407adf:	0f be eb             	movsbl %bl,%ebp
  407ae2:	85 ed                	test   %ebp,%ebp
  407ae4:	89 eb                	mov    %ebp,%ebx
  407ae6:	74 68                	je     407b50 <_glob_in_set+0xe0>
  407ae8:	39 ef                	cmp    %ebp,%edi
  407aea:	8d 70 02             	lea    0x2(%eax),%esi
  407aed:	0f 8d 85 01 00 00    	jge    407c78 <_glob_in_set+0x208>
  407af3:	39 d7                	cmp    %edx,%edi
  407af5:	8d 47 01             	lea    0x1(%edi),%eax
  407af8:	75 14                	jne    407b0e <_glob_in_set+0x9e>
  407afa:	e9 c1 00 00 00       	jmp    407bc0 <_glob_in_set+0x150>
  407aff:	90                   	nop
  407b00:	83 c0 01             	add    $0x1,%eax
  407b03:	8d 78 ff             	lea    -0x1(%eax),%edi
  407b06:	39 fa                	cmp    %edi,%edx
  407b08:	0f 84 b2 00 00 00    	je     407bc0 <_glob_in_set+0x150>
  407b0e:	39 c5                	cmp    %eax,%ebp
  407b10:	7f ee                	jg     407b00 <_glob_in_set+0x90>
  407b12:	39 c5                	cmp    %eax,%ebp
  407b14:	7d 87                	jge    407a9d <_glob_in_set+0x2d>
  407b16:	39 c2                	cmp    %eax,%edx
  407b18:	74 15                	je     407b2f <_glob_in_set+0xbf>
  407b1a:	83 c5 01             	add    $0x1,%ebp
  407b1d:	8d 76 00             	lea    0x0(%esi),%esi
  407b20:	39 e8                	cmp    %ebp,%eax
  407b22:	0f 84 75 ff ff ff    	je     407a9d <_glob_in_set+0x2d>
  407b28:	83 e8 01             	sub    $0x1,%eax
  407b2b:	39 c2                	cmp    %eax,%edx
  407b2d:	75 f1                	jne    407b20 <_glob_in_set+0xb0>
  407b2f:	8b 0c 24             	mov    (%esp),%ecx
  407b32:	83 e1 20             	and    $0x20,%ecx
  407b35:	0f b6 06             	movzbl (%esi),%eax
  407b38:	3c 5d                	cmp    $0x5d,%al
  407b3a:	0f 84 a3 00 00 00    	je     407be3 <_glob_in_set+0x173>
  407b40:	3c 7f                	cmp    $0x7f,%al
  407b42:	0f 84 bd 00 00 00    	je     407c05 <_glob_in_set+0x195>
  407b48:	83 c6 01             	add    $0x1,%esi
  407b4b:	84 c0                	test   %al,%al
  407b4d:	75 e6                	jne    407b35 <_glob_in_set+0xc5>
  407b4f:	90                   	nop
  407b50:	83 c4 04             	add    $0x4,%esp
  407b53:	31 c0                	xor    %eax,%eax
  407b55:	5b                   	pop    %ebx
  407b56:	5e                   	pop    %esi
  407b57:	5f                   	pop    %edi
  407b58:	5d                   	pop    %ebp
  407b59:	c3                   	ret    
  407b5a:	8d b6 00 00 00 00    	lea    0x0(%esi),%esi
  407b60:	39 d7                	cmp    %edx,%edi
  407b62:	0f 84 b8 00 00 00    	je     407c20 <_glob_in_set+0x1b0>
  407b68:	0f b6 48 01          	movzbl 0x1(%eax),%ecx
  407b6c:	83 c0 01             	add    $0x1,%eax
  407b6f:	e9 4a ff ff ff       	jmp    407abe <_glob_in_set+0x4e>
  407b74:	bf 2d 00 00 00       	mov    $0x2d,%edi
  407b79:	89 f0                	mov    %esi,%eax
  407b7b:	39 d7                	cmp    %edx,%edi
  407b7d:	b9 5d 00 00 00       	mov    $0x5d,%ecx
  407b82:	0f 85 36 ff ff ff    	jne    407abe <_glob_in_set+0x4e>
  407b88:	8b 14 24             	mov    (%esp),%edx
  407b8b:	83 e2 20             	and    $0x20,%edx
  407b8e:	eb 0a                	jmp    407b9a <_glob_in_set+0x12a>
  407b90:	83 c0 01             	add    $0x1,%eax
  407b93:	84 c9                	test   %cl,%cl
  407b95:	74 b9                	je     407b50 <_glob_in_set+0xe0>
  407b97:	0f b6 08             	movzbl (%eax),%ecx
  407b9a:	80 f9 5d             	cmp    $0x5d,%cl
  407b9d:	0f 84 c2 00 00 00    	je     407c65 <_glob_in_set+0x1f5>
  407ba3:	80 f9 7f             	cmp    $0x7f,%cl
  407ba6:	75 e8                	jne    407b90 <_glob_in_set+0x120>
  407ba8:	85 d2                	test   %edx,%edx
  407baa:	0f 85 c0 00 00 00    	jne    407c70 <_glob_in_set+0x200>
  407bb0:	0f b6 48 01          	movzbl 0x1(%eax),%ecx
  407bb4:	83 c0 01             	add    $0x1,%eax
  407bb7:	eb d7                	jmp    407b90 <_glob_in_set+0x120>
  407bb9:	8d b4 26 00 00 00 00 	lea    0x0(%esi,%eiz,1),%esi
  407bc0:	8b 0c 24             	mov    (%esp),%ecx
  407bc3:	83 e1 20             	and    $0x20,%ecx
  407bc6:	0f b6 06             	movzbl (%esi),%eax
  407bc9:	3c 5d                	cmp    $0x5d,%al
  407bcb:	74 16                	je     407be3 <_glob_in_set+0x173>
  407bcd:	3c 7f                	cmp    $0x7f,%al
  407bcf:	74 1f                	je     407bf0 <_glob_in_set+0x180>
  407bd1:	83 c6 01             	add    $0x1,%esi
  407bd4:	84 c0                	test   %al,%al
  407bd6:	0f 84 74 ff ff ff    	je     407b50 <_glob_in_set+0xe0>
  407bdc:	0f b6 06             	movzbl (%esi),%eax
  407bdf:	3c 5d                	cmp    $0x5d,%al
  407be1:	75 ea                	jne    407bcd <_glob_in_set+0x15d>
  407be3:	83 c4 04             	add    $0x4,%esp
  407be6:	5b                   	pop    %ebx
  407be7:	8d 46 01             	lea    0x1(%esi),%eax
  407bea:	5e                   	pop    %esi
  407beb:	5f                   	pop    %edi
  407bec:	5d                   	pop    %ebp
  407bed:	c3                   	ret    
  407bee:	66 90                	xchg   %ax,%ax
  407bf0:	85 c9                	test   %ecx,%ecx
  407bf2:	75 0c                	jne    407c00 <_glob_in_set+0x190>
  407bf4:	0f b6 46 01          	movzbl 0x1(%esi),%eax
  407bf8:	83 c6 01             	add    $0x1,%esi
  407bfb:	eb d4                	jmp    407bd1 <_glob_in_set+0x161>
  407bfd:	8d 76 00             	lea    0x0(%esi),%esi
  407c00:	83 c6 01             	add    $0x1,%esi
  407c03:	eb c1                	jmp    407bc6 <_glob_in_set+0x156>
  407c05:	85 c9                	test   %ecx,%ecx
  407c07:	75 0c                	jne    407c15 <_glob_in_set+0x1a5>
  407c09:	0f b6 46 01          	movzbl 0x1(%esi),%eax
  407c0d:	83 c6 01             	add    $0x1,%esi
  407c10:	e9 33 ff ff ff       	jmp    407b48 <_glob_in_set+0xd8>
  407c15:	83 c6 01             	add    $0x1,%esi
  407c18:	e9 18 ff ff ff       	jmp    407b35 <_glob_in_set+0xc5>
  407c1d:	8d 76 00             	lea    0x0(%esi),%esi
  407c20:	8b 0c 24             	mov    (%esp),%ecx
  407c23:	83 c0 01             	add    $0x1,%eax
  407c26:	83 e1 20             	and    $0x20,%ecx
  407c29:	8d b4 26 00 00 00 00 	lea    0x0(%esi,%eiz,1),%esi
  407c30:	0f b6 10             	movzbl (%eax),%edx
  407c33:	80 fa 5d             	cmp    $0x5d,%dl
  407c36:	74 2d                	je     407c65 <_glob_in_set+0x1f5>
  407c38:	80 fa 7f             	cmp    $0x7f,%dl
  407c3b:	74 13                	je     407c50 <_glob_in_set+0x1e0>
  407c3d:	83 c0 01             	add    $0x1,%eax
  407c40:	84 d2                	test   %dl,%dl
  407c42:	75 ec                	jne    407c30 <_glob_in_set+0x1c0>
  407c44:	e9 07 ff ff ff       	jmp    407b50 <_glob_in_set+0xe0>
  407c49:	8d b4 26 00 00 00 00 	lea    0x0(%esi,%eiz,1),%esi
  407c50:	85 c9                	test   %ecx,%ecx
  407c52:	75 0c                	jne    407c60 <_glob_in_set+0x1f0>
  407c54:	0f b6 50 01          	movzbl 0x1(%eax),%edx
  407c58:	83 c0 01             	add    $0x1,%eax
  407c5b:	eb e0                	jmp    407c3d <_glob_in_set+0x1cd>
  407c5d:	8d 76 00             	lea    0x0(%esi),%esi
  407c60:	83 c0 01             	add    $0x1,%eax
  407c63:	eb cb                	jmp    407c30 <_glob_in_set+0x1c0>
  407c65:	83 c4 04             	add    $0x4,%esp
  407c68:	83 c0 01             	add    $0x1,%eax
  407c6b:	5b                   	pop    %ebx
  407c6c:	5e                   	pop    %esi
  407c6d:	5f                   	pop    %edi
  407c6e:	5d                   	pop    %ebp
  407c6f:	c3                   	ret    
  407c70:	83 c0 01             	add    $0x1,%eax
  407c73:	e9 1f ff ff ff       	jmp    407b97 <_glob_in_set+0x127>
  407c78:	89 f8                	mov    %edi,%eax
  407c7a:	e9 93 fe ff ff       	jmp    407b12 <_glob_in_set+0xa2>
  407c7f:	90                   	nop

00407c80 <_glob_initialise>:
  407c80:	55                   	push   %ebp
  407c81:	57                   	push   %edi
  407c82:	56                   	push   %esi
  407c83:	89 c6                	mov    %eax,%esi
  407c85:	53                   	push   %ebx
  407c86:	83 ec 1c             	sub    $0x1c,%esp
  407c89:	85 c0                	test   %eax,%eax
  407c8b:	74 47                	je     407cd4 <_glob_initialise+0x54>
  407c8d:	8b 40 0c             	mov    0xc(%eax),%eax
  407c90:	8d 78 01             	lea    0x1(%eax),%edi
  407c93:	8d 2c bd 00 00 00 00 	lea    0x0(,%edi,4),%ebp
  407c9a:	89 2c 24             	mov    %ebp,(%esp)
  407c9d:	e8 56 5d 00 00       	call   40d9f8 <_malloc>
  407ca2:	89 c3                	mov    %eax,%ebx
  407ca4:	85 db                	test   %ebx,%ebx
  407ca6:	89 46 08             	mov    %eax,0x8(%esi)
  407ca9:	b8 03 00 00 00       	mov    $0x3,%eax
  407cae:	74 26                	je     407cd6 <_glob_initialise+0x56>
  407cb0:	85 ff                	test   %edi,%edi
  407cb2:	89 fa                	mov    %edi,%edx
  407cb4:	c7 46 04 00 00 00 00 	movl   $0x0,0x4(%esi)
  407cbb:	7e 17                	jle    407cd4 <_glob_initialise+0x54>
  407cbd:	8d 4d fc             	lea    -0x4(%ebp),%ecx
  407cc0:	eb 03                	jmp    407cc5 <_glob_initialise+0x45>
  407cc2:	8b 5e 08             	mov    0x8(%esi),%ebx
  407cc5:	c7 04 0b 00 00 00 00 	movl   $0x0,(%ebx,%ecx,1)
  407ccc:	83 e9 04             	sub    $0x4,%ecx
  407ccf:	83 ea 01             	sub    $0x1,%edx
  407cd2:	75 ee                	jne    407cc2 <_glob_initialise+0x42>
  407cd4:	31 c0                	xor    %eax,%eax
  407cd6:	83 c4 1c             	add    $0x1c,%esp
  407cd9:	5b                   	pop    %ebx
  407cda:	5e                   	pop    %esi
  407cdb:	5f                   	pop    %edi
  407cdc:	5d                   	pop    %ebp
  407cdd:	c3                   	ret    
  407cde:	66 90                	xchg   %ax,%ax

00407ce0 <_glob_strcmp>:
  407ce0:	55                   	push   %ebp
  407ce1:	57                   	push   %edi
  407ce2:	89 c7                	mov    %eax,%edi
  407ce4:	56                   	push   %esi
  407ce5:	53                   	push   %ebx
  407ce6:	83 ec 2c             	sub    $0x2c,%esp
  407ce9:	80 3a 2e             	cmpb   $0x2e,(%edx)
  407cec:	89 4c 24 10          	mov    %ecx,0x10(%esp)
  407cf0:	0f 84 5a 01 00 00    	je     407e50 <_glob_strcmp+0x170>
  407cf6:	0f b6 08             	movzbl (%eax),%ecx
  407cf9:	8b 74 24 10          	mov    0x10(%esp),%esi
  407cfd:	8d 6a 01             	lea    0x1(%edx),%ebp
  407d00:	89 f0                	mov    %esi,%eax
  407d02:	83 e0 20             	and    $0x20,%eax
  407d05:	89 44 24 14          	mov    %eax,0x14(%esp)
  407d09:	89 f0                	mov    %esi,%eax
  407d0b:	25 00 40 00 00       	and    $0x4000,%eax
  407d10:	89 44 24 18          	mov    %eax,0x18(%esp)
  407d14:	0f be d1             	movsbl %cl,%edx
  407d17:	85 d2                	test   %edx,%edx
  407d19:	8d 75 ff             	lea    -0x1(%ebp),%esi
  407d1c:	8d 47 01             	lea    0x1(%edi),%eax
  407d1f:	0f 84 70 01 00 00    	je     407e95 <_glob_strcmp+0x1b5>
  407d25:	80 f9 3f             	cmp    $0x3f,%cl
  407d28:	0f 84 e4 00 00 00    	je     407e12 <_glob_strcmp+0x132>
  407d2e:	80 f9 5b             	cmp    $0x5b,%cl
  407d31:	0f 84 ab 00 00 00    	je     407de2 <_glob_strcmp+0x102>
  407d37:	80 f9 2a             	cmp    $0x2a,%cl
  407d3a:	74 5c                	je     407d98 <_glob_strcmp+0xb8>
  407d3c:	8b 4c 24 14          	mov    0x14(%esp),%ecx
  407d40:	85 c9                	test   %ecx,%ecx
  407d42:	0f 84 d8 00 00 00    	je     407e20 <_glob_strcmp+0x140>
  407d48:	89 c7                	mov    %eax,%edi
  407d4a:	0f be 5d ff          	movsbl -0x1(%ebp),%ebx
  407d4e:	84 db                	test   %bl,%bl
  407d50:	0f 84 92 01 00 00    	je     407ee8 <_glob_strcmp+0x208>
  407d56:	8b 44 24 18          	mov    0x18(%esp),%eax
  407d5a:	85 c0                	test   %eax,%eax
  407d5c:	0f 85 de 00 00 00    	jne    407e40 <_glob_strcmp+0x160>
  407d62:	89 14 24             	mov    %edx,(%esp)
  407d65:	89 54 24 1c          	mov    %edx,0x1c(%esp)
  407d69:	e8 da 5c 00 00       	call   40da48 <_tolower>
  407d6e:	89 1c 24             	mov    %ebx,(%esp)
  407d71:	89 c6                	mov    %eax,%esi
  407d73:	e8 d0 5c 00 00       	call   40da48 <_tolower>
  407d78:	8b 54 24 1c          	mov    0x1c(%esp),%edx
  407d7c:	29 c6                	sub    %eax,%esi
  407d7e:	85 f6                	test   %esi,%esi
  407d80:	0f 84 81 00 00 00    	je     407e07 <_glob_strcmp+0x127>
  407d86:	89 d0                	mov    %edx,%eax
  407d88:	29 d8                	sub    %ebx,%eax
  407d8a:	8d b6 00 00 00 00    	lea    0x0(%esi),%esi
  407d90:	83 c4 2c             	add    $0x2c,%esp
  407d93:	5b                   	pop    %ebx
  407d94:	5e                   	pop    %esi
  407d95:	5f                   	pop    %edi
  407d96:	5d                   	pop    %ebp
  407d97:	c3                   	ret    
  407d98:	0f b6 57 01          	movzbl 0x1(%edi),%edx
  407d9c:	89 c3                	mov    %eax,%ebx
  407d9e:	80 fa 2a             	cmp    $0x2a,%dl
  407da1:	75 0b                	jne    407dae <_glob_strcmp+0xce>
  407da3:	83 c3 01             	add    $0x1,%ebx
  407da6:	0f b6 13             	movzbl (%ebx),%edx
  407da9:	80 fa 2a             	cmp    $0x2a,%dl
  407dac:	74 f5                	je     407da3 <_glob_strcmp+0xc3>
  407dae:	31 c0                	xor    %eax,%eax
  407db0:	84 d2                	test   %dl,%dl
  407db2:	74 dc                	je     407d90 <_glob_strcmp+0xb0>
  407db4:	8b 7c 24 10          	mov    0x10(%esp),%edi
  407db8:	81 cf 00 00 01 00    	or     $0x10000,%edi
  407dbe:	eb 09                	jmp    407dc9 <_glob_strcmp+0xe9>
  407dc0:	83 c6 01             	add    $0x1,%esi
  407dc3:	80 7e ff 00          	cmpb   $0x0,-0x1(%esi)
  407dc7:	74 c7                	je     407d90 <_glob_strcmp+0xb0>
  407dc9:	89 f9                	mov    %edi,%ecx
  407dcb:	89 f2                	mov    %esi,%edx
  407dcd:	89 d8                	mov    %ebx,%eax
  407dcf:	e8 0c ff ff ff       	call   407ce0 <_glob_strcmp>
  407dd4:	85 c0                	test   %eax,%eax
  407dd6:	75 e8                	jne    407dc0 <_glob_strcmp+0xe0>
  407dd8:	83 c4 2c             	add    $0x2c,%esp
  407ddb:	31 c0                	xor    %eax,%eax
  407ddd:	5b                   	pop    %ebx
  407dde:	5e                   	pop    %esi
  407ddf:	5f                   	pop    %edi
  407de0:	5d                   	pop    %ebp
  407de1:	c3                   	ret    
  407de2:	0f be 55 ff          	movsbl -0x1(%ebp),%edx
  407de6:	85 d2                	test   %edx,%edx
  407de8:	0f 84 0b 01 00 00    	je     407ef9 <_glob_strcmp+0x219>
  407dee:	80 7f 01 21          	cmpb   $0x21,0x1(%edi)
  407df2:	74 7c                	je     407e70 <_glob_strcmp+0x190>
  407df4:	8b 4c 24 10          	mov    0x10(%esp),%ecx
  407df8:	e8 73 fc ff ff       	call   407a70 <_glob_in_set>
  407dfd:	85 c0                	test   %eax,%eax
  407dff:	89 c7                	mov    %eax,%edi
  407e01:	0f 84 d7 00 00 00    	je     407ede <_glob_strcmp+0x1fe>
  407e07:	0f b6 0f             	movzbl (%edi),%ecx
  407e0a:	83 c5 01             	add    $0x1,%ebp
  407e0d:	e9 02 ff ff ff       	jmp    407d14 <_glob_strcmp+0x34>
  407e12:	80 7d ff 00          	cmpb   $0x0,-0x1(%ebp)
  407e16:	0f 84 d3 00 00 00    	je     407eef <_glob_strcmp+0x20f>
  407e1c:	89 c7                	mov    %eax,%edi
  407e1e:	eb e7                	jmp    407e07 <_glob_strcmp+0x127>
  407e20:	83 fa 7f             	cmp    $0x7f,%edx
  407e23:	0f 85 1f ff ff ff    	jne    407d48 <_glob_strcmp+0x68>
  407e29:	0f be 57 01          	movsbl 0x1(%edi),%edx
  407e2d:	83 c7 02             	add    $0x2,%edi
  407e30:	85 d2                	test   %edx,%edx
  407e32:	0f 85 12 ff ff ff    	jne    407d4a <_glob_strcmp+0x6a>
  407e38:	e9 0b ff ff ff       	jmp    407d48 <_glob_strcmp+0x68>
  407e3d:	8d 76 00             	lea    0x0(%esi),%esi
  407e40:	89 d6                	mov    %edx,%esi
  407e42:	29 de                	sub    %ebx,%esi
  407e44:	e9 35 ff ff ff       	jmp    407d7e <_glob_strcmp+0x9e>
  407e49:	8d b4 26 00 00 00 00 	lea    0x0(%esi,%eiz,1),%esi
  407e50:	0f be 00             	movsbl (%eax),%eax
  407e53:	3c 2e                	cmp    $0x2e,%al
  407e55:	74 32                	je     407e89 <_glob_strcmp+0x1a9>
  407e57:	89 c1                	mov    %eax,%ecx
  407e59:	83 e8 2e             	sub    $0x2e,%eax
  407e5c:	f7 44 24 10 00 00 01 	testl  $0x10000,0x10(%esp)
  407e63:	00 
  407e64:	0f 85 8f fe ff ff    	jne    407cf9 <_glob_strcmp+0x19>
  407e6a:	e9 21 ff ff ff       	jmp    407d90 <_glob_strcmp+0xb0>
  407e6f:	90                   	nop
  407e70:	8b 4c 24 10          	mov    0x10(%esp),%ecx
  407e74:	8d 5f 02             	lea    0x2(%edi),%ebx
  407e77:	89 d8                	mov    %ebx,%eax
  407e79:	e8 f2 fb ff ff       	call   407a70 <_glob_in_set>
  407e7e:	85 c0                	test   %eax,%eax
  407e80:	74 1d                	je     407e9f <_glob_strcmp+0x1bf>
  407e82:	89 df                	mov    %ebx,%edi
  407e84:	e9 7e ff ff ff       	jmp    407e07 <_glob_strcmp+0x127>
  407e89:	b9 2e 00 00 00       	mov    $0x2e,%ecx
  407e8e:	66 90                	xchg   %ax,%ax
  407e90:	e9 64 fe ff ff       	jmp    407cf9 <_glob_strcmp+0x19>
  407e95:	0f be 06             	movsbl (%esi),%eax
  407e98:	f7 d8                	neg    %eax
  407e9a:	e9 f1 fe ff ff       	jmp    407d90 <_glob_strcmp+0xb0>
  407e9f:	0f b6 47 02          	movzbl 0x2(%edi),%eax
  407ea3:	8b 54 24 14          	mov    0x14(%esp),%edx
  407ea7:	3c 5d                	cmp    $0x5d,%al
  407ea9:	75 0f                	jne    407eba <_glob_strcmp+0x1da>
  407eab:	eb 56                	jmp    407f03 <_glob_strcmp+0x223>
  407ead:	8d 76 00             	lea    0x0(%esi),%esi
  407eb0:	83 c3 01             	add    $0x1,%ebx
  407eb3:	84 c0                	test   %al,%al
  407eb5:	74 27                	je     407ede <_glob_strcmp+0x1fe>
  407eb7:	0f b6 03             	movzbl (%ebx),%eax
  407eba:	3c 5d                	cmp    $0x5d,%al
  407ebc:	74 16                	je     407ed4 <_glob_strcmp+0x1f4>
  407ebe:	3c 7f                	cmp    $0x7f,%al
  407ec0:	75 ee                	jne    407eb0 <_glob_strcmp+0x1d0>
  407ec2:	85 d2                	test   %edx,%edx
  407ec4:	75 09                	jne    407ecf <_glob_strcmp+0x1ef>
  407ec6:	0f b6 43 01          	movzbl 0x1(%ebx),%eax
  407eca:	83 c3 01             	add    $0x1,%ebx
  407ecd:	eb e1                	jmp    407eb0 <_glob_strcmp+0x1d0>
  407ecf:	83 c3 01             	add    $0x1,%ebx
  407ed2:	eb e3                	jmp    407eb7 <_glob_strcmp+0x1d7>
  407ed4:	83 c3 01             	add    $0x1,%ebx
  407ed7:	89 df                	mov    %ebx,%edi
  407ed9:	e9 29 ff ff ff       	jmp    407e07 <_glob_strcmp+0x127>
  407ede:	b8 5d 00 00 00       	mov    $0x5d,%eax
  407ee3:	e9 a8 fe ff ff       	jmp    407d90 <_glob_strcmp+0xb0>
  407ee8:	31 db                	xor    %ebx,%ebx
  407eea:	e9 97 fe ff ff       	jmp    407d86 <_glob_strcmp+0xa6>
  407eef:	b8 3f 00 00 00       	mov    $0x3f,%eax
  407ef4:	e9 97 fe ff ff       	jmp    407d90 <_glob_strcmp+0xb0>
  407ef9:	b8 5b 00 00 00       	mov    $0x5b,%eax
  407efe:	e9 8d fe ff ff       	jmp    407d90 <_glob_strcmp+0xb0>
  407f03:	8d 5f 03             	lea    0x3(%edi),%ebx
  407f06:	0f b6 47 03          	movzbl 0x3(%edi),%eax
  407f0a:	8b 54 24 14          	mov    0x14(%esp),%edx
  407f0e:	eb aa                	jmp    407eba <_glob_strcmp+0x1da>

00407f10 <_glob_registry.part.1>:
  407f10:	57                   	push   %edi
  407f11:	89 c7                	mov    %eax,%edi
  407f13:	56                   	push   %esi
  407f14:	53                   	push   %ebx
  407f15:	83 ec 10             	sub    $0x10,%esp
  407f18:	8b 40 04             	mov    0x4(%eax),%eax
  407f1b:	8b 4f 0c             	mov    0xc(%edi),%ecx
  407f1e:	85 c0                	test   %eax,%eax
  407f20:	8d 70 ff             	lea    -0x1(%eax),%esi
  407f23:	8d 1c 8d 00 00 00 00 	lea    0x0(,%ecx,4),%ebx
  407f2a:	7e 1d                	jle    407f49 <_glob_registry.part.1+0x39>
  407f2c:	8d 74 26 00          	lea    0x0(%esi,%eiz,1),%esi
  407f30:	8b 57 08             	mov    0x8(%edi),%edx
  407f33:	83 ee 01             	sub    $0x1,%esi
  407f36:	8b 14 1a             	mov    (%edx,%ebx,1),%edx
  407f39:	83 c3 04             	add    $0x4,%ebx
  407f3c:	89 14 24             	mov    %edx,(%esp)
  407f3f:	e8 bc 5a 00 00       	call   40da00 <_free>
  407f44:	83 fe ff             	cmp    $0xffffffff,%esi
  407f47:	75 e7                	jne    407f30 <_glob_registry.part.1+0x20>
  407f49:	8b 47 08             	mov    0x8(%edi),%eax
  407f4c:	89 04 24             	mov    %eax,(%esp)
  407f4f:	e8 ac 5a 00 00       	call   40da00 <_free>
  407f54:	83 c4 10             	add    $0x10,%esp
  407f57:	31 c0                	xor    %eax,%eax
  407f59:	5b                   	pop    %ebx
  407f5a:	5e                   	pop    %esi
  407f5b:	5f                   	pop    %edi
  407f5c:	c3                   	ret    
  407f5d:	8d 76 00             	lea    0x0(%esi),%esi

00407f60 <_glob_store_entry.part.2>:
  407f60:	57                   	push   %edi
  407f61:	56                   	push   %esi
  407f62:	89 c6                	mov    %eax,%esi
  407f64:	53                   	push   %ebx
  407f65:	89 d3                	mov    %edx,%ebx
  407f67:	83 ec 10             	sub    $0x10,%esp
  407f6a:	8b 52 04             	mov    0x4(%edx),%edx
  407f6d:	03 53 0c             	add    0xc(%ebx),%edx
  407f70:	8d 04 95 08 00 00 00 	lea    0x8(,%edx,4),%eax
  407f77:	89 44 24 04          	mov    %eax,0x4(%esp)
  407f7b:	8b 43 08             	mov    0x8(%ebx),%eax
  407f7e:	89 04 24             	mov    %eax,(%esp)
  407f81:	e8 ca 5a 00 00       	call   40da50 <_realloc>
  407f86:	85 c0                	test   %eax,%eax
  407f88:	89 c2                	mov    %eax,%edx
  407f8a:	74 29                	je     407fb5 <_glob_store_entry.part.2+0x55>
  407f8c:	8b 7b 04             	mov    0x4(%ebx),%edi
  407f8f:	89 43 08             	mov    %eax,0x8(%ebx)
  407f92:	8b 43 0c             	mov    0xc(%ebx),%eax
  407f95:	8d 4f 01             	lea    0x1(%edi),%ecx
  407f98:	01 c7                	add    %eax,%edi
  407f9a:	01 c8                	add    %ecx,%eax
  407f9c:	89 4b 04             	mov    %ecx,0x4(%ebx)
  407f9f:	89 34 ba             	mov    %esi,(%edx,%edi,4)
  407fa2:	8b 53 08             	mov    0x8(%ebx),%edx
  407fa5:	c7 04 82 00 00 00 00 	movl   $0x0,(%edx,%eax,4)
  407fac:	83 c4 10             	add    $0x10,%esp
  407faf:	31 c0                	xor    %eax,%eax
  407fb1:	5b                   	pop    %ebx
  407fb2:	5e                   	pop    %esi
  407fb3:	5f                   	pop    %edi
  407fb4:	c3                   	ret    
  407fb5:	83 c4 10             	add    $0x10,%esp
  407fb8:	b8 01 00 00 00       	mov    $0x1,%eax
  407fbd:	5b                   	pop    %ebx
  407fbe:	5e                   	pop    %esi
  407fbf:	5f                   	pop    %edi
  407fc0:	c3                   	ret    
  407fc1:	eb 0d                	jmp    407fd0 <_glob_store_entry>
  407fc3:	90                   	nop
  407fc4:	90                   	nop
  407fc5:	90                   	nop
  407fc6:	90                   	nop
  407fc7:	90                   	nop
  407fc8:	90                   	nop
  407fc9:	90                   	nop
  407fca:	90                   	nop
  407fcb:	90                   	nop
  407fcc:	90                   	nop
  407fcd:	90                   	nop
  407fce:	90                   	nop
  407fcf:	90                   	nop

00407fd0 <_glob_store_entry>:
  407fd0:	85 c0                	test   %eax,%eax
  407fd2:	75 0c                	jne    407fe0 <_glob_store_entry+0x10>
  407fd4:	b8 01 00 00 00       	mov    $0x1,%eax
  407fd9:	c3                   	ret    
  407fda:	8d b6 00 00 00 00    	lea    0x0(%esi),%esi
  407fe0:	85 d2                	test   %edx,%edx
  407fe2:	74 f0                	je     407fd4 <_glob_store_entry+0x4>
  407fe4:	e9 77 ff ff ff       	jmp    407f60 <_glob_store_entry.part.2>
  407fe9:	8d b4 26 00 00 00 00 	lea    0x0(%esi,%eiz,1),%esi

00407ff0 <_glob_store_collated_entries>:
  407ff0:	56                   	push   %esi
  407ff1:	89 d6                	mov    %edx,%esi
  407ff3:	53                   	push   %ebx
  407ff4:	89 c3                	mov    %eax,%ebx
  407ff6:	83 ec 14             	sub    $0x14,%esp
  407ff9:	8b 00                	mov    (%eax),%eax
  407ffb:	85 c0                	test   %eax,%eax
  407ffd:	74 05                	je     408004 <_glob_store_collated_entries+0x14>
  407fff:	e8 ec ff ff ff       	call   407ff0 <_glob_store_collated_entries>
  408004:	8b 43 08             	mov    0x8(%ebx),%eax
  408007:	89 f2                	mov    %esi,%edx
  408009:	e8 c2 ff ff ff       	call   407fd0 <_glob_store_entry>
  40800e:	8b 43 04             	mov    0x4(%ebx),%eax
  408011:	85 c0                	test   %eax,%eax
  408013:	74 07                	je     40801c <_glob_store_collated_entries+0x2c>
  408015:	89 f2                	mov    %esi,%edx
  408017:	e8 d4 ff ff ff       	call   407ff0 <_glob_store_collated_entries>
  40801c:	89 1c 24             	mov    %ebx,(%esp)
  40801f:	e8 dc 59 00 00       	call   40da00 <_free>
  408024:	83 c4 14             	add    $0x14,%esp
  408027:	5b                   	pop    %ebx
  408028:	5e                   	pop    %esi
  408029:	c3                   	ret    
  40802a:	8d b6 00 00 00 00    	lea    0x0(%esi),%esi

00408030 <_glob_match>:
  408030:	55                   	push   %ebp
  408031:	89 e5                	mov    %esp,%ebp
  408033:	57                   	push   %edi
  408034:	56                   	push   %esi
  408035:	53                   	push   %ebx
  408036:	89 c3                	mov    %eax,%ebx
  408038:	83 ec 6c             	sub    $0x6c,%esp
  40803b:	89 55 cc             	mov    %edx,-0x34(%ebp)
  40803e:	89 4d a4             	mov    %ecx,-0x5c(%ebp)
  408041:	89 04 24             	mov    %eax,(%esp)
  408044:	e8 cf 59 00 00       	call   40da18 <_strlen>
  408049:	8d 50 01             	lea    0x1(%eax),%edx
  40804c:	83 c0 10             	add    $0x10,%eax
  40804f:	83 e0 f0             	and    $0xfffffff0,%eax
  408052:	e8 59 f9 ff ff       	call   4079b0 <___chkstk_ms>
  408057:	29 c4                	sub    %eax,%esp
  408059:	8d 44 24 0c          	lea    0xc(%esp),%eax
  40805d:	89 54 24 08          	mov    %edx,0x8(%esp)
  408061:	89 5c 24 04          	mov    %ebx,0x4(%esp)
  408065:	89 04 24             	mov    %eax,(%esp)
  408068:	e8 d3 59 00 00       	call   40da40 <_memcpy>
  40806d:	89 04 24             	mov    %eax,(%esp)
  408070:	e8 4b 06 00 00       	call   4086c0 <___mingw_dirname>
  408075:	c7 45 e4 00 00 00 00 	movl   $0x0,-0x1c(%ebp)
  40807c:	89 45 b8             	mov    %eax,-0x48(%ebp)
  40807f:	8d 45 d8             	lea    -0x28(%ebp),%eax
  408082:	e8 f9 fb ff ff       	call   407c80 <_glob_initialise>
  408087:	85 c0                	test   %eax,%eax
  408089:	74 08                	je     408093 <_glob_match+0x63>
  40808b:	8d 65 f4             	lea    -0xc(%ebp),%esp
  40808e:	5b                   	pop    %ebx
  40808f:	5e                   	pop    %esi
  408090:	5f                   	pop    %edi
  408091:	5d                   	pop    %ebp
  408092:	c3                   	ret    
  408093:	8b 55 cc             	mov    -0x34(%ebp),%edx
  408096:	8b 45 b8             	mov    -0x48(%ebp),%eax
  408099:	e8 42 f9 ff ff       	call   4079e0 <_is_glob_pattern>
  40809e:	85 c0                	test   %eax,%eax
  4080a0:	0f 84 5a 02 00 00    	je     408300 <_glob_match+0x2d0>
  4080a6:	8b 55 cc             	mov    -0x34(%ebp),%edx
  4080a9:	8d 45 d8             	lea    -0x28(%ebp),%eax
  4080ac:	89 04 24             	mov    %eax,(%esp)
  4080af:	8b 4d a4             	mov    -0x5c(%ebp),%ecx
  4080b2:	8b 45 b8             	mov    -0x48(%ebp),%eax
  4080b5:	80 ce 80             	or     $0x80,%dh
  4080b8:	e8 73 ff ff ff       	call   408030 <_glob_match>
  4080bd:	85 c0                	test   %eax,%eax
  4080bf:	75 ca                	jne    40808b <_glob_match+0x5b>
  4080c1:	0f b6 43 01          	movzbl 0x1(%ebx),%eax
  4080c5:	3c 5c                	cmp    $0x5c,%al
  4080c7:	0f 84 5b 03 00 00    	je     408428 <_glob_match+0x3f8>
  4080cd:	3c 2f                	cmp    $0x2f,%al
  4080cf:	0f 84 53 03 00 00    	je     408428 <_glob_match+0x3f8>
  4080d5:	8b 75 b8             	mov    -0x48(%ebp),%esi
  4080d8:	bf 60 01 41 00       	mov    $0x410160,%edi
  4080dd:	b9 02 00 00 00       	mov    $0x2,%ecx
  4080e2:	f3 a6                	repz cmpsb %es:(%edi),%ds:(%esi)
  4080e4:	0f 85 3e 03 00 00    	jne    408428 <_glob_match+0x3f8>
  4080ea:	c6 45 a3 5c          	movb   $0x5c,-0x5d(%ebp)
  4080ee:	f6 45 cc 10          	testb  $0x10,-0x34(%ebp)
  4080f2:	89 5d c0             	mov    %ebx,-0x40(%ebp)
  4080f5:	c7 45 b8 00 00 00 00 	movl   $0x0,-0x48(%ebp)
  4080fc:	0f 85 33 04 00 00    	jne    408535 <_glob_match+0x505>
  408102:	8b 45 e0             	mov    -0x20(%ebp),%eax
  408105:	89 45 c8             	mov    %eax,-0x38(%ebp)
  408108:	8b 00                	mov    (%eax),%eax
  40810a:	85 c0                	test   %eax,%eax
  40810c:	0f 84 71 04 00 00    	je     408583 <_glob_match+0x553>
  408112:	8b 4d cc             	mov    -0x34(%ebp),%ecx
  408115:	c7 45 c4 02 00 00 00 	movl   $0x2,-0x3c(%ebp)
  40811c:	89 cf                	mov    %ecx,%edi
  40811e:	83 e7 04             	and    $0x4,%edi
  408121:	89 7d 98             	mov    %edi,-0x68(%ebp)
  408124:	89 cf                	mov    %ecx,%edi
  408126:	81 e7 00 80 00 00    	and    $0x8000,%edi
  40812c:	89 7d d0             	mov    %edi,-0x30(%ebp)
  40812f:	90                   	nop
  408130:	83 7d c4 01          	cmpl   $0x1,-0x3c(%ebp)
  408134:	0f 84 58 02 00 00    	je     408392 <_glob_match+0x362>
  40813a:	89 04 24             	mov    %eax,(%esp)
  40813d:	e8 ee 0a 00 00       	call   408c30 <___mingw_opendir>
  408142:	85 c0                	test   %eax,%eax
  408144:	89 45 d4             	mov    %eax,-0x2c(%ebp)
  408147:	0f 84 76 03 00 00    	je     4084c3 <_glob_match+0x493>
  40814d:	8b 45 b8             	mov    -0x48(%ebp),%eax
  408150:	85 c0                	test   %eax,%eax
  408152:	0f 84 bd 03 00 00    	je     408515 <_glob_match+0x4e5>
  408158:	8b 45 c8             	mov    -0x38(%ebp),%eax
  40815b:	8b 00                	mov    (%eax),%eax
  40815d:	89 04 24             	mov    %eax,(%esp)
  408160:	e8 b3 58 00 00       	call   40da18 <_strlen>
  408165:	89 45 b4             	mov    %eax,-0x4c(%ebp)
  408168:	8b 45 cc             	mov    -0x34(%ebp),%eax
  40816b:	c7 45 bc 00 00 00 00 	movl   $0x0,-0x44(%ebp)
  408172:	83 e0 40             	and    $0x40,%eax
  408175:	89 45 a8             	mov    %eax,-0x58(%ebp)
  408178:	8b 45 d4             	mov    -0x2c(%ebp),%eax
  40817b:	89 04 24             	mov    %eax,(%esp)
  40817e:	e8 4d 0c 00 00       	call   408dd0 <___mingw_readdir>
  408183:	85 c0                	test   %eax,%eax
  408185:	89 c6                	mov    %eax,%esi
  408187:	0f 84 e8 01 00 00    	je     408375 <_glob_match+0x345>
  40818d:	8b 45 d0             	mov    -0x30(%ebp),%eax
  408190:	85 c0                	test   %eax,%eax
  408192:	74 06                	je     40819a <_glob_match+0x16a>
  408194:	83 7e 08 10          	cmpl   $0x10,0x8(%esi)
  408198:	75 de                	jne    408178 <_glob_match+0x148>
  40819a:	8b 4d cc             	mov    -0x34(%ebp),%ecx
  40819d:	8d 5e 0c             	lea    0xc(%esi),%ebx
  4081a0:	8b 45 c0             	mov    -0x40(%ebp),%eax
  4081a3:	89 da                	mov    %ebx,%edx
  4081a5:	e8 36 fb ff ff       	call   407ce0 <_glob_strcmp>
  4081aa:	85 c0                	test   %eax,%eax
  4081ac:	75 ca                	jne    408178 <_glob_match+0x148>
  4081ae:	0f b7 56 06          	movzwl 0x6(%esi),%edx
  4081b2:	8b 4d b4             	mov    -0x4c(%ebp),%ecx
  4081b5:	89 65 b0             	mov    %esp,-0x50(%ebp)
  4081b8:	8d 44 11 11          	lea    0x11(%ecx,%edx,1),%eax
  4081bc:	83 e0 f0             	and    $0xfffffff0,%eax
  4081bf:	e8 ec f7 ff ff       	call   4079b0 <___chkstk_ms>
  4081c4:	29 c4                	sub    %eax,%esp
  4081c6:	31 c0                	xor    %eax,%eax
  4081c8:	8d 7c 24 0c          	lea    0xc(%esp),%edi
  4081cc:	85 c9                	test   %ecx,%ecx
  4081ce:	89 7d ac             	mov    %edi,-0x54(%ebp)
  4081d1:	0f 85 ed 01 00 00    	jne    4083c4 <_glob_match+0x394>
  4081d7:	83 c2 01             	add    $0x1,%edx
  4081da:	01 f8                	add    %edi,%eax
  4081dc:	89 54 24 08          	mov    %edx,0x8(%esp)
  4081e0:	89 5c 24 04          	mov    %ebx,0x4(%esp)
  4081e4:	89 e3                	mov    %esp,%ebx
  4081e6:	89 04 24             	mov    %eax,(%esp)
  4081e9:	e8 52 58 00 00       	call   40da40 <_memcpy>
  4081ee:	89 3c 24             	mov    %edi,(%esp)
  4081f1:	e8 22 58 00 00       	call   40da18 <_strlen>
  4081f6:	83 c0 10             	add    $0x10,%eax
  4081f9:	83 e0 f0             	and    $0xfffffff0,%eax
  4081fc:	e8 af f7 ff ff       	call   4079b0 <___chkstk_ms>
  408201:	8b 75 ac             	mov    -0x54(%ebp),%esi
  408204:	29 c4                	sub    %eax,%esp
  408206:	8d 4c 24 0c          	lea    0xc(%esp),%ecx
  40820a:	89 ca                	mov    %ecx,%edx
  40820c:	eb 0f                	jmp    40821d <_glob_match+0x1ed>
  40820e:	66 90                	xchg   %ax,%ax
  408210:	83 c2 01             	add    $0x1,%edx
  408213:	83 c6 01             	add    $0x1,%esi
  408216:	84 c0                	test   %al,%al
  408218:	88 42 ff             	mov    %al,-0x1(%edx)
  40821b:	74 1b                	je     408238 <_glob_match+0x208>
  40821d:	0f b6 06             	movzbl (%esi),%eax
  408220:	3c 7f                	cmp    $0x7f,%al
  408222:	75 ec                	jne    408210 <_glob_match+0x1e0>
  408224:	0f b6 46 01          	movzbl 0x1(%esi),%eax
  408228:	83 c6 01             	add    $0x1,%esi
  40822b:	83 c2 01             	add    $0x1,%edx
  40822e:	83 c6 01             	add    $0x1,%esi
  408231:	84 c0                	test   %al,%al
  408233:	88 42 ff             	mov    %al,-0x1(%edx)
  408236:	75 e5                	jne    40821d <_glob_match+0x1ed>
  408238:	89 0c 24             	mov    %ecx,(%esp)
  40823b:	e8 58 61 00 00       	call   40e398 <_strdup>
  408240:	89 dc                	mov    %ebx,%esp
  408242:	85 c0                	test   %eax,%eax
  408244:	89 c6                	mov    %eax,%esi
  408246:	0f 84 c6 01 00 00    	je     408412 <_glob_match+0x3e2>
  40824c:	31 c0                	xor    %eax,%eax
  40824e:	83 7d c4 02          	cmpl   $0x2,-0x3c(%ebp)
  408252:	0f 94 c0             	sete   %al
  408255:	83 e8 01             	sub    $0x1,%eax
  408258:	21 45 c4             	and    %eax,-0x3c(%ebp)
  40825b:	8b 45 a8             	mov    -0x58(%ebp),%eax
  40825e:	85 c0                	test   %eax,%eax
  408260:	0f 85 9d 01 00 00    	jne    408403 <_glob_match+0x3d3>
  408266:	8b 5d bc             	mov    -0x44(%ebp),%ebx
  408269:	85 db                	test   %ebx,%ebx
  40826b:	0f 84 bb 02 00 00    	je     40852c <_glob_match+0x4fc>
  408271:	8b 7d cc             	mov    -0x34(%ebp),%edi
  408274:	81 e7 00 40 00 00    	and    $0x4000,%edi
  40827a:	eb 18                	jmp    408294 <_glob_match+0x264>
  40827c:	8d 74 26 00          	lea    0x0(%esi,%eiz,1),%esi
  408280:	e8 d3 57 00 00       	call   40da58 <_strcoll>
  408285:	8b 0b                	mov    (%ebx),%ecx
  408287:	8b 53 04             	mov    0x4(%ebx),%edx
  40828a:	85 c0                	test   %eax,%eax
  40828c:	7e 22                	jle    4082b0 <_glob_match+0x280>
  40828e:	85 d2                	test   %edx,%edx
  408290:	74 24                	je     4082b6 <_glob_match+0x286>
  408292:	89 d3                	mov    %edx,%ebx
  408294:	8b 43 08             	mov    0x8(%ebx),%eax
  408297:	85 ff                	test   %edi,%edi
  408299:	89 34 24             	mov    %esi,(%esp)
  40829c:	89 44 24 04          	mov    %eax,0x4(%esp)
  4082a0:	75 de                	jne    408280 <_glob_match+0x250>
  4082a2:	e8 f9 60 00 00       	call   40e3a0 <_stricoll>
  4082a7:	8b 0b                	mov    (%ebx),%ecx
  4082a9:	8b 53 04             	mov    0x4(%ebx),%edx
  4082ac:	85 c0                	test   %eax,%eax
  4082ae:	7f de                	jg     40828e <_glob_match+0x25e>
  4082b0:	89 ca                	mov    %ecx,%edx
  4082b2:	85 d2                	test   %edx,%edx
  4082b4:	75 dc                	jne    408292 <_glob_match+0x262>
  4082b6:	89 c1                	mov    %eax,%ecx
  4082b8:	89 4d ac             	mov    %ecx,-0x54(%ebp)
  4082bb:	c7 04 24 0c 00 00 00 	movl   $0xc,(%esp)
  4082c2:	e8 31 57 00 00       	call   40d9f8 <_malloc>
  4082c7:	85 c0                	test   %eax,%eax
  4082c9:	74 22                	je     4082ed <_glob_match+0x2bd>
  4082cb:	85 db                	test   %ebx,%ebx
  4082cd:	89 70 08             	mov    %esi,0x8(%eax)
  4082d0:	c7 40 04 00 00 00 00 	movl   $0x0,0x4(%eax)
  4082d7:	c7 00 00 00 00 00    	movl   $0x0,(%eax)
  4082dd:	74 0e                	je     4082ed <_glob_match+0x2bd>
  4082df:	8b 4d ac             	mov    -0x54(%ebp),%ecx
  4082e2:	85 c9                	test   %ecx,%ecx
  4082e4:	0f 8e 16 02 00 00    	jle    408500 <_glob_match+0x4d0>
  4082ea:	89 43 04             	mov    %eax,0x4(%ebx)
  4082ed:	8b 7d bc             	mov    -0x44(%ebp),%edi
  4082f0:	85 ff                	test   %edi,%edi
  4082f2:	0f 84 15 02 00 00    	je     40850d <_glob_match+0x4dd>
  4082f8:	8b 65 b0             	mov    -0x50(%ebp),%esp
  4082fb:	e9 78 fe ff ff       	jmp    408178 <_glob_match+0x148>
  408300:	8b 45 b8             	mov    -0x48(%ebp),%eax
  408303:	89 e6                	mov    %esp,%esi
  408305:	89 04 24             	mov    %eax,(%esp)
  408308:	e8 0b 57 00 00       	call   40da18 <_strlen>
  40830d:	83 c0 10             	add    $0x10,%eax
  408310:	83 e0 f0             	and    $0xfffffff0,%eax
  408313:	e8 98 f6 ff ff       	call   4079b0 <___chkstk_ms>
  408318:	8b 55 b8             	mov    -0x48(%ebp),%edx
  40831b:	29 c4                	sub    %eax,%esp
  40831d:	8d 7c 24 0c          	lea    0xc(%esp),%edi
  408321:	89 f9                	mov    %edi,%ecx
  408323:	eb 0d                	jmp    408332 <_glob_match+0x302>
  408325:	83 c1 01             	add    $0x1,%ecx
  408328:	83 c2 01             	add    $0x1,%edx
  40832b:	84 c0                	test   %al,%al
  40832d:	88 41 ff             	mov    %al,-0x1(%ecx)
  408330:	74 1b                	je     40834d <_glob_match+0x31d>
  408332:	0f b6 02             	movzbl (%edx),%eax
  408335:	3c 7f                	cmp    $0x7f,%al
  408337:	75 ec                	jne    408325 <_glob_match+0x2f5>
  408339:	0f b6 42 01          	movzbl 0x1(%edx),%eax
  40833d:	83 c2 01             	add    $0x1,%edx
  408340:	83 c1 01             	add    $0x1,%ecx
  408343:	83 c2 01             	add    $0x1,%edx
  408346:	84 c0                	test   %al,%al
  408348:	88 41 ff             	mov    %al,-0x1(%ecx)
  40834b:	75 e5                	jne    408332 <_glob_match+0x302>
  40834d:	89 3c 24             	mov    %edi,(%esp)
  408350:	e8 43 60 00 00       	call   40e398 <_strdup>
  408355:	89 f4                	mov    %esi,%esp
  408357:	89 c1                	mov    %eax,%ecx
  408359:	b8 01 00 00 00       	mov    $0x1,%eax
  40835e:	85 c9                	test   %ecx,%ecx
  408360:	0f 84 25 fd ff ff    	je     40808b <_glob_match+0x5b>
  408366:	8d 55 d8             	lea    -0x28(%ebp),%edx
  408369:	89 c8                	mov    %ecx,%eax
  40836b:	e8 f0 fb ff ff       	call   407f60 <_glob_store_entry.part.2>
  408370:	e9 48 fd ff ff       	jmp    4080bd <_glob_match+0x8d>
  408375:	8b 45 d4             	mov    -0x2c(%ebp),%eax
  408378:	89 04 24             	mov    %eax,(%esp)
  40837b:	e8 a0 0a 00 00       	call   408e20 <___mingw_closedir>
  408380:	8b 75 bc             	mov    -0x44(%ebp),%esi
  408383:	85 f6                	test   %esi,%esi
  408385:	74 0b                	je     408392 <_glob_match+0x362>
  408387:	8b 55 08             	mov    0x8(%ebp),%edx
  40838a:	8b 45 bc             	mov    -0x44(%ebp),%eax
  40838d:	e8 5e fc ff ff       	call   407ff0 <_glob_store_collated_entries>
  408392:	83 45 c8 04          	addl   $0x4,-0x38(%ebp)
  408396:	8b 7d c8             	mov    -0x38(%ebp),%edi
  408399:	8b 47 fc             	mov    -0x4(%edi),%eax
  40839c:	89 04 24             	mov    %eax,(%esp)
  40839f:	e8 5c 56 00 00       	call   40da00 <_free>
  4083a4:	8b 07                	mov    (%edi),%eax
  4083a6:	85 c0                	test   %eax,%eax
  4083a8:	0f 85 82 fd ff ff    	jne    408130 <_glob_match+0x100>
  4083ae:	8b 45 e0             	mov    -0x20(%ebp),%eax
  4083b1:	89 04 24             	mov    %eax,(%esp)
  4083b4:	e8 47 56 00 00       	call   40da00 <_free>
  4083b9:	8b 45 c4             	mov    -0x3c(%ebp),%eax
  4083bc:	8d 65 f4             	lea    -0xc(%ebp),%esp
  4083bf:	5b                   	pop    %ebx
  4083c0:	5e                   	pop    %esi
  4083c1:	5f                   	pop    %edi
  4083c2:	5d                   	pop    %ebp
  4083c3:	c3                   	ret    
  4083c4:	8b 45 c8             	mov    -0x38(%ebp),%eax
  4083c7:	8b 75 b4             	mov    -0x4c(%ebp),%esi
  4083ca:	89 55 9c             	mov    %edx,-0x64(%ebp)
  4083cd:	8b 00                	mov    (%eax),%eax
  4083cf:	89 74 24 08          	mov    %esi,0x8(%esp)
  4083d3:	89 3c 24             	mov    %edi,(%esp)
  4083d6:	89 44 24 04          	mov    %eax,0x4(%esp)
  4083da:	e8 61 56 00 00       	call   40da40 <_memcpy>
  4083df:	0f b6 44 34 0b       	movzbl 0xb(%esp,%esi,1),%eax
  4083e4:	8b 55 9c             	mov    -0x64(%ebp),%edx
  4083e7:	3c 5c                	cmp    $0x5c,%al
  4083e9:	74 35                	je     408420 <_glob_match+0x3f0>
  4083eb:	3c 2f                	cmp    $0x2f,%al
  4083ed:	74 31                	je     408420 <_glob_match+0x3f0>
  4083ef:	8b 75 b4             	mov    -0x4c(%ebp),%esi
  4083f2:	0f b6 4d a3          	movzbl -0x5d(%ebp),%ecx
  4083f6:	89 f0                	mov    %esi,%eax
  4083f8:	83 c0 01             	add    $0x1,%eax
  4083fb:	88 0c 37             	mov    %cl,(%edi,%esi,1)
  4083fe:	e9 d4 fd ff ff       	jmp    4081d7 <_glob_match+0x1a7>
  408403:	8b 55 08             	mov    0x8(%ebp),%edx
  408406:	89 f0                	mov    %esi,%eax
  408408:	e8 c3 fb ff ff       	call   407fd0 <_glob_store_entry>
  40840d:	e9 e6 fe ff ff       	jmp    4082f8 <_glob_match+0x2c8>
  408412:	c7 45 c4 03 00 00 00 	movl   $0x3,-0x3c(%ebp)
  408419:	e9 da fe ff ff       	jmp    4082f8 <_glob_match+0x2c8>
  40841e:	66 90                	xchg   %ax,%ax
  408420:	8b 45 b4             	mov    -0x4c(%ebp),%eax
  408423:	e9 af fd ff ff       	jmp    4081d7 <_glob_match+0x1a7>
  408428:	8b 45 b8             	mov    -0x48(%ebp),%eax
  40842b:	89 04 24             	mov    %eax,(%esp)
  40842e:	e8 e5 55 00 00       	call   40da18 <_strlen>
  408433:	01 d8                	add    %ebx,%eax
  408435:	39 c3                	cmp    %eax,%ebx
  408437:	0f 83 94 01 00 00    	jae    4085d1 <_glob_match+0x5a1>
  40843d:	0f b6 10             	movzbl (%eax),%edx
  408440:	80 fa 2f             	cmp    $0x2f,%dl
  408443:	0f 84 7d 01 00 00    	je     4085c6 <_glob_match+0x596>
  408449:	80 fa 5c             	cmp    $0x5c,%dl
  40844c:	75 1d                	jne    40846b <_glob_match+0x43b>
  40844e:	66 90                	xchg   %ax,%ax
  408450:	e9 71 01 00 00       	jmp    4085c6 <_glob_match+0x596>
  408455:	0f b6 40 ff          	movzbl -0x1(%eax),%eax
  408459:	3c 5c                	cmp    $0x5c,%al
  40845b:	0f 84 c0 00 00 00    	je     408521 <_glob_match+0x4f1>
  408461:	3c 2f                	cmp    $0x2f,%al
  408463:	0f 84 b8 00 00 00    	je     408521 <_glob_match+0x4f1>
  408469:	89 d0                	mov    %edx,%eax
  40846b:	8d 50 ff             	lea    -0x1(%eax),%edx
  40846e:	39 da                	cmp    %ebx,%edx
  408470:	75 e3                	jne    408455 <_glob_match+0x425>
  408472:	0f b6 40 ff          	movzbl -0x1(%eax),%eax
  408476:	89 55 c0             	mov    %edx,-0x40(%ebp)
  408479:	88 45 a3             	mov    %al,-0x5d(%ebp)
  40847c:	80 7d a3 5c          	cmpb   $0x5c,-0x5d(%ebp)
  408480:	0f 85 0c 01 00 00    	jne    408592 <_glob_match+0x562>
  408486:	8b 45 c0             	mov    -0x40(%ebp),%eax
  408489:	0f b6 4d a3          	movzbl -0x5d(%ebp),%ecx
  40848d:	83 c0 01             	add    $0x1,%eax
  408490:	0f b6 10             	movzbl (%eax),%edx
  408493:	80 fa 5c             	cmp    $0x5c,%dl
  408496:	75 0d                	jne    4084a5 <_glob_match+0x475>
  408498:	83 c0 01             	add    $0x1,%eax
  40849b:	89 d1                	mov    %edx,%ecx
  40849d:	0f b6 10             	movzbl (%eax),%edx
  4084a0:	80 fa 5c             	cmp    $0x5c,%dl
  4084a3:	74 f3                	je     408498 <_glob_match+0x468>
  4084a5:	80 fa 2f             	cmp    $0x2f,%dl
  4084a8:	74 ee                	je     408498 <_glob_match+0x468>
  4084aa:	89 45 c0             	mov    %eax,-0x40(%ebp)
  4084ad:	88 4d a3             	mov    %cl,-0x5d(%ebp)
  4084b0:	8b 45 b8             	mov    -0x48(%ebp),%eax
  4084b3:	85 c0                	test   %eax,%eax
  4084b5:	0f 85 47 fc ff ff    	jne    408102 <_glob_match+0xd2>
  4084bb:	8b 5d c0             	mov    -0x40(%ebp),%ebx
  4084be:	e9 2b fc ff ff       	jmp    4080ee <_glob_match+0xbe>
  4084c3:	8b 5d 98             	mov    -0x68(%ebp),%ebx
  4084c6:	85 db                	test   %ebx,%ebx
  4084c8:	75 28                	jne    4084f2 <_glob_match+0x4c2>
  4084ca:	8b 7d a4             	mov    -0x5c(%ebp),%edi
  4084cd:	85 ff                	test   %edi,%edi
  4084cf:	0f 84 bd fe ff ff    	je     408392 <_glob_match+0x362>
  4084d5:	e8 86 55 00 00       	call   40da60 <__errno>
  4084da:	8b 00                	mov    (%eax),%eax
  4084dc:	89 44 24 04          	mov    %eax,0x4(%esp)
  4084e0:	8b 45 c8             	mov    -0x38(%ebp),%eax
  4084e3:	8b 00                	mov    (%eax),%eax
  4084e5:	89 04 24             	mov    %eax,(%esp)
  4084e8:	ff d7                	call   *%edi
  4084ea:	85 c0                	test   %eax,%eax
  4084ec:	0f 84 a0 fe ff ff    	je     408392 <_glob_match+0x362>
  4084f2:	c7 45 c4 01 00 00 00 	movl   $0x1,-0x3c(%ebp)
  4084f9:	e9 94 fe ff ff       	jmp    408392 <_glob_match+0x362>
  4084fe:	66 90                	xchg   %ax,%ax
  408500:	8b 7d bc             	mov    -0x44(%ebp),%edi
  408503:	89 03                	mov    %eax,(%ebx)
  408505:	85 ff                	test   %edi,%edi
  408507:	0f 85 eb fd ff ff    	jne    4082f8 <_glob_match+0x2c8>
  40850d:	89 45 bc             	mov    %eax,-0x44(%ebp)
  408510:	e9 e3 fd ff ff       	jmp    4082f8 <_glob_match+0x2c8>
  408515:	c7 45 b4 00 00 00 00 	movl   $0x0,-0x4c(%ebp)
  40851c:	e9 47 fc ff ff       	jmp    408168 <_glob_match+0x138>
  408521:	89 55 c0             	mov    %edx,-0x40(%ebp)
  408524:	88 45 a3             	mov    %al,-0x5d(%ebp)
  408527:	e9 50 ff ff ff       	jmp    40847c <_glob_match+0x44c>
  40852c:	31 db                	xor    %ebx,%ebx
  40852e:	31 c9                	xor    %ecx,%ecx
  408530:	e9 83 fd ff ff       	jmp    4082b8 <_glob_match+0x288>
  408535:	8b 55 cc             	mov    -0x34(%ebp),%edx
  408538:	89 d8                	mov    %ebx,%eax
  40853a:	e8 a1 f4 ff ff       	call   4079e0 <_is_glob_pattern>
  40853f:	85 c0                	test   %eax,%eax
  408541:	0f 85 bb fb ff ff    	jne    408102 <_glob_match+0xd2>
  408547:	89 1c 24             	mov    %ebx,(%esp)
  40854a:	89 e6                	mov    %esp,%esi
  40854c:	e8 c7 54 00 00       	call   40da18 <_strlen>
  408551:	83 c0 10             	add    $0x10,%eax
  408554:	83 e0 f0             	and    $0xfffffff0,%eax
  408557:	e8 54 f4 ff ff       	call   4079b0 <___chkstk_ms>
  40855c:	29 c4                	sub    %eax,%esp
  40855e:	8d 4c 24 0c          	lea    0xc(%esp),%ecx
  408562:	89 ca                	mov    %ecx,%edx
  408564:	eb 0d                	jmp    408573 <_glob_match+0x543>
  408566:	83 c2 01             	add    $0x1,%edx
  408569:	83 c3 01             	add    $0x1,%ebx
  40856c:	84 c0                	test   %al,%al
  40856e:	88 42 ff             	mov    %al,-0x1(%edx)
  408571:	74 32                	je     4085a5 <_glob_match+0x575>
  408573:	0f b6 03             	movzbl (%ebx),%eax
  408576:	3c 7f                	cmp    $0x7f,%al
  408578:	75 ec                	jne    408566 <_glob_match+0x536>
  40857a:	0f b6 43 01          	movzbl 0x1(%ebx),%eax
  40857e:	83 c3 01             	add    $0x1,%ebx
  408581:	eb e3                	jmp    408566 <_glob_match+0x536>
  408583:	8b 45 c8             	mov    -0x38(%ebp),%eax
  408586:	c7 45 c4 02 00 00 00 	movl   $0x2,-0x3c(%ebp)
  40858d:	e9 1f fe ff ff       	jmp    4083b1 <_glob_match+0x381>
  408592:	80 7d a3 2f          	cmpb   $0x2f,-0x5d(%ebp)
  408596:	0f 84 ea fe ff ff    	je     408486 <_glob_match+0x456>
  40859c:	c6 45 a3 5c          	movb   $0x5c,-0x5d(%ebp)
  4085a0:	e9 0b ff ff ff       	jmp    4084b0 <_glob_match+0x480>
  4085a5:	89 0c 24             	mov    %ecx,(%esp)
  4085a8:	e8 eb 5d 00 00       	call   40e398 <_strdup>
  4085ad:	8b 55 08             	mov    0x8(%ebp),%edx
  4085b0:	89 f4                	mov    %esi,%esp
  4085b2:	e8 19 fa ff ff       	call   407fd0 <_glob_store_entry>
  4085b7:	8b 45 e0             	mov    -0x20(%ebp),%eax
  4085ba:	c7 45 c4 00 00 00 00 	movl   $0x0,-0x3c(%ebp)
  4085c1:	e9 eb fd ff ff       	jmp    4083b1 <_glob_match+0x381>
  4085c6:	88 55 a3             	mov    %dl,-0x5d(%ebp)
  4085c9:	89 45 c0             	mov    %eax,-0x40(%ebp)
  4085cc:	e9 ab fe ff ff       	jmp    40847c <_glob_match+0x44c>
  4085d1:	0f b6 08             	movzbl (%eax),%ecx
  4085d4:	89 45 c0             	mov    %eax,-0x40(%ebp)
  4085d7:	88 4d a3             	mov    %cl,-0x5d(%ebp)
  4085da:	e9 9d fe ff ff       	jmp    40847c <_glob_match+0x44c>
  4085df:	90                   	nop

004085e0 <___mingw_glob>:
  4085e0:	55                   	push   %ebp
  4085e1:	89 e5                	mov    %esp,%ebp
  4085e3:	57                   	push   %edi
  4085e4:	56                   	push   %esi
  4085e5:	53                   	push   %ebx
  4085e6:	83 ec 1c             	sub    $0x1c,%esp
  4085e9:	8b 75 14             	mov    0x14(%ebp),%esi
  4085ec:	8b 5d 08             	mov    0x8(%ebp),%ebx
  4085ef:	81 3e 62 01 41 00    	cmpl   $0x410162,(%esi)
  4085f5:	74 0d                	je     408604 <___mingw_glob+0x24>
  4085f7:	89 f0                	mov    %esi,%eax
  4085f9:	e8 82 f6 ff ff       	call   407c80 <_glob_initialise>
  4085fe:	c7 06 62 01 41 00    	movl   $0x410162,(%esi)
  408604:	89 34 24             	mov    %esi,(%esp)
  408607:	8b 4d 10             	mov    0x10(%ebp),%ecx
  40860a:	89 d8                	mov    %ebx,%eax
  40860c:	8b 55 0c             	mov    0xc(%ebp),%edx
  40860f:	e8 1c fa ff ff       	call   408030 <_glob_match>
  408614:	83 f8 02             	cmp    $0x2,%eax
  408617:	89 c7                	mov    %eax,%edi
  408619:	74 0a                	je     408625 <___mingw_glob+0x45>
  40861b:	8d 65 f4             	lea    -0xc(%ebp),%esp
  40861e:	89 f8                	mov    %edi,%eax
  408620:	5b                   	pop    %ebx
  408621:	5e                   	pop    %esi
  408622:	5f                   	pop    %edi
  408623:	5d                   	pop    %ebp
  408624:	c3                   	ret    
  408625:	f6 45 0c 10          	testb  $0x10,0xc(%ebp)
  408629:	74 f0                	je     40861b <___mingw_glob+0x3b>
  40862b:	89 65 e4             	mov    %esp,-0x1c(%ebp)
  40862e:	89 1c 24             	mov    %ebx,(%esp)
  408631:	e8 e2 53 00 00       	call   40da18 <_strlen>
  408636:	83 c0 10             	add    $0x10,%eax
  408639:	83 e0 f0             	and    $0xfffffff0,%eax
  40863c:	e8 6f f3 ff ff       	call   4079b0 <___chkstk_ms>
  408641:	29 c4                	sub    %eax,%esp
  408643:	8d 4c 24 04          	lea    0x4(%esp),%ecx
  408647:	89 ca                	mov    %ecx,%edx
  408649:	eb 12                	jmp    40865d <___mingw_glob+0x7d>
  40864b:	90                   	nop
  40864c:	8d 74 26 00          	lea    0x0(%esi,%eiz,1),%esi
  408650:	83 c2 01             	add    $0x1,%edx
  408653:	83 c3 01             	add    $0x1,%ebx
  408656:	84 c0                	test   %al,%al
  408658:	88 42 ff             	mov    %al,-0x1(%edx)
  40865b:	74 1b                	je     408678 <___mingw_glob+0x98>
  40865d:	0f b6 03             	movzbl (%ebx),%eax
  408660:	3c 7f                	cmp    $0x7f,%al
  408662:	75 ec                	jne    408650 <___mingw_glob+0x70>
  408664:	0f b6 43 01          	movzbl 0x1(%ebx),%eax
  408668:	83 c3 01             	add    $0x1,%ebx
  40866b:	83 c2 01             	add    $0x1,%edx
  40866e:	83 c3 01             	add    $0x1,%ebx
  408671:	84 c0                	test   %al,%al
  408673:	88 42 ff             	mov    %al,-0x1(%edx)
  408676:	75 e5                	jne    40865d <___mingw_glob+0x7d>
  408678:	89 0c 24             	mov    %ecx,(%esp)
  40867b:	e8 18 5d 00 00       	call   40e398 <_strdup>
  408680:	8b 65 e4             	mov    -0x1c(%ebp),%esp
  408683:	89 f2                	mov    %esi,%edx
  408685:	e8 46 f9 ff ff       	call   407fd0 <_glob_store_entry>
  40868a:	8d 65 f4             	lea    -0xc(%ebp),%esp
  40868d:	89 f8                	mov    %edi,%eax
  40868f:	5b                   	pop    %ebx
  408690:	5e                   	pop    %esi
  408691:	5f                   	pop    %edi
  408692:	5d                   	pop    %ebp
  408693:	c3                   	ret    
  408694:	8d b6 00 00 00 00    	lea    0x0(%esi),%esi
  40869a:	8d bf 00 00 00 00    	lea    0x0(%edi),%edi

004086a0 <___mingw_globfree>:
  4086a0:	8b 44 24 04          	mov    0x4(%esp),%eax
  4086a4:	81 38 62 01 41 00    	cmpl   $0x410162,(%eax)
  4086aa:	74 04                	je     4086b0 <___mingw_globfree+0x10>
  4086ac:	f3 c3                	repz ret 
  4086ae:	66 90                	xchg   %ax,%ax
  4086b0:	e9 5b f8 ff ff       	jmp    407f10 <_glob_registry.part.1>
  4086b5:	90                   	nop
  4086b6:	90                   	nop
  4086b7:	90                   	nop
  4086b8:	90                   	nop
  4086b9:	90                   	nop
  4086ba:	90                   	nop
  4086bb:	90                   	nop
  4086bc:	90                   	nop
  4086bd:	90                   	nop
  4086be:	90                   	nop
  4086bf:	90                   	nop

004086c0 <___mingw_dirname>:
  4086c0:	55                   	push   %ebp
  4086c1:	89 e5                	mov    %esp,%ebp
  4086c3:	57                   	push   %edi
  4086c4:	56                   	push   %esi
  4086c5:	53                   	push   %ebx
  4086c6:	83 ec 3c             	sub    $0x3c,%esp
  4086c9:	8b 75 08             	mov    0x8(%ebp),%esi
  4086cc:	c7 44 24 04 00 00 00 	movl   $0x0,0x4(%esp)
  4086d3:	00 
  4086d4:	c7 04 24 02 00 00 00 	movl   $0x2,(%esp)
  4086db:	e8 88 53 00 00       	call   40da68 <_setlocale>
  4086e0:	85 c0                	test   %eax,%eax
  4086e2:	89 c3                	mov    %eax,%ebx
  4086e4:	74 0a                	je     4086f0 <___mingw_dirname+0x30>
  4086e6:	89 04 24             	mov    %eax,(%esp)
  4086e9:	e8 aa 5c 00 00       	call   40e398 <_strdup>
  4086ee:	89 c3                	mov    %eax,%ebx
  4086f0:	c7 44 24 04 74 01 41 	movl   $0x410174,0x4(%esp)
  4086f7:	00 
  4086f8:	c7 04 24 02 00 00 00 	movl   $0x2,(%esp)
  4086ff:	e8 64 53 00 00       	call   40da68 <_setlocale>
  408704:	85 f6                	test   %esi,%esi
  408706:	74 05                	je     40870d <___mingw_dirname+0x4d>
  408708:	80 3e 00             	cmpb   $0x0,(%esi)
  40870b:	75 73                	jne    408780 <___mingw_dirname+0xc0>
  40870d:	c7 44 24 08 00 00 00 	movl   $0x0,0x8(%esp)
  408714:	00 
  408715:	c7 44 24 04 76 01 41 	movl   $0x410176,0x4(%esp)
  40871c:	00 
  40871d:	c7 04 24 00 00 00 00 	movl   $0x0,(%esp)
  408724:	e8 47 53 00 00       	call   40da70 <_wcstombs>
  408729:	8d 70 01             	lea    0x1(%eax),%esi
  40872c:	89 74 24 04          	mov    %esi,0x4(%esp)
  408730:	a1 84 30 41 00       	mov    0x413084,%eax
  408735:	89 04 24             	mov    %eax,(%esp)
  408738:	e8 13 53 00 00       	call   40da50 <_realloc>
  40873d:	a3 84 30 41 00       	mov    %eax,0x413084
  408742:	89 74 24 08          	mov    %esi,0x8(%esp)
  408746:	c7 44 24 04 76 01 41 	movl   $0x410176,0x4(%esp)
  40874d:	00 
  40874e:	89 04 24             	mov    %eax,(%esp)
  408751:	e8 1a 53 00 00       	call   40da70 <_wcstombs>
  408756:	89 5c 24 04          	mov    %ebx,0x4(%esp)
  40875a:	c7 04 24 02 00 00 00 	movl   $0x2,(%esp)
  408761:	e8 02 53 00 00       	call   40da68 <_setlocale>
  408766:	89 1c 24             	mov    %ebx,(%esp)
  408769:	e8 92 52 00 00       	call   40da00 <_free>
  40876e:	a1 84 30 41 00       	mov    0x413084,%eax
  408773:	8d 65 f4             	lea    -0xc(%ebp),%esp
  408776:	5b                   	pop    %ebx
  408777:	5e                   	pop    %esi
  408778:	5f                   	pop    %edi
  408779:	5d                   	pop    %ebp
  40877a:	c3                   	ret    
  40877b:	90                   	nop
  40877c:	8d 74 26 00          	lea    0x0(%esi,%eiz,1),%esi
  408780:	89 65 d4             	mov    %esp,-0x2c(%ebp)
  408783:	c7 44 24 08 00 00 00 	movl   $0x0,0x8(%esp)
  40878a:	00 
  40878b:	89 74 24 04          	mov    %esi,0x4(%esp)
  40878f:	c7 04 24 00 00 00 00 	movl   $0x0,(%esp)
  408796:	e8 dd 52 00 00       	call   40da78 <_mbstowcs>
  40879b:	89 c2                	mov    %eax,%edx
  40879d:	8d 44 00 12          	lea    0x12(%eax,%eax,1),%eax
  4087a1:	83 e0 f0             	and    $0xfffffff0,%eax
  4087a4:	e8 07 f2 ff ff       	call   4079b0 <___chkstk_ms>
  4087a9:	29 c4                	sub    %eax,%esp
  4087ab:	8d 44 24 0d          	lea    0xd(%esp),%eax
  4087af:	89 45 e4             	mov    %eax,-0x1c(%ebp)
  4087b2:	d1 6d e4             	shrl   -0x1c(%ebp)
  4087b5:	8b 45 e4             	mov    -0x1c(%ebp),%eax
  4087b8:	01 c0                	add    %eax,%eax
  4087ba:	89 45 e0             	mov    %eax,-0x20(%ebp)
  4087bd:	89 c7                	mov    %eax,%edi
  4087bf:	89 54 24 08          	mov    %edx,0x8(%esp)
  4087c3:	89 74 24 04          	mov    %esi,0x4(%esp)
  4087c7:	89 04 24             	mov    %eax,(%esp)
  4087ca:	e8 a9 52 00 00       	call   40da78 <_mbstowcs>
  4087cf:	31 c9                	xor    %ecx,%ecx
  4087d1:	66 89 0c 47          	mov    %cx,(%edi,%eax,2)
  4087d5:	83 f8 01             	cmp    $0x1,%eax
  4087d8:	89 45 d0             	mov    %eax,-0x30(%ebp)
  4087db:	8b 45 e4             	mov    -0x1c(%ebp),%eax
  4087de:	0f b7 04 00          	movzwl (%eax,%eax,1),%eax
  4087e2:	66 89 45 da          	mov    %ax,-0x26(%ebp)
  4087e6:	0f 86 f2 00 00 00    	jbe    4088de <___mingw_dirname+0x21e>
  4087ec:	66 83 f8 5c          	cmp    $0x5c,%ax
  4087f0:	74 0a                	je     4087fc <___mingw_dirname+0x13c>
  4087f2:	66 83 f8 2f          	cmp    $0x2f,%ax
  4087f6:	0f 85 0a 01 00 00    	jne    408906 <___mingw_dirname+0x246>
  4087fc:	8b 7d e0             	mov    -0x20(%ebp),%edi
  4087ff:	89 7d dc             	mov    %edi,-0x24(%ebp)
  408802:	8b 7d e4             	mov    -0x1c(%ebp),%edi
  408805:	66 3b 44 3f 02       	cmp    0x2(%edi,%edi,1),%ax
  40880a:	0f 84 4f 02 00 00    	je     408a5f <___mingw_dirname+0x39f>
  408810:	0f b7 45 da          	movzwl -0x26(%ebp),%eax
  408814:	66 85 c0             	test   %ax,%ax
  408817:	0f 84 fa 01 00 00    	je     408a17 <___mingw_dirname+0x357>
  40881d:	8b 55 dc             	mov    -0x24(%ebp),%edx
  408820:	89 d7                	mov    %edx,%edi
  408822:	eb 14                	jmp    408838 <___mingw_dirname+0x178>
  408824:	66 83 f8 2f          	cmp    $0x2f,%ax
  408828:	74 20                	je     40884a <___mingw_dirname+0x18a>
  40882a:	0f b7 42 02          	movzwl 0x2(%edx),%eax
  40882e:	8d 4a 02             	lea    0x2(%edx),%ecx
  408831:	66 85 c0             	test   %ax,%ax
  408834:	74 36                	je     40886c <___mingw_dirname+0x1ac>
  408836:	89 ca                	mov    %ecx,%edx
  408838:	66 83 f8 5c          	cmp    $0x5c,%ax
  40883c:	75 e6                	jne    408824 <___mingw_dirname+0x164>
  40883e:	0f b7 02             	movzwl (%edx),%eax
  408841:	66 83 f8 5c          	cmp    $0x5c,%ax
  408845:	75 0c                	jne    408853 <___mingw_dirname+0x193>
  408847:	83 c2 02             	add    $0x2,%edx
  40884a:	0f b7 02             	movzwl (%edx),%eax
  40884d:	66 83 f8 5c          	cmp    $0x5c,%ax
  408851:	74 f4                	je     408847 <___mingw_dirname+0x187>
  408853:	66 83 f8 2f          	cmp    $0x2f,%ax
  408857:	74 ee                	je     408847 <___mingw_dirname+0x187>
  408859:	66 85 c0             	test   %ax,%ax
  40885c:	74 0e                	je     40886c <___mingw_dirname+0x1ac>
  40885e:	0f b7 42 02          	movzwl 0x2(%edx),%eax
  408862:	89 d7                	mov    %edx,%edi
  408864:	8d 4a 02             	lea    0x2(%edx),%ecx
  408867:	66 85 c0             	test   %ax,%ax
  40886a:	75 ca                	jne    408836 <___mingw_dirname+0x176>
  40886c:	8b 4d dc             	mov    -0x24(%ebp),%ecx
  40886f:	39 f9                	cmp    %edi,%ecx
  408871:	72 7e                	jb     4088f1 <___mingw_dirname+0x231>
  408873:	66 83 7d da 5c       	cmpw   $0x5c,-0x26(%ebp)
  408878:	74 0b                	je     408885 <___mingw_dirname+0x1c5>
  40887a:	66 83 7d da 2f       	cmpw   $0x2f,-0x26(%ebp)
  40887f:	0f 85 ba 01 00 00    	jne    408a3f <___mingw_dirname+0x37f>
  408885:	8b 45 dc             	mov    -0x24(%ebp),%eax
  408888:	83 c0 02             	add    $0x2,%eax
  40888b:	31 d2                	xor    %edx,%edx
  40888d:	66 89 10             	mov    %dx,(%eax)
  408890:	c7 44 24 08 00 00 00 	movl   $0x0,0x8(%esp)
  408897:	00 
  408898:	8b 45 e0             	mov    -0x20(%ebp),%eax
  40889b:	c7 04 24 00 00 00 00 	movl   $0x0,(%esp)
  4088a2:	89 44 24 04          	mov    %eax,0x4(%esp)
  4088a6:	e8 c5 51 00 00       	call   40da70 <_wcstombs>
  4088ab:	8d 78 01             	lea    0x1(%eax),%edi
  4088ae:	89 7c 24 04          	mov    %edi,0x4(%esp)
  4088b2:	a1 84 30 41 00       	mov    0x413084,%eax
  4088b7:	89 04 24             	mov    %eax,(%esp)
  4088ba:	e8 91 51 00 00       	call   40da50 <_realloc>
  4088bf:	a3 84 30 41 00       	mov    %eax,0x413084
  4088c4:	89 c6                	mov    %eax,%esi
  4088c6:	89 7c 24 08          	mov    %edi,0x8(%esp)
  4088ca:	8b 45 e0             	mov    -0x20(%ebp),%eax
  4088cd:	89 34 24             	mov    %esi,(%esp)
  4088d0:	89 44 24 04          	mov    %eax,0x4(%esp)
  4088d4:	e8 97 51 00 00       	call   40da70 <_wcstombs>
  4088d9:	e9 e9 00 00 00       	jmp    4089c7 <___mingw_dirname+0x307>
  4088de:	8b 45 e0             	mov    -0x20(%ebp),%eax
  4088e1:	89 45 dc             	mov    %eax,-0x24(%ebp)
  4088e4:	e9 27 ff ff ff       	jmp    408810 <___mingw_dirname+0x150>
  4088e9:	66 83 fa 2f          	cmp    $0x2f,%dx
  4088ed:	75 46                	jne    408935 <___mingw_dirname+0x275>
  4088ef:	89 c7                	mov    %eax,%edi
  4088f1:	8d 47 fe             	lea    -0x2(%edi),%eax
  4088f4:	39 c1                	cmp    %eax,%ecx
  4088f6:	73 3d                	jae    408935 <___mingw_dirname+0x275>
  4088f8:	0f b7 57 fe          	movzwl -0x2(%edi),%edx
  4088fc:	66 83 fa 5c          	cmp    $0x5c,%dx
  408900:	75 e7                	jne    4088e9 <___mingw_dirname+0x229>
  408902:	89 c7                	mov    %eax,%edi
  408904:	eb eb                	jmp    4088f1 <___mingw_dirname+0x231>
  408906:	8b 45 e0             	mov    -0x20(%ebp),%eax
  408909:	89 45 dc             	mov    %eax,-0x24(%ebp)
  40890c:	8b 45 e4             	mov    -0x1c(%ebp),%eax
  40890f:	66 83 7c 00 02 3a    	cmpw   $0x3a,0x2(%eax,%eax,1)
  408915:	0f 85 f5 fe ff ff    	jne    408810 <___mingw_dirname+0x150>
  40891b:	8b 45 e0             	mov    -0x20(%ebp),%eax
  40891e:	83 c0 04             	add    $0x4,%eax
  408921:	89 45 dc             	mov    %eax,-0x24(%ebp)
  408924:	8b 45 e4             	mov    -0x1c(%ebp),%eax
  408927:	0f b7 44 00 04       	movzwl 0x4(%eax,%eax,1),%eax
  40892c:	66 89 45 da          	mov    %ax,-0x26(%ebp)
  408930:	e9 db fe ff ff       	jmp    408810 <___mingw_dirname+0x150>
  408935:	39 45 dc             	cmp    %eax,-0x24(%ebp)
  408938:	0f 84 37 01 00 00    	je     408a75 <___mingw_dirname+0x3b5>
  40893e:	31 d2                	xor    %edx,%edx
  408940:	66 89 50 02          	mov    %dx,0x2(%eax)
  408944:	8b 45 e4             	mov    -0x1c(%ebp),%eax
  408947:	0f b7 14 00          	movzwl (%eax,%eax,1),%edx
  40894b:	8b 45 e0             	mov    -0x20(%ebp),%eax
  40894e:	66 83 fa 5c          	cmp    $0x5c,%dx
  408952:	0f 85 c7 00 00 00    	jne    408a1f <___mingw_dirname+0x35f>
  408958:	83 c0 02             	add    $0x2,%eax
  40895b:	0f b7 08             	movzwl (%eax),%ecx
  40895e:	66 83 f9 5c          	cmp    $0x5c,%cx
  408962:	74 f4                	je     408958 <___mingw_dirname+0x298>
  408964:	66 83 f9 2f          	cmp    $0x2f,%cx
  408968:	74 ee                	je     408958 <___mingw_dirname+0x298>
  40896a:	89 c1                	mov    %eax,%ecx
  40896c:	2b 4d e0             	sub    -0x20(%ebp),%ecx
  40896f:	83 f9 05             	cmp    $0x5,%ecx
  408972:	0f 8e b1 00 00 00    	jle    408a29 <___mingw_dirname+0x369>
  408978:	8b 45 e0             	mov    -0x20(%ebp),%eax
  40897b:	89 c1                	mov    %eax,%ecx
  40897d:	66 85 d2             	test   %dx,%dx
  408980:	74 21                	je     4089a3 <___mingw_dirname+0x2e3>
  408982:	83 c1 02             	add    $0x2,%ecx
  408985:	66 83 fa 2f          	cmp    $0x2f,%dx
  408989:	66 89 51 fe          	mov    %dx,-0x2(%ecx)
  40898d:	74 63                	je     4089f2 <___mingw_dirname+0x332>
  40898f:	66 83 38 5c          	cmpw   $0x5c,(%eax)
  408993:	8d 78 02             	lea    0x2(%eax),%edi
  408996:	74 58                	je     4089f0 <___mingw_dirname+0x330>
  408998:	0f b7 50 02          	movzwl 0x2(%eax),%edx
  40899c:	89 f8                	mov    %edi,%eax
  40899e:	66 85 d2             	test   %dx,%dx
  4089a1:	75 df                	jne    408982 <___mingw_dirname+0x2c2>
  4089a3:	8b 45 d0             	mov    -0x30(%ebp),%eax
  4089a6:	31 ff                	xor    %edi,%edi
  4089a8:	66 89 39             	mov    %di,(%ecx)
  4089ab:	89 44 24 08          	mov    %eax,0x8(%esp)
  4089af:	8b 45 e0             	mov    -0x20(%ebp),%eax
  4089b2:	89 34 24             	mov    %esi,(%esp)
  4089b5:	89 44 24 04          	mov    %eax,0x4(%esp)
  4089b9:	e8 b2 50 00 00       	call   40da70 <_wcstombs>
  4089be:	83 f8 ff             	cmp    $0xffffffff,%eax
  4089c1:	74 04                	je     4089c7 <___mingw_dirname+0x307>
  4089c3:	c6 04 06 00          	movb   $0x0,(%esi,%eax,1)
  4089c7:	89 5c 24 04          	mov    %ebx,0x4(%esp)
  4089cb:	c7 04 24 02 00 00 00 	movl   $0x2,(%esp)
  4089d2:	e8 91 50 00 00       	call   40da68 <_setlocale>
  4089d7:	89 1c 24             	mov    %ebx,(%esp)
  4089da:	e8 21 50 00 00       	call   40da00 <_free>
  4089df:	8b 65 d4             	mov    -0x2c(%ebp),%esp
  4089e2:	8d 65 f4             	lea    -0xc(%ebp),%esp
  4089e5:	5b                   	pop    %ebx
  4089e6:	89 f0                	mov    %esi,%eax
  4089e8:	5e                   	pop    %esi
  4089e9:	5f                   	pop    %edi
  4089ea:	5d                   	pop    %ebp
  4089eb:	c3                   	ret    
  4089ec:	8d 74 26 00          	lea    0x0(%esi,%eiz,1),%esi
  4089f0:	89 f8                	mov    %edi,%eax
  4089f2:	0f b7 10             	movzwl (%eax),%edx
  4089f5:	66 83 fa 2f          	cmp    $0x2f,%dx
  4089f9:	75 59                	jne    408a54 <___mingw_dirname+0x394>
  4089fb:	90                   	nop
  4089fc:	8d 74 26 00          	lea    0x0(%esi,%eiz,1),%esi
  408a00:	83 c0 02             	add    $0x2,%eax
  408a03:	0f b7 10             	movzwl (%eax),%edx
  408a06:	66 83 fa 5c          	cmp    $0x5c,%dx
  408a0a:	74 f4                	je     408a00 <___mingw_dirname+0x340>
  408a0c:	66 83 fa 2f          	cmp    $0x2f,%dx
  408a10:	74 ee                	je     408a00 <___mingw_dirname+0x340>
  408a12:	e9 66 ff ff ff       	jmp    40897d <___mingw_dirname+0x2bd>
  408a17:	8b 65 d4             	mov    -0x2c(%ebp),%esp
  408a1a:	e9 ee fc ff ff       	jmp    40870d <___mingw_dirname+0x4d>
  408a1f:	66 83 fa 2f          	cmp    $0x2f,%dx
  408a23:	0f 84 2f ff ff ff    	je     408958 <___mingw_dirname+0x298>
  408a29:	8b 7d e4             	mov    -0x1c(%ebp),%edi
  408a2c:	66 39 54 3f 02       	cmp    %dx,0x2(%edi,%edi,1)
  408a31:	0f 85 41 ff ff ff    	jne    408978 <___mingw_dirname+0x2b8>
  408a37:	0f b7 10             	movzwl (%eax),%edx
  408a3a:	e9 3c ff ff ff       	jmp    40897b <___mingw_dirname+0x2bb>
  408a3f:	8b 7d dc             	mov    -0x24(%ebp),%edi
  408a42:	b9 2e 00 00 00       	mov    $0x2e,%ecx
  408a47:	89 f8                	mov    %edi,%eax
  408a49:	83 c0 02             	add    $0x2,%eax
  408a4c:	66 89 0f             	mov    %cx,(%edi)
  408a4f:	e9 37 fe ff ff       	jmp    40888b <___mingw_dirname+0x1cb>
  408a54:	66 83 fa 5c          	cmp    $0x5c,%dx
  408a58:	74 a6                	je     408a00 <___mingw_dirname+0x340>
  408a5a:	e9 1e ff ff ff       	jmp    40897d <___mingw_dirname+0x2bd>
  408a5f:	66 83 7c 3f 04 00    	cmpw   $0x0,0x4(%edi,%edi,1)
  408a65:	0f 85 a5 fd ff ff    	jne    408810 <___mingw_dirname+0x150>
  408a6b:	90                   	nop
  408a6c:	8d 74 26 00          	lea    0x0(%esi,%eiz,1),%esi
  408a70:	e9 52 ff ff ff       	jmp    4089c7 <___mingw_dirname+0x307>
  408a75:	66 83 7d da 5c       	cmpw   $0x5c,-0x26(%ebp)
  408a7a:	74 0e                	je     408a8a <___mingw_dirname+0x3ca>
  408a7c:	66 83 7d da 2f       	cmpw   $0x2f,-0x26(%ebp)
  408a81:	8b 45 dc             	mov    -0x24(%ebp),%eax
  408a84:	0f 85 b4 fe ff ff    	jne    40893e <___mingw_dirname+0x27e>
  408a8a:	8b 45 dc             	mov    -0x24(%ebp),%eax
  408a8d:	0f b7 4d da          	movzwl -0x26(%ebp),%ecx
  408a91:	66 39 48 02          	cmp    %cx,0x2(%eax)
  408a95:	0f 85 a3 fe ff ff    	jne    40893e <___mingw_dirname+0x27e>
  408a9b:	0f b7 50 04          	movzwl 0x4(%eax),%edx
  408a9f:	66 83 fa 2f          	cmp    $0x2f,%dx
  408aa3:	0f 84 95 fe ff ff    	je     40893e <___mingw_dirname+0x27e>
  408aa9:	66 83 fa 5c          	cmp    $0x5c,%dx
  408aad:	89 f8                	mov    %edi,%eax
  408aaf:	0f 85 89 fe ff ff    	jne    40893e <___mingw_dirname+0x27e>
  408ab5:	8b 45 dc             	mov    -0x24(%ebp),%eax
  408ab8:	e9 81 fe ff ff       	jmp    40893e <___mingw_dirname+0x27e>
  408abd:	90                   	nop
  408abe:	90                   	nop
  408abf:	90                   	nop

00408ac0 <_dirent_findnext>:
  408ac0:	55                   	push   %ebp
  408ac1:	89 e5                	mov    %esp,%ebp
  408ac3:	56                   	push   %esi
  408ac4:	89 d6                	mov    %edx,%esi
  408ac6:	53                   	push   %ebx
  408ac7:	81 ec 50 01 00 00    	sub    $0x150,%esp
  408acd:	8d 95 b8 fe ff ff    	lea    -0x148(%ebp),%edx
  408ad3:	89 54 24 04          	mov    %edx,0x4(%esp)
  408ad7:	89 04 24             	mov    %eax,(%esp)
  408ada:	e8 29 58 00 00       	call   40e308 <_FindNextFileA@8>
  408adf:	83 ec 08             	sub    $0x8,%esp
  408ae2:	85 c0                	test   %eax,%eax
  408ae4:	89 c3                	mov    %eax,%ebx
  408ae6:	75 20                	jne    408b08 <_dirent_findnext+0x48>
  408ae8:	e8 fb 57 00 00       	call   40e2e8 <_GetLastError@0>
  408aed:	31 db                	xor    %ebx,%ebx
  408aef:	83 f8 12             	cmp    $0x12,%eax
  408af2:	74 0b                	je     408aff <_dirent_findnext+0x3f>
  408af4:	e8 67 4f 00 00       	call   40da60 <__errno>
  408af9:	c7 00 02 00 00 00    	movl   $0x2,(%eax)
  408aff:	8d 65 f8             	lea    -0x8(%ebp),%esp
  408b02:	89 d8                	mov    %ebx,%eax
  408b04:	5b                   	pop    %ebx
  408b05:	5e                   	pop    %esi
  408b06:	5d                   	pop    %ebp
  408b07:	c3                   	ret    
  408b08:	8d 85 e4 fe ff ff    	lea    -0x11c(%ebp),%eax
  408b0e:	89 44 24 0c          	mov    %eax,0xc(%esp)
  408b12:	8d 46 0c             	lea    0xc(%esi),%eax
  408b15:	c7 44 24 08 7c 01 41 	movl   $0x41017c,0x8(%esp)
  408b1c:	00 
  408b1d:	c7 44 24 04 04 01 00 	movl   $0x104,0x4(%esp)
  408b24:	00 
  408b25:	89 04 24             	mov    %eax,(%esp)
  408b28:	e8 43 04 00 00       	call   408f70 <___mingw_snprintf>
  408b2d:	66 89 46 06          	mov    %ax,0x6(%esi)
  408b31:	8b 85 b8 fe ff ff    	mov    -0x148(%ebp),%eax
  408b37:	24 58                	and    $0x58,%al
  408b39:	83 f8 10             	cmp    $0x10,%eax
  408b3c:	76 12                	jbe    408b50 <_dirent_findnext+0x90>
  408b3e:	c7 46 08 18 00 00 00 	movl   $0x18,0x8(%esi)
  408b45:	8d 65 f8             	lea    -0x8(%ebp),%esp
  408b48:	89 d8                	mov    %ebx,%eax
  408b4a:	5b                   	pop    %ebx
  408b4b:	5e                   	pop    %esi
  408b4c:	5d                   	pop    %ebp
  408b4d:	c3                   	ret    
  408b4e:	66 90                	xchg   %ax,%ax
  408b50:	89 46 08             	mov    %eax,0x8(%esi)
  408b53:	8d 65 f8             	lea    -0x8(%ebp),%esp
  408b56:	89 d8                	mov    %ebx,%eax
  408b58:	5b                   	pop    %ebx
  408b59:	5e                   	pop    %esi
  408b5a:	5d                   	pop    %ebp
  408b5b:	c3                   	ret    
  408b5c:	8d 74 26 00          	lea    0x0(%esi,%eiz,1),%esi

00408b60 <_dirent_findfirst>:
  408b60:	55                   	push   %ebp
  408b61:	89 e5                	mov    %esp,%ebp
  408b63:	56                   	push   %esi
  408b64:	53                   	push   %ebx
  408b65:	89 d3                	mov    %edx,%ebx
  408b67:	81 ec 50 01 00 00    	sub    $0x150,%esp
  408b6d:	8d 95 b8 fe ff ff    	lea    -0x148(%ebp),%edx
  408b73:	89 54 24 04          	mov    %edx,0x4(%esp)
  408b77:	89 04 24             	mov    %eax,(%esp)
  408b7a:	e8 91 57 00 00       	call   40e310 <_FindFirstFileA@8>
  408b7f:	83 ec 08             	sub    $0x8,%esp
  408b82:	83 f8 ff             	cmp    $0xffffffff,%eax
  408b85:	89 c6                	mov    %eax,%esi
  408b87:	74 4a                	je     408bd3 <_dirent_findfirst+0x73>
  408b89:	8d 85 e4 fe ff ff    	lea    -0x11c(%ebp),%eax
  408b8f:	89 44 24 0c          	mov    %eax,0xc(%esp)
  408b93:	8d 43 0c             	lea    0xc(%ebx),%eax
  408b96:	c7 44 24 08 7c 01 41 	movl   $0x41017c,0x8(%esp)
  408b9d:	00 
  408b9e:	c7 44 24 04 04 01 00 	movl   $0x104,0x4(%esp)
  408ba5:	00 
  408ba6:	89 04 24             	mov    %eax,(%esp)
  408ba9:	e8 c2 03 00 00       	call   408f70 <___mingw_snprintf>
  408bae:	8b 8d b8 fe ff ff    	mov    -0x148(%ebp),%ecx
  408bb4:	80 e1 58             	and    $0x58,%cl
  408bb7:	83 f9 10             	cmp    $0x10,%ecx
  408bba:	66 89 43 06          	mov    %ax,0x6(%ebx)
  408bbe:	89 4b 08             	mov    %ecx,0x8(%ebx)
  408bc1:	76 07                	jbe    408bca <_dirent_findfirst+0x6a>
  408bc3:	c7 43 08 18 00 00 00 	movl   $0x18,0x8(%ebx)
  408bca:	8d 65 f8             	lea    -0x8(%ebp),%esp
  408bcd:	89 f0                	mov    %esi,%eax
  408bcf:	5b                   	pop    %ebx
  408bd0:	5e                   	pop    %esi
  408bd1:	5d                   	pop    %ebp
  408bd2:	c3                   	ret    
  408bd3:	e8 88 4e 00 00       	call   40da60 <__errno>
  408bd8:	89 c3                	mov    %eax,%ebx
  408bda:	e8 09 57 00 00       	call   40e2e8 <_GetLastError@0>
  408bdf:	83 f8 03             	cmp    $0x3,%eax
  408be2:	89 03                	mov    %eax,(%ebx)
  408be4:	74 2a                	je     408c10 <_dirent_findfirst+0xb0>
  408be6:	e8 75 4e 00 00       	call   40da60 <__errno>
  408beb:	81 38 0b 01 00 00    	cmpl   $0x10b,(%eax)
  408bf1:	74 2d                	je     408c20 <_dirent_findfirst+0xc0>
  408bf3:	e8 68 4e 00 00       	call   40da60 <__errno>
  408bf8:	83 38 02             	cmpl   $0x2,(%eax)
  408bfb:	74 cd                	je     408bca <_dirent_findfirst+0x6a>
  408bfd:	8d 76 00             	lea    0x0(%esi),%esi
  408c00:	e8 5b 4e 00 00       	call   40da60 <__errno>
  408c05:	c7 00 16 00 00 00    	movl   $0x16,(%eax)
  408c0b:	eb bd                	jmp    408bca <_dirent_findfirst+0x6a>
  408c0d:	8d 76 00             	lea    0x0(%esi),%esi
  408c10:	e8 4b 4e 00 00       	call   40da60 <__errno>
  408c15:	c7 00 02 00 00 00    	movl   $0x2,(%eax)
  408c1b:	eb ad                	jmp    408bca <_dirent_findfirst+0x6a>
  408c1d:	8d 76 00             	lea    0x0(%esi),%esi
  408c20:	e8 3b 4e 00 00       	call   40da60 <__errno>
  408c25:	c7 00 14 00 00 00    	movl   $0x14,(%eax)
  408c2b:	eb 9d                	jmp    408bca <_dirent_findfirst+0x6a>
  408c2d:	8d 76 00             	lea    0x0(%esi),%esi

00408c30 <___mingw_opendir>:
  408c30:	55                   	push   %ebp
  408c31:	57                   	push   %edi
  408c32:	56                   	push   %esi
  408c33:	53                   	push   %ebx
  408c34:	81 ec 2c 01 00 00    	sub    $0x12c,%esp
  408c3a:	8b 84 24 40 01 00 00 	mov    0x140(%esp),%eax
  408c41:	85 c0                	test   %eax,%eax
  408c43:	0f 84 67 01 00 00    	je     408db0 <___mingw_opendir+0x180>
  408c49:	80 38 00             	cmpb   $0x0,(%eax)
  408c4c:	0f 84 40 01 00 00    	je     408d92 <___mingw_opendir+0x162>
  408c52:	8d 7c 24 1c          	lea    0x1c(%esp),%edi
  408c56:	c7 44 24 08 04 01 00 	movl   $0x104,0x8(%esp)
  408c5d:	00 
  408c5e:	89 fb                	mov    %edi,%ebx
  408c60:	89 44 24 04          	mov    %eax,0x4(%esp)
  408c64:	89 3c 24             	mov    %edi,(%esp)
  408c67:	e8 14 4e 00 00       	call   40da80 <__fullpath>
  408c6c:	80 7c 24 1c 00       	cmpb   $0x0,0x1c(%esp)
  408c71:	74 5d                	je     408cd0 <___mingw_opendir+0xa0>
  408c73:	8b 13                	mov    (%ebx),%edx
  408c75:	83 c3 04             	add    $0x4,%ebx
  408c78:	8d 82 ff fe fe fe    	lea    -0x1010101(%edx),%eax
  408c7e:	f7 d2                	not    %edx
  408c80:	21 d0                	and    %edx,%eax
  408c82:	25 80 80 80 80       	and    $0x80808080,%eax
  408c87:	74 ea                	je     408c73 <___mingw_opendir+0x43>
  408c89:	a9 80 80 00 00       	test   $0x8080,%eax
  408c8e:	0f 84 df 00 00 00    	je     408d73 <___mingw_opendir+0x143>
  408c94:	00 c0                	add    %al,%al
  408c96:	83 db 03             	sbb    $0x3,%ebx
  408c99:	29 fb                	sub    %edi,%ebx
  408c9b:	0f b6 44 1c 1b       	movzbl 0x1b(%esp,%ebx,1),%eax
  408ca0:	3c 5c                	cmp    $0x5c,%al
  408ca2:	74 50                	je     408cf4 <___mingw_opendir+0xc4>
  408ca4:	3c 2f                	cmp    $0x2f,%al
  408ca6:	74 4c                	je     408cf4 <___mingw_opendir+0xc4>
  408ca8:	b9 5c 00 00 00       	mov    $0x5c,%ecx
  408cad:	66 89 0c 1f          	mov    %cx,(%edi,%ebx,1)
  408cb1:	89 fb                	mov    %edi,%ebx
  408cb3:	8b 13                	mov    (%ebx),%edx
  408cb5:	83 c3 04             	add    $0x4,%ebx
  408cb8:	8d 82 ff fe fe fe    	lea    -0x1010101(%edx),%eax
  408cbe:	f7 d2                	not    %edx
  408cc0:	21 d0                	and    %edx,%eax
  408cc2:	25 80 80 80 80       	and    $0x80808080,%eax
  408cc7:	74 ea                	je     408cb3 <___mingw_opendir+0x83>
  408cc9:	eb 1b                	jmp    408ce6 <___mingw_opendir+0xb6>
  408ccb:	90                   	nop
  408ccc:	8d 74 26 00          	lea    0x0(%esi,%eiz,1),%esi
  408cd0:	8b 13                	mov    (%ebx),%edx
  408cd2:	83 c3 04             	add    $0x4,%ebx
  408cd5:	8d 82 ff fe fe fe    	lea    -0x1010101(%edx),%eax
  408cdb:	f7 d2                	not    %edx
  408cdd:	21 d0                	and    %edx,%eax
  408cdf:	25 80 80 80 80       	and    $0x80808080,%eax
  408ce4:	74 ea                	je     408cd0 <___mingw_opendir+0xa0>
  408ce6:	a9 80 80 00 00       	test   $0x8080,%eax
  408ceb:	74 7b                	je     408d68 <___mingw_opendir+0x138>
  408ced:	00 c0                	add    %al,%al
  408cef:	83 db 03             	sbb    $0x3,%ebx
  408cf2:	29 fb                	sub    %edi,%ebx
  408cf4:	ba 2a 00 00 00       	mov    $0x2a,%edx
  408cf9:	8d 83 1d 01 00 00    	lea    0x11d(%ebx),%eax
  408cff:	66 89 14 1f          	mov    %dx,(%edi,%ebx,1)
  408d03:	89 04 24             	mov    %eax,(%esp)
  408d06:	e8 ed 4c 00 00       	call   40d9f8 <_malloc>
  408d0b:	85 c0                	test   %eax,%eax
  408d0d:	89 c6                	mov    %eax,%esi
  408d0f:	0f 84 8c 00 00 00    	je     408da1 <___mingw_opendir+0x171>
  408d15:	8d a8 18 01 00 00    	lea    0x118(%eax),%ebp
  408d1b:	83 c3 02             	add    $0x2,%ebx
  408d1e:	89 5c 24 08          	mov    %ebx,0x8(%esp)
  408d22:	89 7c 24 04          	mov    %edi,0x4(%esp)
  408d26:	89 2c 24             	mov    %ebp,(%esp)
  408d29:	e8 12 4d 00 00       	call   40da40 <_memcpy>
  408d2e:	89 f2                	mov    %esi,%edx
  408d30:	89 e8                	mov    %ebp,%eax
  408d32:	e8 29 fe ff ff       	call   408b60 <_dirent_findfirst>
  408d37:	83 f8 ff             	cmp    $0xffffffff,%eax
  408d3a:	89 86 10 01 00 00    	mov    %eax,0x110(%esi)
  408d40:	74 7d                	je     408dbf <___mingw_opendir+0x18f>
  408d42:	b8 10 01 00 00       	mov    $0x110,%eax
  408d47:	66 89 46 04          	mov    %ax,0x4(%esi)
  408d4b:	89 f0                	mov    %esi,%eax
  408d4d:	c7 86 14 01 00 00 00 	movl   $0x0,0x114(%esi)
  408d54:	00 00 00 
  408d57:	c7 06 00 00 00 00    	movl   $0x0,(%esi)
  408d5d:	81 c4 2c 01 00 00    	add    $0x12c,%esp
  408d63:	5b                   	pop    %ebx
  408d64:	5e                   	pop    %esi
  408d65:	5f                   	pop    %edi
  408d66:	5d                   	pop    %ebp
  408d67:	c3                   	ret    
  408d68:	c1 e8 10             	shr    $0x10,%eax
  408d6b:	83 c3 02             	add    $0x2,%ebx
  408d6e:	e9 7a ff ff ff       	jmp    408ced <___mingw_opendir+0xbd>
  408d73:	c1 e8 10             	shr    $0x10,%eax
  408d76:	83 c3 02             	add    $0x2,%ebx
  408d79:	00 c0                	add    %al,%al
  408d7b:	83 db 03             	sbb    $0x3,%ebx
  408d7e:	29 fb                	sub    %edi,%ebx
  408d80:	0f b6 44 1c 1b       	movzbl 0x1b(%esp,%ebx,1),%eax
  408d85:	3c 5c                	cmp    $0x5c,%al
  408d87:	0f 84 67 ff ff ff    	je     408cf4 <___mingw_opendir+0xc4>
  408d8d:	e9 12 ff ff ff       	jmp    408ca4 <___mingw_opendir+0x74>
  408d92:	e8 c9 4c 00 00       	call   40da60 <__errno>
  408d97:	c7 00 02 00 00 00    	movl   $0x2,(%eax)
  408d9d:	31 c0                	xor    %eax,%eax
  408d9f:	eb bc                	jmp    408d5d <___mingw_opendir+0x12d>
  408da1:	e8 ba 4c 00 00       	call   40da60 <__errno>
  408da6:	c7 00 0c 00 00 00    	movl   $0xc,(%eax)
  408dac:	31 c0                	xor    %eax,%eax
  408dae:	eb ad                	jmp    408d5d <___mingw_opendir+0x12d>
  408db0:	e8 ab 4c 00 00       	call   40da60 <__errno>
  408db5:	c7 00 16 00 00 00    	movl   $0x16,(%eax)
  408dbb:	31 c0                	xor    %eax,%eax
  408dbd:	eb 9e                	jmp    408d5d <___mingw_opendir+0x12d>
  408dbf:	89 34 24             	mov    %esi,(%esp)
  408dc2:	e8 39 4c 00 00       	call   40da00 <_free>
  408dc7:	31 c0                	xor    %eax,%eax
  408dc9:	eb 92                	jmp    408d5d <___mingw_opendir+0x12d>
  408dcb:	90                   	nop
  408dcc:	8d 74 26 00          	lea    0x0(%esi,%eiz,1),%esi

00408dd0 <___mingw_readdir>:
  408dd0:	53                   	push   %ebx
  408dd1:	83 ec 08             	sub    $0x8,%esp
  408dd4:	8b 5c 24 10          	mov    0x10(%esp),%ebx
  408dd8:	85 db                	test   %ebx,%ebx
  408dda:	74 2b                	je     408e07 <___mingw_readdir+0x37>
  408ddc:	8b 83 14 01 00 00    	mov    0x114(%ebx),%eax
  408de2:	8d 50 01             	lea    0x1(%eax),%edx
  408de5:	85 c0                	test   %eax,%eax
  408de7:	89 93 14 01 00 00    	mov    %edx,0x114(%ebx)
  408ded:	7e 11                	jle    408e00 <___mingw_readdir+0x30>
  408def:	8b 83 10 01 00 00    	mov    0x110(%ebx),%eax
  408df5:	89 da                	mov    %ebx,%edx
  408df7:	e8 c4 fc ff ff       	call   408ac0 <_dirent_findnext>
  408dfc:	85 c0                	test   %eax,%eax
  408dfe:	74 02                	je     408e02 <___mingw_readdir+0x32>
  408e00:	89 d8                	mov    %ebx,%eax
  408e02:	83 c4 08             	add    $0x8,%esp
  408e05:	5b                   	pop    %ebx
  408e06:	c3                   	ret    
  408e07:	e8 54 4c 00 00       	call   40da60 <__errno>
  408e0c:	c7 00 09 00 00 00    	movl   $0x9,(%eax)
  408e12:	31 c0                	xor    %eax,%eax
  408e14:	eb ec                	jmp    408e02 <___mingw_readdir+0x32>
  408e16:	8d 76 00             	lea    0x0(%esi),%esi
  408e19:	8d bc 27 00 00 00 00 	lea    0x0(%edi,%eiz,1),%edi

00408e20 <___mingw_closedir>:
  408e20:	55                   	push   %ebp
  408e21:	89 e5                	mov    %esp,%ebp
  408e23:	53                   	push   %ebx
  408e24:	83 ec 14             	sub    $0x14,%esp
  408e27:	8b 5d 08             	mov    0x8(%ebp),%ebx
  408e2a:	85 db                	test   %ebx,%ebx
  408e2c:	74 24                	je     408e52 <___mingw_closedir+0x32>
  408e2e:	8b 83 10 01 00 00    	mov    0x110(%ebx),%eax
  408e34:	89 04 24             	mov    %eax,(%esp)
  408e37:	e8 dc 54 00 00       	call   40e318 <_FindClose@4>
  408e3c:	83 ec 04             	sub    $0x4,%esp
  408e3f:	85 c0                	test   %eax,%eax
  408e41:	74 0f                	je     408e52 <___mingw_closedir+0x32>
  408e43:	89 1c 24             	mov    %ebx,(%esp)
  408e46:	e8 b5 4b 00 00       	call   40da00 <_free>
  408e4b:	31 c0                	xor    %eax,%eax
  408e4d:	8b 5d fc             	mov    -0x4(%ebp),%ebx
  408e50:	c9                   	leave  
  408e51:	c3                   	ret    
  408e52:	e8 09 4c 00 00       	call   40da60 <__errno>
  408e57:	c7 00 09 00 00 00    	movl   $0x9,(%eax)
  408e5d:	b8 ff ff ff ff       	mov    $0xffffffff,%eax
  408e62:	eb e9                	jmp    408e4d <___mingw_closedir+0x2d>
  408e64:	8d b6 00 00 00 00    	lea    0x0(%esi),%esi
  408e6a:	8d bf 00 00 00 00    	lea    0x0(%edi),%edi

00408e70 <___mingw_rewinddir>:
  408e70:	55                   	push   %ebp
  408e71:	89 e5                	mov    %esp,%ebp
  408e73:	53                   	push   %ebx
  408e74:	83 ec 14             	sub    $0x14,%esp
  408e77:	8b 5d 08             	mov    0x8(%ebp),%ebx
  408e7a:	85 db                	test   %ebx,%ebx
  408e7c:	74 15                	je     408e93 <___mingw_rewinddir+0x23>
  408e7e:	8b 83 10 01 00 00    	mov    0x110(%ebx),%eax
  408e84:	89 04 24             	mov    %eax,(%esp)
  408e87:	e8 8c 54 00 00       	call   40e318 <_FindClose@4>
  408e8c:	83 ec 04             	sub    $0x4,%esp
  408e8f:	85 c0                	test   %eax,%eax
  408e91:	75 10                	jne    408ea3 <___mingw_rewinddir+0x33>
  408e93:	e8 c8 4b 00 00       	call   40da60 <__errno>
  408e98:	c7 00 09 00 00 00    	movl   $0x9,(%eax)
  408e9e:	8b 5d fc             	mov    -0x4(%ebp),%ebx
  408ea1:	c9                   	leave  
  408ea2:	c3                   	ret    
  408ea3:	8d 83 18 01 00 00    	lea    0x118(%ebx),%eax
  408ea9:	89 da                	mov    %ebx,%edx
  408eab:	e8 b0 fc ff ff       	call   408b60 <_dirent_findfirst>
  408eb0:	83 f8 ff             	cmp    $0xffffffff,%eax
  408eb3:	89 83 10 01 00 00    	mov    %eax,0x110(%ebx)
  408eb9:	74 e3                	je     408e9e <___mingw_rewinddir+0x2e>
  408ebb:	c7 83 14 01 00 00 00 	movl   $0x0,0x114(%ebx)
  408ec2:	00 00 00 
  408ec5:	8b 5d fc             	mov    -0x4(%ebp),%ebx
  408ec8:	c9                   	leave  
  408ec9:	c3                   	ret    
  408eca:	8d b6 00 00 00 00    	lea    0x0(%esi),%esi

00408ed0 <___mingw_telldir>:
  408ed0:	83 ec 0c             	sub    $0xc,%esp
  408ed3:	8b 44 24 10          	mov    0x10(%esp),%eax
  408ed7:	85 c0                	test   %eax,%eax
  408ed9:	74 0a                	je     408ee5 <___mingw_telldir+0x15>
  408edb:	8b 80 14 01 00 00    	mov    0x114(%eax),%eax
  408ee1:	83 c4 0c             	add    $0xc,%esp
  408ee4:	c3                   	ret    
  408ee5:	e8 76 4b 00 00       	call   40da60 <__errno>
  408eea:	c7 00 09 00 00 00    	movl   $0x9,(%eax)
  408ef0:	b8 ff ff ff ff       	mov    $0xffffffff,%eax
  408ef5:	eb ea                	jmp    408ee1 <___mingw_telldir+0x11>
  408ef7:	89 f6                	mov    %esi,%esi
  408ef9:	8d bc 27 00 00 00 00 	lea    0x0(%edi,%eiz,1),%edi

00408f00 <___mingw_seekdir>:
  408f00:	56                   	push   %esi
  408f01:	53                   	push   %ebx
  408f02:	83 ec 14             	sub    $0x14,%esp
  408f05:	8b 74 24 24          	mov    0x24(%esp),%esi
  408f09:	8b 5c 24 20          	mov    0x20(%esp),%ebx
  408f0d:	85 f6                	test   %esi,%esi
  408f0f:	78 41                	js     408f52 <___mingw_seekdir+0x52>
  408f11:	89 1c 24             	mov    %ebx,(%esp)
  408f14:	e8 57 ff ff ff       	call   408e70 <___mingw_rewinddir>
  408f19:	85 f6                	test   %esi,%esi
  408f1b:	74 2f                	je     408f4c <___mingw_seekdir+0x4c>
  408f1d:	83 bb 10 01 00 00 ff 	cmpl   $0xffffffff,0x110(%ebx)
  408f24:	75 13                	jne    408f39 <___mingw_seekdir+0x39>
  408f26:	eb 24                	jmp    408f4c <___mingw_seekdir+0x4c>
  408f28:	8b 83 10 01 00 00    	mov    0x110(%ebx),%eax
  408f2e:	89 da                	mov    %ebx,%edx
  408f30:	e8 8b fb ff ff       	call   408ac0 <_dirent_findnext>
  408f35:	85 c0                	test   %eax,%eax
  408f37:	74 13                	je     408f4c <___mingw_seekdir+0x4c>
  408f39:	8b 83 14 01 00 00    	mov    0x114(%ebx),%eax
  408f3f:	83 c0 01             	add    $0x1,%eax
  408f42:	39 c6                	cmp    %eax,%esi
  408f44:	89 83 14 01 00 00    	mov    %eax,0x114(%ebx)
  408f4a:	7f dc                	jg     408f28 <___mingw_seekdir+0x28>
  408f4c:	83 c4 14             	add    $0x14,%esp
  408f4f:	5b                   	pop    %ebx
  408f50:	5e                   	pop    %esi
  408f51:	c3                   	ret    
  408f52:	e8 09 4b 00 00       	call   40da60 <__errno>
  408f57:	c7 00 16 00 00 00    	movl   $0x16,(%eax)
  408f5d:	83 c4 14             	add    $0x14,%esp
  408f60:	5b                   	pop    %ebx
  408f61:	5e                   	pop    %esi
  408f62:	c3                   	ret    
  408f63:	90                   	nop
  408f64:	90                   	nop
  408f65:	90                   	nop
  408f66:	90                   	nop
  408f67:	90                   	nop
  408f68:	90                   	nop
  408f69:	90                   	nop
  408f6a:	90                   	nop
  408f6b:	90                   	nop
  408f6c:	90                   	nop
  408f6d:	90                   	nop
  408f6e:	90                   	nop
  408f6f:	90                   	nop

00408f70 <___mingw_snprintf>:
  408f70:	83 ec 1c             	sub    $0x1c,%esp
  408f73:	8d 44 24 2c          	lea    0x2c(%esp),%eax
  408f77:	89 44 24 0c          	mov    %eax,0xc(%esp)
  408f7b:	8b 44 24 28          	mov    0x28(%esp),%eax
  408f7f:	89 44 24 08          	mov    %eax,0x8(%esp)
  408f83:	8b 44 24 24          	mov    0x24(%esp),%eax
  408f87:	89 44 24 04          	mov    %eax,0x4(%esp)
  408f8b:	8b 44 24 20          	mov    0x20(%esp),%eax
  408f8f:	89 04 24             	mov    %eax,(%esp)
  408f92:	e8 09 00 00 00       	call   408fa0 <___mingw_vsnprintf>
  408f97:	83 c4 1c             	add    $0x1c,%esp
  408f9a:	c3                   	ret    
  408f9b:	90                   	nop
  408f9c:	90                   	nop
  408f9d:	90                   	nop
  408f9e:	90                   	nop
  408f9f:	90                   	nop

00408fa0 <___mingw_vsnprintf>:
  408fa0:	56                   	push   %esi
  408fa1:	53                   	push   %ebx
  408fa2:	83 ec 24             	sub    $0x24,%esp
  408fa5:	8b 44 24 34          	mov    0x34(%esp),%eax
  408fa9:	8b 5c 24 30          	mov    0x30(%esp),%ebx
  408fad:	8b 54 24 38          	mov    0x38(%esp),%edx
  408fb1:	8b 4c 24 3c          	mov    0x3c(%esp),%ecx
  408fb5:	85 c0                	test   %eax,%eax
  408fb7:	74 37                	je     408ff0 <___mingw_vsnprintf+0x50>
  408fb9:	8d 70 ff             	lea    -0x1(%eax),%esi
  408fbc:	89 54 24 0c          	mov    %edx,0xc(%esp)
  408fc0:	89 4c 24 10          	mov    %ecx,0x10(%esp)
  408fc4:	89 74 24 08          	mov    %esi,0x8(%esp)
  408fc8:	89 5c 24 04          	mov    %ebx,0x4(%esp)
  408fcc:	c7 04 24 00 00 00 00 	movl   $0x0,(%esp)
  408fd3:	e8 e8 15 00 00       	call   40a5c0 <___mingw_pformat>
  408fd8:	39 f0                	cmp    %esi,%eax
  408fda:	89 c2                	mov    %eax,%edx
  408fdc:	77 0a                	ja     408fe8 <___mingw_vsnprintf+0x48>
  408fde:	c6 04 13 00          	movb   $0x0,(%ebx,%edx,1)
  408fe2:	83 c4 24             	add    $0x24,%esp
  408fe5:	5b                   	pop    %ebx
  408fe6:	5e                   	pop    %esi
  408fe7:	c3                   	ret    
  408fe8:	89 f2                	mov    %esi,%edx
  408fea:	eb f2                	jmp    408fde <___mingw_vsnprintf+0x3e>
  408fec:	8d 74 26 00          	lea    0x0(%esi,%eiz,1),%esi
  408ff0:	89 5c 24 04          	mov    %ebx,0x4(%esp)
  408ff4:	89 4c 24 10          	mov    %ecx,0x10(%esp)
  408ff8:	89 54 24 0c          	mov    %edx,0xc(%esp)
  408ffc:	c7 44 24 08 00 00 00 	movl   $0x0,0x8(%esp)
  409003:	00 
  409004:	c7 04 24 00 00 00 00 	movl   $0x0,(%esp)
  40900b:	e8 b0 15 00 00       	call   40a5c0 <___mingw_pformat>
  409010:	83 c4 24             	add    $0x24,%esp
  409013:	5b                   	pop    %ebx
  409014:	5e                   	pop    %esi
  409015:	c3                   	ret    
  409016:	90                   	nop
  409017:	90                   	nop
  409018:	90                   	nop
  409019:	90                   	nop
  40901a:	90                   	nop
  40901b:	90                   	nop
  40901c:	90                   	nop
  40901d:	90                   	nop
  40901e:	90                   	nop
  40901f:	90                   	nop

00409020 <___pformat_cvt>:
  409020:	53                   	push   %ebx
  409021:	89 c1                	mov    %eax,%ecx
  409023:	83 ec 48             	sub    $0x48,%esp
  409026:	8b 44 24 50          	mov    0x50(%esp),%eax
  40902a:	89 44 24 20          	mov    %eax,0x20(%esp)
  40902e:	8b 44 24 54          	mov    0x54(%esp),%eax
  409032:	89 44 24 24          	mov    %eax,0x24(%esp)
  409036:	8b 44 24 58          	mov    0x58(%esp),%eax
  40903a:	89 44 24 28          	mov    %eax,0x28(%esp)
  40903e:	8b 44 24 5c          	mov    0x5c(%esp),%eax
  409042:	db 6c 24 20          	fldt   0x20(%esp)
  409046:	89 44 24 2c          	mov    %eax,0x2c(%esp)
  40904a:	d9 e5                	fxam   
  40904c:	9b df e0             	fstsw  %ax
  40904f:	dd d8                	fstp   %st(0)
  409051:	f6 c4 01             	test   $0x1,%ah
  409054:	74 1a                	je     409070 <___pformat_cvt+0x50>
  409056:	f6 c4 04             	test   $0x4,%ah
  409059:	0f 84 91 00 00 00    	je     4090f0 <___pformat_cvt+0xd0>
  40905f:	c7 44 24 38 03 00 00 	movl   $0x3,0x38(%esp)
  409066:	00 
  409067:	0f b7 54 24 28       	movzwl 0x28(%esp),%edx
  40906c:	31 c0                	xor    %eax,%eax
  40906e:	eb 14                	jmp    409084 <___pformat_cvt+0x64>
  409070:	f6 c4 04             	test   $0x4,%ah
  409073:	75 5c                	jne    4090d1 <___pformat_cvt+0xb1>
  409075:	0f b7 54 24 28       	movzwl 0x28(%esp),%edx
  40907a:	31 c0                	xor    %eax,%eax
  40907c:	c7 44 24 38 00 00 00 	movl   $0x0,0x38(%esp)
  409083:	00 
  409084:	81 e2 00 80 00 00    	and    $0x8000,%edx
  40908a:	8b 5c 24 68          	mov    0x68(%esp),%ebx
  40908e:	89 13                	mov    %edx,(%ebx)
  409090:	8d 54 24 3c          	lea    0x3c(%esp),%edx
  409094:	89 54 24 1c          	mov    %edx,0x1c(%esp)
  409098:	8b 54 24 64          	mov    0x64(%esp),%edx
  40909c:	89 4c 24 10          	mov    %ecx,0x10(%esp)
  4090a0:	89 44 24 04          	mov    %eax,0x4(%esp)
  4090a4:	c7 04 24 94 f8 40 00 	movl   $0x40f894,(%esp)
  4090ab:	89 54 24 18          	mov    %edx,0x18(%esp)
  4090af:	8b 54 24 60          	mov    0x60(%esp),%edx
  4090b3:	89 54 24 14          	mov    %edx,0x14(%esp)
  4090b7:	8d 54 24 38          	lea    0x38(%esp),%edx
  4090bb:	89 54 24 0c          	mov    %edx,0xc(%esp)
  4090bf:	8d 54 24 20          	lea    0x20(%esp),%edx
  4090c3:	89 54 24 08          	mov    %edx,0x8(%esp)
  4090c7:	e8 64 1e 00 00       	call   40af30 <___gdtoa>
  4090cc:	83 c4 48             	add    $0x48,%esp
  4090cf:	5b                   	pop    %ebx
  4090d0:	c3                   	ret    
  4090d1:	f6 c4 40             	test   $0x40,%ah
  4090d4:	74 2a                	je     409100 <___pformat_cvt+0xe0>
  4090d6:	c7 44 24 38 02 00 00 	movl   $0x2,0x38(%esp)
  4090dd:	00 
  4090de:	0f b7 54 24 28       	movzwl 0x28(%esp),%edx
  4090e3:	b8 c3 bf ff ff       	mov    $0xffffbfc3,%eax
  4090e8:	eb 9a                	jmp    409084 <___pformat_cvt+0x64>
  4090ea:	8d b6 00 00 00 00    	lea    0x0(%esi),%esi
  4090f0:	c7 44 24 38 04 00 00 	movl   $0x4,0x38(%esp)
  4090f7:	00 
  4090f8:	31 c0                	xor    %eax,%eax
  4090fa:	31 d2                	xor    %edx,%edx
  4090fc:	eb 8c                	jmp    40908a <___pformat_cvt+0x6a>
  4090fe:	66 90                	xchg   %ax,%ax
  409100:	0f b7 54 24 28       	movzwl 0x28(%esp),%edx
  409105:	c7 44 24 38 01 00 00 	movl   $0x1,0x38(%esp)
  40910c:	00 
  40910d:	89 d0                	mov    %edx,%eax
  40910f:	25 ff 7f 00 00       	and    $0x7fff,%eax
  409114:	2d 3e 40 00 00       	sub    $0x403e,%eax
  409119:	e9 66 ff ff ff       	jmp    409084 <___pformat_cvt+0x64>
  40911e:	66 90                	xchg   %ax,%ax

00409120 <___pformat_putc>:
  409120:	53                   	push   %ebx
  409121:	83 ec 18             	sub    $0x18,%esp
  409124:	8b 4a 04             	mov    0x4(%edx),%ecx
  409127:	f6 c5 20             	test   $0x20,%ch
  40912a:	75 08                	jne    409134 <___pformat_putc+0x14>
  40912c:	8b 5a 18             	mov    0x18(%edx),%ebx
  40912f:	39 5a 1c             	cmp    %ebx,0x1c(%edx)
  409132:	7e 10                	jle    409144 <___pformat_putc+0x24>
  409134:	80 e5 10             	and    $0x10,%ch
  409137:	75 17                	jne    409150 <___pformat_putc+0x30>
  409139:	8b 1a                	mov    (%edx),%ebx
  40913b:	8b 4a 18             	mov    0x18(%edx),%ecx
  40913e:	88 04 0b             	mov    %al,(%ebx,%ecx,1)
  409141:	8b 5a 18             	mov    0x18(%edx),%ebx
  409144:	83 c3 01             	add    $0x1,%ebx
  409147:	89 5a 18             	mov    %ebx,0x18(%edx)
  40914a:	83 c4 18             	add    $0x18,%esp
  40914d:	5b                   	pop    %ebx
  40914e:	c3                   	ret    
  40914f:	90                   	nop
  409150:	8b 0a                	mov    (%edx),%ecx
  409152:	89 04 24             	mov    %eax,(%esp)
  409155:	89 54 24 0c          	mov    %edx,0xc(%esp)
  409159:	89 4c 24 04          	mov    %ecx,0x4(%esp)
  40915d:	e8 26 49 00 00       	call   40da88 <_fputc>
  409162:	8b 54 24 0c          	mov    0xc(%esp),%edx
  409166:	8b 5a 18             	mov    0x18(%edx),%ebx
  409169:	83 c3 01             	add    $0x1,%ebx
  40916c:	89 5a 18             	mov    %ebx,0x18(%edx)
  40916f:	83 c4 18             	add    $0x18,%esp
  409172:	5b                   	pop    %ebx
  409173:	c3                   	ret    
  409174:	8d b6 00 00 00 00    	lea    0x0(%esi),%esi
  40917a:	8d bf 00 00 00 00    	lea    0x0(%edi),%edi

00409180 <___pformat_wputchars>:
  409180:	55                   	push   %ebp
  409181:	57                   	push   %edi
  409182:	56                   	push   %esi
  409183:	89 d6                	mov    %edx,%esi
  409185:	53                   	push   %ebx
  409186:	89 cb                	mov    %ecx,%ebx
  409188:	83 ec 4c             	sub    $0x4c,%esp
  40918b:	89 44 24 18          	mov    %eax,0x18(%esp)
  40918f:	8d 6c 24 30          	lea    0x30(%esp),%ebp
  409193:	8d 44 24 2c          	lea    0x2c(%esp),%eax
  409197:	89 44 24 08          	mov    %eax,0x8(%esp)
  40919b:	c7 44 24 04 00 00 00 	movl   $0x0,0x4(%esp)
  4091a2:	00 
  4091a3:	89 2c 24             	mov    %ebp,(%esp)
  4091a6:	e8 b5 32 00 00       	call   40c460 <_wcrtomb>
  4091ab:	8b 43 0c             	mov    0xc(%ebx),%eax
  4091ae:	85 c0                	test   %eax,%eax
  4091b0:	78 08                	js     4091ba <___pformat_wputchars+0x3a>
  4091b2:	39 c6                	cmp    %eax,%esi
  4091b4:	0f 8f c7 00 00 00    	jg     409281 <___pformat_wputchars+0x101>
  4091ba:	8b 43 08             	mov    0x8(%ebx),%eax
  4091bd:	39 c6                	cmp    %eax,%esi
  4091bf:	0f 8d 8c 00 00 00    	jge    409251 <___pformat_wputchars+0xd1>
  4091c5:	29 f0                	sub    %esi,%eax
  4091c7:	85 c0                	test   %eax,%eax
  4091c9:	89 43 08             	mov    %eax,0x8(%ebx)
  4091cc:	7e 0a                	jle    4091d8 <___pformat_wputchars+0x58>
  4091ce:	f6 43 05 04          	testb  $0x4,0x5(%ebx)
  4091d2:	0f 84 85 00 00 00    	je     40925d <___pformat_wputchars+0xdd>
  4091d8:	89 74 24 1c          	mov    %esi,0x1c(%esp)
  4091dc:	8d 74 26 00          	lea    0x0(%esi,%eiz,1),%esi
  4091e0:	8b 44 24 1c          	mov    0x1c(%esp),%eax
  4091e4:	85 c0                	test   %eax,%eax
  4091e6:	7e 54                	jle    40923c <___pformat_wputchars+0xbc>
  4091e8:	83 44 24 18 02       	addl   $0x2,0x18(%esp)
  4091ed:	8d 44 24 2c          	lea    0x2c(%esp),%eax
  4091f1:	89 44 24 08          	mov    %eax,0x8(%esp)
  4091f5:	8b 44 24 18          	mov    0x18(%esp),%eax
  4091f9:	0f b7 40 fe          	movzwl -0x2(%eax),%eax
  4091fd:	89 2c 24             	mov    %ebp,(%esp)
  409200:	89 44 24 04          	mov    %eax,0x4(%esp)
  409204:	e8 57 32 00 00       	call   40c460 <_wcrtomb>
  409209:	85 c0                	test   %eax,%eax
  40920b:	7e 2f                	jle    40923c <___pformat_wputchars+0xbc>
  40920d:	8d 74 05 00          	lea    0x0(%ebp,%eax,1),%esi
  409211:	89 ef                	mov    %ebp,%edi
  409213:	83 c7 01             	add    $0x1,%edi
  409216:	0f be 47 ff          	movsbl -0x1(%edi),%eax
  40921a:	89 da                	mov    %ebx,%edx
  40921c:	e8 ff fe ff ff       	call   409120 <___pformat_putc>
  409221:	39 f7                	cmp    %esi,%edi
  409223:	75 ee                	jne    409213 <___pformat_wputchars+0x93>
  409225:	83 6c 24 1c 01       	subl   $0x1,0x1c(%esp)
  40922a:	eb b4                	jmp    4091e0 <___pformat_wputchars+0x60>
  40922c:	8d 74 26 00          	lea    0x0(%esi,%eiz,1),%esi
  409230:	89 da                	mov    %ebx,%edx
  409232:	b8 20 00 00 00       	mov    $0x20,%eax
  409237:	e8 e4 fe ff ff       	call   409120 <___pformat_putc>
  40923c:	8b 43 08             	mov    0x8(%ebx),%eax
  40923f:	8d 50 ff             	lea    -0x1(%eax),%edx
  409242:	85 c0                	test   %eax,%eax
  409244:	89 53 08             	mov    %edx,0x8(%ebx)
  409247:	7f e7                	jg     409230 <___pformat_wputchars+0xb0>
  409249:	83 c4 4c             	add    $0x4c,%esp
  40924c:	5b                   	pop    %ebx
  40924d:	5e                   	pop    %esi
  40924e:	5f                   	pop    %edi
  40924f:	5d                   	pop    %ebp
  409250:	c3                   	ret    
  409251:	c7 43 08 ff ff ff ff 	movl   $0xffffffff,0x8(%ebx)
  409258:	e9 7b ff ff ff       	jmp    4091d8 <___pformat_wputchars+0x58>
  40925d:	83 e8 01             	sub    $0x1,%eax
  409260:	89 43 08             	mov    %eax,0x8(%ebx)
  409263:	89 da                	mov    %ebx,%edx
  409265:	b8 20 00 00 00       	mov    $0x20,%eax
  40926a:	e8 b1 fe ff ff       	call   409120 <___pformat_putc>
  40926f:	8b 43 08             	mov    0x8(%ebx),%eax
  409272:	8d 50 ff             	lea    -0x1(%eax),%edx
  409275:	85 c0                	test   %eax,%eax
  409277:	89 53 08             	mov    %edx,0x8(%ebx)
  40927a:	75 e7                	jne    409263 <___pformat_wputchars+0xe3>
  40927c:	e9 57 ff ff ff       	jmp    4091d8 <___pformat_wputchars+0x58>
  409281:	89 c6                	mov    %eax,%esi
  409283:	e9 32 ff ff ff       	jmp    4091ba <___pformat_wputchars+0x3a>
  409288:	90                   	nop
  409289:	8d b4 26 00 00 00 00 	lea    0x0(%esi,%eiz,1),%esi

00409290 <___pformat_putchars>:
  409290:	57                   	push   %edi
  409291:	89 c7                	mov    %eax,%edi
  409293:	8b 41 0c             	mov    0xc(%ecx),%eax
  409296:	56                   	push   %esi
  409297:	89 d6                	mov    %edx,%esi
  409299:	53                   	push   %ebx
  40929a:	89 cb                	mov    %ecx,%ebx
  40929c:	85 c0                	test   %eax,%eax
  40929e:	78 08                	js     4092a8 <___pformat_putchars+0x18>
  4092a0:	39 c2                	cmp    %eax,%edx
  4092a2:	0f 8f 88 00 00 00    	jg     409330 <___pformat_putchars+0xa0>
  4092a8:	8b 43 08             	mov    0x8(%ebx),%eax
  4092ab:	39 c6                	cmp    %eax,%esi
  4092ad:	7d 71                	jge    409320 <___pformat_putchars+0x90>
  4092af:	29 f0                	sub    %esi,%eax
  4092b1:	85 c0                	test   %eax,%eax
  4092b3:	89 43 08             	mov    %eax,0x8(%ebx)
  4092b6:	7e 25                	jle    4092dd <___pformat_putchars+0x4d>
  4092b8:	f6 43 05 04          	testb  $0x4,0x5(%ebx)
  4092bc:	75 1f                	jne    4092dd <___pformat_putchars+0x4d>
  4092be:	83 e8 01             	sub    $0x1,%eax
  4092c1:	89 43 08             	mov    %eax,0x8(%ebx)
  4092c4:	89 da                	mov    %ebx,%edx
  4092c6:	b8 20 00 00 00       	mov    $0x20,%eax
  4092cb:	e8 50 fe ff ff       	call   409120 <___pformat_putc>
  4092d0:	8b 43 08             	mov    0x8(%ebx),%eax
  4092d3:	8d 50 ff             	lea    -0x1(%eax),%edx
  4092d6:	85 c0                	test   %eax,%eax
  4092d8:	89 53 08             	mov    %edx,0x8(%ebx)
  4092db:	75 e7                	jne    4092c4 <___pformat_putchars+0x34>
  4092dd:	85 f6                	test   %esi,%esi
  4092df:	74 2c                	je     40930d <___pformat_putchars+0x7d>
  4092e1:	83 c7 01             	add    $0x1,%edi
  4092e4:	0f be 47 ff          	movsbl -0x1(%edi),%eax
  4092e8:	89 da                	mov    %ebx,%edx
  4092ea:	e8 31 fe ff ff       	call   409120 <___pformat_putc>
  4092ef:	83 ee 01             	sub    $0x1,%esi
  4092f2:	75 ed                	jne    4092e1 <___pformat_putchars+0x51>
  4092f4:	8b 43 08             	mov    0x8(%ebx),%eax
  4092f7:	8d 50 ff             	lea    -0x1(%eax),%edx
  4092fa:	85 c0                	test   %eax,%eax
  4092fc:	89 53 08             	mov    %edx,0x8(%ebx)
  4092ff:	7e 19                	jle    40931a <___pformat_putchars+0x8a>
  409301:	89 da                	mov    %ebx,%edx
  409303:	b8 20 00 00 00       	mov    $0x20,%eax
  409308:	e8 13 fe ff ff       	call   409120 <___pformat_putc>
  40930d:	8b 43 08             	mov    0x8(%ebx),%eax
  409310:	8d 50 ff             	lea    -0x1(%eax),%edx
  409313:	85 c0                	test   %eax,%eax
  409315:	89 53 08             	mov    %edx,0x8(%ebx)
  409318:	7f e7                	jg     409301 <___pformat_putchars+0x71>
  40931a:	5b                   	pop    %ebx
  40931b:	5e                   	pop    %esi
  40931c:	5f                   	pop    %edi
  40931d:	c3                   	ret    
  40931e:	66 90                	xchg   %ax,%ax
  409320:	c7 43 08 ff ff ff ff 	movl   $0xffffffff,0x8(%ebx)
  409327:	eb b4                	jmp    4092dd <___pformat_putchars+0x4d>
  409329:	8d b4 26 00 00 00 00 	lea    0x0(%esi,%eiz,1),%esi
  409330:	89 c6                	mov    %eax,%esi
  409332:	e9 71 ff ff ff       	jmp    4092a8 <___pformat_putchars+0x18>
  409337:	89 f6                	mov    %esi,%esi
  409339:	8d bc 27 00 00 00 00 	lea    0x0(%edi,%eiz,1),%edi

00409340 <___pformat_emit_inf_or_nan>:
  409340:	55                   	push   %ebp
  409341:	57                   	push   %edi
  409342:	56                   	push   %esi
  409343:	53                   	push   %ebx
  409344:	83 ec 1c             	sub    $0x1c,%esp
  409347:	85 c0                	test   %eax,%eax
  409349:	c7 41 0c ff ff ff ff 	movl   $0xffffffff,0xc(%ecx)
  409350:	74 3e                	je     409390 <___pformat_emit_inf_or_nan+0x50>
  409352:	8b 69 04             	mov    0x4(%ecx),%ebp
  409355:	8d 7c 24 0d          	lea    0xd(%esp),%edi
  409359:	c6 44 24 0c 2d       	movb   $0x2d,0xc(%esp)
  40935e:	8d 44 24 0c          	lea    0xc(%esp),%eax
  409362:	83 e5 20             	and    $0x20,%ebp
  409365:	31 f6                	xor    %esi,%esi
  409367:	0f b6 1c 32          	movzbl (%edx,%esi,1),%ebx
  40936b:	83 e3 df             	and    $0xffffffdf,%ebx
  40936e:	09 eb                	or     %ebp,%ebx
  409370:	88 1c 37             	mov    %bl,(%edi,%esi,1)
  409373:	83 c6 01             	add    $0x1,%esi
  409376:	83 fe 03             	cmp    $0x3,%esi
  409379:	75 ec                	jne    409367 <___pformat_emit_inf_or_nan+0x27>
  40937b:	8d 57 03             	lea    0x3(%edi),%edx
  40937e:	29 c2                	sub    %eax,%edx
  409380:	e8 0b ff ff ff       	call   409290 <___pformat_putchars>
  409385:	83 c4 1c             	add    $0x1c,%esp
  409388:	5b                   	pop    %ebx
  409389:	5e                   	pop    %esi
  40938a:	5f                   	pop    %edi
  40938b:	5d                   	pop    %ebp
  40938c:	c3                   	ret    
  40938d:	8d 76 00             	lea    0x0(%esi),%esi
  409390:	8b 69 04             	mov    0x4(%ecx),%ebp
  409393:	f7 c5 00 01 00 00    	test   $0x100,%ebp
  409399:	74 15                	je     4093b0 <___pformat_emit_inf_or_nan+0x70>
  40939b:	c6 44 24 0c 2b       	movb   $0x2b,0xc(%esp)
  4093a0:	8d 7c 24 0d          	lea    0xd(%esp),%edi
  4093a4:	8d 44 24 0c          	lea    0xc(%esp),%eax
  4093a8:	eb b8                	jmp    409362 <___pformat_emit_inf_or_nan+0x22>
  4093aa:	8d b6 00 00 00 00    	lea    0x0(%esi),%esi
  4093b0:	f7 c5 40 00 00 00    	test   $0x40,%ebp
  4093b6:	74 0f                	je     4093c7 <___pformat_emit_inf_or_nan+0x87>
  4093b8:	c6 44 24 0c 20       	movb   $0x20,0xc(%esp)
  4093bd:	8d 7c 24 0d          	lea    0xd(%esp),%edi
  4093c1:	8d 44 24 0c          	lea    0xc(%esp),%eax
  4093c5:	eb 9b                	jmp    409362 <___pformat_emit_inf_or_nan+0x22>
  4093c7:	8d 44 24 0c          	lea    0xc(%esp),%eax
  4093cb:	89 c7                	mov    %eax,%edi
  4093cd:	eb 93                	jmp    409362 <___pformat_emit_inf_or_nan+0x22>
  4093cf:	90                   	nop

004093d0 <___pformat_int>:
  4093d0:	55                   	push   %ebp
  4093d1:	89 e5                	mov    %esp,%ebp
  4093d3:	57                   	push   %edi
  4093d4:	89 d7                	mov    %edx,%edi
  4093d6:	56                   	push   %esi
  4093d7:	89 c6                	mov    %eax,%esi
  4093d9:	53                   	push   %ebx
  4093da:	89 cb                	mov    %ecx,%ebx
  4093dc:	83 ec 2c             	sub    $0x2c,%esp
  4093df:	89 55 dc             	mov    %edx,-0x24(%ebp)
  4093e2:	8b 51 0c             	mov    0xc(%ecx),%edx
  4093e5:	89 45 d8             	mov    %eax,-0x28(%ebp)
  4093e8:	8b 49 08             	mov    0x8(%ecx),%ecx
  4093eb:	89 d0                	mov    %edx,%eax
  4093ed:	c1 f8 1f             	sar    $0x1f,%eax
  4093f0:	f7 d0                	not    %eax
  4093f2:	21 d0                	and    %edx,%eax
  4093f4:	83 c0 17             	add    $0x17,%eax
  4093f7:	39 c8                	cmp    %ecx,%eax
  4093f9:	7d 02                	jge    4093fd <___pformat_int+0x2d>
  4093fb:	89 c8                	mov    %ecx,%eax
  4093fd:	83 c0 0f             	add    $0xf,%eax
  409400:	83 e0 f0             	and    $0xfffffff0,%eax
  409403:	e8 a8 e5 ff ff       	call   4079b0 <___chkstk_ms>
  409408:	29 c4                	sub    %eax,%esp
  40940a:	8d 44 24 10          	lea    0x10(%esp),%eax
  40940e:	89 45 e4             	mov    %eax,-0x1c(%ebp)
  409411:	8b 43 04             	mov    0x4(%ebx),%eax
  409414:	a8 80                	test   $0x80,%al
  409416:	74 0d                	je     409425 <___pformat_int+0x55>
  409418:	85 ff                	test   %edi,%edi
  40941a:	0f 88 b0 01 00 00    	js     4095d0 <___pformat_int+0x200>
  409420:	24 7f                	and    $0x7f,%al
  409422:	89 43 04             	mov    %eax,0x4(%ebx)
  409425:	8b 4d dc             	mov    -0x24(%ebp),%ecx
  409428:	8b 7d d8             	mov    -0x28(%ebp),%edi
  40942b:	8b 75 e4             	mov    -0x1c(%ebp),%esi
  40942e:	89 c8                	mov    %ecx,%eax
  409430:	09 f8                	or     %edi,%eax
  409432:	74 5d                	je     409491 <___pformat_int+0xc1>
  409434:	89 5d d8             	mov    %ebx,-0x28(%ebp)
  409437:	89 cb                	mov    %ecx,%ebx
  409439:	8d b4 26 00 00 00 00 	lea    0x0(%esi,%eiz,1),%esi
  409440:	89 3c 24             	mov    %edi,(%esp)
  409443:	83 c6 01             	add    $0x1,%esi
  409446:	89 5c 24 04          	mov    %ebx,0x4(%esp)
  40944a:	c7 44 24 08 0a 00 00 	movl   $0xa,0x8(%esp)
  409451:	00 
  409452:	c7 44 24 0c 00 00 00 	movl   $0x0,0xc(%esp)
  409459:	00 
  40945a:	e8 f1 e2 ff ff       	call   407750 <___umoddi3>
  40945f:	83 c0 30             	add    $0x30,%eax
  409462:	88 46 ff             	mov    %al,-0x1(%esi)
  409465:	89 3c 24             	mov    %edi,(%esp)
  409468:	89 5c 24 04          	mov    %ebx,0x4(%esp)
  40946c:	c7 44 24 08 0a 00 00 	movl   $0xa,0x8(%esp)
  409473:	00 
  409474:	c7 44 24 0c 00 00 00 	movl   $0x0,0xc(%esp)
  40947b:	00 
  40947c:	e8 1f e4 ff ff       	call   4078a0 <___udivdi3>
  409481:	89 c7                	mov    %eax,%edi
  409483:	89 d0                	mov    %edx,%eax
  409485:	09 f8                	or     %edi,%eax
  409487:	89 d3                	mov    %edx,%ebx
  409489:	75 b5                	jne    409440 <___pformat_int+0x70>
  40948b:	8b 5d d8             	mov    -0x28(%ebp),%ebx
  40948e:	8b 53 0c             	mov    0xc(%ebx),%edx
  409491:	85 d2                	test   %edx,%edx
  409493:	89 f7                	mov    %esi,%edi
  409495:	7e 19                	jle    4094b0 <___pformat_int+0xe0>
  409497:	8b 45 e4             	mov    -0x1c(%ebp),%eax
  40949a:	29 f0                	sub    %esi,%eax
  40949c:	01 c2                	add    %eax,%edx
  40949e:	85 d2                	test   %edx,%edx
  4094a0:	7e 0e                	jle    4094b0 <___pformat_int+0xe0>
  4094a2:	8d 3c 16             	lea    (%esi,%edx,1),%edi
  4094a5:	83 c6 01             	add    $0x1,%esi
  4094a8:	39 fe                	cmp    %edi,%esi
  4094aa:	c6 46 ff 30          	movb   $0x30,-0x1(%esi)
  4094ae:	75 f5                	jne    4094a5 <___pformat_int+0xd5>
  4094b0:	3b 7d e4             	cmp    -0x1c(%ebp),%edi
  4094b3:	0f 84 29 01 00 00    	je     4095e2 <___pformat_int+0x212>
  4094b9:	8b 43 08             	mov    0x8(%ebx),%eax
  4094bc:	85 c0                	test   %eax,%eax
  4094be:	7e 59                	jle    409519 <___pformat_int+0x149>
  4094c0:	8b 55 e4             	mov    -0x1c(%ebp),%edx
  4094c3:	29 fa                	sub    %edi,%edx
  4094c5:	01 c2                	add    %eax,%edx
  4094c7:	8b 43 04             	mov    0x4(%ebx),%eax
  4094ca:	85 d2                	test   %edx,%edx
  4094cc:	89 53 08             	mov    %edx,0x8(%ebx)
  4094cf:	7e 4b                	jle    40951c <___pformat_int+0x14c>
  4094d1:	a9 c0 01 00 00       	test   $0x1c0,%eax
  4094d6:	74 06                	je     4094de <___pformat_int+0x10e>
  4094d8:	83 ea 01             	sub    $0x1,%edx
  4094db:	89 53 08             	mov    %edx,0x8(%ebx)
  4094de:	8b 53 0c             	mov    0xc(%ebx),%edx
  4094e1:	85 d2                	test   %edx,%edx
  4094e3:	0f 88 a7 00 00 00    	js     409590 <___pformat_int+0x1c0>
  4094e9:	f6 c4 04             	test   $0x4,%ah
  4094ec:	75 2e                	jne    40951c <___pformat_int+0x14c>
  4094ee:	8b 53 08             	mov    0x8(%ebx),%edx
  4094f1:	8d 4a ff             	lea    -0x1(%edx),%ecx
  4094f4:	85 d2                	test   %edx,%edx
  4094f6:	89 4b 08             	mov    %ecx,0x8(%ebx)
  4094f9:	7e 21                	jle    40951c <___pformat_int+0x14c>
  4094fb:	90                   	nop
  4094fc:	8d 74 26 00          	lea    0x0(%esi,%eiz,1),%esi
  409500:	89 da                	mov    %ebx,%edx
  409502:	b8 20 00 00 00       	mov    $0x20,%eax
  409507:	e8 14 fc ff ff       	call   409120 <___pformat_putc>
  40950c:	8b 43 08             	mov    0x8(%ebx),%eax
  40950f:	8d 50 ff             	lea    -0x1(%eax),%edx
  409512:	85 c0                	test   %eax,%eax
  409514:	89 53 08             	mov    %edx,0x8(%ebx)
  409517:	7f e7                	jg     409500 <___pformat_int+0x130>
  409519:	8b 43 04             	mov    0x4(%ebx),%eax
  40951c:	a8 80                	test   $0x80,%al
  40951e:	74 51                	je     409571 <___pformat_int+0x1a1>
  409520:	8d 77 01             	lea    0x1(%edi),%esi
  409523:	c6 07 2d             	movb   $0x2d,(%edi)
  409526:	39 75 e4             	cmp    %esi,-0x1c(%ebp)
  409529:	8b 7d e4             	mov    -0x1c(%ebp),%edi
  40952c:	73 2e                	jae    40955c <___pformat_int+0x18c>
  40952e:	66 90                	xchg   %ax,%ax
  409530:	83 ee 01             	sub    $0x1,%esi
  409533:	0f be 06             	movsbl (%esi),%eax
  409536:	89 da                	mov    %ebx,%edx
  409538:	e8 e3 fb ff ff       	call   409120 <___pformat_putc>
  40953d:	39 fe                	cmp    %edi,%esi
  40953f:	75 ef                	jne    409530 <___pformat_int+0x160>
  409541:	8b 43 08             	mov    0x8(%ebx),%eax
  409544:	8d 50 ff             	lea    -0x1(%eax),%edx
  409547:	85 c0                	test   %eax,%eax
  409549:	89 53 08             	mov    %edx,0x8(%ebx)
  40954c:	7e 1b                	jle    409569 <___pformat_int+0x199>
  40954e:	66 90                	xchg   %ax,%ax
  409550:	89 da                	mov    %ebx,%edx
  409552:	b8 20 00 00 00       	mov    $0x20,%eax
  409557:	e8 c4 fb ff ff       	call   409120 <___pformat_putc>
  40955c:	8b 43 08             	mov    0x8(%ebx),%eax
  40955f:	8d 50 ff             	lea    -0x1(%eax),%edx
  409562:	85 c0                	test   %eax,%eax
  409564:	89 53 08             	mov    %edx,0x8(%ebx)
  409567:	7f e7                	jg     409550 <___pformat_int+0x180>
  409569:	8d 65 f4             	lea    -0xc(%ebp),%esp
  40956c:	5b                   	pop    %ebx
  40956d:	5e                   	pop    %esi
  40956e:	5f                   	pop    %edi
  40956f:	5d                   	pop    %ebp
  409570:	c3                   	ret    
  409571:	f6 c4 01             	test   $0x1,%ah
  409574:	74 0a                	je     409580 <___pformat_int+0x1b0>
  409576:	8d 77 01             	lea    0x1(%edi),%esi
  409579:	c6 07 2b             	movb   $0x2b,(%edi)
  40957c:	eb a8                	jmp    409526 <___pformat_int+0x156>
  40957e:	66 90                	xchg   %ax,%ax
  409580:	a8 40                	test   $0x40,%al
  409582:	89 fe                	mov    %edi,%esi
  409584:	74 a0                	je     409526 <___pformat_int+0x156>
  409586:	83 c6 01             	add    $0x1,%esi
  409589:	c6 07 20             	movb   $0x20,(%edi)
  40958c:	eb 98                	jmp    409526 <___pformat_int+0x156>
  40958e:	66 90                	xchg   %ax,%ax
  409590:	89 c2                	mov    %eax,%edx
  409592:	81 e2 00 06 00 00    	and    $0x600,%edx
  409598:	81 fa 00 02 00 00    	cmp    $0x200,%edx
  40959e:	0f 85 45 ff ff ff    	jne    4094e9 <___pformat_int+0x119>
  4095a4:	8b 53 08             	mov    0x8(%ebx),%edx
  4095a7:	8d 4a ff             	lea    -0x1(%edx),%ecx
  4095aa:	85 d2                	test   %edx,%edx
  4095ac:	89 4b 08             	mov    %ecx,0x8(%ebx)
  4095af:	0f 8e 67 ff ff ff    	jle    40951c <___pformat_int+0x14c>
  4095b5:	83 c7 01             	add    $0x1,%edi
  4095b8:	c6 47 ff 30          	movb   $0x30,-0x1(%edi)
  4095bc:	8b 43 08             	mov    0x8(%ebx),%eax
  4095bf:	8d 50 ff             	lea    -0x1(%eax),%edx
  4095c2:	85 c0                	test   %eax,%eax
  4095c4:	89 53 08             	mov    %edx,0x8(%ebx)
  4095c7:	7f ec                	jg     4095b5 <___pformat_int+0x1e5>
  4095c9:	e9 4b ff ff ff       	jmp    409519 <___pformat_int+0x149>
  4095ce:	66 90                	xchg   %ax,%ax
  4095d0:	f7 de                	neg    %esi
  4095d2:	83 d7 00             	adc    $0x0,%edi
  4095d5:	f7 df                	neg    %edi
  4095d7:	89 75 d8             	mov    %esi,-0x28(%ebp)
  4095da:	89 7d dc             	mov    %edi,-0x24(%ebp)
  4095dd:	e9 43 fe ff ff       	jmp    409425 <___pformat_int+0x55>
  4095e2:	8b 4b 0c             	mov    0xc(%ebx),%ecx
  4095e5:	85 c9                	test   %ecx,%ecx
  4095e7:	0f 84 cc fe ff ff    	je     4094b9 <___pformat_int+0xe9>
  4095ed:	c6 07 30             	movb   $0x30,(%edi)
  4095f0:	83 c7 01             	add    $0x1,%edi
  4095f3:	e9 c1 fe ff ff       	jmp    4094b9 <___pformat_int+0xe9>
  4095f8:	90                   	nop
  4095f9:	8d b4 26 00 00 00 00 	lea    0x0(%esi,%eiz,1),%esi

00409600 <___pformat_xint>:
  409600:	55                   	push   %ebp
  409601:	89 e5                	mov    %esp,%ebp
  409603:	57                   	push   %edi
  409604:	89 cf                	mov    %ecx,%edi
  409606:	56                   	push   %esi
  409607:	89 d6                	mov    %edx,%esi
  409609:	53                   	push   %ebx
  40960a:	83 ec 2c             	sub    $0x2c,%esp
  40960d:	89 55 dc             	mov    %edx,-0x24(%ebp)
  409610:	31 d2                	xor    %edx,%edx
  409612:	83 f8 6f             	cmp    $0x6f,%eax
  409615:	0f 94 c2             	sete   %dl
  409618:	83 ea 01             	sub    $0x1,%edx
  40961b:	83 e2 fa             	and    $0xfffffffa,%edx
  40961e:	89 4d d4             	mov    %ecx,-0x2c(%ebp)
  409621:	31 c9                	xor    %ecx,%ecx
  409623:	83 f8 6f             	cmp    $0x6f,%eax
  409626:	0f 95 c1             	setne  %cl
  409629:	89 45 d8             	mov    %eax,-0x28(%ebp)
  40962c:	89 c8                	mov    %ecx,%eax
  40962e:	89 45 e4             	mov    %eax,-0x1c(%ebp)
  409631:	8b 45 08             	mov    0x8(%ebp),%eax
  409634:	8d 1c cd 07 00 00 00 	lea    0x7(,%ecx,8),%ebx
  40963b:	89 5d d0             	mov    %ebx,-0x30(%ebp)
  40963e:	8b 4d 08             	mov    0x8(%ebp),%ecx
  409641:	83 45 e4 03          	addl   $0x3,-0x1c(%ebp)
  409645:	8b 58 0c             	mov    0xc(%eax),%ebx
  409648:	8b 49 08             	mov    0x8(%ecx),%ecx
  40964b:	89 d8                	mov    %ebx,%eax
  40964d:	c1 f8 1f             	sar    $0x1f,%eax
  409650:	f7 d0                	not    %eax
  409652:	21 d8                	and    %ebx,%eax
  409654:	8d 44 02 18          	lea    0x18(%edx,%eax,1),%eax
  409658:	39 c8                	cmp    %ecx,%eax
  40965a:	7d 02                	jge    40965e <___pformat_xint+0x5e>
  40965c:	89 c8                	mov    %ecx,%eax
  40965e:	83 c0 0f             	add    $0xf,%eax
  409661:	83 e0 f0             	and    $0xfffffff0,%eax
  409664:	e8 47 e3 ff ff       	call   4079b0 <___chkstk_ms>
  409669:	29 c4                	sub    %eax,%esp
  40966b:	8b 45 d4             	mov    -0x2c(%ebp),%eax
  40966e:	0b 45 dc             	or     -0x24(%ebp),%eax
  409671:	89 65 e0             	mov    %esp,-0x20(%ebp)
  409674:	0f 84 4a 02 00 00    	je     4098c4 <___pformat_xint+0x2c4>
  40967a:	0f b6 4d d8          	movzbl -0x28(%ebp),%ecx
  40967e:	89 e0                	mov    %esp,%eax
  409680:	0f b6 5d d0          	movzbl -0x30(%ebp),%ebx
  409684:	83 e1 20             	and    $0x20,%ecx
  409687:	88 4d dc             	mov    %cl,-0x24(%ebp)
  40968a:	eb 1f                	jmp    4096ab <___pformat_xint+0xab>
  40968c:	8d 74 26 00          	lea    0x0(%esi,%eiz,1),%esi
  409690:	88 48 ff             	mov    %cl,-0x1(%eax)
  409693:	0f b6 4d e4          	movzbl -0x1c(%ebp),%ecx
  409697:	0f ad fe             	shrd   %cl,%edi,%esi
  40969a:	d3 ef                	shr    %cl,%edi
  40969c:	f6 c1 20             	test   $0x20,%cl
  40969f:	74 04                	je     4096a5 <___pformat_xint+0xa5>
  4096a1:	89 fe                	mov    %edi,%esi
  4096a3:	31 ff                	xor    %edi,%edi
  4096a5:	89 f9                	mov    %edi,%ecx
  4096a7:	09 f1                	or     %esi,%ecx
  4096a9:	74 1a                	je     4096c5 <___pformat_xint+0xc5>
  4096ab:	89 f2                	mov    %esi,%edx
  4096ad:	83 c0 01             	add    $0x1,%eax
  4096b0:	21 da                	and    %ebx,%edx
  4096b2:	8d 4a 30             	lea    0x30(%edx),%ecx
  4096b5:	80 f9 39             	cmp    $0x39,%cl
  4096b8:	7e d6                	jle    409690 <___pformat_xint+0x90>
  4096ba:	83 c2 37             	add    $0x37,%edx
  4096bd:	0a 55 dc             	or     -0x24(%ebp),%dl
  4096c0:	88 50 ff             	mov    %dl,-0x1(%eax)
  4096c3:	eb ce                	jmp    409693 <___pformat_xint+0x93>
  4096c5:	39 45 e0             	cmp    %eax,-0x20(%ebp)
  4096c8:	0f 84 f0 01 00 00    	je     4098be <___pformat_xint+0x2be>
  4096ce:	8b 7d 08             	mov    0x8(%ebp),%edi
  4096d1:	8b 5f 0c             	mov    0xc(%edi),%ebx
  4096d4:	85 db                	test   %ebx,%ebx
  4096d6:	0f 8e a5 01 00 00    	jle    409881 <___pformat_xint+0x281>
  4096dc:	8b 4d e0             	mov    -0x20(%ebp),%ecx
  4096df:	29 c1                	sub    %eax,%ecx
  4096e1:	01 cb                	add    %ecx,%ebx
  4096e3:	85 db                	test   %ebx,%ebx
  4096e5:	0f 8e 96 01 00 00    	jle    409881 <___pformat_xint+0x281>
  4096eb:	8d 3c 18             	lea    (%eax,%ebx,1),%edi
  4096ee:	66 90                	xchg   %ax,%ax
  4096f0:	83 c0 01             	add    $0x1,%eax
  4096f3:	39 f8                	cmp    %edi,%eax
  4096f5:	c6 40 ff 30          	movb   $0x30,-0x1(%eax)
  4096f9:	75 f5                	jne    4096f0 <___pformat_xint+0xf0>
  4096fb:	3b 7d e0             	cmp    -0x20(%ebp),%edi
  4096fe:	0f 84 a1 01 00 00    	je     4098a5 <___pformat_xint+0x2a5>
  409704:	8b 45 08             	mov    0x8(%ebp),%eax
  409707:	8b 70 08             	mov    0x8(%eax),%esi
  40970a:	89 f8                	mov    %edi,%eax
  40970c:	2b 45 e0             	sub    -0x20(%ebp),%eax
  40970f:	39 c6                	cmp    %eax,%esi
  409711:	0f 8e a9 00 00 00    	jle    4097c0 <___pformat_xint+0x1c0>
  409717:	29 c6                	sub    %eax,%esi
  409719:	8b 45 08             	mov    0x8(%ebp),%eax
  40971c:	85 f6                	test   %esi,%esi
  40971e:	89 70 08             	mov    %esi,0x8(%eax)
  409721:	7e 21                	jle    409744 <___pformat_xint+0x144>
  409723:	83 7d d8 6f          	cmpl   $0x6f,-0x28(%ebp)
  409727:	74 0d                	je     409736 <___pformat_xint+0x136>
  409729:	8b 45 08             	mov    0x8(%ebp),%eax
  40972c:	f6 40 05 08          	testb  $0x8,0x5(%eax)
  409730:	0f 85 00 01 00 00    	jne    409836 <___pformat_xint+0x236>
  409736:	8b 45 08             	mov    0x8(%ebp),%eax
  409739:	8b 58 0c             	mov    0xc(%eax),%ebx
  40973c:	85 db                	test   %ebx,%ebx
  40973e:	0f 88 09 01 00 00    	js     40984d <___pformat_xint+0x24d>
  409744:	8d 46 ff             	lea    -0x1(%esi),%eax
  409747:	89 45 e4             	mov    %eax,-0x1c(%ebp)
  40974a:	8b 45 e4             	mov    -0x1c(%ebp),%eax
  40974d:	83 7d d8 6f          	cmpl   $0x6f,-0x28(%ebp)
  409751:	89 c3                	mov    %eax,%ebx
  409753:	74 0d                	je     409762 <___pformat_xint+0x162>
  409755:	8b 45 08             	mov    0x8(%ebp),%eax
  409758:	f6 40 05 08          	testb  $0x8,0x5(%eax)
  40975c:	0f 85 be 00 00 00    	jne    409820 <___pformat_xint+0x220>
  409762:	85 f6                	test   %esi,%esi
  409764:	7e 09                	jle    40976f <___pformat_xint+0x16f>
  409766:	8b 45 08             	mov    0x8(%ebp),%eax
  409769:	f6 40 05 04          	testb  $0x4,0x5(%eax)
  40976d:	74 71                	je     4097e0 <___pformat_xint+0x1e0>
  40976f:	3b 7d e0             	cmp    -0x20(%ebp),%edi
  409772:	76 25                	jbe    409799 <___pformat_xint+0x199>
  409774:	89 75 e4             	mov    %esi,-0x1c(%ebp)
  409777:	8b 75 e0             	mov    -0x20(%ebp),%esi
  40977a:	89 5d e0             	mov    %ebx,-0x20(%ebp)
  40977d:	89 fb                	mov    %edi,%ebx
  40977f:	8b 7d 08             	mov    0x8(%ebp),%edi
  409782:	83 eb 01             	sub    $0x1,%ebx
  409785:	0f be 03             	movsbl (%ebx),%eax
  409788:	89 fa                	mov    %edi,%edx
  40978a:	e8 91 f9 ff ff       	call   409120 <___pformat_putc>
  40978f:	39 f3                	cmp    %esi,%ebx
  409791:	75 ef                	jne    409782 <___pformat_xint+0x182>
  409793:	8b 75 e4             	mov    -0x1c(%ebp),%esi
  409796:	8b 5d e0             	mov    -0x20(%ebp),%ebx
  409799:	85 f6                	test   %esi,%esi
  40979b:	7e 19                	jle    4097b6 <___pformat_xint+0x1b6>
  40979d:	8b 75 08             	mov    0x8(%ebp),%esi
  4097a0:	b8 20 00 00 00       	mov    $0x20,%eax
  4097a5:	83 eb 01             	sub    $0x1,%ebx
  4097a8:	89 f2                	mov    %esi,%edx
  4097aa:	e8 71 f9 ff ff       	call   409120 <___pformat_putc>
  4097af:	8d 43 01             	lea    0x1(%ebx),%eax
  4097b2:	85 c0                	test   %eax,%eax
  4097b4:	7f ea                	jg     4097a0 <___pformat_xint+0x1a0>
  4097b6:	8d 65 f4             	lea    -0xc(%ebp),%esp
  4097b9:	5b                   	pop    %ebx
  4097ba:	5e                   	pop    %esi
  4097bb:	5f                   	pop    %edi
  4097bc:	5d                   	pop    %ebp
  4097bd:	c3                   	ret    
  4097be:	66 90                	xchg   %ax,%ax
  4097c0:	8b 45 08             	mov    0x8(%ebp),%eax
  4097c3:	be ff ff ff ff       	mov    $0xffffffff,%esi
  4097c8:	c7 45 e4 fe ff ff ff 	movl   $0xfffffffe,-0x1c(%ebp)
  4097cf:	c7 40 08 ff ff ff ff 	movl   $0xffffffff,0x8(%eax)
  4097d6:	e9 6f ff ff ff       	jmp    40974a <___pformat_xint+0x14a>
  4097db:	90                   	nop
  4097dc:	8d 74 26 00          	lea    0x0(%esi,%eiz,1),%esi
  4097e0:	8b 5d e4             	mov    -0x1c(%ebp),%ebx
  4097e3:	89 c6                	mov    %eax,%esi
  4097e5:	b8 20 00 00 00       	mov    $0x20,%eax
  4097ea:	83 eb 01             	sub    $0x1,%ebx
  4097ed:	89 f2                	mov    %esi,%edx
  4097ef:	e8 2c f9 ff ff       	call   409120 <___pformat_putc>
  4097f4:	8d 43 01             	lea    0x1(%ebx),%eax
  4097f7:	85 c0                	test   %eax,%eax
  4097f9:	7f ea                	jg     4097e5 <___pformat_xint+0x1e5>
  4097fb:	8b 4d e4             	mov    -0x1c(%ebp),%ecx
  4097fe:	89 c8                	mov    %ecx,%eax
  409800:	c1 f8 1f             	sar    $0x1f,%eax
  409803:	f7 d0                	not    %eax
  409805:	8d 71 ff             	lea    -0x1(%ecx),%esi
  409808:	21 c8                	and    %ecx,%eax
  40980a:	29 c6                	sub    %eax,%esi
  40980c:	8d 5e ff             	lea    -0x1(%esi),%ebx
  40980f:	e9 5b ff ff ff       	jmp    40976f <___pformat_xint+0x16f>
  409814:	83 ee 03             	sub    $0x3,%esi
  409817:	89 75 e4             	mov    %esi,-0x1c(%ebp)
  40981a:	89 c6                	mov    %eax,%esi
  40981c:	8d 74 26 00          	lea    0x0(%esi,%eiz,1),%esi
  409820:	0f b6 45 d8          	movzbl -0x28(%ebp),%eax
  409824:	83 c7 02             	add    $0x2,%edi
  409827:	c6 47 ff 30          	movb   $0x30,-0x1(%edi)
  40982b:	8b 5d e4             	mov    -0x1c(%ebp),%ebx
  40982e:	88 47 fe             	mov    %al,-0x2(%edi)
  409831:	e9 2c ff ff ff       	jmp    409762 <___pformat_xint+0x162>
  409836:	8d 46 fe             	lea    -0x2(%esi),%eax
  409839:	85 c0                	test   %eax,%eax
  40983b:	7e d7                	jle    409814 <___pformat_xint+0x214>
  40983d:	89 c6                	mov    %eax,%esi
  40983f:	8b 45 08             	mov    0x8(%ebp),%eax
  409842:	8b 58 0c             	mov    0xc(%eax),%ebx
  409845:	85 db                	test   %ebx,%ebx
  409847:	0f 89 f7 fe ff ff    	jns    409744 <___pformat_xint+0x144>
  40984d:	8b 45 08             	mov    0x8(%ebp),%eax
  409850:	8b 40 04             	mov    0x4(%eax),%eax
  409853:	25 00 06 00 00       	and    $0x600,%eax
  409858:	3d 00 02 00 00       	cmp    $0x200,%eax
  40985d:	0f 85 e1 fe ff ff    	jne    409744 <___pformat_xint+0x144>
  409863:	01 fe                	add    %edi,%esi
  409865:	83 c7 01             	add    $0x1,%edi
  409868:	39 f7                	cmp    %esi,%edi
  40986a:	c6 47 ff 30          	movb   $0x30,-0x1(%edi)
  40986e:	75 f5                	jne    409865 <___pformat_xint+0x265>
  409870:	c7 45 e4 fe ff ff ff 	movl   $0xfffffffe,-0x1c(%ebp)
  409877:	be ff ff ff ff       	mov    $0xffffffff,%esi
  40987c:	e9 c9 fe ff ff       	jmp    40974a <___pformat_xint+0x14a>
  409881:	83 7d d8 6f          	cmpl   $0x6f,-0x28(%ebp)
  409885:	89 c7                	mov    %eax,%edi
  409887:	0f 85 6e fe ff ff    	jne    4096fb <___pformat_xint+0xfb>
  40988d:	8b 75 08             	mov    0x8(%ebp),%esi
  409890:	f6 46 05 08          	testb  $0x8,0x5(%esi)
  409894:	0f 84 61 fe ff ff    	je     4096fb <___pformat_xint+0xfb>
  40989a:	83 c7 01             	add    $0x1,%edi
  40989d:	c6 00 30             	movb   $0x30,(%eax)
  4098a0:	e9 56 fe ff ff       	jmp    4096fb <___pformat_xint+0xfb>
  4098a5:	8b 45 08             	mov    0x8(%ebp),%eax
  4098a8:	8b 70 0c             	mov    0xc(%eax),%esi
  4098ab:	85 f6                	test   %esi,%esi
  4098ad:	0f 84 51 fe ff ff    	je     409704 <___pformat_xint+0x104>
  4098b3:	c6 07 30             	movb   $0x30,(%edi)
  4098b6:	83 c7 01             	add    $0x1,%edi
  4098b9:	e9 46 fe ff ff       	jmp    409704 <___pformat_xint+0x104>
  4098be:	8b 45 08             	mov    0x8(%ebp),%eax
  4098c1:	8b 58 0c             	mov    0xc(%eax),%ebx
  4098c4:	8b 45 08             	mov    0x8(%ebp),%eax
  4098c7:	81 60 04 ff f7 ff ff 	andl   $0xfffff7ff,0x4(%eax)
  4098ce:	8b 45 e0             	mov    -0x20(%ebp),%eax
  4098d1:	e9 fe fd ff ff       	jmp    4096d4 <___pformat_xint+0xd4>
  4098d6:	8d 76 00             	lea    0x0(%esi),%esi
  4098d9:	8d bc 27 00 00 00 00 	lea    0x0(%edi,%eiz,1),%edi

004098e0 <___pformat_emit_float>:
  4098e0:	55                   	push   %ebp
  4098e1:	89 e5                	mov    %esp,%ebp
  4098e3:	57                   	push   %edi
  4098e4:	56                   	push   %esi
  4098e5:	89 d6                	mov    %edx,%esi
  4098e7:	53                   	push   %ebx
  4098e8:	89 cb                	mov    %ecx,%ebx
  4098ea:	83 ec 3c             	sub    $0x3c,%esp
  4098ed:	8b 7d 08             	mov    0x8(%ebp),%edi
  4098f0:	85 c9                	test   %ecx,%ecx
  4098f2:	89 45 d4             	mov    %eax,-0x2c(%ebp)
  4098f5:	8b 47 08             	mov    0x8(%edi),%eax
  4098f8:	0f 8e 7a 02 00 00    	jle    409b78 <___pformat_emit_float+0x298>
  4098fe:	39 c1                	cmp    %eax,%ecx
  409900:	0f 8d 3a 01 00 00    	jge    409a40 <___pformat_emit_float+0x160>
  409906:	29 c8                	sub    %ecx,%eax
  409908:	89 47 08             	mov    %eax,0x8(%edi)
  40990b:	85 c0                	test   %eax,%eax
  40990d:	0f 88 2d 01 00 00    	js     409a40 <___pformat_emit_float+0x160>
  409913:	8b 57 0c             	mov    0xc(%edi),%edx
  409916:	39 c2                	cmp    %eax,%edx
  409918:	0f 8d 22 01 00 00    	jge    409a40 <___pformat_emit_float+0x160>
  40991e:	29 d0                	sub    %edx,%eax
  409920:	85 c0                	test   %eax,%eax
  409922:	89 47 08             	mov    %eax,0x8(%edi)
  409925:	0f 8e 1c 01 00 00    	jle    409a47 <___pformat_emit_float+0x167>
  40992b:	85 d2                	test   %edx,%edx
  40992d:	0f 8e ad 02 00 00    	jle    409be0 <___pformat_emit_float+0x300>
  409933:	83 e8 01             	sub    $0x1,%eax
  409936:	85 c0                	test   %eax,%eax
  409938:	89 47 08             	mov    %eax,0x8(%edi)
  40993b:	0f 84 06 01 00 00    	je     409a47 <___pformat_emit_float+0x167>
  409941:	8b 55 d4             	mov    -0x2c(%ebp),%edx
  409944:	85 d2                	test   %edx,%edx
  409946:	0f 85 ba 01 00 00    	jne    409b06 <___pformat_emit_float+0x226>
  40994c:	8b 57 04             	mov    0x4(%edi),%edx
  40994f:	f7 c2 c0 01 00 00    	test   $0x1c0,%edx
  409955:	0f 85 ab 01 00 00    	jne    409b06 <___pformat_emit_float+0x226>
  40995b:	80 e6 06             	and    $0x6,%dh
  40995e:	0f 85 e3 00 00 00    	jne    409a47 <___pformat_emit_float+0x167>
  409964:	eb 0c                	jmp    409972 <___pformat_emit_float+0x92>
  409966:	89 fa                	mov    %edi,%edx
  409968:	b8 20 00 00 00       	mov    $0x20,%eax
  40996d:	e8 ae f7 ff ff       	call   409120 <___pformat_putc>
  409972:	8b 47 08             	mov    0x8(%edi),%eax
  409975:	8d 50 ff             	lea    -0x1(%eax),%edx
  409978:	85 c0                	test   %eax,%eax
  40997a:	89 57 08             	mov    %edx,0x8(%edi)
  40997d:	7f e7                	jg     409966 <___pformat_emit_float+0x86>
  40997f:	8b 45 d4             	mov    -0x2c(%ebp),%eax
  409982:	85 c0                	test   %eax,%eax
  409984:	0f 84 c8 00 00 00    	je     409a52 <___pformat_emit_float+0x172>
  40998a:	89 fa                	mov    %edi,%edx
  40998c:	b8 2d 00 00 00       	mov    $0x2d,%eax
  409991:	e8 8a f7 ff ff       	call   409120 <___pformat_putc>
  409996:	8b 57 08             	mov    0x8(%edi),%edx
  409999:	85 d2                	test   %edx,%edx
  40999b:	7e 13                	jle    4099b0 <___pformat_emit_float+0xd0>
  40999d:	8b 47 04             	mov    0x4(%edi),%eax
  4099a0:	25 00 06 00 00       	and    $0x600,%eax
  4099a5:	3d 00 02 00 00       	cmp    $0x200,%eax
  4099aa:	0f 84 f1 01 00 00    	je     409ba1 <___pformat_emit_float+0x2c1>
  4099b0:	85 db                	test   %ebx,%ebx
  4099b2:	0f 8e 10 02 00 00    	jle    409bc8 <___pformat_emit_float+0x2e8>
  4099b8:	0f b6 16             	movzbl (%esi),%edx
  4099bb:	b8 30 00 00 00       	mov    $0x30,%eax
  4099c0:	84 d2                	test   %dl,%dl
  4099c2:	74 06                	je     4099ca <___pformat_emit_float+0xea>
  4099c4:	83 c6 01             	add    $0x1,%esi
  4099c7:	0f be c2             	movsbl %dl,%eax
  4099ca:	89 fa                	mov    %edi,%edx
  4099cc:	e8 4f f7 ff ff       	call   409120 <___pformat_putc>
  4099d1:	83 eb 01             	sub    $0x1,%ebx
  4099d4:	75 e2                	jne    4099b8 <___pformat_emit_float+0xd8>
  4099d6:	8b 47 0c             	mov    0xc(%edi),%eax
  4099d9:	85 c0                	test   %eax,%eax
  4099db:	0f 8e 3f 01 00 00    	jle    409b20 <___pformat_emit_float+0x240>
  4099e1:	83 7f 10 fd          	cmpl   $0xfffffffd,0x10(%edi)
  4099e5:	0f 84 49 01 00 00    	je     409b34 <___pformat_emit_float+0x254>
  4099eb:	0f b7 57 14          	movzwl 0x14(%edi),%edx
  4099ef:	66 85 d2             	test   %dx,%dx
  4099f2:	0f 85 7f 00 00 00    	jne    409a77 <___pformat_emit_float+0x197>
  4099f8:	b8 2e 00 00 00       	mov    $0x2e,%eax
  4099fd:	89 fa                	mov    %edi,%edx
  4099ff:	e8 1c f7 ff ff       	call   409120 <___pformat_putc>
  409a04:	8b 47 0c             	mov    0xc(%edi),%eax
  409a07:	85 db                	test   %ebx,%ebx
  409a09:	74 21                	je     409a2c <___pformat_emit_float+0x14c>
  409a0b:	e9 d8 00 00 00       	jmp    409ae8 <___pformat_emit_float+0x208>
  409a10:	0f b6 16             	movzbl (%esi),%edx
  409a13:	b8 30 00 00 00       	mov    $0x30,%eax
  409a18:	84 d2                	test   %dl,%dl
  409a1a:	74 06                	je     409a22 <___pformat_emit_float+0x142>
  409a1c:	83 c6 01             	add    $0x1,%esi
  409a1f:	0f be c2             	movsbl %dl,%eax
  409a22:	89 fa                	mov    %edi,%edx
  409a24:	e8 f7 f6 ff ff       	call   409120 <___pformat_putc>
  409a29:	8b 47 0c             	mov    0xc(%edi),%eax
  409a2c:	8d 50 ff             	lea    -0x1(%eax),%edx
  409a2f:	85 c0                	test   %eax,%eax
  409a31:	89 57 0c             	mov    %edx,0xc(%edi)
  409a34:	7f da                	jg     409a10 <___pformat_emit_float+0x130>
  409a36:	8d 65 f4             	lea    -0xc(%ebp),%esp
  409a39:	5b                   	pop    %ebx
  409a3a:	5e                   	pop    %esi
  409a3b:	5f                   	pop    %edi
  409a3c:	5d                   	pop    %ebp
  409a3d:	c3                   	ret    
  409a3e:	66 90                	xchg   %ax,%ax
  409a40:	c7 47 08 ff ff ff ff 	movl   $0xffffffff,0x8(%edi)
  409a47:	8b 45 d4             	mov    -0x2c(%ebp),%eax
  409a4a:	85 c0                	test   %eax,%eax
  409a4c:	0f 85 38 ff ff ff    	jne    40998a <___pformat_emit_float+0xaa>
  409a52:	8b 47 04             	mov    0x4(%edi),%eax
  409a55:	f6 c4 01             	test   $0x1,%ah
  409a58:	0f 85 32 01 00 00    	jne    409b90 <___pformat_emit_float+0x2b0>
  409a5e:	a8 40                	test   $0x40,%al
  409a60:	0f 84 30 ff ff ff    	je     409996 <___pformat_emit_float+0xb6>
  409a66:	89 fa                	mov    %edi,%edx
  409a68:	b8 20 00 00 00       	mov    $0x20,%eax
  409a6d:	e8 ae f6 ff ff       	call   409120 <___pformat_putc>
  409a72:	e9 1f ff ff ff       	jmp    409996 <___pformat_emit_float+0xb6>
  409a77:	8b 47 10             	mov    0x10(%edi),%eax
  409a7a:	89 65 d4             	mov    %esp,-0x2c(%ebp)
  409a7d:	83 c0 0f             	add    $0xf,%eax
  409a80:	83 e0 f0             	and    $0xfffffff0,%eax
  409a83:	e8 28 df ff ff       	call   4079b0 <___chkstk_ms>
  409a88:	29 c4                	sub    %eax,%esp
  409a8a:	8d 4c 24 10          	lea    0x10(%esp),%ecx
  409a8e:	8d 45 e4             	lea    -0x1c(%ebp),%eax
  409a91:	c7 45 e4 00 00 00 00 	movl   $0x0,-0x1c(%ebp)
  409a98:	89 44 24 08          	mov    %eax,0x8(%esp)
  409a9c:	89 54 24 04          	mov    %edx,0x4(%esp)
  409aa0:	89 0c 24             	mov    %ecx,(%esp)
  409aa3:	89 4d d0             	mov    %ecx,-0x30(%ebp)
  409aa6:	e8 b5 29 00 00       	call   40c460 <_wcrtomb>
  409aab:	85 c0                	test   %eax,%eax
  409aad:	0f 8e 42 01 00 00    	jle    409bf5 <___pformat_emit_float+0x315>
  409ab3:	8b 4d d0             	mov    -0x30(%ebp),%ecx
  409ab6:	89 5d cc             	mov    %ebx,-0x34(%ebp)
  409ab9:	89 75 d0             	mov    %esi,-0x30(%ebp)
  409abc:	01 c8                	add    %ecx,%eax
  409abe:	89 cb                	mov    %ecx,%ebx
  409ac0:	89 c6                	mov    %eax,%esi
  409ac2:	83 c3 01             	add    $0x1,%ebx
  409ac5:	0f be 43 ff          	movsbl -0x1(%ebx),%eax
  409ac9:	89 fa                	mov    %edi,%edx
  409acb:	e8 50 f6 ff ff       	call   409120 <___pformat_putc>
  409ad0:	39 f3                	cmp    %esi,%ebx
  409ad2:	75 ee                	jne    409ac2 <___pformat_emit_float+0x1e2>
  409ad4:	8b 75 d0             	mov    -0x30(%ebp),%esi
  409ad7:	8b 5d cc             	mov    -0x34(%ebp),%ebx
  409ada:	85 db                	test   %ebx,%ebx
  409adc:	8b 65 d4             	mov    -0x2c(%ebp),%esp
  409adf:	8b 47 0c             	mov    0xc(%edi),%eax
  409ae2:	0f 84 44 ff ff ff    	je     409a2c <___pformat_emit_float+0x14c>
  409ae8:	01 d8                	add    %ebx,%eax
  409aea:	89 47 0c             	mov    %eax,0xc(%edi)
  409aed:	8d 76 00             	lea    0x0(%esi),%esi
  409af0:	89 fa                	mov    %edi,%edx
  409af2:	b8 30 00 00 00       	mov    $0x30,%eax
  409af7:	e8 24 f6 ff ff       	call   409120 <___pformat_putc>
  409afc:	83 c3 01             	add    $0x1,%ebx
  409aff:	78 ef                	js     409af0 <___pformat_emit_float+0x210>
  409b01:	e9 23 ff ff ff       	jmp    409a29 <___pformat_emit_float+0x149>
  409b06:	83 e8 01             	sub    $0x1,%eax
  409b09:	85 c0                	test   %eax,%eax
  409b0b:	89 47 08             	mov    %eax,0x8(%edi)
  409b0e:	0f 84 33 ff ff ff    	je     409a47 <___pformat_emit_float+0x167>
  409b14:	8b 57 04             	mov    0x4(%edi),%edx
  409b17:	e9 3f fe ff ff       	jmp    40995b <___pformat_emit_float+0x7b>
  409b1c:	8d 74 26 00          	lea    0x0(%esi,%eiz,1),%esi
  409b20:	f6 47 05 08          	testb  $0x8,0x5(%edi)
  409b24:	0f 84 dd fe ff ff    	je     409a07 <___pformat_emit_float+0x127>
  409b2a:	83 7f 10 fd          	cmpl   $0xfffffffd,0x10(%edi)
  409b2e:	0f 85 b7 fe ff ff    	jne    4099eb <___pformat_emit_float+0x10b>
  409b34:	c7 45 e4 00 00 00 00 	movl   $0x0,-0x1c(%ebp)
  409b3b:	e8 50 3f 00 00       	call   40da90 <_localeconv>
  409b40:	8d 55 e4             	lea    -0x1c(%ebp),%edx
  409b43:	89 54 24 0c          	mov    %edx,0xc(%esp)
  409b47:	c7 44 24 08 10 00 00 	movl   $0x10,0x8(%esp)
  409b4e:	00 
  409b4f:	8b 00                	mov    (%eax),%eax
  409b51:	89 44 24 04          	mov    %eax,0x4(%esp)
  409b55:	8d 45 e2             	lea    -0x1e(%ebp),%eax
  409b58:	89 04 24             	mov    %eax,(%esp)
  409b5b:	e8 50 2c 00 00       	call   40c7b0 <_mbrtowc>
  409b60:	85 c0                	test   %eax,%eax
  409b62:	0f 8e 9e 00 00 00    	jle    409c06 <___pformat_emit_float+0x326>
  409b68:	0f b7 55 e2          	movzwl -0x1e(%ebp),%edx
  409b6c:	66 89 57 14          	mov    %dx,0x14(%edi)
  409b70:	89 47 10             	mov    %eax,0x10(%edi)
  409b73:	e9 77 fe ff ff       	jmp    4099ef <___pformat_emit_float+0x10f>
  409b78:	85 c0                	test   %eax,%eax
  409b7a:	0f 8e 8b fd ff ff    	jle    40990b <___pformat_emit_float+0x2b>
  409b80:	83 e8 01             	sub    $0x1,%eax
  409b83:	89 47 08             	mov    %eax,0x8(%edi)
  409b86:	e9 88 fd ff ff       	jmp    409913 <___pformat_emit_float+0x33>
  409b8b:	90                   	nop
  409b8c:	8d 74 26 00          	lea    0x0(%esi,%eiz,1),%esi
  409b90:	89 fa                	mov    %edi,%edx
  409b92:	b8 2b 00 00 00       	mov    $0x2b,%eax
  409b97:	e8 84 f5 ff ff       	call   409120 <___pformat_putc>
  409b9c:	e9 f5 fd ff ff       	jmp    409996 <___pformat_emit_float+0xb6>
  409ba1:	83 ea 01             	sub    $0x1,%edx
  409ba4:	89 57 08             	mov    %edx,0x8(%edi)
  409ba7:	89 fa                	mov    %edi,%edx
  409ba9:	b8 30 00 00 00       	mov    $0x30,%eax
  409bae:	e8 6d f5 ff ff       	call   409120 <___pformat_putc>
  409bb3:	8b 47 08             	mov    0x8(%edi),%eax
  409bb6:	8d 50 ff             	lea    -0x1(%eax),%edx
  409bb9:	85 c0                	test   %eax,%eax
  409bbb:	89 57 08             	mov    %edx,0x8(%edi)
  409bbe:	7f e7                	jg     409ba7 <___pformat_emit_float+0x2c7>
  409bc0:	85 db                	test   %ebx,%ebx
  409bc2:	0f 8f f0 fd ff ff    	jg     4099b8 <___pformat_emit_float+0xd8>
  409bc8:	89 fa                	mov    %edi,%edx
  409bca:	b8 30 00 00 00       	mov    $0x30,%eax
  409bcf:	e8 4c f5 ff ff       	call   409120 <___pformat_putc>
  409bd4:	e9 fd fd ff ff       	jmp    4099d6 <___pformat_emit_float+0xf6>
  409bd9:	8d b4 26 00 00 00 00 	lea    0x0(%esi,%eiz,1),%esi
  409be0:	f6 47 05 08          	testb  $0x8,0x5(%edi)
  409be4:	0f 84 57 fd ff ff    	je     409941 <___pformat_emit_float+0x61>
  409bea:	8d b6 00 00 00 00    	lea    0x0(%esi),%esi
  409bf0:	e9 3e fd ff ff       	jmp    409933 <___pformat_emit_float+0x53>
  409bf5:	89 fa                	mov    %edi,%edx
  409bf7:	b8 2e 00 00 00       	mov    $0x2e,%eax
  409bfc:	e8 1f f5 ff ff       	call   409120 <___pformat_putc>
  409c01:	e9 d4 fe ff ff       	jmp    409ada <___pformat_emit_float+0x1fa>
  409c06:	0f b7 57 14          	movzwl 0x14(%edi),%edx
  409c0a:	e9 61 ff ff ff       	jmp    409b70 <___pformat_emit_float+0x290>
  409c0f:	90                   	nop

00409c10 <___pformat_emit_efloat>:
  409c10:	55                   	push   %ebp
  409c11:	83 e9 01             	sub    $0x1,%ecx
  409c14:	57                   	push   %edi
  409c15:	89 d5                	mov    %edx,%ebp
  409c17:	56                   	push   %esi
  409c18:	be 01 00 00 00       	mov    $0x1,%esi
  409c1d:	53                   	push   %ebx
  409c1e:	bb 67 66 66 66       	mov    $0x66666667,%ebx
  409c23:	83 ec 1c             	sub    $0x1c,%esp
  409c26:	89 44 24 04          	mov    %eax,0x4(%esp)
  409c2a:	89 c8                	mov    %ecx,%eax
  409c2c:	8b 7c 24 30          	mov    0x30(%esp),%edi
  409c30:	c1 f8 1f             	sar    $0x1f,%eax
  409c33:	89 44 24 0c          	mov    %eax,0xc(%esp)
  409c37:	89 c8                	mov    %ecx,%eax
  409c39:	f7 eb                	imul   %ebx
  409c3b:	89 4c 24 08          	mov    %ecx,0x8(%esp)
  409c3f:	c1 f9 1f             	sar    $0x1f,%ecx
  409c42:	c1 fa 02             	sar    $0x2,%edx
  409c45:	89 d3                	mov    %edx,%ebx
  409c47:	29 cb                	sub    %ecx,%ebx
  409c49:	74 18                	je     409c63 <___pformat_emit_efloat+0x53>
  409c4b:	b9 67 66 66 66       	mov    $0x66666667,%ecx
  409c50:	89 d8                	mov    %ebx,%eax
  409c52:	83 c6 01             	add    $0x1,%esi
  409c55:	f7 e9                	imul   %ecx
  409c57:	c1 fb 1f             	sar    $0x1f,%ebx
  409c5a:	c1 fa 02             	sar    $0x2,%edx
  409c5d:	29 da                	sub    %ebx,%edx
  409c5f:	89 d3                	mov    %edx,%ebx
  409c61:	75 ed                	jne    409c50 <___pformat_emit_efloat+0x40>
  409c63:	8b 47 20             	mov    0x20(%edi),%eax
  409c66:	39 c6                	cmp    %eax,%esi
  409c68:	7d 02                	jge    409c6c <___pformat_emit_efloat+0x5c>
  409c6a:	89 c6                	mov    %eax,%esi
  409c6c:	8b 57 08             	mov    0x8(%edi),%edx
  409c6f:	8d 46 02             	lea    0x2(%esi),%eax
  409c72:	39 c2                	cmp    %eax,%edx
  409c74:	7f 5a                	jg     409cd0 <___pformat_emit_efloat+0xc0>
  409c76:	c7 47 08 ff ff ff ff 	movl   $0xffffffff,0x8(%edi)
  409c7d:	8b 44 24 04          	mov    0x4(%esp),%eax
  409c81:	b9 01 00 00 00       	mov    $0x1,%ecx
  409c86:	89 ea                	mov    %ebp,%edx
  409c88:	89 3c 24             	mov    %edi,(%esp)
  409c8b:	83 c6 01             	add    $0x1,%esi
  409c8e:	e8 4d fc ff ff       	call   4098e0 <___pformat_emit_float>
  409c93:	8b 47 20             	mov    0x20(%edi),%eax
  409c96:	89 47 0c             	mov    %eax,0xc(%edi)
  409c99:	8b 47 04             	mov    0x4(%edi),%eax
  409c9c:	89 c2                	mov    %eax,%edx
  409c9e:	83 e0 20             	and    $0x20,%eax
  409ca1:	81 ca c0 01 00 00    	or     $0x1c0,%edx
  409ca7:	83 c8 45             	or     $0x45,%eax
  409caa:	89 57 04             	mov    %edx,0x4(%edi)
  409cad:	89 fa                	mov    %edi,%edx
  409caf:	e8 6c f4 ff ff       	call   409120 <___pformat_putc>
  409cb4:	8b 44 24 08          	mov    0x8(%esp),%eax
  409cb8:	89 f9                	mov    %edi,%ecx
  409cba:	01 77 08             	add    %esi,0x8(%edi)
  409cbd:	8b 54 24 0c          	mov    0xc(%esp),%edx
  409cc1:	e8 0a f7 ff ff       	call   4093d0 <___pformat_int>
  409cc6:	83 c4 1c             	add    $0x1c,%esp
  409cc9:	5b                   	pop    %ebx
  409cca:	5e                   	pop    %esi
  409ccb:	5f                   	pop    %edi
  409ccc:	5d                   	pop    %ebp
  409ccd:	c3                   	ret    
  409cce:	66 90                	xchg   %ax,%ax
  409cd0:	29 c2                	sub    %eax,%edx
  409cd2:	89 57 08             	mov    %edx,0x8(%edi)
  409cd5:	eb a6                	jmp    409c7d <___pformat_emit_efloat+0x6d>
  409cd7:	89 f6                	mov    %esi,%esi
  409cd9:	8d bc 27 00 00 00 00 	lea    0x0(%edi,%eiz,1),%edi

00409ce0 <___pformat_efloat>:
  409ce0:	56                   	push   %esi
  409ce1:	53                   	push   %ebx
  409ce2:	89 c3                	mov    %eax,%ebx
  409ce4:	83 ec 44             	sub    $0x44,%esp
  409ce7:	8b 40 0c             	mov    0xc(%eax),%eax
  409cea:	85 c0                	test   %eax,%eax
  409cec:	78 72                	js     409d60 <___pformat_efloat+0x80>
  409cee:	83 c0 01             	add    $0x1,%eax
  409cf1:	db 6c 24 50          	fldt   0x50(%esp)
  409cf5:	89 44 24 10          	mov    %eax,0x10(%esp)
  409cf9:	8d 54 24 28          	lea    0x28(%esp),%edx
  409cfd:	db 7c 24 30          	fstpt  0x30(%esp)
  409d01:	8b 44 24 30          	mov    0x30(%esp),%eax
  409d05:	89 54 24 18          	mov    %edx,0x18(%esp)
  409d09:	8d 54 24 2c          	lea    0x2c(%esp),%edx
  409d0d:	89 54 24 14          	mov    %edx,0x14(%esp)
  409d11:	89 04 24             	mov    %eax,(%esp)
  409d14:	8b 44 24 34          	mov    0x34(%esp),%eax
  409d18:	89 44 24 04          	mov    %eax,0x4(%esp)
  409d1c:	8b 44 24 38          	mov    0x38(%esp),%eax
  409d20:	89 44 24 08          	mov    %eax,0x8(%esp)
  409d24:	8b 44 24 3c          	mov    0x3c(%esp),%eax
  409d28:	89 44 24 0c          	mov    %eax,0xc(%esp)
  409d2c:	b8 02 00 00 00       	mov    $0x2,%eax
  409d31:	e8 ea f2 ff ff       	call   409020 <___pformat_cvt>
  409d36:	8b 4c 24 2c          	mov    0x2c(%esp),%ecx
  409d3a:	81 f9 00 80 ff ff    	cmp    $0xffff8000,%ecx
  409d40:	89 c6                	mov    %eax,%esi
  409d42:	74 2c                	je     409d70 <___pformat_efloat+0x90>
  409d44:	89 c2                	mov    %eax,%edx
  409d46:	8b 44 24 28          	mov    0x28(%esp),%eax
  409d4a:	89 1c 24             	mov    %ebx,(%esp)
  409d4d:	e8 be fe ff ff       	call   409c10 <___pformat_emit_efloat>
  409d52:	89 34 24             	mov    %esi,(%esp)
  409d55:	e8 86 2d 00 00       	call   40cae0 <___freedtoa>
  409d5a:	83 c4 44             	add    $0x44,%esp
  409d5d:	5b                   	pop    %ebx
  409d5e:	5e                   	pop    %esi
  409d5f:	c3                   	ret    
  409d60:	c7 43 0c 06 00 00 00 	movl   $0x6,0xc(%ebx)
  409d67:	b8 07 00 00 00       	mov    $0x7,%eax
  409d6c:	eb 83                	jmp    409cf1 <___pformat_efloat+0x11>
  409d6e:	66 90                	xchg   %ax,%ax
  409d70:	89 c2                	mov    %eax,%edx
  409d72:	8b 44 24 28          	mov    0x28(%esp),%eax
  409d76:	89 d9                	mov    %ebx,%ecx
  409d78:	e8 c3 f5 ff ff       	call   409340 <___pformat_emit_inf_or_nan>
  409d7d:	89 34 24             	mov    %esi,(%esp)
  409d80:	e8 5b 2d 00 00       	call   40cae0 <___freedtoa>
  409d85:	83 c4 44             	add    $0x44,%esp
  409d88:	5b                   	pop    %ebx
  409d89:	5e                   	pop    %esi
  409d8a:	c3                   	ret    
  409d8b:	90                   	nop
  409d8c:	8d 74 26 00          	lea    0x0(%esi,%eiz,1),%esi

00409d90 <___pformat_float>:
  409d90:	57                   	push   %edi
  409d91:	56                   	push   %esi
  409d92:	53                   	push   %ebx
  409d93:	89 c3                	mov    %eax,%ebx
  409d95:	83 ec 40             	sub    $0x40,%esp
  409d98:	8b 40 0c             	mov    0xc(%eax),%eax
  409d9b:	85 c0                	test   %eax,%eax
  409d9d:	0f 88 9d 00 00 00    	js     409e40 <___pformat_float+0xb0>
  409da3:	db 6c 24 50          	fldt   0x50(%esp)
  409da7:	89 44 24 10          	mov    %eax,0x10(%esp)
  409dab:	8d 54 24 28          	lea    0x28(%esp),%edx
  409daf:	db 7c 24 30          	fstpt  0x30(%esp)
  409db3:	8b 44 24 30          	mov    0x30(%esp),%eax
  409db7:	89 54 24 18          	mov    %edx,0x18(%esp)
  409dbb:	8d 54 24 2c          	lea    0x2c(%esp),%edx
  409dbf:	89 54 24 14          	mov    %edx,0x14(%esp)
  409dc3:	89 04 24             	mov    %eax,(%esp)
  409dc6:	8b 44 24 34          	mov    0x34(%esp),%eax
  409dca:	89 44 24 04          	mov    %eax,0x4(%esp)
  409dce:	8b 44 24 38          	mov    0x38(%esp),%eax
  409dd2:	89 44 24 08          	mov    %eax,0x8(%esp)
  409dd6:	8b 44 24 3c          	mov    0x3c(%esp),%eax
  409dda:	89 44 24 0c          	mov    %eax,0xc(%esp)
  409dde:	b8 03 00 00 00       	mov    $0x3,%eax
  409de3:	e8 38 f2 ff ff       	call   409020 <___pformat_cvt>
  409de8:	8b 4c 24 2c          	mov    0x2c(%esp),%ecx
  409dec:	81 f9 00 80 ff ff    	cmp    $0xffff8000,%ecx
  409df2:	89 c7                	mov    %eax,%edi
  409df4:	74 5b                	je     409e51 <___pformat_float+0xc1>
  409df6:	89 c2                	mov    %eax,%edx
  409df8:	8b 44 24 28          	mov    0x28(%esp),%eax
  409dfc:	89 1c 24             	mov    %ebx,(%esp)
  409dff:	e8 dc fa ff ff       	call   4098e0 <___pformat_emit_float>
  409e04:	8b 43 08             	mov    0x8(%ebx),%eax
  409e07:	8d 50 ff             	lea    -0x1(%eax),%edx
  409e0a:	85 c0                	test   %eax,%eax
  409e0c:	89 53 08             	mov    %edx,0x8(%ebx)
  409e0f:	7e 19                	jle    409e2a <___pformat_float+0x9a>
  409e11:	89 da                	mov    %ebx,%edx
  409e13:	b8 20 00 00 00       	mov    $0x20,%eax
  409e18:	e8 03 f3 ff ff       	call   409120 <___pformat_putc>
  409e1d:	8b 4b 08             	mov    0x8(%ebx),%ecx
  409e20:	8d 71 ff             	lea    -0x1(%ecx),%esi
  409e23:	85 c9                	test   %ecx,%ecx
  409e25:	89 73 08             	mov    %esi,0x8(%ebx)
  409e28:	7f e7                	jg     409e11 <___pformat_float+0x81>
  409e2a:	89 3c 24             	mov    %edi,(%esp)
  409e2d:	e8 ae 2c 00 00       	call   40cae0 <___freedtoa>
  409e32:	83 c4 40             	add    $0x40,%esp
  409e35:	5b                   	pop    %ebx
  409e36:	5e                   	pop    %esi
  409e37:	5f                   	pop    %edi
  409e38:	c3                   	ret    
  409e39:	8d b4 26 00 00 00 00 	lea    0x0(%esi,%eiz,1),%esi
  409e40:	c7 43 0c 06 00 00 00 	movl   $0x6,0xc(%ebx)
  409e47:	b8 06 00 00 00       	mov    $0x6,%eax
  409e4c:	e9 52 ff ff ff       	jmp    409da3 <___pformat_float+0x13>
  409e51:	89 c2                	mov    %eax,%edx
  409e53:	8b 44 24 28          	mov    0x28(%esp),%eax
  409e57:	89 d9                	mov    %ebx,%ecx
  409e59:	e8 e2 f4 ff ff       	call   409340 <___pformat_emit_inf_or_nan>
  409e5e:	89 3c 24             	mov    %edi,(%esp)
  409e61:	e8 7a 2c 00 00       	call   40cae0 <___freedtoa>
  409e66:	83 c4 40             	add    $0x40,%esp
  409e69:	5b                   	pop    %ebx
  409e6a:	5e                   	pop    %esi
  409e6b:	5f                   	pop    %edi
  409e6c:	c3                   	ret    
  409e6d:	8d 76 00             	lea    0x0(%esi),%esi

00409e70 <___pformat_gfloat>:
  409e70:	57                   	push   %edi
  409e71:	56                   	push   %esi
  409e72:	53                   	push   %ebx
  409e73:	89 c3                	mov    %eax,%ebx
  409e75:	83 ec 40             	sub    $0x40,%esp
  409e78:	8b 40 0c             	mov    0xc(%eax),%eax
  409e7b:	85 c0                	test   %eax,%eax
  409e7d:	0f 88 1d 01 00 00    	js     409fa0 <___pformat_gfloat+0x130>
  409e83:	0f 84 fa 00 00 00    	je     409f83 <___pformat_gfloat+0x113>
  409e89:	db 6c 24 50          	fldt   0x50(%esp)
  409e8d:	89 44 24 10          	mov    %eax,0x10(%esp)
  409e91:	8d 54 24 28          	lea    0x28(%esp),%edx
  409e95:	db 7c 24 30          	fstpt  0x30(%esp)
  409e99:	8b 44 24 30          	mov    0x30(%esp),%eax
  409e9d:	89 54 24 18          	mov    %edx,0x18(%esp)
  409ea1:	8d 54 24 2c          	lea    0x2c(%esp),%edx
  409ea5:	89 54 24 14          	mov    %edx,0x14(%esp)
  409ea9:	89 04 24             	mov    %eax,(%esp)
  409eac:	8b 44 24 34          	mov    0x34(%esp),%eax
  409eb0:	89 44 24 04          	mov    %eax,0x4(%esp)
  409eb4:	8b 44 24 38          	mov    0x38(%esp),%eax
  409eb8:	89 44 24 08          	mov    %eax,0x8(%esp)
  409ebc:	8b 44 24 3c          	mov    0x3c(%esp),%eax
  409ec0:	89 44 24 0c          	mov    %eax,0xc(%esp)
  409ec4:	b8 02 00 00 00       	mov    $0x2,%eax
  409ec9:	e8 52 f1 ff ff       	call   409020 <___pformat_cvt>
  409ece:	8b 74 24 2c          	mov    0x2c(%esp),%esi
  409ed2:	81 fe 00 80 ff ff    	cmp    $0xffff8000,%esi
  409ed8:	89 c7                	mov    %eax,%edi
  409eda:	0f 84 e0 00 00 00    	je     409fc0 <___pformat_gfloat+0x150>
  409ee0:	83 fe fd             	cmp    $0xfffffffd,%esi
  409ee3:	7c 6b                	jl     409f50 <___pformat_gfloat+0xe0>
  409ee5:	8b 43 0c             	mov    0xc(%ebx),%eax
  409ee8:	39 c6                	cmp    %eax,%esi
  409eea:	7f 64                	jg     409f50 <___pformat_gfloat+0xe0>
  409eec:	f6 43 05 08          	testb  $0x8,0x5(%ebx)
  409ef0:	0f 85 bb 00 00 00    	jne    409fb1 <___pformat_gfloat+0x141>
  409ef6:	89 3c 24             	mov    %edi,(%esp)
  409ef9:	e8 1a 3b 00 00       	call   40da18 <_strlen>
  409efe:	29 f0                	sub    %esi,%eax
  409f00:	85 c0                	test   %eax,%eax
  409f02:	89 43 0c             	mov    %eax,0xc(%ebx)
  409f05:	0f 88 c5 00 00 00    	js     409fd0 <___pformat_gfloat+0x160>
  409f0b:	8b 44 24 28          	mov    0x28(%esp),%eax
  409f0f:	89 fa                	mov    %edi,%edx
  409f11:	89 f1                	mov    %esi,%ecx
  409f13:	89 1c 24             	mov    %ebx,(%esp)
  409f16:	e8 c5 f9 ff ff       	call   4098e0 <___pformat_emit_float>
  409f1b:	8b 43 08             	mov    0x8(%ebx),%eax
  409f1e:	8d 50 ff             	lea    -0x1(%eax),%edx
  409f21:	85 c0                	test   %eax,%eax
  409f23:	89 53 08             	mov    %edx,0x8(%ebx)
  409f26:	7e 4c                	jle    409f74 <___pformat_gfloat+0x104>
  409f28:	89 da                	mov    %ebx,%edx
  409f2a:	b8 20 00 00 00       	mov    $0x20,%eax
  409f2f:	e8 ec f1 ff ff       	call   409120 <___pformat_putc>
  409f34:	8b 4b 08             	mov    0x8(%ebx),%ecx
  409f37:	8d 71 ff             	lea    -0x1(%ecx),%esi
  409f3a:	85 c9                	test   %ecx,%ecx
  409f3c:	89 73 08             	mov    %esi,0x8(%ebx)
  409f3f:	7f e7                	jg     409f28 <___pformat_gfloat+0xb8>
  409f41:	89 3c 24             	mov    %edi,(%esp)
  409f44:	e8 97 2b 00 00       	call   40cae0 <___freedtoa>
  409f49:	83 c4 40             	add    $0x40,%esp
  409f4c:	5b                   	pop    %ebx
  409f4d:	5e                   	pop    %esi
  409f4e:	5f                   	pop    %edi
  409f4f:	c3                   	ret    
  409f50:	f6 43 05 08          	testb  $0x8,0x5(%ebx)
  409f54:	75 3e                	jne    409f94 <___pformat_gfloat+0x124>
  409f56:	89 3c 24             	mov    %edi,(%esp)
  409f59:	e8 ba 3a 00 00       	call   40da18 <_strlen>
  409f5e:	83 e8 01             	sub    $0x1,%eax
  409f61:	89 43 0c             	mov    %eax,0xc(%ebx)
  409f64:	8b 44 24 28          	mov    0x28(%esp),%eax
  409f68:	89 f1                	mov    %esi,%ecx
  409f6a:	89 fa                	mov    %edi,%edx
  409f6c:	89 1c 24             	mov    %ebx,(%esp)
  409f6f:	e8 9c fc ff ff       	call   409c10 <___pformat_emit_efloat>
  409f74:	89 3c 24             	mov    %edi,(%esp)
  409f77:	e8 64 2b 00 00       	call   40cae0 <___freedtoa>
  409f7c:	83 c4 40             	add    $0x40,%esp
  409f7f:	5b                   	pop    %ebx
  409f80:	5e                   	pop    %esi
  409f81:	5f                   	pop    %edi
  409f82:	c3                   	ret    
  409f83:	c7 43 0c 01 00 00 00 	movl   $0x1,0xc(%ebx)
  409f8a:	b8 01 00 00 00       	mov    $0x1,%eax
  409f8f:	e9 f5 fe ff ff       	jmp    409e89 <___pformat_gfloat+0x19>
  409f94:	83 6b 0c 01          	subl   $0x1,0xc(%ebx)
  409f98:	eb ca                	jmp    409f64 <___pformat_gfloat+0xf4>
  409f9a:	8d b6 00 00 00 00    	lea    0x0(%esi),%esi
  409fa0:	c7 43 0c 06 00 00 00 	movl   $0x6,0xc(%ebx)
  409fa7:	b8 06 00 00 00       	mov    $0x6,%eax
  409fac:	e9 d8 fe ff ff       	jmp    409e89 <___pformat_gfloat+0x19>
  409fb1:	29 f0                	sub    %esi,%eax
  409fb3:	89 43 0c             	mov    %eax,0xc(%ebx)
  409fb6:	e9 50 ff ff ff       	jmp    409f0b <___pformat_gfloat+0x9b>
  409fbb:	90                   	nop
  409fbc:	8d 74 26 00          	lea    0x0(%esi,%eiz,1),%esi
  409fc0:	89 c2                	mov    %eax,%edx
  409fc2:	8b 44 24 28          	mov    0x28(%esp),%eax
  409fc6:	89 d9                	mov    %ebx,%ecx
  409fc8:	e8 73 f3 ff ff       	call   409340 <___pformat_emit_inf_or_nan>
  409fcd:	eb a5                	jmp    409f74 <___pformat_gfloat+0x104>
  409fcf:	90                   	nop
  409fd0:	8b 53 08             	mov    0x8(%ebx),%edx
  409fd3:	85 d2                	test   %edx,%edx
  409fd5:	0f 8e 30 ff ff ff    	jle    409f0b <___pformat_gfloat+0x9b>
  409fdb:	01 d0                	add    %edx,%eax
  409fdd:	89 43 08             	mov    %eax,0x8(%ebx)
  409fe0:	e9 26 ff ff ff       	jmp    409f0b <___pformat_gfloat+0x9b>
  409fe5:	8d 74 26 00          	lea    0x0(%esi,%eiz,1),%esi
  409fe9:	8d bc 27 00 00 00 00 	lea    0x0(%edi,%eiz,1),%edi

00409ff0 <___pformat_xldouble>:
  409ff0:	55                   	push   %ebp
  409ff1:	89 e5                	mov    %esp,%ebp
  409ff3:	57                   	push   %edi
  409ff4:	89 c7                	mov    %eax,%edi
  409ff6:	56                   	push   %esi
  409ff7:	53                   	push   %ebx
  409ff8:	83 ec 6c             	sub    $0x6c,%esp
  409ffb:	db 6d 08             	fldt   0x8(%ebp)
  409ffe:	d9 c0                	fld    %st(0)
  40a000:	db 7d c0             	fstpt  -0x40(%ebp)
  40a003:	d9 e5                	fxam   
  40a005:	9b df e0             	fstsw  %ax
  40a008:	66 25 00 45          	and    $0x4500,%ax
  40a00c:	66 3d 00 01          	cmp    $0x100,%ax
  40a010:	0f 84 1f 05 00 00    	je     40a535 <___pformat_xldouble+0x545>
  40a016:	0f b7 55 c8          	movzwl -0x38(%ebp),%edx
  40a01a:	89 d3                	mov    %edx,%ebx
  40a01c:	81 e3 00 80 00 00    	and    $0x8000,%ebx
  40a022:	0f 85 48 01 00 00    	jne    40a170 <___pformat_xldouble+0x180>
  40a028:	d9 e5                	fxam   
  40a02a:	9b df e0             	fstsw  %ax
  40a02d:	dd d8                	fstp   %st(0)
  40a02f:	66 25 00 45          	and    $0x4500,%ax
  40a033:	66 3d 00 05          	cmp    $0x500,%ax
  40a037:	0f 84 16 05 00 00    	je     40a553 <___pformat_xldouble+0x563>
  40a03d:	66 81 e2 ff 7f       	and    $0x7fff,%dx
  40a042:	0f 84 b8 01 00 00    	je     40a200 <___pformat_xldouble+0x210>
  40a048:	8d b2 01 c0 ff ff    	lea    -0x3fff(%edx),%esi
  40a04e:	8b 45 c0             	mov    -0x40(%ebp),%eax
  40a051:	8b 55 c4             	mov    -0x3c(%ebp),%edx
  40a054:	8b 5f 0c             	mov    0xc(%edi),%ebx
  40a057:	83 fb 0e             	cmp    $0xe,%ebx
  40a05a:	0f 86 26 01 00 00    	jbe    40a186 <___pformat_xldouble+0x196>
  40a060:	89 d1                	mov    %edx,%ecx
  40a062:	09 c1                	or     %eax,%ecx
  40a064:	0f 84 fc 04 00 00    	je     40a566 <___pformat_xldouble+0x576>
  40a06a:	8d 4d d6             	lea    -0x2a(%ebp),%ecx
  40a06d:	89 4d a4             	mov    %ecx,-0x5c(%ebp)
  40a070:	89 4d ac             	mov    %ecx,-0x54(%ebp)
  40a073:	89 7d a8             	mov    %edi,-0x58(%ebp)
  40a076:	eb 5e                	jmp    40a0d6 <___pformat_xldouble+0xe6>
  40a078:	8b 4d a8             	mov    -0x58(%ebp),%ecx
  40a07b:	8b 49 0c             	mov    0xc(%ecx),%ecx
  40a07e:	85 c9                	test   %ecx,%ecx
  40a080:	7e 09                	jle    40a08b <___pformat_xldouble+0x9b>
  40a082:	8b 5d a8             	mov    -0x58(%ebp),%ebx
  40a085:	83 e9 01             	sub    $0x1,%ecx
  40a088:	89 4b 0c             	mov    %ecx,0xc(%ebx)
  40a08b:	8b 4d ac             	mov    -0x54(%ebp),%ecx
  40a08e:	0f ac d0 04          	shrd   $0x4,%edx,%eax
  40a092:	c1 ea 04             	shr    $0x4,%edx
  40a095:	85 ff                	test   %edi,%edi
  40a097:	89 4d b0             	mov    %ecx,-0x50(%ebp)
  40a09a:	0f 84 a8 00 00 00    	je     40a148 <___pformat_xldouble+0x158>
  40a0a0:	8b 4d b0             	mov    -0x50(%ebp),%ecx
  40a0a3:	83 c1 01             	add    $0x1,%ecx
  40a0a6:	83 ff 09             	cmp    $0x9,%edi
  40a0a9:	89 4d ac             	mov    %ecx,-0x54(%ebp)
  40a0ac:	0f 8e b5 00 00 00    	jle    40a167 <___pformat_xldouble+0x177>
  40a0b2:	8d 4f 37             	lea    0x37(%edi),%ecx
  40a0b5:	8b 7d a8             	mov    -0x58(%ebp),%edi
  40a0b8:	8b 7f 04             	mov    0x4(%edi),%edi
  40a0bb:	89 7d a0             	mov    %edi,-0x60(%ebp)
  40a0be:	0f b6 5d a0          	movzbl -0x60(%ebp),%ebx
  40a0c2:	83 e3 20             	and    $0x20,%ebx
  40a0c5:	09 d9                	or     %ebx,%ecx
  40a0c7:	8b 7d b0             	mov    -0x50(%ebp),%edi
  40a0ca:	88 0f                	mov    %cl,(%edi)
  40a0cc:	89 d7                	mov    %edx,%edi
  40a0ce:	09 c7                	or     %eax,%edi
  40a0d0:	0f 84 60 01 00 00    	je     40a236 <___pformat_xldouble+0x246>
  40a0d6:	89 c7                	mov    %eax,%edi
  40a0d8:	89 c1                	mov    %eax,%ecx
  40a0da:	83 e7 0f             	and    $0xf,%edi
  40a0dd:	89 fb                	mov    %edi,%ebx
  40a0df:	31 f9                	xor    %edi,%ecx
  40a0e1:	c1 fb 1f             	sar    $0x1f,%ebx
  40a0e4:	31 d3                	xor    %edx,%ebx
  40a0e6:	09 cb                	or     %ecx,%ebx
  40a0e8:	75 8e                	jne    40a078 <___pformat_xldouble+0x88>
  40a0ea:	8b 4d a4             	mov    -0x5c(%ebp),%ecx
  40a0ed:	39 4d ac             	cmp    %ecx,-0x54(%ebp)
  40a0f0:	77 1e                	ja     40a110 <___pformat_xldouble+0x120>
  40a0f2:	8b 4d a8             	mov    -0x58(%ebp),%ecx
  40a0f5:	f6 41 05 08          	testb  $0x8,0x5(%ecx)
  40a0f9:	75 15                	jne    40a110 <___pformat_xldouble+0x120>
  40a0fb:	8b 4d ac             	mov    -0x54(%ebp),%ecx
  40a0fe:	89 4d b0             	mov    %ecx,-0x50(%ebp)
  40a101:	8b 4d a8             	mov    -0x58(%ebp),%ecx
  40a104:	8b 59 0c             	mov    0xc(%ecx),%ebx
  40a107:	85 db                	test   %ebx,%ebx
  40a109:	7e 11                	jle    40a11c <___pformat_xldouble+0x12c>
  40a10b:	90                   	nop
  40a10c:	8d 74 26 00          	lea    0x0(%esi,%eiz,1),%esi
  40a110:	8b 4d ac             	mov    -0x54(%ebp),%ecx
  40a113:	8d 59 01             	lea    0x1(%ecx),%ebx
  40a116:	89 5d b0             	mov    %ebx,-0x50(%ebp)
  40a119:	c6 01 2e             	movb   $0x2e,(%ecx)
  40a11c:	89 c1                	mov    %eax,%ecx
  40a11e:	83 f1 01             	xor    $0x1,%ecx
  40a121:	09 d1                	or     %edx,%ecx
  40a123:	74 17                	je     40a13c <___pformat_xldouble+0x14c>
  40a125:	8d 4e ff             	lea    -0x1(%esi),%ecx
  40a128:	0f ac d0 01          	shrd   $0x1,%edx,%eax
  40a12c:	89 ce                	mov    %ecx,%esi
  40a12e:	89 c3                	mov    %eax,%ebx
  40a130:	d1 ea                	shr    %edx
  40a132:	83 f3 01             	xor    $0x1,%ebx
  40a135:	09 d3                	or     %edx,%ebx
  40a137:	8d 4e ff             	lea    -0x1(%esi),%ecx
  40a13a:	75 ec                	jne    40a128 <___pformat_xldouble+0x138>
  40a13c:	31 c0                	xor    %eax,%eax
  40a13e:	31 d2                	xor    %edx,%edx
  40a140:	85 ff                	test   %edi,%edi
  40a142:	0f 85 58 ff ff ff    	jne    40a0a0 <___pformat_xldouble+0xb0>
  40a148:	8b 4d a4             	mov    -0x5c(%ebp),%ecx
  40a14b:	39 4d b0             	cmp    %ecx,-0x50(%ebp)
  40a14e:	77 0e                	ja     40a15e <___pformat_xldouble+0x16e>
  40a150:	8b 4d a8             	mov    -0x58(%ebp),%ecx
  40a153:	8b 49 0c             	mov    0xc(%ecx),%ecx
  40a156:	85 c9                	test   %ecx,%ecx
  40a158:	0f 88 b7 01 00 00    	js     40a315 <___pformat_xldouble+0x325>
  40a15e:	8b 4d b0             	mov    -0x50(%ebp),%ecx
  40a161:	83 c1 01             	add    $0x1,%ecx
  40a164:	89 4d ac             	mov    %ecx,-0x54(%ebp)
  40a167:	8d 4f 30             	lea    0x30(%edi),%ecx
  40a16a:	e9 58 ff ff ff       	jmp    40a0c7 <___pformat_xldouble+0xd7>
  40a16f:	90                   	nop
  40a170:	81 4f 04 80 00 00 00 	orl    $0x80,0x4(%edi)
  40a177:	e9 ac fe ff ff       	jmp    40a028 <___pformat_xldouble+0x38>
  40a17c:	8d 74 26 00          	lea    0x0(%esi,%eiz,1),%esi
  40a180:	0f a4 c2 01          	shld   $0x1,%eax,%edx
  40a184:	01 c0                	add    %eax,%eax
  40a186:	85 d2                	test   %edx,%edx
  40a188:	79 f6                	jns    40a180 <___pformat_xldouble+0x190>
  40a18a:	b9 0e 00 00 00       	mov    $0xe,%ecx
  40a18f:	0f ac d0 01          	shrd   $0x1,%edx,%eax
  40a193:	29 d9                	sub    %ebx,%ecx
  40a195:	d1 ea                	shr    %edx
  40a197:	c1 e1 02             	shl    $0x2,%ecx
  40a19a:	89 45 b0             	mov    %eax,-0x50(%ebp)
  40a19d:	b8 04 00 00 00       	mov    $0x4,%eax
  40a1a2:	89 55 b4             	mov    %edx,-0x4c(%ebp)
  40a1a5:	31 d2                	xor    %edx,%edx
  40a1a7:	0f a5 c2             	shld   %cl,%eax,%edx
  40a1aa:	d3 e0                	shl    %cl,%eax
  40a1ac:	f6 c1 20             	test   $0x20,%cl
  40a1af:	74 04                	je     40a1b5 <___pformat_xldouble+0x1c5>
  40a1b1:	89 c2                	mov    %eax,%edx
  40a1b3:	31 c0                	xor    %eax,%eax
  40a1b5:	01 45 b0             	add    %eax,-0x50(%ebp)
  40a1b8:	11 55 b4             	adc    %edx,-0x4c(%ebp)
  40a1bb:	8b 55 b4             	mov    -0x4c(%ebp),%edx
  40a1be:	8b 45 b0             	mov    -0x50(%ebp),%eax
  40a1c1:	85 d2                	test   %edx,%edx
  40a1c3:	0f 88 64 03 00 00    	js     40a52d <___pformat_xldouble+0x53d>
  40a1c9:	0f a4 c2 01          	shld   $0x1,%eax,%edx
  40a1cd:	01 c0                	add    %eax,%eax
  40a1cf:	89 45 b0             	mov    %eax,-0x50(%ebp)
  40a1d2:	89 55 b4             	mov    %edx,-0x4c(%ebp)
  40a1d5:	8b 55 b4             	mov    -0x4c(%ebp),%edx
  40a1d8:	b9 0f 00 00 00       	mov    $0xf,%ecx
  40a1dd:	8b 45 b0             	mov    -0x50(%ebp),%eax
  40a1e0:	29 d9                	sub    %ebx,%ecx
  40a1e2:	c1 e1 02             	shl    $0x2,%ecx
  40a1e5:	0f ad d0             	shrd   %cl,%edx,%eax
  40a1e8:	d3 ea                	shr    %cl,%edx
  40a1ea:	f6 c1 20             	test   $0x20,%cl
  40a1ed:	0f 84 77 fe ff ff    	je     40a06a <___pformat_xldouble+0x7a>
  40a1f3:	89 d0                	mov    %edx,%eax
  40a1f5:	31 d2                	xor    %edx,%edx
  40a1f7:	e9 6e fe ff ff       	jmp    40a06a <___pformat_xldouble+0x7a>
  40a1fc:	8d 74 26 00          	lea    0x0(%esi,%eiz,1),%esi
  40a200:	8b 55 c4             	mov    -0x3c(%ebp),%edx
  40a203:	8b 45 c0             	mov    -0x40(%ebp),%eax
  40a206:	89 d6                	mov    %edx,%esi
  40a208:	09 c6                	or     %eax,%esi
  40a20a:	0f 84 d7 02 00 00    	je     40a4e7 <___pformat_xldouble+0x4f7>
  40a210:	85 d2                	test   %edx,%edx
  40a212:	0f 88 84 03 00 00    	js     40a59c <___pformat_xldouble+0x5ac>
  40a218:	b9 01 c0 ff ff       	mov    $0xffffc001,%ecx
  40a21d:	8d 76 00             	lea    0x0(%esi),%esi
  40a220:	0f a4 c2 01          	shld   $0x1,%eax,%edx
  40a224:	89 cb                	mov    %ecx,%ebx
  40a226:	01 c0                	add    %eax,%eax
  40a228:	83 e9 01             	sub    $0x1,%ecx
  40a22b:	85 d2                	test   %edx,%edx
  40a22d:	79 f1                	jns    40a220 <___pformat_xldouble+0x230>
  40a22f:	89 de                	mov    %ebx,%esi
  40a231:	e9 1e fe ff ff       	jmp    40a054 <___pformat_xldouble+0x64>
  40a236:	8b 45 a4             	mov    -0x5c(%ebp),%eax
  40a239:	39 45 ac             	cmp    %eax,-0x54(%ebp)
  40a23c:	8b 7d a8             	mov    -0x58(%ebp),%edi
  40a23f:	0f 84 52 03 00 00    	je     40a597 <___pformat_xldouble+0x5a7>
  40a245:	8b 47 04             	mov    0x4(%edi),%eax
  40a248:	89 45 b0             	mov    %eax,-0x50(%ebp)
  40a24b:	8b 47 08             	mov    0x8(%edi),%eax
  40a24e:	85 c0                	test   %eax,%eax
  40a250:	89 45 a0             	mov    %eax,-0x60(%ebp)
  40a253:	0f 8e 7c 02 00 00    	jle    40a4d5 <___pformat_xldouble+0x4e5>
  40a259:	8b 57 0c             	mov    0xc(%edi),%edx
  40a25c:	0f bf f6             	movswl %si,%esi
  40a25f:	8b 45 ac             	mov    -0x54(%ebp),%eax
  40a262:	2b 45 a4             	sub    -0x5c(%ebp),%eax
  40a265:	89 75 a8             	mov    %esi,-0x58(%ebp)
  40a268:	85 d2                	test   %edx,%edx
  40a26a:	7e 02                	jle    40a26e <___pformat_xldouble+0x27e>
  40a26c:	01 d0                	add    %edx,%eax
  40a26e:	8b 55 b0             	mov    -0x50(%ebp),%edx
  40a271:	81 e2 c0 01 00 00    	and    $0x1c0,%edx
  40a277:	83 fa 01             	cmp    $0x1,%edx
  40a27a:	19 d2                	sbb    %edx,%edx
  40a27c:	8d 74 10 06          	lea    0x6(%eax,%edx,1),%esi
  40a280:	8b 45 a8             	mov    -0x58(%ebp),%eax
  40a283:	ba 67 66 66 66       	mov    $0x66666667,%edx
  40a288:	f7 ea                	imul   %edx
  40a28a:	8b 45 a8             	mov    -0x58(%ebp),%eax
  40a28d:	c1 fa 02             	sar    $0x2,%edx
  40a290:	c1 f8 1f             	sar    $0x1f,%eax
  40a293:	29 c2                	sub    %eax,%edx
  40a295:	89 d1                	mov    %edx,%ecx
  40a297:	0f 84 ee 02 00 00    	je     40a58b <___pformat_xldouble+0x59b>
  40a29d:	bb 02 00 00 00       	mov    $0x2,%ebx
  40a2a2:	b8 67 66 66 66       	mov    $0x66666667,%eax
  40a2a7:	83 c6 01             	add    $0x1,%esi
  40a2aa:	f7 e9                	imul   %ecx
  40a2ac:	83 c3 01             	add    $0x1,%ebx
  40a2af:	c1 f9 1f             	sar    $0x1f,%ecx
  40a2b2:	c1 fa 02             	sar    $0x2,%edx
  40a2b5:	29 ca                	sub    %ecx,%edx
  40a2b7:	89 d1                	mov    %edx,%ecx
  40a2b9:	75 e7                	jne    40a2a2 <___pformat_xldouble+0x2b2>
  40a2bb:	0f bf c3             	movswl %bx,%eax
  40a2be:	89 45 9c             	mov    %eax,-0x64(%ebp)
  40a2c1:	39 75 a0             	cmp    %esi,-0x60(%ebp)
  40a2c4:	7e 5a                	jle    40a320 <___pformat_xldouble+0x330>
  40a2c6:	8b 45 a0             	mov    -0x60(%ebp),%eax
  40a2c9:	29 f0                	sub    %esi,%eax
  40a2cb:	f7 45 b0 00 06 00 00 	testl  $0x600,-0x50(%ebp)
  40a2d2:	0f 85 1a 02 00 00    	jne    40a4f2 <___pformat_xldouble+0x502>
  40a2d8:	8d 50 ff             	lea    -0x1(%eax),%edx
  40a2db:	85 c0                	test   %eax,%eax
  40a2dd:	89 57 08             	mov    %edx,0x8(%edi)
  40a2e0:	7e 45                	jle    40a327 <___pformat_xldouble+0x337>
  40a2e2:	89 fa                	mov    %edi,%edx
  40a2e4:	b8 20 00 00 00       	mov    $0x20,%eax
  40a2e9:	e8 32 ee ff ff       	call   409120 <___pformat_putc>
  40a2ee:	8b 47 08             	mov    0x8(%edi),%eax
  40a2f1:	8d 50 ff             	lea    -0x1(%eax),%edx
  40a2f4:	85 c0                	test   %eax,%eax
  40a2f6:	89 57 08             	mov    %edx,0x8(%edi)
  40a2f9:	7f e7                	jg     40a2e2 <___pformat_xldouble+0x2f2>
  40a2fb:	8b 47 04             	mov    0x4(%edi),%eax
  40a2fe:	89 45 b0             	mov    %eax,-0x50(%ebp)
  40a301:	f6 45 b0 80          	testb  $0x80,-0x50(%ebp)
  40a305:	74 26                	je     40a32d <___pformat_xldouble+0x33d>
  40a307:	89 fa                	mov    %edi,%edx
  40a309:	b8 2d 00 00 00       	mov    $0x2d,%eax
  40a30e:	e8 0d ee ff ff       	call   409120 <___pformat_putc>
  40a313:	eb 2f                	jmp    40a344 <___pformat_xldouble+0x354>
  40a315:	8b 7d b0             	mov    -0x50(%ebp),%edi
  40a318:	89 7d ac             	mov    %edi,-0x54(%ebp)
  40a31b:	e9 ac fd ff ff       	jmp    40a0cc <___pformat_xldouble+0xdc>
  40a320:	c7 47 08 ff ff ff ff 	movl   $0xffffffff,0x8(%edi)
  40a327:	f6 45 b0 80          	testb  $0x80,-0x50(%ebp)
  40a32b:	75 da                	jne    40a307 <___pformat_xldouble+0x317>
  40a32d:	f7 45 b0 00 01 00 00 	testl  $0x100,-0x50(%ebp)
  40a334:	0f 85 c0 01 00 00    	jne    40a4fa <___pformat_xldouble+0x50a>
  40a33a:	f6 45 b0 40          	testb  $0x40,-0x50(%ebp)
  40a33e:	0f 85 d8 01 00 00    	jne    40a51c <___pformat_xldouble+0x52c>
  40a344:	89 fa                	mov    %edi,%edx
  40a346:	b8 30 00 00 00       	mov    $0x30,%eax
  40a34b:	e8 d0 ed ff ff       	call   409120 <___pformat_putc>
  40a350:	8b 47 04             	mov    0x4(%edi),%eax
  40a353:	89 fa                	mov    %edi,%edx
  40a355:	83 e0 20             	and    $0x20,%eax
  40a358:	83 c8 58             	or     $0x58,%eax
  40a35b:	e8 c0 ed ff ff       	call   409120 <___pformat_putc>
  40a360:	8b 47 08             	mov    0x8(%edi),%eax
  40a363:	85 c0                	test   %eax,%eax
  40a365:	7e 25                	jle    40a38c <___pformat_xldouble+0x39c>
  40a367:	f6 47 05 02          	testb  $0x2,0x5(%edi)
  40a36b:	74 1f                	je     40a38c <___pformat_xldouble+0x39c>
  40a36d:	83 e8 01             	sub    $0x1,%eax
  40a370:	89 47 08             	mov    %eax,0x8(%edi)
  40a373:	89 fa                	mov    %edi,%edx
  40a375:	b8 30 00 00 00       	mov    $0x30,%eax
  40a37a:	e8 a1 ed ff ff       	call   409120 <___pformat_putc>
  40a37f:	8b 47 08             	mov    0x8(%edi),%eax
  40a382:	8d 50 ff             	lea    -0x1(%eax),%edx
  40a385:	85 c0                	test   %eax,%eax
  40a387:	89 57 08             	mov    %edx,0x8(%edi)
  40a38a:	7f e7                	jg     40a373 <___pformat_xldouble+0x383>
  40a38c:	8b 45 a4             	mov    -0x5c(%ebp),%eax
  40a38f:	39 45 ac             	cmp    %eax,-0x54(%ebp)
  40a392:	8b 5d ac             	mov    -0x54(%ebp),%ebx
  40a395:	77 19                	ja     40a3b0 <___pformat_xldouble+0x3c0>
  40a397:	e9 a1 00 00 00       	jmp    40a43d <___pformat_xldouble+0x44d>
  40a39c:	8d 74 26 00          	lea    0x0(%esi,%eiz,1),%esi
  40a3a0:	89 fa                	mov    %edi,%edx
  40a3a2:	e8 79 ed ff ff       	call   409120 <___pformat_putc>
  40a3a7:	3b 5d a4             	cmp    -0x5c(%ebp),%ebx
  40a3aa:	0f 84 8d 00 00 00    	je     40a43d <___pformat_xldouble+0x44d>
  40a3b0:	83 eb 01             	sub    $0x1,%ebx
  40a3b3:	0f be 03             	movsbl (%ebx),%eax
  40a3b6:	83 f8 2e             	cmp    $0x2e,%eax
  40a3b9:	75 e5                	jne    40a3a0 <___pformat_xldouble+0x3b0>
  40a3bb:	83 7f 10 fd          	cmpl   $0xfffffffd,0x10(%edi)
  40a3bf:	0f 84 cc 00 00 00    	je     40a491 <___pformat_xldouble+0x4a1>
  40a3c5:	0f b7 57 14          	movzwl 0x14(%edi),%edx
  40a3c9:	66 85 d2             	test   %dx,%dx
  40a3cc:	0f 84 ae 00 00 00    	je     40a480 <___pformat_xldouble+0x490>
  40a3d2:	8b 47 10             	mov    0x10(%edi),%eax
  40a3d5:	89 65 b0             	mov    %esp,-0x50(%ebp)
  40a3d8:	83 c0 0f             	add    $0xf,%eax
  40a3db:	83 e0 f0             	and    $0xfffffff0,%eax
  40a3de:	e8 cd d5 ff ff       	call   4079b0 <___chkstk_ms>
  40a3e3:	29 c4                	sub    %eax,%esp
  40a3e5:	8d 74 24 10          	lea    0x10(%esp),%esi
  40a3e9:	8d 45 bc             	lea    -0x44(%ebp),%eax
  40a3ec:	c7 45 bc 00 00 00 00 	movl   $0x0,-0x44(%ebp)
  40a3f3:	89 44 24 08          	mov    %eax,0x8(%esp)
  40a3f7:	89 54 24 04          	mov    %edx,0x4(%esp)
  40a3fb:	89 34 24             	mov    %esi,(%esp)
  40a3fe:	e8 5d 20 00 00       	call   40c460 <_wcrtomb>
  40a403:	85 c0                	test   %eax,%eax
  40a405:	0f 8e 00 01 00 00    	jle    40a50b <___pformat_xldouble+0x51b>
  40a40b:	01 f0                	add    %esi,%eax
  40a40d:	89 5d ac             	mov    %ebx,-0x54(%ebp)
  40a410:	89 f3                	mov    %esi,%ebx
  40a412:	89 c6                	mov    %eax,%esi
  40a414:	83 c3 01             	add    $0x1,%ebx
  40a417:	0f be 43 ff          	movsbl -0x1(%ebx),%eax
  40a41b:	89 fa                	mov    %edi,%edx
  40a41d:	e8 fe ec ff ff       	call   409120 <___pformat_putc>
  40a422:	39 f3                	cmp    %esi,%ebx
  40a424:	75 ee                	jne    40a414 <___pformat_xldouble+0x424>
  40a426:	8b 5d ac             	mov    -0x54(%ebp),%ebx
  40a429:	8b 65 b0             	mov    -0x50(%ebp),%esp
  40a42c:	e9 76 ff ff ff       	jmp    40a3a7 <___pformat_xldouble+0x3b7>
  40a431:	89 fa                	mov    %edi,%edx
  40a433:	b8 30 00 00 00       	mov    $0x30,%eax
  40a438:	e8 e3 ec ff ff       	call   409120 <___pformat_putc>
  40a43d:	8b 47 0c             	mov    0xc(%edi),%eax
  40a440:	8d 50 ff             	lea    -0x1(%eax),%edx
  40a443:	85 c0                	test   %eax,%eax
  40a445:	89 57 0c             	mov    %edx,0xc(%edi)
  40a448:	7f e7                	jg     40a431 <___pformat_xldouble+0x441>
  40a44a:	8b 47 04             	mov    0x4(%edi),%eax
  40a44d:	89 fa                	mov    %edi,%edx
  40a44f:	83 e0 20             	and    $0x20,%eax
  40a452:	83 c8 50             	or     $0x50,%eax
  40a455:	e8 c6 ec ff ff       	call   409120 <___pformat_putc>
  40a45a:	8b 45 9c             	mov    -0x64(%ebp),%eax
  40a45d:	89 f9                	mov    %edi,%ecx
  40a45f:	01 47 08             	add    %eax,0x8(%edi)
  40a462:	8b 45 a8             	mov    -0x58(%ebp),%eax
  40a465:	81 4f 04 c0 01 00 00 	orl    $0x1c0,0x4(%edi)
  40a46c:	99                   	cltd   
  40a46d:	e8 5e ef ff ff       	call   4093d0 <___pformat_int>
  40a472:	8d 65 f4             	lea    -0xc(%ebp),%esp
  40a475:	5b                   	pop    %ebx
  40a476:	5e                   	pop    %esi
  40a477:	5f                   	pop    %edi
  40a478:	5d                   	pop    %ebp
  40a479:	c3                   	ret    
  40a47a:	8d b6 00 00 00 00    	lea    0x0(%esi),%esi
  40a480:	89 fa                	mov    %edi,%edx
  40a482:	b8 2e 00 00 00       	mov    $0x2e,%eax
  40a487:	e8 94 ec ff ff       	call   409120 <___pformat_putc>
  40a48c:	e9 16 ff ff ff       	jmp    40a3a7 <___pformat_xldouble+0x3b7>
  40a491:	c7 45 bc 00 00 00 00 	movl   $0x0,-0x44(%ebp)
  40a498:	8d 75 bc             	lea    -0x44(%ebp),%esi
  40a49b:	e8 f0 35 00 00       	call   40da90 <_localeconv>
  40a4a0:	89 74 24 0c          	mov    %esi,0xc(%esp)
  40a4a4:	c7 44 24 08 10 00 00 	movl   $0x10,0x8(%esp)
  40a4ab:	00 
  40a4ac:	8b 00                	mov    (%eax),%eax
  40a4ae:	89 44 24 04          	mov    %eax,0x4(%esp)
  40a4b2:	8d 45 ba             	lea    -0x46(%ebp),%eax
  40a4b5:	89 04 24             	mov    %eax,(%esp)
  40a4b8:	e8 f3 22 00 00       	call   40c7b0 <_mbrtowc>
  40a4bd:	85 c0                	test   %eax,%eax
  40a4bf:	0f 8e 85 00 00 00    	jle    40a54a <___pformat_xldouble+0x55a>
  40a4c5:	0f b7 55 ba          	movzwl -0x46(%ebp),%edx
  40a4c9:	66 89 57 14          	mov    %dx,0x14(%edi)
  40a4cd:	89 47 10             	mov    %eax,0x10(%edi)
  40a4d0:	e9 f4 fe ff ff       	jmp    40a3c9 <___pformat_xldouble+0x3d9>
  40a4d5:	0f bf c6             	movswl %si,%eax
  40a4d8:	c7 45 9c 02 00 00 00 	movl   $0x2,-0x64(%ebp)
  40a4df:	89 45 a8             	mov    %eax,-0x58(%ebp)
  40a4e2:	e9 40 fe ff ff       	jmp    40a327 <___pformat_xldouble+0x337>
  40a4e7:	31 f6                	xor    %esi,%esi
  40a4e9:	31 c0                	xor    %eax,%eax
  40a4eb:	31 d2                	xor    %edx,%edx
  40a4ed:	e9 62 fb ff ff       	jmp    40a054 <___pformat_xldouble+0x64>
  40a4f2:	89 47 08             	mov    %eax,0x8(%edi)
  40a4f5:	e9 2d fe ff ff       	jmp    40a327 <___pformat_xldouble+0x337>
  40a4fa:	89 fa                	mov    %edi,%edx
  40a4fc:	b8 2b 00 00 00       	mov    $0x2b,%eax
  40a501:	e8 1a ec ff ff       	call   409120 <___pformat_putc>
  40a506:	e9 39 fe ff ff       	jmp    40a344 <___pformat_xldouble+0x354>
  40a50b:	89 fa                	mov    %edi,%edx
  40a50d:	b8 2e 00 00 00       	mov    $0x2e,%eax
  40a512:	e8 09 ec ff ff       	call   409120 <___pformat_putc>
  40a517:	e9 0d ff ff ff       	jmp    40a429 <___pformat_xldouble+0x439>
  40a51c:	89 fa                	mov    %edi,%edx
  40a51e:	b8 20 00 00 00       	mov    $0x20,%eax
  40a523:	e8 f8 eb ff ff       	call   409120 <___pformat_putc>
  40a528:	e9 17 fe ff ff       	jmp    40a344 <___pformat_xldouble+0x354>
  40a52d:	83 c6 01             	add    $0x1,%esi
  40a530:	e9 a0 fc ff ff       	jmp    40a1d5 <___pformat_xldouble+0x1e5>
  40a535:	dd d8                	fstp   %st(0)
  40a537:	89 f9                	mov    %edi,%ecx
  40a539:	ba 80 01 41 00       	mov    $0x410180,%edx
  40a53e:	31 c0                	xor    %eax,%eax
  40a540:	e8 fb ed ff ff       	call   409340 <___pformat_emit_inf_or_nan>
  40a545:	e9 28 ff ff ff       	jmp    40a472 <___pformat_xldouble+0x482>
  40a54a:	0f b7 57 14          	movzwl 0x14(%edi),%edx
  40a54e:	e9 7a ff ff ff       	jmp    40a4cd <___pformat_xldouble+0x4dd>
  40a553:	89 f9                	mov    %edi,%ecx
  40a555:	ba 84 01 41 00       	mov    $0x410184,%edx
  40a55a:	89 d8                	mov    %ebx,%eax
  40a55c:	e8 df ed ff ff       	call   409340 <___pformat_emit_inf_or_nan>
  40a561:	e9 0c ff ff ff       	jmp    40a472 <___pformat_xldouble+0x482>
  40a566:	8d 45 d6             	lea    -0x2a(%ebp),%eax
  40a569:	89 45 a4             	mov    %eax,-0x5c(%ebp)
  40a56c:	85 db                	test   %ebx,%ebx
  40a56e:	8b 47 04             	mov    0x4(%edi),%eax
  40a571:	7e 33                	jle    40a5a6 <___pformat_xldouble+0x5b6>
  40a573:	89 45 b0             	mov    %eax,-0x50(%ebp)
  40a576:	c6 45 d6 2e          	movb   $0x2e,-0x2a(%ebp)
  40a57a:	8d 45 d7             	lea    -0x29(%ebp),%eax
  40a57d:	8d 50 01             	lea    0x1(%eax),%edx
  40a580:	89 55 ac             	mov    %edx,-0x54(%ebp)
  40a583:	c6 00 30             	movb   $0x30,(%eax)
  40a586:	e9 c0 fc ff ff       	jmp    40a24b <___pformat_xldouble+0x25b>
  40a58b:	c7 45 9c 02 00 00 00 	movl   $0x2,-0x64(%ebp)
  40a592:	e9 2a fd ff ff       	jmp    40a2c1 <___pformat_xldouble+0x2d1>
  40a597:	8b 5f 0c             	mov    0xc(%edi),%ebx
  40a59a:	eb d0                	jmp    40a56c <___pformat_xldouble+0x57c>
  40a59c:	be 02 c0 ff ff       	mov    $0xffffc002,%esi
  40a5a1:	e9 ae fa ff ff       	jmp    40a054 <___pformat_xldouble+0x64>
  40a5a6:	89 c2                	mov    %eax,%edx
  40a5a8:	80 e6 08             	and    $0x8,%dh
  40a5ab:	89 45 b0             	mov    %eax,-0x50(%ebp)
  40a5ae:	8b 45 a4             	mov    -0x5c(%ebp),%eax
  40a5b1:	74 ca                	je     40a57d <___pformat_xldouble+0x58d>
  40a5b3:	eb c1                	jmp    40a576 <___pformat_xldouble+0x586>
  40a5b5:	8d 74 26 00          	lea    0x0(%esi,%eiz,1),%esi
  40a5b9:	8d bc 27 00 00 00 00 	lea    0x0(%edi,%eiz,1),%edi

0040a5c0 <___mingw_pformat>:
  40a5c0:	55                   	push   %ebp
  40a5c1:	57                   	push   %edi
  40a5c2:	56                   	push   %esi
  40a5c3:	53                   	push   %ebx
  40a5c4:	83 ec 5c             	sub    $0x5c,%esp
  40a5c7:	8b 44 24 74          	mov    0x74(%esp),%eax
  40a5cb:	81 64 24 70 00 30 00 	andl   $0x3000,0x70(%esp)
  40a5d2:	00 
  40a5d3:	8b 74 24 7c          	mov    0x7c(%esp),%esi
  40a5d7:	c7 04 24 9d 01 41 00 	movl   $0x41019d,(%esp)
  40a5de:	8b ac 24 80 00 00 00 	mov    0x80(%esp),%ebp
  40a5e5:	89 44 24 2c          	mov    %eax,0x2c(%esp)
  40a5e9:	8b 44 24 70          	mov    0x70(%esp),%eax
  40a5ed:	c7 44 24 34 ff ff ff 	movl   $0xffffffff,0x34(%esp)
  40a5f4:	ff 
  40a5f5:	c7 44 24 38 ff ff ff 	movl   $0xffffffff,0x38(%esp)
  40a5fc:	ff 
  40a5fd:	c7 44 24 3c fd ff ff 	movl   $0xfffffffd,0x3c(%esp)
  40a604:	ff 
  40a605:	89 44 24 30          	mov    %eax,0x30(%esp)
  40a609:	31 c0                	xor    %eax,%eax
  40a60b:	66 89 44 24 40       	mov    %ax,0x40(%esp)
  40a610:	8b 44 24 78          	mov    0x78(%esp),%eax
  40a614:	c7 44 24 44 00 00 00 	movl   $0x0,0x44(%esp)
  40a61b:	00 
  40a61c:	89 44 24 48          	mov    %eax,0x48(%esp)
  40a620:	e8 73 34 00 00       	call   40da98 <_getenv>
  40a625:	85 c0                	test   %eax,%eax
  40a627:	0f 84 d3 00 00 00    	je     40a700 <___mingw_pformat+0x140>
  40a62d:	0f be 00             	movsbl (%eax),%eax
  40a630:	83 e8 30             	sub    $0x30,%eax
  40a633:	83 f8 02             	cmp    $0x2,%eax
  40a636:	0f 87 c4 00 00 00    	ja     40a700 <___mingw_pformat+0x140>
  40a63c:	b8 02 00 00 00       	mov    $0x2,%eax
  40a641:	89 44 24 4c          	mov    %eax,0x4c(%esp)
  40a645:	8b 44 24 70          	mov    0x70(%esp),%eax
  40a649:	80 cc 02             	or     $0x2,%ah
  40a64c:	89 44 24 1c          	mov    %eax,0x1c(%esp)
  40a650:	0f be 06             	movsbl (%esi),%eax
  40a653:	8d 5e 01             	lea    0x1(%esi),%ebx
  40a656:	89 d9                	mov    %ebx,%ecx
  40a658:	85 c0                	test   %eax,%eax
  40a65a:	0f 84 92 00 00 00    	je     40a6f2 <___mingw_pformat+0x132>
  40a660:	83 f8 25             	cmp    $0x25,%eax
  40a663:	0f 85 de 00 00 00    	jne    40a747 <___mingw_pformat+0x187>
  40a669:	8b 44 24 70          	mov    0x70(%esp),%eax
  40a66d:	c7 44 24 38 ff ff ff 	movl   $0xffffffff,0x38(%esp)
  40a674:	ff 
  40a675:	c7 44 24 34 ff ff ff 	movl   $0xffffffff,0x34(%esp)
  40a67c:	ff 
  40a67d:	c7 44 24 14 00 00 00 	movl   $0x0,0x14(%esp)
  40a684:	00 
  40a685:	89 44 24 30          	mov    %eax,0x30(%esp)
  40a689:	0f b6 56 01          	movzbl 0x1(%esi),%edx
  40a68d:	8d 44 24 34          	lea    0x34(%esp),%eax
  40a691:	89 44 24 18          	mov    %eax,0x18(%esp)
  40a695:	c7 44 24 10 00 00 00 	movl   $0x0,0x10(%esp)
  40a69c:	00 
  40a69d:	84 d2                	test   %dl,%dl
  40a69f:	74 3f                	je     40a6e0 <___mingw_pformat+0x120>
  40a6a1:	8d 42 e0             	lea    -0x20(%edx),%eax
  40a6a4:	0f be fa             	movsbl %dl,%edi
  40a6a7:	3c 5a                	cmp    $0x5a,%al
  40a6a9:	8d 71 01             	lea    0x1(%ecx),%esi
  40a6ac:	0f 87 70 04 00 00    	ja     40ab22 <___mingw_pformat+0x562>
  40a6b2:	0f b6 c0             	movzbl %al,%eax
  40a6b5:	ff 24 85 b4 01 41 00 	jmp    *0x4101b4(,%eax,4)
  40a6bc:	8d 74 26 00          	lea    0x0(%esi,%eiz,1),%esi
  40a6c0:	0f b6 51 01          	movzbl 0x1(%ecx),%edx
  40a6c4:	89 f1                	mov    %esi,%ecx
  40a6c6:	c7 44 24 14 02 00 00 	movl   $0x2,0x14(%esp)
  40a6cd:	00 
  40a6ce:	c7 44 24 10 04 00 00 	movl   $0x4,0x10(%esp)
  40a6d5:	00 
  40a6d6:	84 d2                	test   %dl,%dl
  40a6d8:	75 c7                	jne    40a6a1 <___mingw_pformat+0xe1>
  40a6da:	8d b6 00 00 00 00    	lea    0x0(%esi),%esi
  40a6e0:	89 ce                	mov    %ecx,%esi
  40a6e2:	0f be 06             	movsbl (%esi),%eax
  40a6e5:	8d 5e 01             	lea    0x1(%esi),%ebx
  40a6e8:	89 d9                	mov    %ebx,%ecx
  40a6ea:	85 c0                	test   %eax,%eax
  40a6ec:	0f 85 6e ff ff ff    	jne    40a660 <___mingw_pformat+0xa0>
  40a6f2:	8b 44 24 44          	mov    0x44(%esp),%eax
  40a6f6:	83 c4 5c             	add    $0x5c,%esp
  40a6f9:	5b                   	pop    %ebx
  40a6fa:	5e                   	pop    %esi
  40a6fb:	5f                   	pop    %edi
  40a6fc:	5d                   	pop    %ebp
  40a6fd:	c3                   	ret    
  40a6fe:	66 90                	xchg   %ax,%ax
  40a700:	f6 05 88 30 41 00 01 	testb  $0x1,0x413088
  40a707:	0f 85 2f ff ff ff    	jne    40a63c <___mingw_pformat+0x7c>
  40a70d:	b8 03 00 00 00       	mov    $0x3,%eax
  40a712:	e9 2a ff ff ff       	jmp    40a641 <___mingw_pformat+0x81>
  40a717:	80 79 01 6c          	cmpb   $0x6c,0x1(%ecx)
  40a71b:	c7 44 24 14 02 00 00 	movl   $0x2,0x14(%esp)
  40a722:	00 
  40a723:	75 0b                	jne    40a730 <___mingw_pformat+0x170>
  40a725:	8d 71 02             	lea    0x2(%ecx),%esi
  40a728:	c7 44 24 14 03 00 00 	movl   $0x3,0x14(%esp)
  40a72f:	00 
  40a730:	83 4c 24 30 04       	orl    $0x4,0x30(%esp)
  40a735:	89 f1                	mov    %esi,%ecx
  40a737:	0f b6 16             	movzbl (%esi),%edx
  40a73a:	c7 44 24 10 04 00 00 	movl   $0x4,0x10(%esp)
  40a741:	00 
  40a742:	e9 56 ff ff ff       	jmp    40a69d <___mingw_pformat+0xdd>
  40a747:	8d 54 24 2c          	lea    0x2c(%esp),%edx
  40a74b:	89 de                	mov    %ebx,%esi
  40a74d:	e8 ce e9 ff ff       	call   409120 <___pformat_putc>
  40a752:	e9 f9 fe ff ff       	jmp    40a650 <___mingw_pformat+0x90>
  40a757:	8b 54 24 14          	mov    0x14(%esp),%edx
  40a75b:	89 e8                	mov    %ebp,%eax
  40a75d:	83 ea 02             	sub    $0x2,%edx
  40a760:	83 fa 01             	cmp    $0x1,%edx
  40a763:	0f 86 07 05 00 00    	jbe    40ac70 <___mingw_pformat+0x6b0>
  40a769:	8b 18                	mov    (%eax),%ebx
  40a76b:	83 c5 04             	add    $0x4,%ebp
  40a76e:	85 db                	test   %ebx,%ebx
  40a770:	0f 84 89 06 00 00    	je     40adff <___mingw_pformat+0x83f>
  40a776:	89 1c 24             	mov    %ebx,(%esp)
  40a779:	e8 9a 32 00 00       	call   40da18 <_strlen>
  40a77e:	89 c2                	mov    %eax,%edx
  40a780:	8d 4c 24 2c          	lea    0x2c(%esp),%ecx
  40a784:	89 d8                	mov    %ebx,%eax
  40a786:	e8 05 eb ff ff       	call   409290 <___pformat_putchars>
  40a78b:	e9 c0 fe ff ff       	jmp    40a650 <___mingw_pformat+0x90>
  40a790:	8b 54 24 14          	mov    0x14(%esp),%edx
  40a794:	89 e8                	mov    %ebp,%eax
  40a796:	c7 44 24 38 ff ff ff 	movl   $0xffffffff,0x38(%esp)
  40a79d:	ff 
  40a79e:	83 ea 02             	sub    $0x2,%edx
  40a7a1:	83 fa 01             	cmp    $0x1,%edx
  40a7a4:	0f 86 23 03 00 00    	jbe    40aacd <___mingw_pformat+0x50d>
  40a7aa:	8b 00                	mov    (%eax),%eax
  40a7ac:	8d 4c 24 2c          	lea    0x2c(%esp),%ecx
  40a7b0:	ba 01 00 00 00       	mov    $0x1,%edx
  40a7b5:	83 c5 04             	add    $0x4,%ebp
  40a7b8:	88 44 24 20          	mov    %al,0x20(%esp)
  40a7bc:	8d 44 24 20          	lea    0x20(%esp),%eax
  40a7c0:	e8 cb ea ff ff       	call   409290 <___pformat_putchars>
  40a7c5:	e9 86 fe ff ff       	jmp    40a650 <___mingw_pformat+0x90>
  40a7ca:	8d b6 00 00 00 00    	lea    0x0(%esi),%esi
  40a7d0:	83 7c 24 14 04       	cmpl   $0x4,0x14(%esp)
  40a7d5:	0f 84 f0 05 00 00    	je     40adcb <___mingw_pformat+0x80b>
  40a7db:	83 7c 24 14 01       	cmpl   $0x1,0x14(%esp)
  40a7e0:	8b 45 00             	mov    0x0(%ebp),%eax
  40a7e3:	8b 54 24 44          	mov    0x44(%esp),%edx
  40a7e7:	0f 84 17 05 00 00    	je     40ad04 <___mingw_pformat+0x744>
  40a7ed:	83 7c 24 14 02       	cmpl   $0x2,0x14(%esp)
  40a7f2:	0f 84 43 06 00 00    	je     40ae3b <___mingw_pformat+0x87b>
  40a7f8:	83 7c 24 14 03       	cmpl   $0x3,0x14(%esp)
  40a7fd:	89 10                	mov    %edx,(%eax)
  40a7ff:	0f 84 a9 06 00 00    	je     40aeae <___mingw_pformat+0x8ee>
  40a805:	83 c5 04             	add    $0x4,%ebp
  40a808:	e9 43 fe ff ff       	jmp    40a650 <___mingw_pformat+0x90>
  40a80d:	8d 76 00             	lea    0x0(%esi),%esi
  40a810:	0f b6 51 01          	movzbl 0x1(%ecx),%edx
  40a814:	89 f1                	mov    %esi,%ecx
  40a816:	c7 44 24 14 03 00 00 	movl   $0x3,0x14(%esp)
  40a81d:	00 
  40a81e:	c7 44 24 10 04 00 00 	movl   $0x4,0x10(%esp)
  40a825:	00 
  40a826:	e9 72 fe ff ff       	jmp    40a69d <___mingw_pformat+0xdd>
  40a82b:	90                   	nop
  40a82c:	8d 74 26 00          	lea    0x0(%esi,%eiz,1),%esi
  40a830:	0f b6 51 01          	movzbl 0x1(%ecx),%edx
  40a834:	80 fa 68             	cmp    $0x68,%dl
  40a837:	0f 84 4c 05 00 00    	je     40ad89 <___mingw_pformat+0x7c9>
  40a83d:	89 f1                	mov    %esi,%ecx
  40a83f:	c7 44 24 14 01 00 00 	movl   $0x1,0x14(%esp)
  40a846:	00 
  40a847:	c7 44 24 10 04 00 00 	movl   $0x4,0x10(%esp)
  40a84e:	00 
  40a84f:	e9 49 fe ff ff       	jmp    40a69d <___mingw_pformat+0xdd>
  40a854:	8b 44 24 10          	mov    0x10(%esp),%eax
  40a858:	85 c0                	test   %eax,%eax
  40a85a:	75 0e                	jne    40a86a <___mingw_pformat+0x2aa>
  40a85c:	8b 44 24 70          	mov    0x70(%esp),%eax
  40a860:	39 44 24 30          	cmp    %eax,0x30(%esp)
  40a864:	0f 84 a4 05 00 00    	je     40ae0e <___mingw_pformat+0x84e>
  40a86a:	8b 45 00             	mov    0x0(%ebp),%eax
  40a86d:	8d 5d 04             	lea    0x4(%ebp),%ebx
  40a870:	c7 44 24 24 00 00 00 	movl   $0x0,0x24(%esp)
  40a877:	00 
  40a878:	8b 4c 24 24          	mov    0x24(%esp),%ecx
  40a87c:	89 dd                	mov    %ebx,%ebp
  40a87e:	89 44 24 20          	mov    %eax,0x20(%esp)
  40a882:	8b 54 24 20          	mov    0x20(%esp),%edx
  40a886:	8d 44 24 2c          	lea    0x2c(%esp),%eax
  40a88a:	89 04 24             	mov    %eax,(%esp)
  40a88d:	b8 78 00 00 00       	mov    $0x78,%eax
  40a892:	e8 69 ed ff ff       	call   409600 <___pformat_xint>
  40a897:	e9 b4 fd ff ff       	jmp    40a650 <___mingw_pformat+0x90>
  40a89c:	8d 74 26 00          	lea    0x0(%esi,%eiz,1),%esi
  40a8a0:	8b 44 24 30          	mov    0x30(%esp),%eax
  40a8a4:	83 c8 20             	or     $0x20,%eax
  40a8a7:	a8 04                	test   $0x4,%al
  40a8a9:	89 44 24 30          	mov    %eax,0x30(%esp)
  40a8ad:	0f 84 4a 02 00 00    	je     40aafd <___mingw_pformat+0x53d>
  40a8b3:	db 6d 00             	fldt   0x0(%ebp)
  40a8b6:	8d 5d 0c             	lea    0xc(%ebp),%ebx
  40a8b9:	db 3c 24             	fstpt  (%esp)
  40a8bc:	89 dd                	mov    %ebx,%ebp
  40a8be:	8d 44 24 2c          	lea    0x2c(%esp),%eax
  40a8c2:	e8 29 f7 ff ff       	call   409ff0 <___pformat_xldouble>
  40a8c7:	e9 84 fd ff ff       	jmp    40a650 <___mingw_pformat+0x90>
  40a8cc:	8d 74 26 00          	lea    0x0(%esi,%eiz,1),%esi
  40a8d0:	83 7c 24 14 03       	cmpl   $0x3,0x14(%esp)
  40a8d5:	89 f8                	mov    %edi,%eax
  40a8d7:	0f 84 80 04 00 00    	je     40ad5d <___mingw_pformat+0x79d>
  40a8dd:	83 7c 24 14 02       	cmpl   $0x2,0x14(%esp)
  40a8e2:	0f 84 27 04 00 00    	je     40ad0f <___mingw_pformat+0x74f>
  40a8e8:	8b 7d 00             	mov    0x0(%ebp),%edi
  40a8eb:	8d 55 04             	lea    0x4(%ebp),%edx
  40a8ee:	83 7c 24 14 01       	cmpl   $0x1,0x14(%esp)
  40a8f3:	c7 44 24 24 00 00 00 	movl   $0x0,0x24(%esp)
  40a8fa:	00 
  40a8fb:	89 7c 24 20          	mov    %edi,0x20(%esp)
  40a8ff:	0f 84 1e 05 00 00    	je     40ae23 <___mingw_pformat+0x863>
  40a905:	83 7c 24 14 04       	cmpl   $0x4,0x14(%esp)
  40a90a:	89 d5                	mov    %edx,%ebp
  40a90c:	0f 84 86 05 00 00    	je     40ae98 <___mingw_pformat+0x8d8>
  40a912:	83 f8 75             	cmp    $0x75,%eax
  40a915:	0f 84 ec 00 00 00    	je     40aa07 <___mingw_pformat+0x447>
  40a91b:	8b 54 24 20          	mov    0x20(%esp),%edx
  40a91f:	8d 7c 24 2c          	lea    0x2c(%esp),%edi
  40a923:	8b 4c 24 24          	mov    0x24(%esp),%ecx
  40a927:	89 3c 24             	mov    %edi,(%esp)
  40a92a:	e8 d1 ec ff ff       	call   409600 <___pformat_xint>
  40a92f:	e9 1c fd ff ff       	jmp    40a650 <___mingw_pformat+0x90>
  40a934:	8b 44 24 30          	mov    0x30(%esp),%eax
  40a938:	83 c8 20             	or     $0x20,%eax
  40a93b:	a8 04                	test   $0x4,%al
  40a93d:	89 44 24 30          	mov    %eax,0x30(%esp)
  40a941:	0f 84 15 01 00 00    	je     40aa5c <___mingw_pformat+0x49c>
  40a947:	db 6d 00             	fldt   0x0(%ebp)
  40a94a:	8d 5d 0c             	lea    0xc(%ebp),%ebx
  40a94d:	db 3c 24             	fstpt  (%esp)
  40a950:	89 dd                	mov    %ebx,%ebp
  40a952:	8d 44 24 2c          	lea    0x2c(%esp),%eax
  40a956:	e8 15 f5 ff ff       	call   409e70 <___pformat_gfloat>
  40a95b:	e9 f0 fc ff ff       	jmp    40a650 <___mingw_pformat+0x90>
  40a960:	8b 44 24 30          	mov    0x30(%esp),%eax
  40a964:	83 c8 20             	or     $0x20,%eax
  40a967:	a8 04                	test   $0x4,%al
  40a969:	89 44 24 30          	mov    %eax,0x30(%esp)
  40a96d:	0f 84 0e 01 00 00    	je     40aa81 <___mingw_pformat+0x4c1>
  40a973:	db 6d 00             	fldt   0x0(%ebp)
  40a976:	8d 5d 0c             	lea    0xc(%ebp),%ebx
  40a979:	db 3c 24             	fstpt  (%esp)
  40a97c:	89 dd                	mov    %ebx,%ebp
  40a97e:	8d 44 24 2c          	lea    0x2c(%esp),%eax
  40a982:	e8 09 f4 ff ff       	call   409d90 <___pformat_float>
  40a987:	e9 c4 fc ff ff       	jmp    40a650 <___mingw_pformat+0x90>
  40a98c:	8d 74 26 00          	lea    0x0(%esi,%eiz,1),%esi
  40a990:	8b 44 24 30          	mov    0x30(%esp),%eax
  40a994:	83 c8 20             	or     $0x20,%eax
  40a997:	a8 04                	test   $0x4,%al
  40a999:	89 44 24 30          	mov    %eax,0x30(%esp)
  40a99d:	0f 84 09 01 00 00    	je     40aaac <___mingw_pformat+0x4ec>
  40a9a3:	db 6d 00             	fldt   0x0(%ebp)
  40a9a6:	8d 5d 0c             	lea    0xc(%ebp),%ebx
  40a9a9:	db 3c 24             	fstpt  (%esp)
  40a9ac:	89 dd                	mov    %ebx,%ebp
  40a9ae:	8d 44 24 2c          	lea    0x2c(%esp),%eax
  40a9b2:	e8 29 f3 ff ff       	call   409ce0 <___pformat_efloat>
  40a9b7:	e9 94 fc ff ff       	jmp    40a650 <___mingw_pformat+0x90>
  40a9bc:	8d 74 26 00          	lea    0x0(%esi,%eiz,1),%esi
  40a9c0:	81 4c 24 30 80 00 00 	orl    $0x80,0x30(%esp)
  40a9c7:	00 
  40a9c8:	83 7c 24 14 03       	cmpl   $0x3,0x14(%esp)
  40a9cd:	0f 84 a0 03 00 00    	je     40ad73 <___mingw_pformat+0x7b3>
  40a9d3:	83 7c 24 14 02       	cmpl   $0x2,0x14(%esp)
  40a9d8:	0f 84 48 03 00 00    	je     40ad26 <___mingw_pformat+0x766>
  40a9de:	8b 45 00             	mov    0x0(%ebp),%eax
  40a9e1:	8d 55 04             	lea    0x4(%ebp),%edx
  40a9e4:	89 44 24 20          	mov    %eax,0x20(%esp)
  40a9e8:	c1 f8 1f             	sar    $0x1f,%eax
  40a9eb:	83 7c 24 14 01       	cmpl   $0x1,0x14(%esp)
  40a9f0:	89 44 24 24          	mov    %eax,0x24(%esp)
  40a9f4:	0f 84 4b 04 00 00    	je     40ae45 <___mingw_pformat+0x885>
  40a9fa:	83 7c 24 14 04       	cmpl   $0x4,0x14(%esp)
  40a9ff:	89 d5                	mov    %edx,%ebp
  40aa01:	0f 84 7c 04 00 00    	je     40ae83 <___mingw_pformat+0x8c3>
  40aa07:	8b 44 24 20          	mov    0x20(%esp),%eax
  40aa0b:	8d 4c 24 2c          	lea    0x2c(%esp),%ecx
  40aa0f:	8b 54 24 24          	mov    0x24(%esp),%edx
  40aa13:	e8 b8 e9 ff ff       	call   4093d0 <___pformat_int>
  40aa18:	e9 33 fc ff ff       	jmp    40a650 <___mingw_pformat+0x90>
  40aa1d:	8d 76 00             	lea    0x0(%esi),%esi
  40aa20:	0f b6 51 01          	movzbl 0x1(%ecx),%edx
  40aa24:	80 fa 36             	cmp    $0x36,%dl
  40aa27:	0f 84 78 03 00 00    	je     40ada5 <___mingw_pformat+0x7e5>
  40aa2d:	80 fa 33             	cmp    $0x33,%dl
  40aa30:	0f 84 a8 02 00 00    	je     40acde <___mingw_pformat+0x71e>
  40aa36:	89 f1                	mov    %esi,%ecx
  40aa38:	c7 44 24 14 02 00 00 	movl   $0x2,0x14(%esp)
  40aa3f:	00 
  40aa40:	c7 44 24 10 04 00 00 	movl   $0x4,0x10(%esp)
  40aa47:	00 
  40aa48:	e9 50 fc ff ff       	jmp    40a69d <___mingw_pformat+0xdd>
  40aa4d:	8d 76 00             	lea    0x0(%esi),%esi
  40aa50:	8b 44 24 30          	mov    0x30(%esp),%eax
  40aa54:	a8 04                	test   $0x4,%al
  40aa56:	0f 85 eb fe ff ff    	jne    40a947 <___mingw_pformat+0x387>
  40aa5c:	dd 45 00             	fldl   0x0(%ebp)
  40aa5f:	8d 5d 08             	lea    0x8(%ebp),%ebx
  40aa62:	db 3c 24             	fstpt  (%esp)
  40aa65:	89 dd                	mov    %ebx,%ebp
  40aa67:	8d 44 24 2c          	lea    0x2c(%esp),%eax
  40aa6b:	e8 00 f4 ff ff       	call   409e70 <___pformat_gfloat>
  40aa70:	e9 db fb ff ff       	jmp    40a650 <___mingw_pformat+0x90>
  40aa75:	8b 44 24 30          	mov    0x30(%esp),%eax
  40aa79:	a8 04                	test   $0x4,%al
  40aa7b:	0f 85 f2 fe ff ff    	jne    40a973 <___mingw_pformat+0x3b3>
  40aa81:	dd 45 00             	fldl   0x0(%ebp)
  40aa84:	8d 5d 08             	lea    0x8(%ebp),%ebx
  40aa87:	db 3c 24             	fstpt  (%esp)
  40aa8a:	89 dd                	mov    %ebx,%ebp
  40aa8c:	8d 44 24 2c          	lea    0x2c(%esp),%eax
  40aa90:	e8 fb f2 ff ff       	call   409d90 <___pformat_float>
  40aa95:	e9 b6 fb ff ff       	jmp    40a650 <___mingw_pformat+0x90>
  40aa9a:	8d b6 00 00 00 00    	lea    0x0(%esi),%esi
  40aaa0:	8b 44 24 30          	mov    0x30(%esp),%eax
  40aaa4:	a8 04                	test   $0x4,%al
  40aaa6:	0f 85 f7 fe ff ff    	jne    40a9a3 <___mingw_pformat+0x3e3>
  40aaac:	dd 45 00             	fldl   0x0(%ebp)
  40aaaf:	8d 5d 08             	lea    0x8(%ebp),%ebx
  40aab2:	db 3c 24             	fstpt  (%esp)
  40aab5:	89 dd                	mov    %ebx,%ebp
  40aab7:	8d 44 24 2c          	lea    0x2c(%esp),%eax
  40aabb:	e8 20 f2 ff ff       	call   409ce0 <___pformat_efloat>
  40aac0:	e9 8b fb ff ff       	jmp    40a650 <___mingw_pformat+0x90>
  40aac5:	c7 44 24 38 ff ff ff 	movl   $0xffffffff,0x38(%esp)
  40aacc:	ff 
  40aacd:	8b 45 00             	mov    0x0(%ebp),%eax
  40aad0:	8d 5d 04             	lea    0x4(%ebp),%ebx
  40aad3:	ba 01 00 00 00       	mov    $0x1,%edx
  40aad8:	8d 4c 24 2c          	lea    0x2c(%esp),%ecx
  40aadc:	89 dd                	mov    %ebx,%ebp
  40aade:	66 89 44 24 20       	mov    %ax,0x20(%esp)
  40aae3:	8d 44 24 20          	lea    0x20(%esp),%eax
  40aae7:	e8 94 e6 ff ff       	call   409180 <___pformat_wputchars>
  40aaec:	e9 5f fb ff ff       	jmp    40a650 <___mingw_pformat+0x90>
  40aaf1:	8b 44 24 30          	mov    0x30(%esp),%eax
  40aaf5:	a8 04                	test   $0x4,%al
  40aaf7:	0f 85 b6 fd ff ff    	jne    40a8b3 <___mingw_pformat+0x2f3>
  40aafd:	dd 45 00             	fldl   0x0(%ebp)
  40ab00:	8d 5d 08             	lea    0x8(%ebp),%ebx
  40ab03:	db 3c 24             	fstpt  (%esp)
  40ab06:	89 dd                	mov    %ebx,%ebp
  40ab08:	8d 44 24 2c          	lea    0x2c(%esp),%eax
  40ab0c:	e8 df f4 ff ff       	call   409ff0 <___pformat_xldouble>
  40ab11:	e9 3a fb ff ff       	jmp    40a650 <___mingw_pformat+0x90>
  40ab16:	8b 44 24 10          	mov    0x10(%esp),%eax
  40ab1a:	85 c0                	test   %eax,%eax
  40ab1c:	0f 84 8e 01 00 00    	je     40acb0 <___mingw_pformat+0x6f0>
  40ab22:	8b 44 24 10          	mov    0x10(%esp),%eax
  40ab26:	83 f8 04             	cmp    $0x4,%eax
  40ab29:	0f 84 c7 03 00 00    	je     40aef6 <___mingw_pformat+0x936>
  40ab2f:	83 ea 30             	sub    $0x30,%edx
  40ab32:	80 fa 09             	cmp    $0x9,%dl
  40ab35:	0f 87 bb 03 00 00    	ja     40aef6 <___mingw_pformat+0x936>
  40ab3b:	85 c0                	test   %eax,%eax
  40ab3d:	0f 84 5d 01 00 00    	je     40aca0 <___mingw_pformat+0x6e0>
  40ab43:	83 f8 02             	cmp    $0x2,%eax
  40ab46:	0f 84 f0 01 00 00    	je     40ad3c <___mingw_pformat+0x77c>
  40ab4c:	8b 44 24 18          	mov    0x18(%esp),%eax
  40ab50:	85 c0                	test   %eax,%eax
  40ab52:	74 1b                	je     40ab6f <___mingw_pformat+0x5af>
  40ab54:	8b 44 24 18          	mov    0x18(%esp),%eax
  40ab58:	8b 00                	mov    (%eax),%eax
  40ab5a:	85 c0                	test   %eax,%eax
  40ab5c:	0f 88 e7 01 00 00    	js     40ad49 <___mingw_pformat+0x789>
  40ab62:	8d 04 80             	lea    (%eax,%eax,4),%eax
  40ab65:	8d 44 47 d0          	lea    -0x30(%edi,%eax,2),%eax
  40ab69:	8b 7c 24 18          	mov    0x18(%esp),%edi
  40ab6d:	89 07                	mov    %eax,(%edi)
  40ab6f:	0f b6 51 01          	movzbl 0x1(%ecx),%edx
  40ab73:	89 f1                	mov    %esi,%ecx
  40ab75:	e9 23 fb ff ff       	jmp    40a69d <___mingw_pformat+0xdd>
  40ab7a:	8d b6 00 00 00 00    	lea    0x0(%esi),%esi
  40ab80:	83 7c 24 10 01       	cmpl   $0x1,0x10(%esp)
  40ab85:	0f 86 51 02 00 00    	jbe    40addc <___mingw_pformat+0x81c>
  40ab8b:	0f b6 51 01          	movzbl 0x1(%ecx),%edx
  40ab8f:	89 f1                	mov    %esi,%ecx
  40ab91:	c7 44 24 10 04 00 00 	movl   $0x4,0x10(%esp)
  40ab98:	00 
  40ab99:	e9 ff fa ff ff       	jmp    40a69d <___mingw_pformat+0xdd>
  40ab9e:	66 90                	xchg   %ax,%ax
  40aba0:	8b 44 24 10          	mov    0x10(%esp),%eax
  40aba4:	85 c0                	test   %eax,%eax
  40aba6:	75 c7                	jne    40ab6f <___mingw_pformat+0x5af>
  40aba8:	81 4c 24 30 00 04 00 	orl    $0x400,0x30(%esp)
  40abaf:	00 
  40abb0:	0f b6 51 01          	movzbl 0x1(%ecx),%edx
  40abb4:	89 f1                	mov    %esi,%ecx
  40abb6:	e9 e2 fa ff ff       	jmp    40a69d <___mingw_pformat+0xdd>
  40abbb:	90                   	nop
  40abbc:	8d 74 26 00          	lea    0x0(%esi,%eiz,1),%esi
  40abc0:	8b 44 24 10          	mov    0x10(%esp),%eax
  40abc4:	85 c0                	test   %eax,%eax
  40abc6:	75 a7                	jne    40ab6f <___mingw_pformat+0x5af>
  40abc8:	81 4c 24 30 00 01 00 	orl    $0x100,0x30(%esp)
  40abcf:	00 
  40abd0:	0f b6 51 01          	movzbl 0x1(%ecx),%edx
  40abd4:	89 f1                	mov    %esi,%ecx
  40abd6:	e9 c2 fa ff ff       	jmp    40a69d <___mingw_pformat+0xdd>
  40abdb:	90                   	nop
  40abdc:	8d 74 26 00          	lea    0x0(%esi,%eiz,1),%esi
  40abe0:	8b 7c 24 18          	mov    0x18(%esp),%edi
  40abe4:	85 ff                	test   %edi,%edi
  40abe6:	74 a3                	je     40ab8b <___mingw_pformat+0x5cb>
  40abe8:	f6 44 24 10 05       	testb  $0x5,0x10(%esp)
  40abed:	0f 85 d0 00 00 00    	jne    40acc3 <___mingw_pformat+0x703>
  40abf3:	8b 45 00             	mov    0x0(%ebp),%eax
  40abf6:	8d 7d 04             	lea    0x4(%ebp),%edi
  40abf9:	8b 54 24 18          	mov    0x18(%esp),%edx
  40abfd:	85 c0                	test   %eax,%eax
  40abff:	89 02                	mov    %eax,(%edx)
  40ac01:	0f 88 5f 02 00 00    	js     40ae66 <___mingw_pformat+0x8a6>
  40ac07:	0f b6 51 01          	movzbl 0x1(%ecx),%edx
  40ac0b:	89 fd                	mov    %edi,%ebp
  40ac0d:	89 f1                	mov    %esi,%ecx
  40ac0f:	c7 44 24 18 00 00 00 	movl   $0x0,0x18(%esp)
  40ac16:	00 
  40ac17:	e9 81 fa ff ff       	jmp    40a69d <___mingw_pformat+0xdd>
  40ac1c:	8d 74 26 00          	lea    0x0(%esi,%eiz,1),%esi
  40ac20:	89 f8                	mov    %edi,%eax
  40ac22:	8d 54 24 2c          	lea    0x2c(%esp),%edx
  40ac26:	e8 f5 e4 ff ff       	call   409120 <___pformat_putc>
  40ac2b:	e9 20 fa ff ff       	jmp    40a650 <___mingw_pformat+0x90>
  40ac30:	8b 44 24 10          	mov    0x10(%esp),%eax
  40ac34:	85 c0                	test   %eax,%eax
  40ac36:	0f 85 33 ff ff ff    	jne    40ab6f <___mingw_pformat+0x5af>
  40ac3c:	81 4c 24 30 00 08 00 	orl    $0x800,0x30(%esp)
  40ac43:	00 
  40ac44:	0f b6 51 01          	movzbl 0x1(%ecx),%edx
  40ac48:	89 f1                	mov    %esi,%ecx
  40ac4a:	e9 4e fa ff ff       	jmp    40a69d <___mingw_pformat+0xdd>
  40ac4f:	90                   	nop
  40ac50:	8b 44 24 10          	mov    0x10(%esp),%eax
  40ac54:	85 c0                	test   %eax,%eax
  40ac56:	0f 85 13 ff ff ff    	jne    40ab6f <___mingw_pformat+0x5af>
  40ac5c:	83 4c 24 30 40       	orl    $0x40,0x30(%esp)
  40ac61:	0f b6 51 01          	movzbl 0x1(%ecx),%edx
  40ac65:	89 f1                	mov    %esi,%ecx
  40ac67:	e9 31 fa ff ff       	jmp    40a69d <___mingw_pformat+0xdd>
  40ac6c:	8d 74 26 00          	lea    0x0(%esi,%eiz,1),%esi
  40ac70:	8b 5d 00             	mov    0x0(%ebp),%ebx
  40ac73:	8d 7d 04             	lea    0x4(%ebp),%edi
  40ac76:	85 db                	test   %ebx,%ebx
  40ac78:	0f 84 de 01 00 00    	je     40ae5c <___mingw_pformat+0x89c>
  40ac7e:	89 1c 24             	mov    %ebx,(%esp)
  40ac81:	89 fd                	mov    %edi,%ebp
  40ac83:	e8 18 2e 00 00       	call   40daa0 <_wcslen>
  40ac88:	8d 4c 24 2c          	lea    0x2c(%esp),%ecx
  40ac8c:	89 c2                	mov    %eax,%edx
  40ac8e:	89 d8                	mov    %ebx,%eax
  40ac90:	e8 eb e4 ff ff       	call   409180 <___pformat_wputchars>
  40ac95:	e9 b6 f9 ff ff       	jmp    40a650 <___mingw_pformat+0x90>
  40ac9a:	8d b6 00 00 00 00    	lea    0x0(%esi),%esi
  40aca0:	c7 44 24 10 01 00 00 	movl   $0x1,0x10(%esp)
  40aca7:	00 
  40aca8:	e9 9f fe ff ff       	jmp    40ab4c <___mingw_pformat+0x58c>
  40acad:	8d 76 00             	lea    0x0(%esi),%esi
  40acb0:	81 4c 24 30 00 02 00 	orl    $0x200,0x30(%esp)
  40acb7:	00 
  40acb8:	0f b6 51 01          	movzbl 0x1(%ecx),%edx
  40acbc:	89 f1                	mov    %esi,%ecx
  40acbe:	e9 da f9 ff ff       	jmp    40a69d <___mingw_pformat+0xdd>
  40acc3:	0f b6 51 01          	movzbl 0x1(%ecx),%edx
  40acc7:	89 f1                	mov    %esi,%ecx
  40acc9:	c7 44 24 18 00 00 00 	movl   $0x0,0x18(%esp)
  40acd0:	00 
  40acd1:	c7 44 24 10 04 00 00 	movl   $0x4,0x10(%esp)
  40acd8:	00 
  40acd9:	e9 bf f9 ff ff       	jmp    40a69d <___mingw_pformat+0xdd>
  40acde:	80 79 02 32          	cmpb   $0x32,0x2(%ecx)
  40ace2:	0f 84 f2 01 00 00    	je     40aeda <___mingw_pformat+0x91a>
  40ace8:	89 f1                	mov    %esi,%ecx
  40acea:	ba 33 00 00 00       	mov    $0x33,%edx
  40acef:	c7 44 24 14 02 00 00 	movl   $0x2,0x14(%esp)
  40acf6:	00 
  40acf7:	c7 44 24 10 04 00 00 	movl   $0x4,0x10(%esp)
  40acfe:	00 
  40acff:	e9 9d f9 ff ff       	jmp    40a6a1 <___mingw_pformat+0xe1>
  40ad04:	66 89 10             	mov    %dx,(%eax)
  40ad07:	83 c5 04             	add    $0x4,%ebp
  40ad0a:	e9 41 f9 ff ff       	jmp    40a650 <___mingw_pformat+0x90>
  40ad0f:	8b 7d 00             	mov    0x0(%ebp),%edi
  40ad12:	83 c5 04             	add    $0x4,%ebp
  40ad15:	c7 44 24 24 00 00 00 	movl   $0x0,0x24(%esp)
  40ad1c:	00 
  40ad1d:	89 7c 24 20          	mov    %edi,0x20(%esp)
  40ad21:	e9 ec fb ff ff       	jmp    40a912 <___mingw_pformat+0x352>
  40ad26:	8b 45 00             	mov    0x0(%ebp),%eax
  40ad29:	83 c5 04             	add    $0x4,%ebp
  40ad2c:	89 44 24 20          	mov    %eax,0x20(%esp)
  40ad30:	c1 f8 1f             	sar    $0x1f,%eax
  40ad33:	89 44 24 24          	mov    %eax,0x24(%esp)
  40ad37:	e9 cb fc ff ff       	jmp    40aa07 <___mingw_pformat+0x447>
  40ad3c:	c7 44 24 10 03 00 00 	movl   $0x3,0x10(%esp)
  40ad43:	00 
  40ad44:	e9 03 fe ff ff       	jmp    40ab4c <___mingw_pformat+0x58c>
  40ad49:	8b 44 24 18          	mov    0x18(%esp),%eax
  40ad4d:	83 ef 30             	sub    $0x30,%edi
  40ad50:	89 38                	mov    %edi,(%eax)
  40ad52:	0f b6 51 01          	movzbl 0x1(%ecx),%edx
  40ad56:	89 f1                	mov    %esi,%ecx
  40ad58:	e9 40 f9 ff ff       	jmp    40a69d <___mingw_pformat+0xdd>
  40ad5d:	8b 4d 00             	mov    0x0(%ebp),%ecx
  40ad60:	83 c5 08             	add    $0x8,%ebp
  40ad63:	8b 5d fc             	mov    -0x4(%ebp),%ebx
  40ad66:	89 4c 24 20          	mov    %ecx,0x20(%esp)
  40ad6a:	89 5c 24 24          	mov    %ebx,0x24(%esp)
  40ad6e:	e9 9f fb ff ff       	jmp    40a912 <___mingw_pformat+0x352>
  40ad73:	8b 45 00             	mov    0x0(%ebp),%eax
  40ad76:	83 c5 08             	add    $0x8,%ebp
  40ad79:	8b 55 fc             	mov    -0x4(%ebp),%edx
  40ad7c:	89 44 24 20          	mov    %eax,0x20(%esp)
  40ad80:	89 54 24 24          	mov    %edx,0x24(%esp)
  40ad84:	e9 7e fc ff ff       	jmp    40aa07 <___mingw_pformat+0x447>
  40ad89:	0f b6 51 02          	movzbl 0x2(%ecx),%edx
  40ad8d:	83 c1 02             	add    $0x2,%ecx
  40ad90:	c7 44 24 14 04 00 00 	movl   $0x4,0x14(%esp)
  40ad97:	00 
  40ad98:	c7 44 24 10 04 00 00 	movl   $0x4,0x10(%esp)
  40ad9f:	00 
  40ada0:	e9 f8 f8 ff ff       	jmp    40a69d <___mingw_pformat+0xdd>
  40ada5:	80 79 02 34          	cmpb   $0x34,0x2(%ecx)
  40ada9:	0f 84 0f 01 00 00    	je     40aebe <___mingw_pformat+0x8fe>
  40adaf:	89 f1                	mov    %esi,%ecx
  40adb1:	ba 36 00 00 00       	mov    $0x36,%edx
  40adb6:	c7 44 24 14 02 00 00 	movl   $0x2,0x14(%esp)
  40adbd:	00 
  40adbe:	c7 44 24 10 04 00 00 	movl   $0x4,0x10(%esp)
  40adc5:	00 
  40adc6:	e9 d6 f8 ff ff       	jmp    40a6a1 <___mingw_pformat+0xe1>
  40adcb:	8b 55 00             	mov    0x0(%ebp),%edx
  40adce:	83 c5 04             	add    $0x4,%ebp
  40add1:	8b 44 24 44          	mov    0x44(%esp),%eax
  40add5:	88 02                	mov    %al,(%edx)
  40add7:	e9 74 f8 ff ff       	jmp    40a650 <___mingw_pformat+0x90>
  40addc:	8d 44 24 38          	lea    0x38(%esp),%eax
  40ade0:	c7 44 24 38 00 00 00 	movl   $0x0,0x38(%esp)
  40ade7:	00 
  40ade8:	0f b6 51 01          	movzbl 0x1(%ecx),%edx
  40adec:	89 f1                	mov    %esi,%ecx
  40adee:	89 44 24 18          	mov    %eax,0x18(%esp)
  40adf2:	c7 44 24 10 02 00 00 	movl   $0x2,0x10(%esp)
  40adf9:	00 
  40adfa:	e9 9e f8 ff ff       	jmp    40a69d <___mingw_pformat+0xdd>
  40adff:	ba 06 00 00 00       	mov    $0x6,%edx
  40ae04:	bb 96 01 41 00       	mov    $0x410196,%ebx
  40ae09:	e9 72 f9 ff ff       	jmp    40a780 <___mingw_pformat+0x1c0>
  40ae0e:	8b 44 24 1c          	mov    0x1c(%esp),%eax
  40ae12:	c7 44 24 38 08 00 00 	movl   $0x8,0x38(%esp)
  40ae19:	00 
  40ae1a:	89 44 24 30          	mov    %eax,0x30(%esp)
  40ae1e:	e9 47 fa ff ff       	jmp    40a86a <___mingw_pformat+0x2aa>
  40ae23:	0f b7 4c 24 20       	movzwl 0x20(%esp),%ecx
  40ae28:	89 d5                	mov    %edx,%ebp
  40ae2a:	c7 44 24 24 00 00 00 	movl   $0x0,0x24(%esp)
  40ae31:	00 
  40ae32:	89 4c 24 20          	mov    %ecx,0x20(%esp)
  40ae36:	e9 d7 fa ff ff       	jmp    40a912 <___mingw_pformat+0x352>
  40ae3b:	89 10                	mov    %edx,(%eax)
  40ae3d:	83 c5 04             	add    $0x4,%ebp
  40ae40:	e9 0b f8 ff ff       	jmp    40a650 <___mingw_pformat+0x90>
  40ae45:	0f bf 44 24 20       	movswl 0x20(%esp),%eax
  40ae4a:	89 d5                	mov    %edx,%ebp
  40ae4c:	89 44 24 20          	mov    %eax,0x20(%esp)
  40ae50:	c1 f8 1f             	sar    $0x1f,%eax
  40ae53:	89 44 24 24          	mov    %eax,0x24(%esp)
  40ae57:	e9 ab fb ff ff       	jmp    40aa07 <___mingw_pformat+0x447>
  40ae5c:	bb 88 01 41 00       	mov    $0x410188,%ebx
  40ae61:	e9 18 fe ff ff       	jmp    40ac7e <___mingw_pformat+0x6be>
  40ae66:	8b 54 24 10          	mov    0x10(%esp),%edx
  40ae6a:	85 d2                	test   %edx,%edx
  40ae6c:	0f 85 99 00 00 00    	jne    40af0b <___mingw_pformat+0x94b>
  40ae72:	81 4c 24 30 00 04 00 	orl    $0x400,0x30(%esp)
  40ae79:	00 
  40ae7a:	f7 5c 24 34          	negl   0x34(%esp)
  40ae7e:	e9 84 fd ff ff       	jmp    40ac07 <___mingw_pformat+0x647>
  40ae83:	0f be 44 24 20       	movsbl 0x20(%esp),%eax
  40ae88:	89 44 24 20          	mov    %eax,0x20(%esp)
  40ae8c:	c1 f8 1f             	sar    $0x1f,%eax
  40ae8f:	89 44 24 24          	mov    %eax,0x24(%esp)
  40ae93:	e9 6f fb ff ff       	jmp    40aa07 <___mingw_pformat+0x447>
  40ae98:	0f b6 54 24 20       	movzbl 0x20(%esp),%edx
  40ae9d:	c7 44 24 24 00 00 00 	movl   $0x0,0x24(%esp)
  40aea4:	00 
  40aea5:	89 54 24 20          	mov    %edx,0x20(%esp)
  40aea9:	e9 64 fa ff ff       	jmp    40a912 <___mingw_pformat+0x352>
  40aeae:	89 d7                	mov    %edx,%edi
  40aeb0:	83 c5 04             	add    $0x4,%ebp
  40aeb3:	c1 ff 1f             	sar    $0x1f,%edi
  40aeb6:	89 78 04             	mov    %edi,0x4(%eax)
  40aeb9:	e9 92 f7 ff ff       	jmp    40a650 <___mingw_pformat+0x90>
  40aebe:	0f b6 51 03          	movzbl 0x3(%ecx),%edx
  40aec2:	83 c1 03             	add    $0x3,%ecx
  40aec5:	c7 44 24 14 03 00 00 	movl   $0x3,0x14(%esp)
  40aecc:	00 
  40aecd:	c7 44 24 10 04 00 00 	movl   $0x4,0x10(%esp)
  40aed4:	00 
  40aed5:	e9 c3 f7 ff ff       	jmp    40a69d <___mingw_pformat+0xdd>
  40aeda:	0f b6 51 03          	movzbl 0x3(%ecx),%edx
  40aede:	83 c1 03             	add    $0x3,%ecx
  40aee1:	c7 44 24 14 02 00 00 	movl   $0x2,0x14(%esp)
  40aee8:	00 
  40aee9:	c7 44 24 10 04 00 00 	movl   $0x4,0x10(%esp)
  40aef0:	00 
  40aef1:	e9 a7 f7 ff ff       	jmp    40a69d <___mingw_pformat+0xdd>
  40aef6:	8d 54 24 2c          	lea    0x2c(%esp),%edx
  40aefa:	b8 25 00 00 00       	mov    $0x25,%eax
  40aeff:	89 de                	mov    %ebx,%esi
  40af01:	e8 1a e2 ff ff       	call   409120 <___pformat_putc>
  40af06:	e9 45 f7 ff ff       	jmp    40a650 <___mingw_pformat+0x90>
  40af0b:	c7 44 24 38 ff ff ff 	movl   $0xffffffff,0x38(%esp)
  40af12:	ff 
  40af13:	89 fd                	mov    %edi,%ebp
  40af15:	0f b6 51 01          	movzbl 0x1(%ecx),%edx
  40af19:	c7 44 24 18 00 00 00 	movl   $0x0,0x18(%esp)
  40af20:	00 
  40af21:	89 f1                	mov    %esi,%ecx
  40af23:	e9 75 f7 ff ff       	jmp    40a69d <___mingw_pformat+0xdd>
  40af28:	90                   	nop
  40af29:	90                   	nop
  40af2a:	90                   	nop
  40af2b:	90                   	nop
  40af2c:	90                   	nop
  40af2d:	90                   	nop
  40af2e:	90                   	nop
  40af2f:	90                   	nop

0040af30 <___gdtoa>:
  40af30:	55                   	push   %ebp
  40af31:	57                   	push   %edi
  40af32:	56                   	push   %esi
  40af33:	53                   	push   %ebx
  40af34:	83 ec 6c             	sub    $0x6c,%esp
  40af37:	8b 84 24 8c 00 00 00 	mov    0x8c(%esp),%eax
  40af3e:	8b 9c 24 8c 00 00 00 	mov    0x8c(%esp),%ebx
  40af45:	8b 30                	mov    (%eax),%esi
  40af47:	89 f0                	mov    %esi,%eax
  40af49:	83 e0 cf             	and    $0xffffffcf,%eax
  40af4c:	89 03                	mov    %eax,(%ebx)
  40af4e:	89 f0                	mov    %esi,%eax
  40af50:	83 e0 07             	and    $0x7,%eax
  40af53:	83 f8 04             	cmp    $0x4,%eax
  40af56:	0f 87 5f 14 00 00    	ja     40c3bb <___gdtoa+0x148b>
  40af5c:	ff 24 85 30 03 41 00 	jmp    *0x410330(,%eax,4)
  40af63:	8b 84 24 80 00 00 00 	mov    0x80(%esp),%eax
  40af6a:	31 d2                	xor    %edx,%edx
  40af6c:	8b 38                	mov    (%eax),%edi
  40af6e:	83 ff 20             	cmp    $0x20,%edi
  40af71:	7e 0e                	jle    40af81 <___gdtoa+0x51>
  40af73:	b8 20 00 00 00       	mov    $0x20,%eax
  40af78:	01 c0                	add    %eax,%eax
  40af7a:	83 c2 01             	add    $0x1,%edx
  40af7d:	39 c7                	cmp    %eax,%edi
  40af7f:	7f f7                	jg     40af78 <___gdtoa+0x48>
  40af81:	89 14 24             	mov    %edx,(%esp)
  40af84:	e8 97 1e 00 00       	call   40ce20 <___Balloc_D2A>
  40af89:	8b 8c 24 88 00 00 00 	mov    0x88(%esp),%ecx
  40af90:	89 c3                	mov    %eax,%ebx
  40af92:	8d 47 ff             	lea    -0x1(%edi),%eax
  40af95:	c1 f8 05             	sar    $0x5,%eax
  40af98:	8d 2c 81             	lea    (%ecx,%eax,4),%ebp
  40af9b:	8b 84 24 88 00 00 00 	mov    0x88(%esp),%eax
  40afa2:	8d 4b 14             	lea    0x14(%ebx),%ecx
  40afa5:	89 ca                	mov    %ecx,%edx
  40afa7:	89 4c 24 0c          	mov    %ecx,0xc(%esp)
  40afab:	90                   	nop
  40afac:	8d 74 26 00          	lea    0x0(%esi,%eiz,1),%esi
  40afb0:	8b 08                	mov    (%eax),%ecx
  40afb2:	83 c0 04             	add    $0x4,%eax
  40afb5:	83 c2 04             	add    $0x4,%edx
  40afb8:	39 c5                	cmp    %eax,%ebp
  40afba:	89 4a fc             	mov    %ecx,-0x4(%edx)
  40afbd:	73 f1                	jae    40afb0 <___gdtoa+0x80>
  40afbf:	8b 4c 24 0c          	mov    0xc(%esp),%ecx
  40afc3:	29 ca                	sub    %ecx,%edx
  40afc5:	c1 fa 02             	sar    $0x2,%edx
  40afc8:	eb 10                	jmp    40afda <___gdtoa+0xaa>
  40afca:	8d b6 00 00 00 00    	lea    0x0(%esi),%esi
  40afd0:	85 c0                	test   %eax,%eax
  40afd2:	0f 84 6e 04 00 00    	je     40b446 <___gdtoa+0x516>
  40afd8:	89 c2                	mov    %eax,%edx
  40afda:	8d 42 ff             	lea    -0x1(%edx),%eax
  40afdd:	8b 2c 81             	mov    (%ecx,%eax,4),%ebp
  40afe0:	85 ed                	test   %ebp,%ebp
  40afe2:	74 ec                	je     40afd0 <___gdtoa+0xa0>
  40afe4:	0f bd 44 93 10       	bsr    0x10(%ebx,%edx,4),%eax
  40afe9:	89 53 10             	mov    %edx,0x10(%ebx)
  40afec:	c1 e2 05             	shl    $0x5,%edx
  40afef:	89 d5                	mov    %edx,%ebp
  40aff1:	83 f0 1f             	xor    $0x1f,%eax
  40aff4:	29 c5                	sub    %eax,%ebp
  40aff6:	89 1c 24             	mov    %ebx,(%esp)
  40aff9:	e8 72 29 00 00       	call   40d970 <___trailz_D2A>
  40affe:	8b 8c 24 84 00 00 00 	mov    0x84(%esp),%ecx
  40b005:	89 4c 24 20          	mov    %ecx,0x20(%esp)
  40b009:	85 c0                	test   %eax,%eax
  40b00b:	89 44 24 5c          	mov    %eax,0x5c(%esp)
  40b00f:	0f 85 3f 04 00 00    	jne    40b454 <___gdtoa+0x524>
  40b015:	8b 4b 10             	mov    0x10(%ebx),%ecx
  40b018:	85 c9                	test   %ecx,%ecx
  40b01a:	0f 85 a8 00 00 00    	jne    40b0c8 <___gdtoa+0x198>
  40b020:	89 1c 24             	mov    %ebx,(%esp)
  40b023:	e8 c8 1e 00 00       	call   40cef0 <___Bfree_D2A>
  40b028:	8b 84 24 98 00 00 00 	mov    0x98(%esp),%eax
  40b02f:	c7 00 01 00 00 00    	movl   $0x1,(%eax)
  40b035:	8b 84 24 9c 00 00 00 	mov    0x9c(%esp),%eax
  40b03c:	c7 44 24 08 01 00 00 	movl   $0x1,0x8(%esp)
  40b043:	00 
  40b044:	c7 04 24 2d 03 41 00 	movl   $0x41032d,(%esp)
  40b04b:	89 44 24 04          	mov    %eax,0x4(%esp)
  40b04f:	e8 3c 1a 00 00       	call   40ca90 <___nrv_alloc_D2A>
  40b054:	83 c4 6c             	add    $0x6c,%esp
  40b057:	5b                   	pop    %ebx
  40b058:	5e                   	pop    %esi
  40b059:	5f                   	pop    %edi
  40b05a:	5d                   	pop    %ebp
  40b05b:	c3                   	ret    
  40b05c:	8d 74 26 00          	lea    0x0(%esi,%eiz,1),%esi
  40b060:	8b 84 24 98 00 00 00 	mov    0x98(%esp),%eax
  40b067:	c7 00 00 80 ff ff    	movl   $0xffff8000,(%eax)
  40b06d:	8b 84 24 9c 00 00 00 	mov    0x9c(%esp),%eax
  40b074:	c7 44 24 08 03 00 00 	movl   $0x3,0x8(%esp)
  40b07b:	00 
  40b07c:	c7 04 24 29 03 41 00 	movl   $0x410329,(%esp)
  40b083:	89 44 24 04          	mov    %eax,0x4(%esp)
  40b087:	e8 04 1a 00 00       	call   40ca90 <___nrv_alloc_D2A>
  40b08c:	83 c4 6c             	add    $0x6c,%esp
  40b08f:	5b                   	pop    %ebx
  40b090:	5e                   	pop    %esi
  40b091:	5f                   	pop    %edi
  40b092:	5d                   	pop    %ebp
  40b093:	c3                   	ret    
  40b094:	8b 84 24 98 00 00 00 	mov    0x98(%esp),%eax
  40b09b:	c7 00 00 80 ff ff    	movl   $0xffff8000,(%eax)
  40b0a1:	8b 84 24 9c 00 00 00 	mov    0x9c(%esp),%eax
  40b0a8:	c7 44 24 08 08 00 00 	movl   $0x8,0x8(%esp)
  40b0af:	00 
  40b0b0:	c7 04 24 20 03 41 00 	movl   $0x410320,(%esp)
  40b0b7:	89 44 24 04          	mov    %eax,0x4(%esp)
  40b0bb:	e8 d0 19 00 00       	call   40ca90 <___nrv_alloc_D2A>
  40b0c0:	83 c4 6c             	add    $0x6c,%esp
  40b0c3:	5b                   	pop    %ebx
  40b0c4:	5e                   	pop    %esi
  40b0c5:	5f                   	pop    %edi
  40b0c6:	5d                   	pop    %ebp
  40b0c7:	c3                   	ret    
  40b0c8:	8d 44 24 5c          	lea    0x5c(%esp),%eax
  40b0cc:	89 44 24 04          	mov    %eax,0x4(%esp)
  40b0d0:	89 1c 24             	mov    %ebx,(%esp)
  40b0d3:	e8 68 25 00 00       	call   40d640 <___b2d_D2A>
  40b0d8:	8b 44 24 20          	mov    0x20(%esp),%eax
  40b0dc:	8d 54 28 ff          	lea    -0x1(%eax,%ebp,1),%edx
  40b0e0:	89 54 24 48          	mov    %edx,0x48(%esp)
  40b0e4:	89 d0                	mov    %edx,%eax
  40b0e6:	dd 5c 24 10          	fstpl  0x10(%esp)
  40b0ea:	8b 4c 24 14          	mov    0x14(%esp),%ecx
  40b0ee:	c1 f8 1f             	sar    $0x1f,%eax
  40b0f1:	89 44 24 0c          	mov    %eax,0xc(%esp)
  40b0f5:	31 d0                	xor    %edx,%eax
  40b0f7:	2b 44 24 0c          	sub    0xc(%esp),%eax
  40b0fb:	81 e1 ff ff 0f 00    	and    $0xfffff,%ecx
  40b101:	81 c9 00 00 f0 3f    	or     $0x3ff00000,%ecx
  40b107:	89 4c 24 14          	mov    %ecx,0x14(%esp)
  40b10b:	2d 35 04 00 00       	sub    $0x435,%eax
  40b110:	dd 44 24 10          	fldl   0x10(%esp)
  40b114:	85 c0                	test   %eax,%eax
  40b116:	d8 25 44 03 41 00    	fsubs  0x410344
  40b11c:	dc 0d 48 03 41 00    	fmull  0x410348
  40b122:	dc 05 50 03 41 00    	faddl  0x410350
  40b128:	db 44 24 48          	fildl  0x48(%esp)
  40b12c:	dc 0d 58 03 41 00    	fmull  0x410358
  40b132:	de c1                	faddp  %st,%st(1)
  40b134:	7e 10                	jle    40b146 <___gdtoa+0x216>
  40b136:	89 44 24 48          	mov    %eax,0x48(%esp)
  40b13a:	db 44 24 48          	fildl  0x48(%esp)
  40b13e:	dc 0d 60 03 41 00    	fmull  0x410360
  40b144:	de c1                	faddp  %st,%st(1)
  40b146:	d9 7c 24 4e          	fnstcw 0x4e(%esp)
  40b14a:	0f b7 44 24 4e       	movzwl 0x4e(%esp),%eax
  40b14f:	b4 0c                	mov    $0xc,%ah
  40b151:	66 89 44 24 4c       	mov    %ax,0x4c(%esp)
  40b156:	d9 6c 24 4c          	fldcw  0x4c(%esp)
  40b15a:	db 54 24 0c          	fistl  0xc(%esp)
  40b15e:	d9 6c 24 4e          	fldcw  0x4e(%esp)
  40b162:	d9 ee                	fldz   
  40b164:	dd e9                	fucomp %st(1)
  40b166:	df e0                	fnstsw %ax
  40b168:	9e                   	sahf   
  40b169:	0f 87 76 07 00 00    	ja     40b8e5 <___gdtoa+0x9b5>
  40b16f:	dd d8                	fstp   %st(0)
  40b171:	89 d0                	mov    %edx,%eax
  40b173:	c1 e0 14             	shl    $0x14,%eax
  40b176:	01 c8                	add    %ecx,%eax
  40b178:	83 7c 24 0c 16       	cmpl   $0x16,0xc(%esp)
  40b17d:	89 44 24 14          	mov    %eax,0x14(%esp)
  40b181:	c7 44 24 34 01 00 00 	movl   $0x1,0x34(%esp)
  40b188:	00 
  40b189:	77 29                	ja     40b1b4 <___gdtoa+0x284>
  40b18b:	8b 44 24 0c          	mov    0xc(%esp),%eax
  40b18f:	dd 04 c5 c0 03 41 00 	fldl   0x4103c0(,%eax,8)
  40b196:	dd 44 24 10          	fldl   0x10(%esp)
  40b19a:	d9 c9                	fxch   %st(1)
  40b19c:	da e9                	fucompp 
  40b19e:	df e0                	fnstsw %ax
  40b1a0:	9e                   	sahf   
  40b1a1:	0f 86 6d 06 00 00    	jbe    40b814 <___gdtoa+0x8e4>
  40b1a7:	83 6c 24 0c 01       	subl   $0x1,0xc(%esp)
  40b1ac:	c7 44 24 34 00 00 00 	movl   $0x0,0x34(%esp)
  40b1b3:	00 
  40b1b4:	89 e8                	mov    %ebp,%eax
  40b1b6:	29 d0                	sub    %edx,%eax
  40b1b8:	83 e8 01             	sub    $0x1,%eax
  40b1bb:	c7 44 24 28 00 00 00 	movl   $0x0,0x28(%esp)
  40b1c2:	00 
  40b1c3:	89 44 24 1c          	mov    %eax,0x1c(%esp)
  40b1c7:	0f 88 05 07 00 00    	js     40b8d2 <___gdtoa+0x9a2>
  40b1cd:	8b 44 24 0c          	mov    0xc(%esp),%eax
  40b1d1:	85 c0                	test   %eax,%eax
  40b1d3:	0f 88 de 06 00 00    	js     40b8b7 <___gdtoa+0x987>
  40b1d9:	01 44 24 1c          	add    %eax,0x1c(%esp)
  40b1dd:	89 44 24 3c          	mov    %eax,0x3c(%esp)
  40b1e1:	c7 44 24 30 00 00 00 	movl   $0x0,0x30(%esp)
  40b1e8:	00 
  40b1e9:	83 bc 24 90 00 00 00 	cmpl   $0x9,0x90(%esp)
  40b1f0:	09 
  40b1f1:	0f 87 81 02 00 00    	ja     40b478 <___gdtoa+0x548>
  40b1f7:	83 bc 24 90 00 00 00 	cmpl   $0x5,0x90(%esp)
  40b1fe:	05 
  40b1ff:	0f 8e c0 11 00 00    	jle    40c3c5 <___gdtoa+0x1495>
  40b205:	83 ac 24 90 00 00 00 	subl   $0x4,0x90(%esp)
  40b20c:	04 
  40b20d:	31 c0                	xor    %eax,%eax
  40b20f:	83 bc 24 90 00 00 00 	cmpl   $0x3,0x90(%esp)
  40b216:	03 
  40b217:	0f 84 11 06 00 00    	je     40b82e <___gdtoa+0x8fe>
  40b21d:	0f 8e 18 06 00 00    	jle    40b83b <___gdtoa+0x90b>
  40b223:	83 bc 24 90 00 00 00 	cmpl   $0x4,0x90(%esp)
  40b22a:	04 
  40b22b:	c7 44 24 40 01 00 00 	movl   $0x1,0x40(%esp)
  40b232:	00 
  40b233:	0f 84 18 06 00 00    	je     40b851 <___gdtoa+0x921>
  40b239:	83 bc 24 90 00 00 00 	cmpl   $0x5,0x90(%esp)
  40b240:	05 
  40b241:	0f 85 3c 02 00 00    	jne    40b483 <___gdtoa+0x553>
  40b247:	8b 4c 24 0c          	mov    0xc(%esp),%ecx
  40b24b:	03 8c 24 94 00 00 00 	add    0x94(%esp),%ecx
  40b252:	89 4c 24 44          	mov    %ecx,0x44(%esp)
  40b256:	83 c1 01             	add    $0x1,%ecx
  40b259:	85 c9                	test   %ecx,%ecx
  40b25b:	89 4c 24 18          	mov    %ecx,0x18(%esp)
  40b25f:	0f 8e e3 0a 00 00    	jle    40bd48 <___gdtoa+0xe18>
  40b265:	83 f9 0e             	cmp    $0xe,%ecx
  40b268:	0f 96 c2             	setbe  %dl
  40b26b:	21 c2                	and    %eax,%edx
  40b26d:	89 c8                	mov    %ecx,%eax
  40b26f:	89 4c 24 5c          	mov    %ecx,0x5c(%esp)
  40b273:	89 04 24             	mov    %eax,(%esp)
  40b276:	89 54 24 38          	mov    %edx,0x38(%esp)
  40b27a:	e8 d1 17 00 00       	call   40ca50 <___rv_alloc_D2A>
  40b27f:	8b 54 24 38          	mov    0x38(%esp),%edx
  40b283:	89 44 24 24          	mov    %eax,0x24(%esp)
  40b287:	8b 84 24 80 00 00 00 	mov    0x80(%esp),%eax
  40b28e:	8b 40 0c             	mov    0xc(%eax),%eax
  40b291:	83 e8 01             	sub    $0x1,%eax
  40b294:	89 44 24 2c          	mov    %eax,0x2c(%esp)
  40b298:	74 0f                	je     40b2a9 <___gdtoa+0x379>
  40b29a:	0f 88 81 05 00 00    	js     40b821 <___gdtoa+0x8f1>
  40b2a0:	83 e6 08             	and    $0x8,%esi
  40b2a3:	0f 85 59 05 00 00    	jne    40b802 <___gdtoa+0x8d2>
  40b2a9:	84 d2                	test   %dl,%dl
  40b2ab:	90                   	nop
  40b2ac:	8d 74 26 00          	lea    0x0(%esi,%eiz,1),%esi
  40b2b0:	0f 84 70 02 00 00    	je     40b526 <___gdtoa+0x5f6>
  40b2b6:	8b 44 24 2c          	mov    0x2c(%esp),%eax
  40b2ba:	0b 44 24 0c          	or     0xc(%esp),%eax
  40b2be:	0f 85 62 02 00 00    	jne    40b526 <___gdtoa+0x5f6>
  40b2c4:	8b 44 24 34          	mov    0x34(%esp),%eax
  40b2c8:	c7 44 24 5c 00 00 00 	movl   $0x0,0x5c(%esp)
  40b2cf:	00 
  40b2d0:	dd 44 24 10          	fldl   0x10(%esp)
  40b2d4:	85 c0                	test   %eax,%eax
  40b2d6:	74 0d                	je     40b2e5 <___gdtoa+0x3b5>
  40b2d8:	d9 e8                	fld1   
  40b2da:	dd e9                	fucomp %st(1)
  40b2dc:	df e0                	fnstsw %ax
  40b2de:	9e                   	sahf   
  40b2df:	0f 87 e7 0d 00 00    	ja     40c0cc <___gdtoa+0x119c>
  40b2e5:	d9 c0                	fld    %st(0)
  40b2e7:	8b 74 24 18          	mov    0x18(%esp),%esi
  40b2eb:	d8 c1                	fadd   %st(1),%st
  40b2ed:	d8 05 7c 03 41 00    	fadds  0x41037c
  40b2f3:	dd 5c 24 10          	fstpl  0x10(%esp)
  40b2f7:	81 6c 24 14 00 00 40 	subl   $0x3400000,0x14(%esp)
  40b2fe:	03 
  40b2ff:	85 f6                	test   %esi,%esi
  40b301:	0f 84 e1 01 00 00    	je     40b4e8 <___gdtoa+0x5b8>
  40b307:	8b 54 24 18          	mov    0x18(%esp),%edx
  40b30b:	d9 c0                	fld    %st(0)
  40b30d:	c7 44 24 38 00 00 00 	movl   $0x0,0x38(%esp)
  40b314:	00 
  40b315:	8b 4c 24 40          	mov    0x40(%esp),%ecx
  40b319:	85 c9                	test   %ecx,%ecx
  40b31b:	0f 84 58 0a 00 00    	je     40bd79 <___gdtoa+0xe49>
  40b321:	d9 05 84 03 41 00    	flds   0x410384
  40b327:	dc 34 d5 b8 03 41 00 	fdivl  0x4103b8(,%edx,8)
  40b32e:	d9 7c 24 4e          	fnstcw 0x4e(%esp)
  40b332:	c7 44 24 5c 00 00 00 	movl   $0x0,0x5c(%esp)
  40b339:	00 
  40b33a:	0f b7 44 24 4e       	movzwl 0x4e(%esp),%eax
  40b33f:	b4 0c                	mov    $0xc,%ah
  40b341:	66 89 44 24 4c       	mov    %ax,0x4c(%esp)
  40b346:	8b 44 24 24          	mov    0x24(%esp),%eax
  40b34a:	8d 70 01             	lea    0x1(%eax),%esi
  40b34d:	dc 64 24 10          	fsubl  0x10(%esp)
  40b351:	d9 c9                	fxch   %st(1)
  40b353:	d9 6c 24 4c          	fldcw  0x4c(%esp)
  40b357:	db 54 24 48          	fistl  0x48(%esp)
  40b35b:	d9 6c 24 4e          	fldcw  0x4e(%esp)
  40b35f:	8b 4c 24 48          	mov    0x48(%esp),%ecx
  40b363:	89 4c 24 48          	mov    %ecx,0x48(%esp)
  40b367:	83 c1 30             	add    $0x30,%ecx
  40b36a:	db 44 24 48          	fildl  0x48(%esp)
  40b36e:	de e9                	fsubrp %st,%st(1)
  40b370:	d9 c9                	fxch   %st(1)
  40b372:	88 08                	mov    %cl,(%eax)
  40b374:	dd e1                	fucom  %st(1)
  40b376:	df e0                	fnstsw %ax
  40b378:	9e                   	sahf   
  40b379:	0f 87 9a 00 00 00    	ja     40b419 <___gdtoa+0x4e9>
  40b37f:	d9 c1                	fld    %st(1)
  40b381:	d8 2d 70 03 41 00    	fsubrs 0x410370
  40b387:	d9 c9                	fxch   %st(1)
  40b389:	dd e1                	fucom  %st(1)
  40b38b:	df e0                	fnstsw %ax
  40b38d:	dd d9                	fstp   %st(1)
  40b38f:	9e                   	sahf   
  40b390:	0f 87 f1 0a 00 00    	ja     40be87 <___gdtoa+0xf57>
  40b396:	8b 44 24 5c          	mov    0x5c(%esp),%eax
  40b39a:	83 c0 01             	add    $0x1,%eax
  40b39d:	39 c2                	cmp    %eax,%edx
  40b39f:	89 44 24 5c          	mov    %eax,0x5c(%esp)
  40b3a3:	0f 8e 69 01 00 00    	jle    40b512 <___gdtoa+0x5e2>
  40b3a9:	d9 05 74 03 41 00    	flds   0x410374
  40b3af:	eb 2e                	jmp    40b3df <___gdtoa+0x4af>
  40b3b1:	d9 c1                	fld    %st(1)
  40b3b3:	d8 2d 70 03 41 00    	fsubrs 0x410370
  40b3b9:	d9 c9                	fxch   %st(1)
  40b3bb:	dd e1                	fucom  %st(1)
  40b3bd:	df e0                	fnstsw %ax
  40b3bf:	dd d9                	fstp   %st(1)
  40b3c1:	9e                   	sahf   
  40b3c2:	0f 87 c7 0a 00 00    	ja     40be8f <___gdtoa+0xf5f>
  40b3c8:	8b 44 24 5c          	mov    0x5c(%esp),%eax
  40b3cc:	83 c0 01             	add    $0x1,%eax
  40b3cf:	39 c2                	cmp    %eax,%edx
  40b3d1:	89 44 24 5c          	mov    %eax,0x5c(%esp)
  40b3d5:	0f 8e 3d 01 00 00    	jle    40b518 <___gdtoa+0x5e8>
  40b3db:	d9 c9                	fxch   %st(1)
  40b3dd:	d9 ca                	fxch   %st(2)
  40b3df:	dc c9                	fmul   %st,%st(1)
  40b3e1:	83 c6 01             	add    $0x1,%esi
  40b3e4:	dc ca                	fmul   %st,%st(2)
  40b3e6:	d9 ca                	fxch   %st(2)
  40b3e8:	d9 6c 24 4c          	fldcw  0x4c(%esp)
  40b3ec:	db 54 24 48          	fistl  0x48(%esp)
  40b3f0:	d9 6c 24 4e          	fldcw  0x4e(%esp)
  40b3f4:	8b 44 24 48          	mov    0x48(%esp),%eax
  40b3f8:	89 44 24 48          	mov    %eax,0x48(%esp)
  40b3fc:	8d 48 30             	lea    0x30(%eax),%ecx
  40b3ff:	db 44 24 48          	fildl  0x48(%esp)
  40b403:	de e9                	fsubrp %st,%st(1)
  40b405:	d9 c9                	fxch   %st(1)
  40b407:	88 4e ff             	mov    %cl,-0x1(%esi)
  40b40a:	dd e1                	fucom  %st(1)
  40b40c:	df e0                	fnstsw %ax
  40b40e:	9e                   	sahf   
  40b40f:	76 a0                	jbe    40b3b1 <___gdtoa+0x481>
  40b411:	dd d8                	fstp   %st(0)
  40b413:	dd d9                	fstp   %st(1)
  40b415:	dd d9                	fstp   %st(1)
  40b417:	eb 04                	jmp    40b41d <___gdtoa+0x4ed>
  40b419:	dd d8                	fstp   %st(0)
  40b41b:	dd d9                	fstp   %st(1)
  40b41d:	d9 ee                	fldz   
  40b41f:	d9 c9                	fxch   %st(1)
  40b421:	da e9                	fucompp 
  40b423:	df e0                	fnstsw %ax
  40b425:	9e                   	sahf   
  40b426:	8b 44 24 38          	mov    0x38(%esp),%eax
  40b42a:	7a 06                	jp     40b432 <___gdtoa+0x502>
  40b42c:	0f 84 ad 05 00 00    	je     40b9df <___gdtoa+0xaaf>
  40b432:	83 c0 01             	add    $0x1,%eax
  40b435:	89 44 24 0c          	mov    %eax,0xc(%esp)
  40b439:	c7 44 24 18 10 00 00 	movl   $0x10,0x18(%esp)
  40b440:	00 
  40b441:	e9 77 03 00 00       	jmp    40b7bd <___gdtoa+0x88d>
  40b446:	c7 43 10 00 00 00 00 	movl   $0x0,0x10(%ebx)
  40b44d:	31 ed                	xor    %ebp,%ebp
  40b44f:	e9 a2 fb ff ff       	jmp    40aff6 <___gdtoa+0xc6>
  40b454:	89 44 24 04          	mov    %eax,0x4(%esp)
  40b458:	89 1c 24             	mov    %ebx,(%esp)
  40b45b:	e8 f0 23 00 00       	call   40d850 <___rshift_D2A>
  40b460:	8b 44 24 5c          	mov    0x5c(%esp),%eax
  40b464:	8b 8c 24 84 00 00 00 	mov    0x84(%esp),%ecx
  40b46b:	29 c5                	sub    %eax,%ebp
  40b46d:	01 c1                	add    %eax,%ecx
  40b46f:	89 4c 24 20          	mov    %ecx,0x20(%esp)
  40b473:	e9 9d fb ff ff       	jmp    40b015 <___gdtoa+0xe5>
  40b478:	c7 84 24 90 00 00 00 	movl   $0x0,0x90(%esp)
  40b47f:	00 00 00 00 
  40b483:	89 7c 24 48          	mov    %edi,0x48(%esp)
  40b487:	31 d2                	xor    %edx,%edx
  40b489:	db 44 24 48          	fildl  0x48(%esp)
  40b48d:	dc 0d 68 03 41 00    	fmull  0x410368
  40b493:	c7 44 24 40 01 00 00 	movl   $0x1,0x40(%esp)
  40b49a:	00 
  40b49b:	c7 44 24 44 ff ff ff 	movl   $0xffffffff,0x44(%esp)
  40b4a2:	ff 
  40b4a3:	c7 44 24 18 ff ff ff 	movl   $0xffffffff,0x18(%esp)
  40b4aa:	ff 
  40b4ab:	c7 84 24 94 00 00 00 	movl   $0x0,0x94(%esp)
  40b4b2:	00 00 00 00 
  40b4b6:	d9 6c 24 4c          	fldcw  0x4c(%esp)
  40b4ba:	db 5c 24 48          	fistpl 0x48(%esp)
  40b4be:	d9 6c 24 4e          	fldcw  0x4e(%esp)
  40b4c2:	8b 44 24 48          	mov    0x48(%esp),%eax
  40b4c6:	83 c0 03             	add    $0x3,%eax
  40b4c9:	89 44 24 5c          	mov    %eax,0x5c(%esp)
  40b4cd:	e9 a1 fd ff ff       	jmp    40b273 <___gdtoa+0x343>
  40b4d2:	d9 c0                	fld    %st(0)
  40b4d4:	d8 c1                	fadd   %st(1),%st
  40b4d6:	d8 05 7c 03 41 00    	fadds  0x41037c
  40b4dc:	dd 5c 24 10          	fstpl  0x10(%esp)
  40b4e0:	81 6c 24 14 00 00 40 	subl   $0x3400000,0x14(%esp)
  40b4e7:	03 
  40b4e8:	d9 c0                	fld    %st(0)
  40b4ea:	d8 25 80 03 41 00    	fsubs  0x410380
  40b4f0:	dd 44 24 10          	fldl   0x10(%esp)
  40b4f4:	d9 c9                	fxch   %st(1)
  40b4f6:	dd e1                	fucom  %st(1)
  40b4f8:	df e0                	fnstsw %ax
  40b4fa:	9e                   	sahf   
  40b4fb:	0f 87 52 09 00 00    	ja     40be53 <___gdtoa+0xf23>
  40b501:	d9 c9                	fxch   %st(1)
  40b503:	d9 e0                	fchs   
  40b505:	da e9                	fucompp 
  40b507:	df e0                	fnstsw %ax
  40b509:	9e                   	sahf   
  40b50a:	0f 87 77 03 00 00    	ja     40b887 <___gdtoa+0x957>
  40b510:	eb 10                	jmp    40b522 <___gdtoa+0x5f2>
  40b512:	dd d8                	fstp   %st(0)
  40b514:	dd d8                	fstp   %st(0)
  40b516:	eb 0a                	jmp    40b522 <___gdtoa+0x5f2>
  40b518:	dd d8                	fstp   %st(0)
  40b51a:	dd d8                	fstp   %st(0)
  40b51c:	dd d8                	fstp   %st(0)
  40b51e:	eb 02                	jmp    40b522 <___gdtoa+0x5f2>
  40b520:	dd d8                	fstp   %st(0)
  40b522:	dd 5c 24 10          	fstpl  0x10(%esp)
  40b526:	83 7c 24 0c 0e       	cmpl   $0xe,0xc(%esp)
  40b52b:	0f 8e df 01 00 00    	jle    40b710 <___gdtoa+0x7e0>
  40b531:	8b 44 24 40          	mov    0x40(%esp),%eax
  40b535:	85 c0                	test   %eax,%eax
  40b537:	0f 84 c3 03 00 00    	je     40b900 <___gdtoa+0x9d0>
  40b53d:	83 bc 24 90 00 00 00 	cmpl   $0x1,0x90(%esp)
  40b544:	01 
  40b545:	0f 8e 93 09 00 00    	jle    40bede <___gdtoa+0xfae>
  40b54b:	8b 44 24 18          	mov    0x18(%esp),%eax
  40b54f:	83 e8 01             	sub    $0x1,%eax
  40b552:	39 44 24 30          	cmp    %eax,0x30(%esp)
  40b556:	0f 8c 08 08 00 00    	jl     40bd64 <___gdtoa+0xe34>
  40b55c:	8b 7c 24 30          	mov    0x30(%esp),%edi
  40b560:	29 c7                	sub    %eax,%edi
  40b562:	8b 44 24 18          	mov    0x18(%esp),%eax
  40b566:	85 c0                	test   %eax,%eax
  40b568:	0f 88 15 0a 00 00    	js     40bf83 <___gdtoa+0x1053>
  40b56e:	8b 74 24 28          	mov    0x28(%esp),%esi
  40b572:	89 44 24 5c          	mov    %eax,0x5c(%esp)
  40b576:	c7 04 24 01 00 00 00 	movl   $0x1,(%esp)
  40b57d:	01 44 24 28          	add    %eax,0x28(%esp)
  40b581:	01 44 24 1c          	add    %eax,0x1c(%esp)
  40b585:	e8 b6 1a 00 00       	call   40d040 <___i2b_D2A>
  40b58a:	89 44 24 20          	mov    %eax,0x20(%esp)
  40b58e:	8b 44 24 1c          	mov    0x1c(%esp),%eax
  40b592:	85 c0                	test   %eax,%eax
  40b594:	7e 1e                	jle    40b5b4 <___gdtoa+0x684>
  40b596:	85 f6                	test   %esi,%esi
  40b598:	7e 1a                	jle    40b5b4 <___gdtoa+0x684>
  40b59a:	8b 4c 24 1c          	mov    0x1c(%esp),%ecx
  40b59e:	39 f1                	cmp    %esi,%ecx
  40b5a0:	89 c8                	mov    %ecx,%eax
  40b5a2:	7e 02                	jle    40b5a6 <___gdtoa+0x676>
  40b5a4:	89 f0                	mov    %esi,%eax
  40b5a6:	29 44 24 28          	sub    %eax,0x28(%esp)
  40b5aa:	29 c6                	sub    %eax,%esi
  40b5ac:	29 44 24 1c          	sub    %eax,0x1c(%esp)
  40b5b0:	89 44 24 5c          	mov    %eax,0x5c(%esp)
  40b5b4:	8b 4c 24 30          	mov    0x30(%esp),%ecx
  40b5b8:	85 c9                	test   %ecx,%ecx
  40b5ba:	7e 4e                	jle    40b60a <___gdtoa+0x6da>
  40b5bc:	8b 54 24 40          	mov    0x40(%esp),%edx
  40b5c0:	85 d2                	test   %edx,%edx
  40b5c2:	0f 84 dd 05 00 00    	je     40bba5 <___gdtoa+0xc75>
  40b5c8:	85 ff                	test   %edi,%edi
  40b5ca:	7e 32                	jle    40b5fe <___gdtoa+0x6ce>
  40b5cc:	8b 44 24 20          	mov    0x20(%esp),%eax
  40b5d0:	89 7c 24 04          	mov    %edi,0x4(%esp)
  40b5d4:	89 04 24             	mov    %eax,(%esp)
  40b5d7:	e8 f4 1b 00 00       	call   40d1d0 <___pow5mult_D2A>
  40b5dc:	89 5c 24 04          	mov    %ebx,0x4(%esp)
  40b5e0:	89 04 24             	mov    %eax,(%esp)
  40b5e3:	89 44 24 20          	mov    %eax,0x20(%esp)
  40b5e7:	e8 84 1a 00 00       	call   40d070 <___mult_D2A>
  40b5ec:	89 1c 24             	mov    %ebx,(%esp)
  40b5ef:	89 44 24 10          	mov    %eax,0x10(%esp)
  40b5f3:	e8 f8 18 00 00       	call   40cef0 <___Bfree_D2A>
  40b5f8:	8b 44 24 10          	mov    0x10(%esp),%eax
  40b5fc:	89 c3                	mov    %eax,%ebx
  40b5fe:	8b 44 24 30          	mov    0x30(%esp),%eax
  40b602:	29 f8                	sub    %edi,%eax
  40b604:	0f 85 9f 05 00 00    	jne    40bba9 <___gdtoa+0xc79>
  40b60a:	c7 04 24 01 00 00 00 	movl   $0x1,(%esp)
  40b611:	e8 2a 1a 00 00       	call   40d040 <___i2b_D2A>
  40b616:	89 c7                	mov    %eax,%edi
  40b618:	8b 44 24 3c          	mov    0x3c(%esp),%eax
  40b61c:	85 c0                	test   %eax,%eax
  40b61e:	7e 0e                	jle    40b62e <___gdtoa+0x6fe>
  40b620:	89 3c 24             	mov    %edi,(%esp)
  40b623:	89 44 24 04          	mov    %eax,0x4(%esp)
  40b627:	e8 a4 1b 00 00       	call   40d1d0 <___pow5mult_D2A>
  40b62c:	89 c7                	mov    %eax,%edi
  40b62e:	83 bc 24 90 00 00 00 	cmpl   $0x1,0x90(%esp)
  40b635:	01 
  40b636:	c7 44 24 10 00 00 00 	movl   $0x0,0x10(%esp)
  40b63d:	00 
  40b63e:	0f 8e 8f 06 00 00    	jle    40bcd3 <___gdtoa+0xda3>
  40b644:	8b 44 24 3c          	mov    0x3c(%esp),%eax
  40b648:	bd 1f 00 00 00       	mov    $0x1f,%ebp
  40b64d:	85 c0                	test   %eax,%eax
  40b64f:	74 0b                	je     40b65c <___gdtoa+0x72c>
  40b651:	8b 47 10             	mov    0x10(%edi),%eax
  40b654:	0f bd 6c 87 10       	bsr    0x10(%edi,%eax,4),%ebp
  40b659:	83 f5 1f             	xor    $0x1f,%ebp
  40b65c:	2b 6c 24 1c          	sub    0x1c(%esp),%ebp
  40b660:	8b 54 24 28          	mov    0x28(%esp),%edx
  40b664:	83 ed 04             	sub    $0x4,%ebp
  40b667:	83 e5 1f             	and    $0x1f,%ebp
  40b66a:	01 ea                	add    %ebp,%edx
  40b66c:	89 e8                	mov    %ebp,%eax
  40b66e:	85 d2                	test   %edx,%edx
  40b670:	89 6c 24 5c          	mov    %ebp,0x5c(%esp)
  40b674:	7e 12                	jle    40b688 <___gdtoa+0x758>
  40b676:	89 1c 24             	mov    %ebx,(%esp)
  40b679:	89 54 24 04          	mov    %edx,0x4(%esp)
  40b67d:	e8 de 1c 00 00       	call   40d360 <___lshift_D2A>
  40b682:	89 c3                	mov    %eax,%ebx
  40b684:	8b 44 24 5c          	mov    0x5c(%esp),%eax
  40b688:	03 44 24 1c          	add    0x1c(%esp),%eax
  40b68c:	85 c0                	test   %eax,%eax
  40b68e:	7e 0e                	jle    40b69e <___gdtoa+0x76e>
  40b690:	89 3c 24             	mov    %edi,(%esp)
  40b693:	89 44 24 04          	mov    %eax,0x4(%esp)
  40b697:	e8 c4 1c 00 00       	call   40d360 <___lshift_D2A>
  40b69c:	89 c7                	mov    %eax,%edi
  40b69e:	8b 44 24 34          	mov    0x34(%esp),%eax
  40b6a2:	85 c0                	test   %eax,%eax
  40b6a4:	0f 85 12 05 00 00    	jne    40bbbc <___gdtoa+0xc8c>
  40b6aa:	83 bc 24 90 00 00 00 	cmpl   $0x2,0x90(%esp)
  40b6b1:	02 
  40b6b2:	0f 8e 3b 03 00 00    	jle    40b9f3 <___gdtoa+0xac3>
  40b6b8:	8b 44 24 18          	mov    0x18(%esp),%eax
  40b6bc:	85 c0                	test   %eax,%eax
  40b6be:	0f 8f 2f 03 00 00    	jg     40b9f3 <___gdtoa+0xac3>
  40b6c4:	8b 44 24 18          	mov    0x18(%esp),%eax
  40b6c8:	85 c0                	test   %eax,%eax
  40b6ca:	0f 85 c7 01 00 00    	jne    40b897 <___gdtoa+0x967>
  40b6d0:	89 3c 24             	mov    %edi,(%esp)
  40b6d3:	c7 44 24 08 00 00 00 	movl   $0x0,0x8(%esp)
  40b6da:	00 
  40b6db:	c7 44 24 04 05 00 00 	movl   $0x5,0x4(%esp)
  40b6e2:	00 
  40b6e3:	e8 78 18 00 00       	call   40cf60 <___multadd_D2A>
  40b6e8:	89 1c 24             	mov    %ebx,(%esp)
  40b6eb:	89 44 24 04          	mov    %eax,0x4(%esp)
  40b6ef:	89 c7                	mov    %eax,%edi
  40b6f1:	e8 7a 1d 00 00       	call   40d470 <___cmp_D2A>
  40b6f6:	85 c0                	test   %eax,%eax
  40b6f8:	0f 8e 99 01 00 00    	jle    40b897 <___gdtoa+0x967>
  40b6fe:	8b 44 24 0c          	mov    0xc(%esp),%eax
  40b702:	83 c0 02             	add    $0x2,%eax
  40b705:	89 44 24 0c          	mov    %eax,0xc(%esp)
  40b709:	eb 72                	jmp    40b77d <___gdtoa+0x84d>
  40b70b:	90                   	nop
  40b70c:	8d 74 26 00          	lea    0x0(%esi,%eiz,1),%esi
  40b710:	8b 44 24 20          	mov    0x20(%esp),%eax
  40b714:	85 c0                	test   %eax,%eax
  40b716:	0f 88 15 fe ff ff    	js     40b531 <___gdtoa+0x601>
  40b71c:	8b 44 24 0c          	mov    0xc(%esp),%eax
  40b720:	dd 04 c5 c0 03 41 00 	fldl   0x4103c0(,%eax,8)
  40b727:	8b 44 24 18          	mov    0x18(%esp),%eax
  40b72b:	85 c0                	test   %eax,%eax
  40b72d:	0f 8f e2 01 00 00    	jg     40b915 <___gdtoa+0x9e5>
  40b733:	8b 84 24 94 00 00 00 	mov    0x94(%esp),%eax
  40b73a:	c1 e8 1f             	shr    $0x1f,%eax
  40b73d:	84 c0                	test   %al,%al
  40b73f:	0f 84 d0 01 00 00    	je     40b915 <___gdtoa+0x9e5>
  40b745:	8b 44 24 18          	mov    0x18(%esp),%eax
  40b749:	85 c0                	test   %eax,%eax
  40b74b:	0f 85 3a 01 00 00    	jne    40b88b <___gdtoa+0x95b>
  40b751:	d8 0d 80 03 41 00    	fmuls  0x410380
  40b757:	dd 44 24 10          	fldl   0x10(%esp)
  40b75b:	d9 c9                	fxch   %st(1)
  40b75d:	da e9                	fucompp 
  40b75f:	df e0                	fnstsw %ax
  40b761:	9e                   	sahf   
  40b762:	0f 83 25 01 00 00    	jae    40b88d <___gdtoa+0x95d>
  40b768:	8b 44 24 0c          	mov    0xc(%esp),%eax
  40b76c:	31 ff                	xor    %edi,%edi
  40b76e:	c7 44 24 20 00 00 00 	movl   $0x0,0x20(%esp)
  40b775:	00 
  40b776:	83 c0 02             	add    $0x2,%eax
  40b779:	89 44 24 0c          	mov    %eax,0xc(%esp)
  40b77d:	8b 44 24 24          	mov    0x24(%esp),%eax
  40b781:	31 d2                	xor    %edx,%edx
  40b783:	c7 44 24 18 20 00 00 	movl   $0x20,0x18(%esp)
  40b78a:	00 
  40b78b:	8d 70 01             	lea    0x1(%eax),%esi
  40b78e:	c6 00 31             	movb   $0x31,(%eax)
  40b791:	89 3c 24             	mov    %edi,(%esp)
  40b794:	89 54 24 10          	mov    %edx,0x10(%esp)
  40b798:	e8 53 17 00 00       	call   40cef0 <___Bfree_D2A>
  40b79d:	8b 44 24 20          	mov    0x20(%esp),%eax
  40b7a1:	85 c0                	test   %eax,%eax
  40b7a3:	74 18                	je     40b7bd <___gdtoa+0x88d>
  40b7a5:	8b 54 24 10          	mov    0x10(%esp),%edx
  40b7a9:	39 c2                	cmp    %eax,%edx
  40b7ab:	0f 85 dd 03 00 00    	jne    40bb8e <___gdtoa+0xc5e>
  40b7b1:	8b 44 24 20          	mov    0x20(%esp),%eax
  40b7b5:	89 04 24             	mov    %eax,(%esp)
  40b7b8:	e8 33 17 00 00       	call   40cef0 <___Bfree_D2A>
  40b7bd:	89 1c 24             	mov    %ebx,(%esp)
  40b7c0:	e8 2b 17 00 00       	call   40cef0 <___Bfree_D2A>
  40b7c5:	8b 84 24 98 00 00 00 	mov    0x98(%esp),%eax
  40b7cc:	8b 7c 24 0c          	mov    0xc(%esp),%edi
  40b7d0:	c6 06 00             	movb   $0x0,(%esi)
  40b7d3:	89 38                	mov    %edi,(%eax)
  40b7d5:	8b 84 24 9c 00 00 00 	mov    0x9c(%esp),%eax
  40b7dc:	85 c0                	test   %eax,%eax
  40b7de:	74 09                	je     40b7e9 <___gdtoa+0x8b9>
  40b7e0:	8b 84 24 9c 00 00 00 	mov    0x9c(%esp),%eax
  40b7e7:	89 30                	mov    %esi,(%eax)
  40b7e9:	8b 84 24 8c 00 00 00 	mov    0x8c(%esp),%eax
  40b7f0:	8b 7c 24 18          	mov    0x18(%esp),%edi
  40b7f4:	09 38                	or     %edi,(%eax)
  40b7f6:	8b 44 24 24          	mov    0x24(%esp),%eax
  40b7fa:	83 c4 6c             	add    $0x6c,%esp
  40b7fd:	5b                   	pop    %ebx
  40b7fe:	5e                   	pop    %esi
  40b7ff:	5f                   	pop    %edi
  40b800:	5d                   	pop    %ebp
  40b801:	c3                   	ret    
  40b802:	b8 03 00 00 00       	mov    $0x3,%eax
  40b807:	2b 44 24 2c          	sub    0x2c(%esp),%eax
  40b80b:	89 44 24 2c          	mov    %eax,0x2c(%esp)
  40b80f:	e9 95 fa ff ff       	jmp    40b2a9 <___gdtoa+0x379>
  40b814:	c7 44 24 34 00 00 00 	movl   $0x0,0x34(%esp)
  40b81b:	00 
  40b81c:	e9 93 f9 ff ff       	jmp    40b1b4 <___gdtoa+0x284>
  40b821:	c7 44 24 2c 02 00 00 	movl   $0x2,0x2c(%esp)
  40b828:	00 
  40b829:	e9 72 fa ff ff       	jmp    40b2a0 <___gdtoa+0x370>
  40b82e:	c7 44 24 40 00 00 00 	movl   $0x0,0x40(%esp)
  40b835:	00 
  40b836:	e9 0c fa ff ff       	jmp    40b247 <___gdtoa+0x317>
  40b83b:	83 bc 24 90 00 00 00 	cmpl   $0x2,0x90(%esp)
  40b842:	02 
  40b843:	c7 44 24 40 00 00 00 	movl   $0x0,0x40(%esp)
  40b84a:	00 
  40b84b:	0f 85 32 fc ff ff    	jne    40b483 <___gdtoa+0x553>
  40b851:	8b 94 24 94 00 00 00 	mov    0x94(%esp),%edx
  40b858:	85 d2                	test   %edx,%edx
  40b85a:	0f 8e d3 04 00 00    	jle    40bd33 <___gdtoa+0xe03>
  40b860:	83 bc 24 94 00 00 00 	cmpl   $0xe,0x94(%esp)
  40b867:	0e 
  40b868:	0f 96 c2             	setbe  %dl
  40b86b:	8b 8c 24 94 00 00 00 	mov    0x94(%esp),%ecx
  40b872:	21 c2                	and    %eax,%edx
  40b874:	89 4c 24 5c          	mov    %ecx,0x5c(%esp)
  40b878:	89 c8                	mov    %ecx,%eax
  40b87a:	89 4c 24 44          	mov    %ecx,0x44(%esp)
  40b87e:	89 4c 24 18          	mov    %ecx,0x18(%esp)
  40b882:	e9 ec f9 ff ff       	jmp    40b273 <___gdtoa+0x343>
  40b887:	dd d8                	fstp   %st(0)
  40b889:	eb 02                	jmp    40b88d <___gdtoa+0x95d>
  40b88b:	dd d8                	fstp   %st(0)
  40b88d:	31 ff                	xor    %edi,%edi
  40b88f:	c7 44 24 20 00 00 00 	movl   $0x0,0x20(%esp)
  40b896:	00 
  40b897:	8b 84 24 94 00 00 00 	mov    0x94(%esp),%eax
  40b89e:	31 d2                	xor    %edx,%edx
  40b8a0:	8b 74 24 24          	mov    0x24(%esp),%esi
  40b8a4:	c7 44 24 18 10 00 00 	movl   $0x10,0x18(%esp)
  40b8ab:	00 
  40b8ac:	f7 d8                	neg    %eax
  40b8ae:	89 44 24 0c          	mov    %eax,0xc(%esp)
  40b8b2:	e9 da fe ff ff       	jmp    40b791 <___gdtoa+0x861>
  40b8b7:	8b 44 24 0c          	mov    0xc(%esp),%eax
  40b8bb:	29 44 24 28          	sub    %eax,0x28(%esp)
  40b8bf:	c7 44 24 3c 00 00 00 	movl   $0x0,0x3c(%esp)
  40b8c6:	00 
  40b8c7:	f7 d8                	neg    %eax
  40b8c9:	89 44 24 30          	mov    %eax,0x30(%esp)
  40b8cd:	e9 17 f9 ff ff       	jmp    40b1e9 <___gdtoa+0x2b9>
  40b8d2:	f7 d8                	neg    %eax
  40b8d4:	89 44 24 28          	mov    %eax,0x28(%esp)
  40b8d8:	c7 44 24 1c 00 00 00 	movl   $0x0,0x1c(%esp)
  40b8df:	00 
  40b8e0:	e9 e8 f8 ff ff       	jmp    40b1cd <___gdtoa+0x29d>
  40b8e5:	db 44 24 0c          	fildl  0xc(%esp)
  40b8e9:	da e9                	fucompp 
  40b8eb:	df e0                	fnstsw %ax
  40b8ed:	9e                   	sahf   
  40b8ee:	7a 06                	jp     40b8f6 <___gdtoa+0x9c6>
  40b8f0:	0f 84 7b f8 ff ff    	je     40b171 <___gdtoa+0x241>
  40b8f6:	83 6c 24 0c 01       	subl   $0x1,0xc(%esp)
  40b8fb:	e9 71 f8 ff ff       	jmp    40b171 <___gdtoa+0x241>
  40b900:	8b 7c 24 30          	mov    0x30(%esp),%edi
  40b904:	8b 74 24 28          	mov    0x28(%esp),%esi
  40b908:	c7 44 24 20 00 00 00 	movl   $0x0,0x20(%esp)
  40b90f:	00 
  40b910:	e9 79 fc ff ff       	jmp    40b58e <___gdtoa+0x65e>
  40b915:	dd 44 24 10          	fldl   0x10(%esp)
  40b919:	d9 c0                	fld    %st(0)
  40b91b:	8b 7c 24 24          	mov    0x24(%esp),%edi
  40b91f:	d8 f2                	fdiv   %st(2),%st
  40b921:	d9 7c 24 4e          	fnstcw 0x4e(%esp)
  40b925:	c7 44 24 5c 01 00 00 	movl   $0x1,0x5c(%esp)
  40b92c:	00 
  40b92d:	8d 77 01             	lea    0x1(%edi),%esi
  40b930:	0f b7 44 24 4e       	movzwl 0x4e(%esp),%eax
  40b935:	b4 0c                	mov    $0xc,%ah
  40b937:	66 89 44 24 4c       	mov    %ax,0x4c(%esp)
  40b93c:	d9 6c 24 4c          	fldcw  0x4c(%esp)
  40b940:	db 5c 24 48          	fistpl 0x48(%esp)
  40b944:	d9 6c 24 4e          	fldcw  0x4e(%esp)
  40b948:	8b 4c 24 48          	mov    0x48(%esp),%ecx
  40b94c:	89 4c 24 48          	mov    %ecx,0x48(%esp)
  40b950:	8d 41 30             	lea    0x30(%ecx),%eax
  40b953:	db 44 24 48          	fildl  0x48(%esp)
  40b957:	d8 ca                	fmul   %st(2),%st
  40b959:	88 07                	mov    %al,(%edi)
  40b95b:	de e9                	fsubrp %st,%st(1)
  40b95d:	d9 ee                	fldz   
  40b95f:	d9 c9                	fxch   %st(1)
  40b961:	dd e1                	fucom  %st(1)
  40b963:	df e0                	fnstsw %ax
  40b965:	dd d9                	fstp   %st(1)
  40b967:	9e                   	sahf   
  40b968:	0f 8b 52 09 00 00    	jnp    40c2c0 <___gdtoa+0x1390>
  40b96e:	8b 44 24 5c          	mov    0x5c(%esp),%eax
  40b972:	39 44 24 18          	cmp    %eax,0x18(%esp)
  40b976:	0f 84 93 03 00 00    	je     40bd0f <___gdtoa+0xddf>
  40b97c:	d9 05 74 03 41 00    	flds   0x410374
  40b982:	8b 54 24 18          	mov    0x18(%esp),%edx
  40b986:	eb 0c                	jmp    40b994 <___gdtoa+0xa64>
  40b988:	8b 44 24 5c          	mov    0x5c(%esp),%eax
  40b98c:	39 c2                	cmp    %eax,%edx
  40b98e:	0f 84 79 03 00 00    	je     40bd0d <___gdtoa+0xddd>
  40b994:	83 c0 01             	add    $0x1,%eax
  40b997:	dc c9                	fmul   %st,%st(1)
  40b999:	83 c6 01             	add    $0x1,%esi
  40b99c:	89 44 24 5c          	mov    %eax,0x5c(%esp)
  40b9a0:	d9 c1                	fld    %st(1)
  40b9a2:	d8 f3                	fdiv   %st(3),%st
  40b9a4:	d9 6c 24 4c          	fldcw  0x4c(%esp)
  40b9a8:	db 5c 24 48          	fistpl 0x48(%esp)
  40b9ac:	d9 6c 24 4e          	fldcw  0x4e(%esp)
  40b9b0:	8b 4c 24 48          	mov    0x48(%esp),%ecx
  40b9b4:	89 4c 24 48          	mov    %ecx,0x48(%esp)
  40b9b8:	8d 41 30             	lea    0x30(%ecx),%eax
  40b9bb:	db 44 24 48          	fildl  0x48(%esp)
  40b9bf:	d8 cb                	fmul   %st(3),%st
  40b9c1:	88 46 ff             	mov    %al,-0x1(%esi)
  40b9c4:	de ea                	fsubrp %st,%st(2)
  40b9c6:	d9 ee                	fldz   
  40b9c8:	d9 ca                	fxch   %st(2)
  40b9ca:	dd e2                	fucom  %st(2)
  40b9cc:	df e0                	fnstsw %ax
  40b9ce:	dd da                	fstp   %st(2)
  40b9d0:	9e                   	sahf   
  40b9d1:	7a b5                	jp     40b988 <___gdtoa+0xa58>
  40b9d3:	75 b3                	jne    40b988 <___gdtoa+0xa58>
  40b9d5:	dd d8                	fstp   %st(0)
  40b9d7:	dd d8                	fstp   %st(0)
  40b9d9:	dd d8                	fstp   %st(0)
  40b9db:	8b 44 24 0c          	mov    0xc(%esp),%eax
  40b9df:	83 c0 01             	add    $0x1,%eax
  40b9e2:	89 44 24 0c          	mov    %eax,0xc(%esp)
  40b9e6:	c7 44 24 18 00 00 00 	movl   $0x0,0x18(%esp)
  40b9ed:	00 
  40b9ee:	e9 ca fd ff ff       	jmp    40b7bd <___gdtoa+0x88d>
  40b9f3:	8b 44 24 40          	mov    0x40(%esp),%eax
  40b9f7:	85 c0                	test   %eax,%eax
  40b9f9:	0f 84 19 02 00 00    	je     40bc18 <___gdtoa+0xce8>
  40b9ff:	8d 04 2e             	lea    (%esi,%ebp,1),%eax
  40ba02:	85 c0                	test   %eax,%eax
  40ba04:	7e 14                	jle    40ba1a <___gdtoa+0xaea>
  40ba06:	89 44 24 04          	mov    %eax,0x4(%esp)
  40ba0a:	8b 44 24 20          	mov    0x20(%esp),%eax
  40ba0e:	89 04 24             	mov    %eax,(%esp)
  40ba11:	e8 4a 19 00 00       	call   40d360 <___lshift_D2A>
  40ba16:	89 44 24 20          	mov    %eax,0x20(%esp)
  40ba1a:	8b 74 24 10          	mov    0x10(%esp),%esi
  40ba1e:	8b 6c 24 20          	mov    0x20(%esp),%ebp
  40ba22:	85 f6                	test   %esi,%esi
  40ba24:	0f 85 e9 06 00 00    	jne    40c113 <___gdtoa+0x11e3>
  40ba2a:	8b 74 24 24          	mov    0x24(%esp),%esi
  40ba2e:	89 7c 24 1c          	mov    %edi,0x1c(%esp)
  40ba32:	8b 7c 24 20          	mov    0x20(%esp),%edi
  40ba36:	c7 44 24 5c 01 00 00 	movl   $0x1,0x5c(%esp)
  40ba3d:	00 
  40ba3e:	89 74 24 28          	mov    %esi,0x28(%esp)
  40ba42:	e9 d6 00 00 00       	jmp    40bb1d <___gdtoa+0xbed>
  40ba47:	89 14 24             	mov    %edx,(%esp)
  40ba4a:	89 44 24 20          	mov    %eax,0x20(%esp)
  40ba4e:	e8 9d 14 00 00       	call   40cef0 <___Bfree_D2A>
  40ba53:	8b 44 24 20          	mov    0x20(%esp),%eax
  40ba57:	89 c1                	mov    %eax,%ecx
  40ba59:	0b 8c 24 90 00 00 00 	or     0x90(%esp),%ecx
  40ba60:	75 18                	jne    40ba7a <___gdtoa+0xb4a>
  40ba62:	8b 8c 24 88 00 00 00 	mov    0x88(%esp),%ecx
  40ba69:	f6 01 01             	testb  $0x1,(%ecx)
  40ba6c:	75 0c                	jne    40ba7a <___gdtoa+0xb4a>
  40ba6e:	8b 54 24 2c          	mov    0x2c(%esp),%edx
  40ba72:	85 d2                	test   %edx,%edx
  40ba74:	0f 84 55 08 00 00    	je     40c2cf <___gdtoa+0x139f>
  40ba7a:	85 f6                	test   %esi,%esi
  40ba7c:	0f 88 18 05 00 00    	js     40bf9a <___gdtoa+0x106a>
  40ba82:	0b b4 24 90 00 00 00 	or     0x90(%esp),%esi
  40ba89:	75 10                	jne    40ba9b <___gdtoa+0xb6b>
  40ba8b:	8b b4 24 88 00 00 00 	mov    0x88(%esp),%esi
  40ba92:	f6 06 01             	testb  $0x1,(%esi)
  40ba95:	0f 84 ff 04 00 00    	je     40bf9a <___gdtoa+0x106a>
  40ba9b:	85 c0                	test   %eax,%eax
  40ba9d:	0f 8f c9 06 00 00    	jg     40c16c <___gdtoa+0x123c>
  40baa3:	83 44 24 28 01       	addl   $0x1,0x28(%esp)
  40baa8:	0f b6 44 24 10       	movzbl 0x10(%esp),%eax
  40baad:	8b 74 24 28          	mov    0x28(%esp),%esi
  40bab1:	88 46 ff             	mov    %al,-0x1(%esi)
  40bab4:	8b 44 24 18          	mov    0x18(%esp),%eax
  40bab8:	39 44 24 5c          	cmp    %eax,0x5c(%esp)
  40babc:	0f 84 97 06 00 00    	je     40c159 <___gdtoa+0x1229>
  40bac2:	89 1c 24             	mov    %ebx,(%esp)
  40bac5:	c7 44 24 08 00 00 00 	movl   $0x0,0x8(%esp)
  40bacc:	00 
  40bacd:	c7 44 24 04 0a 00 00 	movl   $0xa,0x4(%esp)
  40bad4:	00 
  40bad5:	e8 86 14 00 00       	call   40cf60 <___multadd_D2A>
  40bada:	39 ef                	cmp    %ebp,%edi
  40badc:	c7 44 24 08 00 00 00 	movl   $0x0,0x8(%esp)
  40bae3:	00 
  40bae4:	c7 44 24 04 0a 00 00 	movl   $0xa,0x4(%esp)
  40baeb:	00 
  40baec:	89 3c 24             	mov    %edi,(%esp)
  40baef:	89 c3                	mov    %eax,%ebx
  40baf1:	0f 84 8c 00 00 00    	je     40bb83 <___gdtoa+0xc53>
  40baf7:	e8 64 14 00 00       	call   40cf60 <___multadd_D2A>
  40bafc:	89 2c 24             	mov    %ebp,(%esp)
  40baff:	c7 44 24 08 00 00 00 	movl   $0x0,0x8(%esp)
  40bb06:	00 
  40bb07:	c7 44 24 04 0a 00 00 	movl   $0xa,0x4(%esp)
  40bb0e:	00 
  40bb0f:	89 c7                	mov    %eax,%edi
  40bb11:	e8 4a 14 00 00       	call   40cf60 <___multadd_D2A>
  40bb16:	89 c5                	mov    %eax,%ebp
  40bb18:	83 44 24 5c 01       	addl   $0x1,0x5c(%esp)
  40bb1d:	8b 44 24 1c          	mov    0x1c(%esp),%eax
  40bb21:	89 1c 24             	mov    %ebx,(%esp)
  40bb24:	89 44 24 04          	mov    %eax,0x4(%esp)
  40bb28:	e8 d3 0f 00 00       	call   40cb00 <___quorem_D2A>
  40bb2d:	89 7c 24 04          	mov    %edi,0x4(%esp)
  40bb31:	89 1c 24             	mov    %ebx,(%esp)
  40bb34:	89 c6                	mov    %eax,%esi
  40bb36:	83 c6 30             	add    $0x30,%esi
  40bb39:	89 74 24 10          	mov    %esi,0x10(%esp)
  40bb3d:	89 44 24 30          	mov    %eax,0x30(%esp)
  40bb41:	e8 2a 19 00 00       	call   40d470 <___cmp_D2A>
  40bb46:	89 6c 24 04          	mov    %ebp,0x4(%esp)
  40bb4a:	89 c6                	mov    %eax,%esi
  40bb4c:	8b 44 24 1c          	mov    0x1c(%esp),%eax
  40bb50:	89 04 24             	mov    %eax,(%esp)
  40bb53:	e8 68 19 00 00       	call   40d4c0 <___diff_D2A>
  40bb58:	89 c2                	mov    %eax,%edx
  40bb5a:	b8 01 00 00 00       	mov    $0x1,%eax
  40bb5f:	8b 4a 0c             	mov    0xc(%edx),%ecx
  40bb62:	85 c9                	test   %ecx,%ecx
  40bb64:	0f 85 dd fe ff ff    	jne    40ba47 <___gdtoa+0xb17>
  40bb6a:	89 54 24 04          	mov    %edx,0x4(%esp)
  40bb6e:	89 1c 24             	mov    %ebx,(%esp)
  40bb71:	89 54 24 20          	mov    %edx,0x20(%esp)
  40bb75:	e8 f6 18 00 00       	call   40d470 <___cmp_D2A>
  40bb7a:	8b 54 24 20          	mov    0x20(%esp),%edx
  40bb7e:	e9 c4 fe ff ff       	jmp    40ba47 <___gdtoa+0xb17>
  40bb83:	e8 d8 13 00 00       	call   40cf60 <___multadd_D2A>
  40bb88:	89 c7                	mov    %eax,%edi
  40bb8a:	89 c5                	mov    %eax,%ebp
  40bb8c:	eb 8a                	jmp    40bb18 <___gdtoa+0xbe8>
  40bb8e:	85 d2                	test   %edx,%edx
  40bb90:	0f 84 1b fc ff ff    	je     40b7b1 <___gdtoa+0x881>
  40bb96:	89 14 24             	mov    %edx,(%esp)
  40bb99:	e8 52 13 00 00       	call   40cef0 <___Bfree_D2A>
  40bb9e:	66 90                	xchg   %ax,%ax
  40bba0:	e9 0c fc ff ff       	jmp    40b7b1 <___gdtoa+0x881>
  40bba5:	8b 44 24 30          	mov    0x30(%esp),%eax
  40bba9:	89 1c 24             	mov    %ebx,(%esp)
  40bbac:	89 44 24 04          	mov    %eax,0x4(%esp)
  40bbb0:	e8 1b 16 00 00       	call   40d1d0 <___pow5mult_D2A>
  40bbb5:	89 c3                	mov    %eax,%ebx
  40bbb7:	e9 4e fa ff ff       	jmp    40b60a <___gdtoa+0x6da>
  40bbbc:	89 7c 24 04          	mov    %edi,0x4(%esp)
  40bbc0:	89 1c 24             	mov    %ebx,(%esp)
  40bbc3:	e8 a8 18 00 00       	call   40d470 <___cmp_D2A>
  40bbc8:	85 c0                	test   %eax,%eax
  40bbca:	0f 89 da fa ff ff    	jns    40b6aa <___gdtoa+0x77a>
  40bbd0:	89 1c 24             	mov    %ebx,(%esp)
  40bbd3:	c7 44 24 08 00 00 00 	movl   $0x0,0x8(%esp)
  40bbda:	00 
  40bbdb:	c7 44 24 04 0a 00 00 	movl   $0xa,0x4(%esp)
  40bbe2:	00 
  40bbe3:	83 6c 24 0c 01       	subl   $0x1,0xc(%esp)
  40bbe8:	e8 73 13 00 00       	call   40cf60 <___multadd_D2A>
  40bbed:	89 c3                	mov    %eax,%ebx
  40bbef:	8b 44 24 40          	mov    0x40(%esp),%eax
  40bbf3:	85 c0                	test   %eax,%eax
  40bbf5:	0f 85 24 07 00 00    	jne    40c31f <___gdtoa+0x13ef>
  40bbfb:	83 bc 24 90 00 00 00 	cmpl   $0x2,0x90(%esp)
  40bc02:	02 
  40bc03:	8b 44 24 44          	mov    0x44(%esp),%eax
  40bc07:	7e 0b                	jle    40bc14 <___gdtoa+0xce4>
  40bc09:	83 7c 24 44 00       	cmpl   $0x0,0x44(%esp)
  40bc0e:	0f 8e 86 07 00 00    	jle    40c39a <___gdtoa+0x146a>
  40bc14:	89 44 24 18          	mov    %eax,0x18(%esp)
  40bc18:	c7 44 24 5c 01 00 00 	movl   $0x1,0x5c(%esp)
  40bc1f:	00 
  40bc20:	8b 74 24 24          	mov    0x24(%esp),%esi
  40bc24:	8b 6c 24 18          	mov    0x18(%esp),%ebp
  40bc28:	eb 25                	jmp    40bc4f <___gdtoa+0xd1f>
  40bc2a:	8d b6 00 00 00 00    	lea    0x0(%esi),%esi
  40bc30:	89 1c 24             	mov    %ebx,(%esp)
  40bc33:	c7 44 24 08 00 00 00 	movl   $0x0,0x8(%esp)
  40bc3a:	00 
  40bc3b:	c7 44 24 04 0a 00 00 	movl   $0xa,0x4(%esp)
  40bc42:	00 
  40bc43:	e8 18 13 00 00       	call   40cf60 <___multadd_D2A>
  40bc48:	83 44 24 5c 01       	addl   $0x1,0x5c(%esp)
  40bc4d:	89 c3                	mov    %eax,%ebx
  40bc4f:	89 7c 24 04          	mov    %edi,0x4(%esp)
  40bc53:	83 c6 01             	add    $0x1,%esi
  40bc56:	89 1c 24             	mov    %ebx,(%esp)
  40bc59:	e8 a2 0e 00 00       	call   40cb00 <___quorem_D2A>
  40bc5e:	83 c0 30             	add    $0x30,%eax
  40bc61:	88 46 ff             	mov    %al,-0x1(%esi)
  40bc64:	3b 6c 24 5c          	cmp    0x5c(%esp),%ebp
  40bc68:	7f c6                	jg     40bc30 <___gdtoa+0xd00>
  40bc6a:	89 44 24 10          	mov    %eax,0x10(%esp)
  40bc6e:	31 d2                	xor    %edx,%edx
  40bc70:	8b 44 24 2c          	mov    0x2c(%esp),%eax
  40bc74:	85 c0                	test   %eax,%eax
  40bc76:	0f 84 e5 03 00 00    	je     40c061 <___gdtoa+0x1131>
  40bc7c:	83 f8 02             	cmp    $0x2,%eax
  40bc7f:	0f 84 18 04 00 00    	je     40c09d <___gdtoa+0x116d>
  40bc85:	83 7b 10 01          	cmpl   $0x1,0x10(%ebx)
  40bc89:	0f 8e cb 05 00 00    	jle    40c25a <___gdtoa+0x132a>
  40bc8f:	0f b6 4e ff          	movzbl -0x1(%esi),%ecx
  40bc93:	8b 6c 24 24          	mov    0x24(%esp),%ebp
  40bc97:	eb 15                	jmp    40bcae <___gdtoa+0xd7e>
  40bc99:	8d b4 26 00 00 00 00 	lea    0x0(%esi,%eiz,1),%esi
  40bca0:	39 e8                	cmp    %ebp,%eax
  40bca2:	0f 84 a6 02 00 00    	je     40bf4e <___gdtoa+0x101e>
  40bca8:	0f b6 48 ff          	movzbl -0x1(%eax),%ecx
  40bcac:	89 c6                	mov    %eax,%esi
  40bcae:	80 f9 39             	cmp    $0x39,%cl
  40bcb1:	8d 46 ff             	lea    -0x1(%esi),%eax
  40bcb4:	74 ea                	je     40bca0 <___gdtoa+0xd70>
  40bcb6:	83 c1 01             	add    $0x1,%ecx
  40bcb9:	88 08                	mov    %cl,(%eax)
  40bcbb:	8b 44 24 0c          	mov    0xc(%esp),%eax
  40bcbf:	c7 44 24 18 20 00 00 	movl   $0x20,0x18(%esp)
  40bcc6:	00 
  40bcc7:	83 c0 01             	add    $0x1,%eax
  40bcca:	89 44 24 0c          	mov    %eax,0xc(%esp)
  40bcce:	e9 be fa ff ff       	jmp    40b791 <___gdtoa+0x861>
  40bcd3:	83 fd 01             	cmp    $0x1,%ebp
  40bcd6:	0f 85 68 f9 ff ff    	jne    40b644 <___gdtoa+0x714>
  40bcdc:	8b 84 24 80 00 00 00 	mov    0x80(%esp),%eax
  40bce3:	8b 40 04             	mov    0x4(%eax),%eax
  40bce6:	83 c0 01             	add    $0x1,%eax
  40bce9:	39 84 24 84 00 00 00 	cmp    %eax,0x84(%esp)
  40bcf0:	0f 8e 4e f9 ff ff    	jle    40b644 <___gdtoa+0x714>
  40bcf6:	83 44 24 28 01       	addl   $0x1,0x28(%esp)
  40bcfb:	83 44 24 1c 01       	addl   $0x1,0x1c(%esp)
  40bd00:	c7 44 24 10 01 00 00 	movl   $0x1,0x10(%esp)
  40bd07:	00 
  40bd08:	e9 37 f9 ff ff       	jmp    40b644 <___gdtoa+0x714>
  40bd0d:	dd d8                	fstp   %st(0)
  40bd0f:	8b 44 24 2c          	mov    0x2c(%esp),%eax
  40bd13:	85 c0                	test   %eax,%eax
  40bd15:	0f 84 fe 01 00 00    	je     40bf19 <___gdtoa+0xfe9>
  40bd1b:	dd d8                	fstp   %st(0)
  40bd1d:	dd d8                	fstp   %st(0)
  40bd1f:	83 7c 24 2c 01       	cmpl   $0x1,0x2c(%esp)
  40bd24:	0f 84 22 03 00 00    	je     40c04c <___gdtoa+0x111c>
  40bd2a:	8b 44 24 0c          	mov    0xc(%esp),%eax
  40bd2e:	e9 ff f6 ff ff       	jmp    40b432 <___gdtoa+0x502>
  40bd33:	ba 01 00 00 00       	mov    $0x1,%edx
  40bd38:	c7 84 24 94 00 00 00 	movl   $0x1,0x94(%esp)
  40bd3f:	01 00 00 00 
  40bd43:	e9 23 fb ff ff       	jmp    40b86b <___gdtoa+0x93b>
  40bd48:	83 7c 24 18 0e       	cmpl   $0xe,0x18(%esp)
  40bd4d:	c7 44 24 5c 01 00 00 	movl   $0x1,0x5c(%esp)
  40bd54:	00 
  40bd55:	0f 96 c2             	setbe  %dl
  40bd58:	21 c2                	and    %eax,%edx
  40bd5a:	b8 01 00 00 00       	mov    $0x1,%eax
  40bd5f:	e9 0f f5 ff ff       	jmp    40b273 <___gdtoa+0x343>
  40bd64:	89 c2                	mov    %eax,%edx
  40bd66:	31 ff                	xor    %edi,%edi
  40bd68:	2b 54 24 30          	sub    0x30(%esp),%edx
  40bd6c:	89 44 24 30          	mov    %eax,0x30(%esp)
  40bd70:	01 54 24 3c          	add    %edx,0x3c(%esp)
  40bd74:	e9 e9 f7 ff ff       	jmp    40b562 <___gdtoa+0x632>
  40bd79:	d9 7c 24 4e          	fnstcw 0x4e(%esp)
  40bd7d:	dd 44 24 10          	fldl   0x10(%esp)
  40bd81:	dc 0c d5 b8 03 41 00 	fmull  0x4103b8(,%edx,8)
  40bd88:	c7 44 24 5c 01 00 00 	movl   $0x1,0x5c(%esp)
  40bd8f:	00 
  40bd90:	8b 74 24 24          	mov    0x24(%esp),%esi
  40bd94:	0f b7 44 24 4e       	movzwl 0x4e(%esp),%eax
  40bd99:	b4 0c                	mov    $0xc,%ah
  40bd9b:	d9 05 74 03 41 00    	flds   0x410374
  40bda1:	d9 ca                	fxch   %st(2)
  40bda3:	66 89 44 24 4c       	mov    %ax,0x4c(%esp)
  40bda8:	eb 0f                	jmp    40bdb9 <___gdtoa+0xe89>
  40bdaa:	8d b6 00 00 00 00    	lea    0x0(%esi),%esi
  40bdb0:	d8 ca                	fmul   %st(2),%st
  40bdb2:	83 c0 01             	add    $0x1,%eax
  40bdb5:	89 44 24 5c          	mov    %eax,0x5c(%esp)
  40bdb9:	d9 6c 24 4c          	fldcw  0x4c(%esp)
  40bdbd:	db 54 24 48          	fistl  0x48(%esp)
  40bdc1:	d9 6c 24 4e          	fldcw  0x4e(%esp)
  40bdc5:	8b 44 24 48          	mov    0x48(%esp),%eax
  40bdc9:	85 c0                	test   %eax,%eax
  40bdcb:	74 0a                	je     40bdd7 <___gdtoa+0xea7>
  40bdcd:	89 44 24 48          	mov    %eax,0x48(%esp)
  40bdd1:	db 44 24 48          	fildl  0x48(%esp)
  40bdd5:	de e9                	fsubrp %st,%st(1)
  40bdd7:	83 c6 01             	add    $0x1,%esi
  40bdda:	8d 48 30             	lea    0x30(%eax),%ecx
  40bddd:	88 4e ff             	mov    %cl,-0x1(%esi)
  40bde0:	8b 44 24 5c          	mov    0x5c(%esp),%eax
  40bde4:	39 d0                	cmp    %edx,%eax
  40bde6:	75 c8                	jne    40bdb0 <___gdtoa+0xe80>
  40bde8:	dd da                	fstp   %st(2)
  40bdea:	d9 c9                	fxch   %st(1)
  40bdec:	d9 05 84 03 41 00    	flds   0x410384
  40bdf2:	d9 c2                	fld    %st(2)
  40bdf4:	d8 c1                	fadd   %st(1),%st
  40bdf6:	d9 ca                	fxch   %st(2)
  40bdf8:	dd e2                	fucom  %st(2)
  40bdfa:	df e0                	fnstsw %ax
  40bdfc:	dd da                	fstp   %st(2)
  40bdfe:	9e                   	sahf   
  40bdff:	0f 87 94 00 00 00    	ja     40be99 <___gdtoa+0xf69>
  40be05:	de e2                	fsubp  %st,%st(2)
  40be07:	d9 c9                	fxch   %st(1)
  40be09:	dd e9                	fucomp %st(1)
  40be0b:	df e0                	fnstsw %ax
  40be0d:	9e                   	sahf   
  40be0e:	0f 86 0c f7 ff ff    	jbe    40b520 <___gdtoa+0x5f0>
  40be14:	dd d9                	fstp   %st(1)
  40be16:	d9 ee                	fldz   
  40be18:	d9 c9                	fxch   %st(1)
  40be1a:	da e9                	fucompp 
  40be1c:	df e0                	fnstsw %ax
  40be1e:	9e                   	sahf   
  40be1f:	0f 8a 4d 04 00 00    	jp     40c272 <___gdtoa+0x1342>
  40be25:	0f 85 47 04 00 00    	jne    40c272 <___gdtoa+0x1342>
  40be2b:	c7 44 24 18 00 00 00 	movl   $0x0,0x18(%esp)
  40be32:	00 
  40be33:	eb 06                	jmp    40be3b <___gdtoa+0xf0b>
  40be35:	0f b6 48 ff          	movzbl -0x1(%eax),%ecx
  40be39:	89 c6                	mov    %eax,%esi
  40be3b:	80 f9 30             	cmp    $0x30,%cl
  40be3e:	8d 46 ff             	lea    -0x1(%esi),%eax
  40be41:	74 f2                	je     40be35 <___gdtoa+0xf05>
  40be43:	8b 44 24 38          	mov    0x38(%esp),%eax
  40be47:	83 c0 01             	add    $0x1,%eax
  40be4a:	89 44 24 0c          	mov    %eax,0xc(%esp)
  40be4e:	e9 6a f9 ff ff       	jmp    40b7bd <___gdtoa+0x88d>
  40be53:	dd d8                	fstp   %st(0)
  40be55:	dd d8                	fstp   %st(0)
  40be57:	dd d8                	fstp   %st(0)
  40be59:	c7 44 24 0c 02 00 00 	movl   $0x2,0xc(%esp)
  40be60:	00 
  40be61:	31 ff                	xor    %edi,%edi
  40be63:	c7 44 24 20 00 00 00 	movl   $0x0,0x20(%esp)
  40be6a:	00 
  40be6b:	e9 0d f9 ff ff       	jmp    40b77d <___gdtoa+0x84d>
  40be70:	8b 44 24 0c          	mov    0xc(%esp),%eax
  40be74:	83 e1 01             	and    $0x1,%ecx
  40be77:	0f b6 4e ff          	movzbl -0x1(%esi),%ecx
  40be7b:	89 44 24 38          	mov    %eax,0x38(%esp)
  40be7f:	0f 84 ed 03 00 00    	je     40c272 <___gdtoa+0x1342>
  40be85:	eb 1a                	jmp    40bea1 <___gdtoa+0xf71>
  40be87:	dd d8                	fstp   %st(0)
  40be89:	dd d8                	fstp   %st(0)
  40be8b:	dd d8                	fstp   %st(0)
  40be8d:	eb 12                	jmp    40bea1 <___gdtoa+0xf71>
  40be8f:	dd d8                	fstp   %st(0)
  40be91:	dd d8                	fstp   %st(0)
  40be93:	dd d8                	fstp   %st(0)
  40be95:	dd d8                	fstp   %st(0)
  40be97:	eb 08                	jmp    40bea1 <___gdtoa+0xf71>
  40be99:	dd d8                	fstp   %st(0)
  40be9b:	dd d8                	fstp   %st(0)
  40be9d:	dd d8                	fstp   %st(0)
  40be9f:	dd d8                	fstp   %st(0)
  40bea1:	8b 54 24 24          	mov    0x24(%esp),%edx
  40bea5:	eb 0e                	jmp    40beb5 <___gdtoa+0xf85>
  40bea7:	39 d0                	cmp    %edx,%eax
  40bea9:	0f 84 be 00 00 00    	je     40bf6d <___gdtoa+0x103d>
  40beaf:	0f b6 48 ff          	movzbl -0x1(%eax),%ecx
  40beb3:	89 c6                	mov    %eax,%esi
  40beb5:	80 f9 39             	cmp    $0x39,%cl
  40beb8:	8d 46 ff             	lea    -0x1(%esi),%eax
  40bebb:	74 ea                	je     40bea7 <___gdtoa+0xf77>
  40bebd:	89 54 24 24          	mov    %edx,0x24(%esp)
  40bec1:	83 c1 01             	add    $0x1,%ecx
  40bec4:	88 08                	mov    %cl,(%eax)
  40bec6:	8b 44 24 38          	mov    0x38(%esp),%eax
  40beca:	c7 44 24 18 20 00 00 	movl   $0x20,0x18(%esp)
  40bed1:	00 
  40bed2:	83 c0 01             	add    $0x1,%eax
  40bed5:	89 44 24 0c          	mov    %eax,0xc(%esp)
  40bed9:	e9 df f8 ff ff       	jmp    40b7bd <___gdtoa+0x88d>
  40bede:	8b b4 24 80 00 00 00 	mov    0x80(%esp),%esi
  40bee5:	29 ef                	sub    %ebp,%edi
  40bee7:	8b 54 24 20          	mov    0x20(%esp),%edx
  40beeb:	8d 47 01             	lea    0x1(%edi),%eax
  40beee:	89 44 24 5c          	mov    %eax,0x5c(%esp)
  40bef2:	8b 4e 04             	mov    0x4(%esi),%ecx
  40bef5:	29 fa                	sub    %edi,%edx
  40bef7:	39 ca                	cmp    %ecx,%edx
  40bef9:	0f 8d be 02 00 00    	jge    40c1bd <___gdtoa+0x128d>
  40beff:	8b 44 24 20          	mov    0x20(%esp),%eax
  40bf03:	8b 7c 24 30          	mov    0x30(%esp),%edi
  40bf07:	8b 74 24 28          	mov    0x28(%esp),%esi
  40bf0b:	29 c8                	sub    %ecx,%eax
  40bf0d:	83 c0 01             	add    $0x1,%eax
  40bf10:	89 44 24 5c          	mov    %eax,0x5c(%esp)
  40bf14:	e9 5d f6 ff ff       	jmp    40b576 <___gdtoa+0x646>
  40bf19:	d8 c0                	fadd   %st(0),%st
  40bf1b:	dd e1                	fucom  %st(1)
  40bf1d:	df e0                	fnstsw %ax
  40bf1f:	9e                   	sahf   
  40bf20:	0f 87 22 01 00 00    	ja     40c048 <___gdtoa+0x1118>
  40bf26:	d9 c9                	fxch   %st(1)
  40bf28:	da e9                	fucompp 
  40bf2a:	df e0                	fnstsw %ax
  40bf2c:	9e                   	sahf   
  40bf2d:	7a 06                	jp     40bf35 <___gdtoa+0x1005>
  40bf2f:	0f 84 3b ff ff ff    	je     40be70 <___gdtoa+0xf40>
  40bf35:	8b 44 24 0c          	mov    0xc(%esp),%eax
  40bf39:	0f b6 4e ff          	movzbl -0x1(%esi),%ecx
  40bf3d:	c7 44 24 18 10 00 00 	movl   $0x10,0x18(%esp)
  40bf44:	00 
  40bf45:	89 44 24 38          	mov    %eax,0x38(%esp)
  40bf49:	e9 ed fe ff ff       	jmp    40be3b <___gdtoa+0xf0b>
  40bf4e:	8b 44 24 24          	mov    0x24(%esp),%eax
  40bf52:	c7 44 24 18 20 00 00 	movl   $0x20,0x18(%esp)
  40bf59:	00 
  40bf5a:	c6 00 31             	movb   $0x31,(%eax)
  40bf5d:	8b 44 24 0c          	mov    0xc(%esp),%eax
  40bf61:	83 c0 02             	add    $0x2,%eax
  40bf64:	89 44 24 0c          	mov    %eax,0xc(%esp)
  40bf68:	e9 24 f8 ff ff       	jmp    40b791 <___gdtoa+0x861>
  40bf6d:	89 54 24 24          	mov    %edx,0x24(%esp)
  40bf71:	b9 31 00 00 00       	mov    $0x31,%ecx
  40bf76:	83 44 24 38 01       	addl   $0x1,0x38(%esp)
  40bf7b:	c6 02 30             	movb   $0x30,(%edx)
  40bf7e:	e9 41 ff ff ff       	jmp    40bec4 <___gdtoa+0xf94>
  40bf83:	8b 74 24 28          	mov    0x28(%esp),%esi
  40bf87:	31 c0                	xor    %eax,%eax
  40bf89:	2b 74 24 18          	sub    0x18(%esp),%esi
  40bf8d:	c7 44 24 5c 00 00 00 	movl   $0x0,0x5c(%esp)
  40bf94:	00 
  40bf95:	e9 dc f5 ff ff       	jmp    40b576 <___gdtoa+0x646>
  40bf9a:	8b 4c 24 2c          	mov    0x2c(%esp),%ecx
  40bf9e:	89 7c 24 20          	mov    %edi,0x20(%esp)
  40bfa2:	8b 74 24 28          	mov    0x28(%esp),%esi
  40bfa6:	8b 7c 24 1c          	mov    0x1c(%esp),%edi
  40bfaa:	8b 54 24 10          	mov    0x10(%esp),%edx
  40bfae:	85 c9                	test   %ecx,%ecx
  40bfb0:	0f 84 1e 02 00 00    	je     40c1d4 <___gdtoa+0x12a4>
  40bfb6:	83 7b 10 01          	cmpl   $0x1,0x10(%ebx)
  40bfba:	0f 8e 0a 02 00 00    	jle    40c1ca <___gdtoa+0x129a>
  40bfc0:	83 7c 24 2c 02       	cmpl   $0x2,0x2c(%esp)
  40bfc5:	75 3a                	jne    40c001 <___gdtoa+0x10d1>
  40bfc7:	e9 63 02 00 00       	jmp    40c22f <___gdtoa+0x12ff>
  40bfcc:	8d 74 26 00          	lea    0x0(%esi,%eiz,1),%esi
  40bfd0:	89 1c 24             	mov    %ebx,(%esp)
  40bfd3:	c7 44 24 08 00 00 00 	movl   $0x0,0x8(%esp)
  40bfda:	00 
  40bfdb:	c7 44 24 04 0a 00 00 	movl   $0xa,0x4(%esp)
  40bfe2:	00 
  40bfe3:	e8 78 0f 00 00       	call   40cf60 <___multadd_D2A>
  40bfe8:	89 7c 24 04          	mov    %edi,0x4(%esp)
  40bfec:	89 04 24             	mov    %eax,(%esp)
  40bfef:	89 c3                	mov    %eax,%ebx
  40bff1:	e8 0a 0b 00 00       	call   40cb00 <___quorem_D2A>
  40bff6:	8b 6c 24 18          	mov    0x18(%esp),%ebp
  40bffa:	83 c0 30             	add    $0x30,%eax
  40bffd:	89 44 24 10          	mov    %eax,0x10(%esp)
  40c001:	89 6c 24 04          	mov    %ebp,0x4(%esp)
  40c005:	89 3c 24             	mov    %edi,(%esp)
  40c008:	e8 63 14 00 00       	call   40d470 <___cmp_D2A>
  40c00d:	85 c0                	test   %eax,%eax
  40c00f:	0f 8e 88 02 00 00    	jle    40c29d <___gdtoa+0x136d>
  40c015:	0f b6 44 24 10       	movzbl 0x10(%esp),%eax
  40c01a:	83 c6 01             	add    $0x1,%esi
  40c01d:	88 46 ff             	mov    %al,-0x1(%esi)
  40c020:	c7 44 24 08 00 00 00 	movl   $0x0,0x8(%esp)
  40c027:	00 
  40c028:	c7 44 24 04 0a 00 00 	movl   $0xa,0x4(%esp)
  40c02f:	00 
  40c030:	89 2c 24             	mov    %ebp,(%esp)
  40c033:	e8 28 0f 00 00       	call   40cf60 <___multadd_D2A>
  40c038:	39 6c 24 20          	cmp    %ebp,0x20(%esp)
  40c03c:	89 44 24 18          	mov    %eax,0x18(%esp)
  40c040:	75 8e                	jne    40bfd0 <___gdtoa+0x10a0>
  40c042:	89 44 24 20          	mov    %eax,0x20(%esp)
  40c046:	eb 88                	jmp    40bfd0 <___gdtoa+0x10a0>
  40c048:	dd d8                	fstp   %st(0)
  40c04a:	dd d8                	fstp   %st(0)
  40c04c:	8b 44 24 0c          	mov    0xc(%esp),%eax
  40c050:	0f b6 4e ff          	movzbl -0x1(%esi),%ecx
  40c054:	8b 54 24 24          	mov    0x24(%esp),%edx
  40c058:	89 44 24 38          	mov    %eax,0x38(%esp)
  40c05c:	e9 54 fe ff ff       	jmp    40beb5 <___gdtoa+0xf85>
  40c061:	89 1c 24             	mov    %ebx,(%esp)
  40c064:	c7 44 24 04 01 00 00 	movl   $0x1,0x4(%esp)
  40c06b:	00 
  40c06c:	89 54 24 18          	mov    %edx,0x18(%esp)
  40c070:	e8 eb 12 00 00       	call   40d360 <___lshift_D2A>
  40c075:	89 7c 24 04          	mov    %edi,0x4(%esp)
  40c079:	89 04 24             	mov    %eax,(%esp)
  40c07c:	89 c3                	mov    %eax,%ebx
  40c07e:	e8 ed 13 00 00       	call   40d470 <___cmp_D2A>
  40c083:	8b 54 24 18          	mov    0x18(%esp),%edx
  40c087:	83 f8 00             	cmp    $0x0,%eax
  40c08a:	0f 8f ff fb ff ff    	jg     40bc8f <___gdtoa+0xd5f>
  40c090:	75 0b                	jne    40c09d <___gdtoa+0x116d>
  40c092:	f6 44 24 10 01       	testb  $0x1,0x10(%esp)
  40c097:	0f 85 f2 fb ff ff    	jne    40bc8f <___gdtoa+0xd5f>
  40c09d:	83 7b 10 01          	cmpl   $0x1,0x10(%ebx)
  40c0a1:	0f 8e dc 02 00 00    	jle    40c383 <___gdtoa+0x1453>
  40c0a7:	c7 44 24 18 10 00 00 	movl   $0x10,0x18(%esp)
  40c0ae:	00 
  40c0af:	eb 02                	jmp    40c0b3 <___gdtoa+0x1183>
  40c0b1:	89 c6                	mov    %eax,%esi
  40c0b3:	80 7e ff 30          	cmpb   $0x30,-0x1(%esi)
  40c0b7:	8d 46 ff             	lea    -0x1(%esi),%eax
  40c0ba:	74 f5                	je     40c0b1 <___gdtoa+0x1181>
  40c0bc:	8b 44 24 0c          	mov    0xc(%esp),%eax
  40c0c0:	83 c0 01             	add    $0x1,%eax
  40c0c3:	89 44 24 0c          	mov    %eax,0xc(%esp)
  40c0c7:	e9 c5 f6 ff ff       	jmp    40b791 <___gdtoa+0x861>
  40c0cc:	8b 44 24 18          	mov    0x18(%esp),%eax
  40c0d0:	85 c0                	test   %eax,%eax
  40c0d2:	0f 84 fa f3 ff ff    	je     40b4d2 <___gdtoa+0x5a2>
  40c0d8:	8b 54 24 44          	mov    0x44(%esp),%edx
  40c0dc:	85 d2                	test   %edx,%edx
  40c0de:	0f 8e 3e f4 ff ff    	jle    40b522 <___gdtoa+0x5f2>
  40c0e4:	d9 c0                	fld    %st(0)
  40c0e6:	d8 0d 74 03 41 00    	fmuls  0x410374
  40c0ec:	c7 44 24 38 ff ff ff 	movl   $0xffffffff,0x38(%esp)
  40c0f3:	ff 
  40c0f4:	d9 c0                	fld    %st(0)
  40c0f6:	d8 0d 78 03 41 00    	fmuls  0x410378
  40c0fc:	d8 05 7c 03 41 00    	fadds  0x41037c
  40c102:	dd 5c 24 10          	fstpl  0x10(%esp)
  40c106:	81 6c 24 14 00 00 40 	subl   $0x3400000,0x14(%esp)
  40c10d:	03 
  40c10e:	e9 02 f2 ff ff       	jmp    40b315 <___gdtoa+0x3e5>
  40c113:	8b 45 04             	mov    0x4(%ebp),%eax
  40c116:	89 04 24             	mov    %eax,(%esp)
  40c119:	e8 02 0d 00 00       	call   40ce20 <___Balloc_D2A>
  40c11e:	8d 48 0c             	lea    0xc(%eax),%ecx
  40c121:	89 c6                	mov    %eax,%esi
  40c123:	8b 45 10             	mov    0x10(%ebp),%eax
  40c126:	89 0c 24             	mov    %ecx,(%esp)
  40c129:	8d 14 85 08 00 00 00 	lea    0x8(,%eax,4),%edx
  40c130:	89 e8                	mov    %ebp,%eax
  40c132:	83 c0 0c             	add    $0xc,%eax
  40c135:	89 54 24 08          	mov    %edx,0x8(%esp)
  40c139:	89 44 24 04          	mov    %eax,0x4(%esp)
  40c13d:	e8 fe 18 00 00       	call   40da40 <_memcpy>
  40c142:	c7 44 24 04 01 00 00 	movl   $0x1,0x4(%esp)
  40c149:	00 
  40c14a:	89 34 24             	mov    %esi,(%esp)
  40c14d:	e8 0e 12 00 00       	call   40d360 <___lshift_D2A>
  40c152:	89 c5                	mov    %eax,%ebp
  40c154:	e9 d1 f8 ff ff       	jmp    40ba2a <___gdtoa+0xafa>
  40c159:	89 fa                	mov    %edi,%edx
  40c15b:	8b 74 24 28          	mov    0x28(%esp),%esi
  40c15f:	8b 7c 24 1c          	mov    0x1c(%esp),%edi
  40c163:	89 6c 24 20          	mov    %ebp,0x20(%esp)
  40c167:	e9 04 fb ff ff       	jmp    40bc70 <___gdtoa+0xd40>
  40c16c:	83 7c 24 2c 02       	cmpl   $0x2,0x2c(%esp)
  40c171:	0f 84 2c f9 ff ff    	je     40baa3 <___gdtoa+0xb73>
  40c177:	8b 74 24 28          	mov    0x28(%esp),%esi
  40c17b:	83 7c 24 10 39       	cmpl   $0x39,0x10(%esp)
  40c180:	89 7c 24 20          	mov    %edi,0x20(%esp)
  40c184:	8b 7c 24 1c          	mov    0x1c(%esp),%edi
  40c188:	89 f0                	mov    %esi,%eax
  40c18a:	0f 84 f1 00 00 00    	je     40c281 <___gdtoa+0x1351>
  40c190:	0f b6 4c 24 10       	movzbl 0x10(%esp),%ecx
  40c195:	83 c6 01             	add    $0x1,%esi
  40c198:	8b 54 24 20          	mov    0x20(%esp),%edx
  40c19c:	c7 44 24 18 20 00 00 	movl   $0x20,0x18(%esp)
  40c1a3:	00 
  40c1a4:	89 6c 24 20          	mov    %ebp,0x20(%esp)
  40c1a8:	83 c1 01             	add    $0x1,%ecx
  40c1ab:	88 08                	mov    %cl,(%eax)
  40c1ad:	8b 44 24 0c          	mov    0xc(%esp),%eax
  40c1b1:	83 c0 01             	add    $0x1,%eax
  40c1b4:	89 44 24 0c          	mov    %eax,0xc(%esp)
  40c1b8:	e9 d4 f5 ff ff       	jmp    40b791 <___gdtoa+0x861>
  40c1bd:	8b 7c 24 30          	mov    0x30(%esp),%edi
  40c1c1:	8b 74 24 28          	mov    0x28(%esp),%esi
  40c1c5:	e9 ac f3 ff ff       	jmp    40b576 <___gdtoa+0x646>
  40c1ca:	83 7b 14 00          	cmpl   $0x0,0x14(%ebx)
  40c1ce:	0f 85 ec fd ff ff    	jne    40bfc0 <___gdtoa+0x1090>
  40c1d4:	85 c0                	test   %eax,%eax
  40c1d6:	89 54 24 18          	mov    %edx,0x18(%esp)
  40c1da:	0f 8e d3 00 00 00    	jle    40c2b3 <___gdtoa+0x1383>
  40c1e0:	89 1c 24             	mov    %ebx,(%esp)
  40c1e3:	c7 44 24 04 01 00 00 	movl   $0x1,0x4(%esp)
  40c1ea:	00 
  40c1eb:	e8 70 11 00 00       	call   40d360 <___lshift_D2A>
  40c1f0:	89 7c 24 04          	mov    %edi,0x4(%esp)
  40c1f4:	89 04 24             	mov    %eax,(%esp)
  40c1f7:	89 c3                	mov    %eax,%ebx
  40c1f9:	e8 72 12 00 00       	call   40d470 <___cmp_D2A>
  40c1fe:	8b 54 24 18          	mov    0x18(%esp),%edx
  40c202:	83 f8 00             	cmp    $0x0,%eax
  40c205:	0f 8e 98 01 00 00    	jle    40c3a3 <___gdtoa+0x1473>
  40c20b:	8b 44 24 30          	mov    0x30(%esp),%eax
  40c20f:	83 c0 31             	add    $0x31,%eax
  40c212:	83 fa 39             	cmp    $0x39,%edx
  40c215:	89 44 24 10          	mov    %eax,0x10(%esp)
  40c219:	74 64                	je     40c27f <___gdtoa+0x134f>
  40c21b:	c7 44 24 18 20 00 00 	movl   $0x20,0x18(%esp)
  40c222:	00 
  40c223:	83 7b 10 01          	cmpl   $0x1,0x10(%ebx)
  40c227:	7f 06                	jg     40c22f <___gdtoa+0x12ff>
  40c229:	83 7b 14 00          	cmpl   $0x0,0x14(%ebx)
  40c22d:	74 08                	je     40c237 <___gdtoa+0x1307>
  40c22f:	c7 44 24 18 10 00 00 	movl   $0x10,0x18(%esp)
  40c236:	00 
  40c237:	0f b6 44 24 10       	movzbl 0x10(%esp),%eax
  40c23c:	83 c6 01             	add    $0x1,%esi
  40c23f:	8b 54 24 20          	mov    0x20(%esp),%edx
  40c243:	89 6c 24 20          	mov    %ebp,0x20(%esp)
  40c247:	88 46 ff             	mov    %al,-0x1(%esi)
  40c24a:	8b 44 24 0c          	mov    0xc(%esp),%eax
  40c24e:	83 c0 01             	add    $0x1,%eax
  40c251:	89 44 24 0c          	mov    %eax,0xc(%esp)
  40c255:	e9 37 f5 ff ff       	jmp    40b791 <___gdtoa+0x861>
  40c25a:	8b 4b 14             	mov    0x14(%ebx),%ecx
  40c25d:	85 c9                	test   %ecx,%ecx
  40c25f:	0f 85 2a fa ff ff    	jne    40bc8f <___gdtoa+0xd5f>
  40c265:	c7 44 24 18 00 00 00 	movl   $0x0,0x18(%esp)
  40c26c:	00 
  40c26d:	e9 41 fe ff ff       	jmp    40c0b3 <___gdtoa+0x1183>
  40c272:	c7 44 24 18 10 00 00 	movl   $0x10,0x18(%esp)
  40c279:	00 
  40c27a:	e9 bc fb ff ff       	jmp    40be3b <___gdtoa+0xf0b>
  40c27f:	89 f0                	mov    %esi,%eax
  40c281:	8b 54 24 20          	mov    0x20(%esp),%edx
  40c285:	83 c6 01             	add    $0x1,%esi
  40c288:	b9 39 00 00 00       	mov    $0x39,%ecx
  40c28d:	89 6c 24 20          	mov    %ebp,0x20(%esp)
  40c291:	8b 6c 24 24          	mov    0x24(%esp),%ebp
  40c295:	c6 00 39             	movb   $0x39,(%eax)
  40c298:	e9 11 fa ff ff       	jmp    40bcae <___gdtoa+0xd7e>
  40c29d:	83 7c 24 10 39       	cmpl   $0x39,0x10(%esp)
  40c2a2:	74 db                	je     40c27f <___gdtoa+0x134f>
  40c2a4:	83 44 24 10 01       	addl   $0x1,0x10(%esp)
  40c2a9:	c7 44 24 18 20 00 00 	movl   $0x20,0x18(%esp)
  40c2b0:	00 
  40c2b1:	eb 84                	jmp    40c237 <___gdtoa+0x1307>
  40c2b3:	c7 44 24 18 00 00 00 	movl   $0x0,0x18(%esp)
  40c2ba:	00 
  40c2bb:	e9 63 ff ff ff       	jmp    40c223 <___gdtoa+0x12f3>
  40c2c0:	0f 85 a8 f6 ff ff    	jne    40b96e <___gdtoa+0xa3e>
  40c2c6:	dd d8                	fstp   %st(0)
  40c2c8:	dd d8                	fstp   %st(0)
  40c2ca:	e9 0c f7 ff ff       	jmp    40b9db <___gdtoa+0xaab>
  40c2cf:	89 f1                	mov    %esi,%ecx
  40c2d1:	8b 74 24 28          	mov    0x28(%esp),%esi
  40c2d5:	83 7c 24 10 39       	cmpl   $0x39,0x10(%esp)
  40c2da:	89 7c 24 20          	mov    %edi,0x20(%esp)
  40c2de:	8b 7c 24 1c          	mov    0x1c(%esp),%edi
  40c2e2:	89 f0                	mov    %esi,%eax
  40c2e4:	74 99                	je     40c27f <___gdtoa+0x134f>
  40c2e6:	85 c9                	test   %ecx,%ecx
  40c2e8:	7e 73                	jle    40c35d <___gdtoa+0x142d>
  40c2ea:	8b 4c 24 30          	mov    0x30(%esp),%ecx
  40c2ee:	c7 44 24 18 20 00 00 	movl   $0x20,0x18(%esp)
  40c2f5:	00 
  40c2f6:	83 c1 31             	add    $0x31,%ecx
  40c2f9:	89 4c 24 10          	mov    %ecx,0x10(%esp)
  40c2fd:	0f b6 4c 24 10       	movzbl 0x10(%esp),%ecx
  40c302:	83 c6 01             	add    $0x1,%esi
  40c305:	8b 54 24 20          	mov    0x20(%esp),%edx
  40c309:	89 6c 24 20          	mov    %ebp,0x20(%esp)
  40c30d:	88 08                	mov    %cl,(%eax)
  40c30f:	8b 44 24 0c          	mov    0xc(%esp),%eax
  40c313:	83 c0 01             	add    $0x1,%eax
  40c316:	89 44 24 0c          	mov    %eax,0xc(%esp)
  40c31a:	e9 72 f4 ff ff       	jmp    40b791 <___gdtoa+0x861>
  40c31f:	8b 44 24 20          	mov    0x20(%esp),%eax
  40c323:	c7 44 24 08 00 00 00 	movl   $0x0,0x8(%esp)
  40c32a:	00 
  40c32b:	c7 44 24 04 0a 00 00 	movl   $0xa,0x4(%esp)
  40c332:	00 
  40c333:	89 04 24             	mov    %eax,(%esp)
  40c336:	e8 25 0c 00 00       	call   40cf60 <___multadd_D2A>
  40c33b:	83 7c 24 44 00       	cmpl   $0x0,0x44(%esp)
  40c340:	89 44 24 20          	mov    %eax,0x20(%esp)
  40c344:	8b 44 24 44          	mov    0x44(%esp),%eax
  40c348:	7f 0a                	jg     40c354 <___gdtoa+0x1424>
  40c34a:	83 bc 24 90 00 00 00 	cmpl   $0x2,0x90(%esp)
  40c351:	02 
  40c352:	7f 46                	jg     40c39a <___gdtoa+0x146a>
  40c354:	89 44 24 18          	mov    %eax,0x18(%esp)
  40c358:	e9 a2 f6 ff ff       	jmp    40b9ff <___gdtoa+0xacf>
  40c35d:	83 7b 10 01          	cmpl   $0x1,0x10(%ebx)
  40c361:	c7 44 24 18 10 00 00 	movl   $0x10,0x18(%esp)
  40c368:	00 
  40c369:	7f 92                	jg     40c2fd <___gdtoa+0x13cd>
  40c36b:	83 7b 14 01          	cmpl   $0x1,0x14(%ebx)
  40c36f:	19 c9                	sbb    %ecx,%ecx
  40c371:	89 4c 24 18          	mov    %ecx,0x18(%esp)
  40c375:	f7 54 24 18          	notl   0x18(%esp)
  40c379:	83 64 24 18 10       	andl   $0x10,0x18(%esp)
  40c37e:	e9 7a ff ff ff       	jmp    40c2fd <___gdtoa+0x13cd>
  40c383:	83 7b 14 00          	cmpl   $0x0,0x14(%ebx)
  40c387:	c7 44 24 18 00 00 00 	movl   $0x0,0x18(%esp)
  40c38e:	00 
  40c38f:	0f 85 12 fd ff ff    	jne    40c0a7 <___gdtoa+0x1177>
  40c395:	e9 19 fd ff ff       	jmp    40c0b3 <___gdtoa+0x1183>
  40c39a:	89 44 24 18          	mov    %eax,0x18(%esp)
  40c39e:	e9 21 f3 ff ff       	jmp    40b6c4 <___gdtoa+0x794>
  40c3a3:	0f 85 72 fe ff ff    	jne    40c21b <___gdtoa+0x12eb>
  40c3a9:	f6 44 24 10 01       	testb  $0x1,0x10(%esp)
  40c3ae:	66 90                	xchg   %ax,%ax
  40c3b0:	0f 84 65 fe ff ff    	je     40c21b <___gdtoa+0x12eb>
  40c3b6:	e9 50 fe ff ff       	jmp    40c20b <___gdtoa+0x12db>
  40c3bb:	31 c0                	xor    %eax,%eax
  40c3bd:	8d 76 00             	lea    0x0(%esi),%esi
  40c3c0:	e9 8f ec ff ff       	jmp    40b054 <___gdtoa+0x124>
  40c3c5:	b8 01 00 00 00       	mov    $0x1,%eax
  40c3ca:	e9 40 ee ff ff       	jmp    40b20f <___gdtoa+0x2df>
  40c3cf:	90                   	nop

0040c3d0 <___wcrtomb_cp>:
  40c3d0:	55                   	push   %ebp
  40c3d1:	89 e5                	mov    %esp,%ebp
  40c3d3:	83 ec 48             	sub    $0x48,%esp
  40c3d6:	8b 55 10             	mov    0x10(%ebp),%edx
  40c3d9:	8b 45 0c             	mov    0xc(%ebp),%eax
  40c3dc:	85 d2                	test   %edx,%edx
  40c3de:	66 89 45 e4          	mov    %ax,-0x1c(%ebp)
  40c3e2:	75 12                	jne    40c3f6 <___wcrtomb_cp+0x26>
  40c3e4:	66 3d ff 00          	cmp    $0xff,%ax
  40c3e8:	77 5d                	ja     40c447 <___wcrtomb_cp+0x77>
  40c3ea:	8b 4d 08             	mov    0x8(%ebp),%ecx
  40c3ed:	88 01                	mov    %al,(%ecx)
  40c3ef:	b8 01 00 00 00       	mov    $0x1,%eax
  40c3f4:	c9                   	leave  
  40c3f5:	c3                   	ret    
  40c3f6:	8d 45 f4             	lea    -0xc(%ebp),%eax
  40c3f9:	89 44 24 1c          	mov    %eax,0x1c(%esp)
  40c3fd:	8b 45 14             	mov    0x14(%ebp),%eax
  40c400:	c7 44 24 18 00 00 00 	movl   $0x0,0x18(%esp)
  40c407:	00 
  40c408:	c7 44 24 0c 01 00 00 	movl   $0x1,0xc(%esp)
  40c40f:	00 
  40c410:	c7 44 24 04 00 00 00 	movl   $0x0,0x4(%esp)
  40c417:	00 
  40c418:	89 44 24 14          	mov    %eax,0x14(%esp)
  40c41c:	8b 45 08             	mov    0x8(%ebp),%eax
  40c41f:	89 14 24             	mov    %edx,(%esp)
  40c422:	c7 45 f4 00 00 00 00 	movl   $0x0,-0xc(%ebp)
  40c429:	89 44 24 10          	mov    %eax,0x10(%esp)
  40c42d:	8d 45 e4             	lea    -0x1c(%ebp),%eax
  40c430:	89 44 24 08          	mov    %eax,0x8(%esp)
  40c434:	e8 e7 1e 00 00       	call   40e320 <_WideCharToMultiByte@32>
  40c439:	83 ec 20             	sub    $0x20,%esp
  40c43c:	85 c0                	test   %eax,%eax
  40c43e:	74 07                	je     40c447 <___wcrtomb_cp+0x77>
  40c440:	8b 55 f4             	mov    -0xc(%ebp),%edx
  40c443:	85 d2                	test   %edx,%edx
  40c445:	74 ad                	je     40c3f4 <___wcrtomb_cp+0x24>
  40c447:	e8 14 16 00 00       	call   40da60 <__errno>
  40c44c:	c7 00 2a 00 00 00    	movl   $0x2a,(%eax)
  40c452:	b8 ff ff ff ff       	mov    $0xffffffff,%eax
  40c457:	c9                   	leave  
  40c458:	c3                   	ret    
  40c459:	8d b4 26 00 00 00 00 	lea    0x0(%esi,%eiz,1),%esi

0040c460 <_wcrtomb>:
  40c460:	57                   	push   %edi
  40c461:	56                   	push   %esi
  40c462:	53                   	push   %ebx
  40c463:	83 ec 20             	sub    $0x20,%esp
  40c466:	8b 5c 24 30          	mov    0x30(%esp),%ebx
  40c46a:	8b 74 24 34          	mov    0x34(%esp),%esi
  40c46e:	85 db                	test   %ebx,%ebx
  40c470:	74 5e                	je     40c4d0 <_wcrtomb+0x70>
  40c472:	a1 28 42 41 00       	mov    0x414228,%eax
  40c477:	8b 38                	mov    (%eax),%edi
  40c479:	c7 44 24 04 00 00 00 	movl   $0x0,0x4(%esp)
  40c480:	00 
  40c481:	c7 04 24 02 00 00 00 	movl   $0x2,(%esp)
  40c488:	e8 db 15 00 00       	call   40da68 <_setlocale>
  40c48d:	c7 44 24 04 2e 00 00 	movl   $0x2e,0x4(%esp)
  40c494:	00 
  40c495:	89 04 24             	mov    %eax,(%esp)
  40c498:	e8 0b 16 00 00       	call   40daa8 <_strchr>
  40c49d:	31 d2                	xor    %edx,%edx
  40c49f:	85 c0                	test   %eax,%eax
  40c4a1:	74 0d                	je     40c4b0 <_wcrtomb+0x50>
  40c4a3:	83 c0 01             	add    $0x1,%eax
  40c4a6:	89 04 24             	mov    %eax,(%esp)
  40c4a9:	e8 02 16 00 00       	call   40dab0 <_atoi>
  40c4ae:	89 c2                	mov    %eax,%edx
  40c4b0:	0f b7 f6             	movzwl %si,%esi
  40c4b3:	89 7c 24 0c          	mov    %edi,0xc(%esp)
  40c4b7:	89 74 24 04          	mov    %esi,0x4(%esp)
  40c4bb:	89 1c 24             	mov    %ebx,(%esp)
  40c4be:	89 54 24 08          	mov    %edx,0x8(%esp)
  40c4c2:	e8 09 ff ff ff       	call   40c3d0 <___wcrtomb_cp>
  40c4c7:	83 c4 20             	add    $0x20,%esp
  40c4ca:	5b                   	pop    %ebx
  40c4cb:	5e                   	pop    %esi
  40c4cc:	5f                   	pop    %edi
  40c4cd:	c3                   	ret    
  40c4ce:	66 90                	xchg   %ax,%ax
  40c4d0:	8d 5c 24 1e          	lea    0x1e(%esp),%ebx
  40c4d4:	eb 9c                	jmp    40c472 <_wcrtomb+0x12>
  40c4d6:	8d 76 00             	lea    0x0(%esi),%esi
  40c4d9:	8d bc 27 00 00 00 00 	lea    0x0(%edi,%eiz,1),%edi

0040c4e0 <_wcsrtombs>:
  40c4e0:	55                   	push   %ebp
  40c4e1:	57                   	push   %edi
  40c4e2:	56                   	push   %esi
  40c4e3:	31 f6                	xor    %esi,%esi
  40c4e5:	53                   	push   %ebx
  40c4e6:	83 ec 3c             	sub    $0x3c,%esp
  40c4e9:	c7 44 24 04 00 00 00 	movl   $0x0,0x4(%esp)
  40c4f0:	00 
  40c4f1:	8b 5c 24 50          	mov    0x50(%esp),%ebx
  40c4f5:	c7 04 24 02 00 00 00 	movl   $0x2,(%esp)
  40c4fc:	e8 67 15 00 00       	call   40da68 <_setlocale>
  40c501:	c7 44 24 04 2e 00 00 	movl   $0x2e,0x4(%esp)
  40c508:	00 
  40c509:	89 04 24             	mov    %eax,(%esp)
  40c50c:	e8 97 15 00 00       	call   40daa8 <_strchr>
  40c511:	85 c0                	test   %eax,%eax
  40c513:	74 0d                	je     40c522 <_wcsrtombs+0x42>
  40c515:	83 c0 01             	add    $0x1,%eax
  40c518:	89 04 24             	mov    %eax,(%esp)
  40c51b:	e8 90 15 00 00       	call   40dab0 <_atoi>
  40c520:	89 c6                	mov    %eax,%esi
  40c522:	a1 28 42 41 00       	mov    0x414228,%eax
  40c527:	8b 00                	mov    (%eax),%eax
  40c529:	89 44 24 1c          	mov    %eax,0x1c(%esp)
  40c52d:	8b 44 24 54          	mov    0x54(%esp),%eax
  40c531:	8b 38                	mov    (%eax),%edi
  40c533:	85 ff                	test   %edi,%edi
  40c535:	0f 84 cc 00 00 00    	je     40c607 <_wcsrtombs+0x127>
  40c53b:	31 ed                	xor    %ebp,%ebp
  40c53d:	85 db                	test   %ebx,%ebx
  40c53f:	74 76                	je     40c5b7 <_wcsrtombs+0xd7>
  40c541:	8b 4c 24 58          	mov    0x58(%esp),%ecx
  40c545:	85 c9                	test   %ecx,%ecx
  40c547:	74 49                	je     40c592 <_wcsrtombs+0xb2>
  40c549:	89 f0                	mov    %esi,%eax
  40c54b:	89 fe                	mov    %edi,%esi
  40c54d:	89 c7                	mov    %eax,%edi
  40c54f:	eb 13                	jmp    40c564 <_wcsrtombs+0x84>
  40c551:	01 c3                	add    %eax,%ebx
  40c553:	01 c5                	add    %eax,%ebp
  40c555:	80 7b ff 00          	cmpb   $0x0,-0x1(%ebx)
  40c559:	74 47                	je     40c5a2 <_wcsrtombs+0xc2>
  40c55b:	83 c6 02             	add    $0x2,%esi
  40c55e:	39 6c 24 58          	cmp    %ebp,0x58(%esp)
  40c562:	76 2c                	jbe    40c590 <_wcsrtombs+0xb0>
  40c564:	8b 44 24 1c          	mov    0x1c(%esp),%eax
  40c568:	89 7c 24 08          	mov    %edi,0x8(%esp)
  40c56c:	89 44 24 0c          	mov    %eax,0xc(%esp)
  40c570:	0f b7 06             	movzwl (%esi),%eax
  40c573:	89 1c 24             	mov    %ebx,(%esp)
  40c576:	89 44 24 04          	mov    %eax,0x4(%esp)
  40c57a:	e8 51 fe ff ff       	call   40c3d0 <___wcrtomb_cp>
  40c57f:	85 c0                	test   %eax,%eax
  40c581:	7f ce                	jg     40c551 <_wcsrtombs+0x71>
  40c583:	b8 ff ff ff ff       	mov    $0xffffffff,%eax
  40c588:	83 c4 3c             	add    $0x3c,%esp
  40c58b:	5b                   	pop    %ebx
  40c58c:	5e                   	pop    %esi
  40c58d:	5f                   	pop    %edi
  40c58e:	5d                   	pop    %ebp
  40c58f:	c3                   	ret    
  40c590:	89 f7                	mov    %esi,%edi
  40c592:	8b 44 24 54          	mov    0x54(%esp),%eax
  40c596:	89 38                	mov    %edi,(%eax)
  40c598:	83 c4 3c             	add    $0x3c,%esp
  40c59b:	89 e8                	mov    %ebp,%eax
  40c59d:	5b                   	pop    %ebx
  40c59e:	5e                   	pop    %esi
  40c59f:	5f                   	pop    %edi
  40c5a0:	5d                   	pop    %ebp
  40c5a1:	c3                   	ret    
  40c5a2:	8b 44 24 54          	mov    0x54(%esp),%eax
  40c5a6:	c7 00 00 00 00 00    	movl   $0x0,(%eax)
  40c5ac:	83 c4 3c             	add    $0x3c,%esp
  40c5af:	5b                   	pop    %ebx
  40c5b0:	8d 45 ff             	lea    -0x1(%ebp),%eax
  40c5b3:	5e                   	pop    %esi
  40c5b4:	5f                   	pop    %edi
  40c5b5:	5d                   	pop    %ebp
  40c5b6:	c3                   	ret    
  40c5b7:	8b 44 24 58          	mov    0x58(%esp),%eax
  40c5bb:	85 c0                	test   %eax,%eax
  40c5bd:	74 63                	je     40c622 <_wcsrtombs+0x142>
  40c5bf:	89 e8                	mov    %ebp,%eax
  40c5c1:	8b 5c 24 1c          	mov    0x1c(%esp),%ebx
  40c5c5:	89 fd                	mov    %edi,%ebp
  40c5c7:	89 c7                	mov    %eax,%edi
  40c5c9:	eb 17                	jmp    40c5e2 <_wcsrtombs+0x102>
  40c5cb:	90                   	nop
  40c5cc:	8d 74 26 00          	lea    0x0(%esi,%eiz,1),%esi
  40c5d0:	01 c7                	add    %eax,%edi
  40c5d2:	80 7c 04 2d 00       	cmpb   $0x0,0x2d(%esp,%eax,1)
  40c5d7:	74 38                	je     40c611 <_wcsrtombs+0x131>
  40c5d9:	83 c5 02             	add    $0x2,%ebp
  40c5dc:	39 7c 24 58          	cmp    %edi,0x58(%esp)
  40c5e0:	76 37                	jbe    40c619 <_wcsrtombs+0x139>
  40c5e2:	89 5c 24 0c          	mov    %ebx,0xc(%esp)
  40c5e6:	89 74 24 08          	mov    %esi,0x8(%esp)
  40c5ea:	0f b7 45 00          	movzwl 0x0(%ebp),%eax
  40c5ee:	89 44 24 04          	mov    %eax,0x4(%esp)
  40c5f2:	8d 44 24 2e          	lea    0x2e(%esp),%eax
  40c5f6:	89 04 24             	mov    %eax,(%esp)
  40c5f9:	e8 d2 fd ff ff       	call   40c3d0 <___wcrtomb_cp>
  40c5fe:	85 c0                	test   %eax,%eax
  40c600:	7f ce                	jg     40c5d0 <_wcsrtombs+0xf0>
  40c602:	e9 7c ff ff ff       	jmp    40c583 <_wcsrtombs+0xa3>
  40c607:	83 c4 3c             	add    $0x3c,%esp
  40c60a:	31 c0                	xor    %eax,%eax
  40c60c:	5b                   	pop    %ebx
  40c60d:	5e                   	pop    %esi
  40c60e:	5f                   	pop    %edi
  40c60f:	5d                   	pop    %ebp
  40c610:	c3                   	ret    
  40c611:	8d 47 ff             	lea    -0x1(%edi),%eax
  40c614:	e9 6f ff ff ff       	jmp    40c588 <_wcsrtombs+0xa8>
  40c619:	89 fd                	mov    %edi,%ebp
  40c61b:	89 e8                	mov    %ebp,%eax
  40c61d:	e9 66 ff ff ff       	jmp    40c588 <_wcsrtombs+0xa8>
  40c622:	89 dd                	mov    %ebx,%ebp
  40c624:	89 e8                	mov    %ebp,%eax
  40c626:	e9 5d ff ff ff       	jmp    40c588 <_wcsrtombs+0xa8>
  40c62b:	90                   	nop
  40c62c:	90                   	nop
  40c62d:	90                   	nop
  40c62e:	90                   	nop
  40c62f:	90                   	nop

0040c630 <___mbrtowc_cp>:
  40c630:	55                   	push   %ebp
  40c631:	89 e5                	mov    %esp,%ebp
  40c633:	56                   	push   %esi
  40c634:	53                   	push   %ebx
  40c635:	83 ec 30             	sub    $0x30,%esp
  40c638:	8b 5d 0c             	mov    0xc(%ebp),%ebx
  40c63b:	8b 75 14             	mov    0x14(%ebp),%esi
  40c63e:	85 db                	test   %ebx,%ebx
  40c640:	0f 84 2d 01 00 00    	je     40c773 <___mbrtowc_cp+0x143>
  40c646:	8b 4d 10             	mov    0x10(%ebp),%ecx
  40c649:	85 c9                	test   %ecx,%ecx
  40c64b:	0f 84 2f 01 00 00    	je     40c780 <___mbrtowc_cp+0x150>
  40c651:	8b 06                	mov    (%esi),%eax
  40c653:	c7 06 00 00 00 00    	movl   $0x0,(%esi)
  40c659:	89 45 f4             	mov    %eax,-0xc(%ebp)
  40c65c:	0f b6 03             	movzbl (%ebx),%eax
  40c65f:	84 c0                	test   %al,%al
  40c661:	0f 84 99 00 00 00    	je     40c700 <___mbrtowc_cp+0xd0>
  40c667:	83 7d 1c 01          	cmpl   $0x1,0x1c(%ebp)
  40c66b:	76 73                	jbe    40c6e0 <___mbrtowc_cp+0xb0>
  40c66d:	80 7d f4 00          	cmpb   $0x0,-0xc(%ebp)
  40c671:	0f 85 9a 00 00 00    	jne    40c711 <___mbrtowc_cp+0xe1>
  40c677:	89 44 24 04          	mov    %eax,0x4(%esp)
  40c67b:	8b 45 18             	mov    0x18(%ebp),%eax
  40c67e:	89 04 24             	mov    %eax,(%esp)
  40c681:	e8 a2 1c 00 00       	call   40e328 <_IsDBCSLeadByteEx@8>
  40c686:	83 ec 08             	sub    $0x8,%esp
  40c689:	85 c0                	test   %eax,%eax
  40c68b:	74 53                	je     40c6e0 <___mbrtowc_cp+0xb0>
  40c68d:	83 7d 10 01          	cmpl   $0x1,0x10(%ebp)
  40c691:	0f 86 05 01 00 00    	jbe    40c79c <___mbrtowc_cp+0x16c>
  40c697:	8b 45 08             	mov    0x8(%ebp),%eax
  40c69a:	c7 44 24 14 01 00 00 	movl   $0x1,0x14(%esp)
  40c6a1:	00 
  40c6a2:	c7 44 24 0c 02 00 00 	movl   $0x2,0xc(%esp)
  40c6a9:	00 
  40c6aa:	89 5c 24 08          	mov    %ebx,0x8(%esp)
  40c6ae:	89 44 24 10          	mov    %eax,0x10(%esp)
  40c6b2:	8b 45 18             	mov    0x18(%ebp),%eax
  40c6b5:	c7 44 24 04 08 00 00 	movl   $0x8,0x4(%esp)
  40c6bc:	00 
  40c6bd:	89 04 24             	mov    %eax,(%esp)
  40c6c0:	e8 6b 1c 00 00       	call   40e330 <_MultiByteToWideChar@24>
  40c6c5:	83 ec 18             	sub    $0x18,%esp
  40c6c8:	85 c0                	test   %eax,%eax
  40c6ca:	0f 84 b7 00 00 00    	je     40c787 <___mbrtowc_cp+0x157>
  40c6d0:	8d 65 f8             	lea    -0x8(%ebp),%esp
  40c6d3:	b8 02 00 00 00       	mov    $0x2,%eax
  40c6d8:	5b                   	pop    %ebx
  40c6d9:	5e                   	pop    %esi
  40c6da:	5d                   	pop    %ebp
  40c6db:	c3                   	ret    
  40c6dc:	8d 74 26 00          	lea    0x0(%esi,%eiz,1),%esi
  40c6e0:	8b 45 18             	mov    0x18(%ebp),%eax
  40c6e3:	85 c0                	test   %eax,%eax
  40c6e5:	75 50                	jne    40c737 <___mbrtowc_cp+0x107>
  40c6e7:	0f b6 03             	movzbl (%ebx),%eax
  40c6ea:	8b 55 08             	mov    0x8(%ebp),%edx
  40c6ed:	66 89 02             	mov    %ax,(%edx)
  40c6f0:	8d 65 f8             	lea    -0x8(%ebp),%esp
  40c6f3:	b8 01 00 00 00       	mov    $0x1,%eax
  40c6f8:	5b                   	pop    %ebx
  40c6f9:	5e                   	pop    %esi
  40c6fa:	5d                   	pop    %ebp
  40c6fb:	c3                   	ret    
  40c6fc:	8d 74 26 00          	lea    0x0(%esi,%eiz,1),%esi
  40c700:	8b 45 08             	mov    0x8(%ebp),%eax
  40c703:	31 d2                	xor    %edx,%edx
  40c705:	66 89 10             	mov    %dx,(%eax)
  40c708:	31 c0                	xor    %eax,%eax
  40c70a:	8d 65 f8             	lea    -0x8(%ebp),%esp
  40c70d:	5b                   	pop    %ebx
  40c70e:	5e                   	pop    %esi
  40c70f:	5d                   	pop    %ebp
  40c710:	c3                   	ret    
  40c711:	88 45 f5             	mov    %al,-0xb(%ebp)
  40c714:	8b 45 08             	mov    0x8(%ebp),%eax
  40c717:	c7 44 24 14 01 00 00 	movl   $0x1,0x14(%esp)
  40c71e:	00 
  40c71f:	c7 44 24 0c 02 00 00 	movl   $0x2,0xc(%esp)
  40c726:	00 
  40c727:	89 44 24 10          	mov    %eax,0x10(%esp)
  40c72b:	8d 45 f4             	lea    -0xc(%ebp),%eax
  40c72e:	89 44 24 08          	mov    %eax,0x8(%esp)
  40c732:	e9 7b ff ff ff       	jmp    40c6b2 <___mbrtowc_cp+0x82>
  40c737:	8b 45 08             	mov    0x8(%ebp),%eax
  40c73a:	c7 44 24 14 01 00 00 	movl   $0x1,0x14(%esp)
  40c741:	00 
  40c742:	c7 44 24 0c 01 00 00 	movl   $0x1,0xc(%esp)
  40c749:	00 
  40c74a:	89 5c 24 08          	mov    %ebx,0x8(%esp)
  40c74e:	89 44 24 10          	mov    %eax,0x10(%esp)
  40c752:	8b 45 18             	mov    0x18(%ebp),%eax
  40c755:	c7 44 24 04 08 00 00 	movl   $0x8,0x4(%esp)
  40c75c:	00 
  40c75d:	89 04 24             	mov    %eax,(%esp)
  40c760:	e8 cb 1b 00 00       	call   40e330 <_MultiByteToWideChar@24>
  40c765:	83 ec 18             	sub    $0x18,%esp
  40c768:	85 c0                	test   %eax,%eax
  40c76a:	74 1b                	je     40c787 <___mbrtowc_cp+0x157>
  40c76c:	b8 01 00 00 00       	mov    $0x1,%eax
  40c771:	eb 97                	jmp    40c70a <___mbrtowc_cp+0xda>
  40c773:	8d 65 f8             	lea    -0x8(%ebp),%esp
  40c776:	31 c0                	xor    %eax,%eax
  40c778:	5b                   	pop    %ebx
  40c779:	5e                   	pop    %esi
  40c77a:	5d                   	pop    %ebp
  40c77b:	c3                   	ret    
  40c77c:	8d 74 26 00          	lea    0x0(%esi,%eiz,1),%esi
  40c780:	b8 fe ff ff ff       	mov    $0xfffffffe,%eax
  40c785:	eb 83                	jmp    40c70a <___mbrtowc_cp+0xda>
  40c787:	e8 d4 12 00 00       	call   40da60 <__errno>
  40c78c:	c7 00 2a 00 00 00    	movl   $0x2a,(%eax)
  40c792:	b8 ff ff ff ff       	mov    $0xffffffff,%eax
  40c797:	e9 6e ff ff ff       	jmp    40c70a <___mbrtowc_cp+0xda>
  40c79c:	0f b6 03             	movzbl (%ebx),%eax
  40c79f:	88 06                	mov    %al,(%esi)
  40c7a1:	b8 fe ff ff ff       	mov    $0xfffffffe,%eax
  40c7a6:	e9 5f ff ff ff       	jmp    40c70a <___mbrtowc_cp+0xda>
  40c7ab:	90                   	nop
  40c7ac:	8d 74 26 00          	lea    0x0(%esi,%eiz,1),%esi

0040c7b0 <_mbrtowc>:
  40c7b0:	56                   	push   %esi
  40c7b1:	31 f6                	xor    %esi,%esi
  40c7b3:	53                   	push   %ebx
  40c7b4:	83 ec 34             	sub    $0x34,%esp
  40c7b7:	8b 5c 24 40          	mov    0x40(%esp),%ebx
  40c7bb:	66 89 74 24 2e       	mov    %si,0x2e(%esp)
  40c7c0:	85 db                	test   %ebx,%ebx
  40c7c2:	74 70                	je     40c834 <_mbrtowc+0x84>
  40c7c4:	a1 28 42 41 00       	mov    0x414228,%eax
  40c7c9:	8b 30                	mov    (%eax),%esi
  40c7cb:	c7 44 24 04 00 00 00 	movl   $0x0,0x4(%esp)
  40c7d2:	00 
  40c7d3:	c7 04 24 02 00 00 00 	movl   $0x2,(%esp)
  40c7da:	e8 89 12 00 00       	call   40da68 <_setlocale>
  40c7df:	c7 44 24 04 2e 00 00 	movl   $0x2e,0x4(%esp)
  40c7e6:	00 
  40c7e7:	89 04 24             	mov    %eax,(%esp)
  40c7ea:	e8 b9 12 00 00       	call   40daa8 <_strchr>
  40c7ef:	31 c9                	xor    %ecx,%ecx
  40c7f1:	85 c0                	test   %eax,%eax
  40c7f3:	74 0d                	je     40c802 <_mbrtowc+0x52>
  40c7f5:	83 c0 01             	add    $0x1,%eax
  40c7f8:	89 04 24             	mov    %eax,(%esp)
  40c7fb:	e8 b0 12 00 00       	call   40dab0 <_atoi>
  40c800:	89 c1                	mov    %eax,%ecx
  40c802:	8b 54 24 4c          	mov    0x4c(%esp),%edx
  40c806:	85 d2                	test   %edx,%edx
  40c808:	74 36                	je     40c840 <_mbrtowc+0x90>
  40c80a:	8b 44 24 48          	mov    0x48(%esp),%eax
  40c80e:	89 74 24 14          	mov    %esi,0x14(%esp)
  40c812:	89 1c 24             	mov    %ebx,(%esp)
  40c815:	89 4c 24 10          	mov    %ecx,0x10(%esp)
  40c819:	89 44 24 08          	mov    %eax,0x8(%esp)
  40c81d:	8b 44 24 44          	mov    0x44(%esp),%eax
  40c821:	89 54 24 0c          	mov    %edx,0xc(%esp)
  40c825:	89 44 24 04          	mov    %eax,0x4(%esp)
  40c829:	e8 02 fe ff ff       	call   40c630 <___mbrtowc_cp>
  40c82e:	83 c4 34             	add    $0x34,%esp
  40c831:	5b                   	pop    %ebx
  40c832:	5e                   	pop    %esi
  40c833:	c3                   	ret    
  40c834:	8d 5c 24 2e          	lea    0x2e(%esp),%ebx
  40c838:	eb 8a                	jmp    40c7c4 <_mbrtowc+0x14>
  40c83a:	8d b6 00 00 00 00    	lea    0x0(%esi),%esi
  40c840:	ba 94 30 41 00       	mov    $0x413094,%edx
  40c845:	eb c3                	jmp    40c80a <_mbrtowc+0x5a>
  40c847:	89 f6                	mov    %esi,%esi
  40c849:	8d bc 27 00 00 00 00 	lea    0x0(%edi,%eiz,1),%edi

0040c850 <_mbsrtowcs>:
  40c850:	55                   	push   %ebp
  40c851:	57                   	push   %edi
  40c852:	56                   	push   %esi
  40c853:	53                   	push   %ebx
  40c854:	83 ec 3c             	sub    $0x3c,%esp
  40c857:	8b 44 24 5c          	mov    0x5c(%esp),%eax
  40c85b:	8b 5c 24 50          	mov    0x50(%esp),%ebx
  40c85f:	8b 74 24 54          	mov    0x54(%esp),%esi
  40c863:	8b 7c 24 58          	mov    0x58(%esp),%edi
  40c867:	85 c0                	test   %eax,%eax
  40c869:	0f 84 41 01 00 00    	je     40c9b0 <_mbsrtowcs+0x160>
  40c86f:	c7 44 24 04 00 00 00 	movl   $0x0,0x4(%esp)
  40c876:	00 
  40c877:	c7 04 24 02 00 00 00 	movl   $0x2,(%esp)
  40c87e:	e8 e5 11 00 00       	call   40da68 <_setlocale>
  40c883:	c7 44 24 04 2e 00 00 	movl   $0x2e,0x4(%esp)
  40c88a:	00 
  40c88b:	89 04 24             	mov    %eax,(%esp)
  40c88e:	e8 15 12 00 00       	call   40daa8 <_strchr>
  40c893:	c7 44 24 18 00 00 00 	movl   $0x0,0x18(%esp)
  40c89a:	00 
  40c89b:	85 c0                	test   %eax,%eax
  40c89d:	74 0f                	je     40c8ae <_mbsrtowcs+0x5e>
  40c89f:	83 c0 01             	add    $0x1,%eax
  40c8a2:	89 04 24             	mov    %eax,(%esp)
  40c8a5:	e8 06 12 00 00       	call   40dab0 <_atoi>
  40c8aa:	89 44 24 18          	mov    %eax,0x18(%esp)
  40c8ae:	a1 28 42 41 00       	mov    0x414228,%eax
  40c8b3:	85 f6                	test   %esi,%esi
  40c8b5:	8b 00                	mov    (%eax),%eax
  40c8b7:	89 44 24 1c          	mov    %eax,0x1c(%esp)
  40c8bb:	0f 84 df 00 00 00    	je     40c9a0 <_mbsrtowcs+0x150>
  40c8c1:	8b 0e                	mov    (%esi),%ecx
  40c8c3:	85 c9                	test   %ecx,%ecx
  40c8c5:	0f 84 d5 00 00 00    	je     40c9a0 <_mbsrtowcs+0x150>
  40c8cb:	85 db                	test   %ebx,%ebx
  40c8cd:	74 71                	je     40c940 <_mbsrtowcs+0xf0>
  40c8cf:	85 ff                	test   %edi,%edi
  40c8d1:	0f 84 c9 00 00 00    	je     40c9a0 <_mbsrtowcs+0x150>
  40c8d7:	89 74 24 54          	mov    %esi,0x54(%esp)
  40c8db:	31 ed                	xor    %ebp,%ebp
  40c8dd:	89 de                	mov    %ebx,%esi
  40c8df:	8b 5c 24 54          	mov    0x54(%esp),%ebx
  40c8e3:	eb 0f                	jmp    40c8f4 <_mbsrtowcs+0xa4>
  40c8e5:	8b 0b                	mov    (%ebx),%ecx
  40c8e7:	01 c5                	add    %eax,%ebp
  40c8e9:	83 c6 02             	add    $0x2,%esi
  40c8ec:	01 c1                	add    %eax,%ecx
  40c8ee:	39 ef                	cmp    %ebp,%edi
  40c8f0:	89 0b                	mov    %ecx,(%ebx)
  40c8f2:	76 30                	jbe    40c924 <_mbsrtowcs+0xd4>
  40c8f4:	8b 44 24 1c          	mov    0x1c(%esp),%eax
  40c8f8:	89 4c 24 04          	mov    %ecx,0x4(%esp)
  40c8fc:	89 34 24             	mov    %esi,(%esp)
  40c8ff:	89 44 24 14          	mov    %eax,0x14(%esp)
  40c903:	8b 44 24 18          	mov    0x18(%esp),%eax
  40c907:	89 44 24 10          	mov    %eax,0x10(%esp)
  40c90b:	8b 44 24 5c          	mov    0x5c(%esp),%eax
  40c90f:	89 44 24 0c          	mov    %eax,0xc(%esp)
  40c913:	89 f8                	mov    %edi,%eax
  40c915:	29 e8                	sub    %ebp,%eax
  40c917:	89 44 24 08          	mov    %eax,0x8(%esp)
  40c91b:	e8 10 fd ff ff       	call   40c630 <___mbrtowc_cp>
  40c920:	85 c0                	test   %eax,%eax
  40c922:	7f c1                	jg     40c8e5 <_mbsrtowcs+0x95>
  40c924:	85 c0                	test   %eax,%eax
  40c926:	75 6e                	jne    40c996 <_mbsrtowcs+0x146>
  40c928:	39 fd                	cmp    %edi,%ebp
  40c92a:	73 6a                	jae    40c996 <_mbsrtowcs+0x146>
  40c92c:	c7 03 00 00 00 00    	movl   $0x0,(%ebx)
  40c932:	83 c4 3c             	add    $0x3c,%esp
  40c935:	89 e8                	mov    %ebp,%eax
  40c937:	5b                   	pop    %ebx
  40c938:	5e                   	pop    %esi
  40c939:	5f                   	pop    %edi
  40c93a:	5d                   	pop    %ebp
  40c93b:	c3                   	ret    
  40c93c:	8d 74 26 00          	lea    0x0(%esi,%eiz,1),%esi
  40c940:	31 ed                	xor    %ebp,%ebp
  40c942:	66 89 6c 24 2e       	mov    %bp,0x2e(%esp)
  40c947:	31 ed                	xor    %ebp,%ebp
  40c949:	85 ff                	test   %edi,%edi
  40c94b:	74 49                	je     40c996 <_mbsrtowcs+0x146>
  40c94d:	89 7c 24 58          	mov    %edi,0x58(%esp)
  40c951:	8d 5c 24 2e          	lea    0x2e(%esp),%ebx
  40c955:	89 f7                	mov    %esi,%edi
  40c957:	8b 74 24 1c          	mov    0x1c(%esp),%esi
  40c95b:	eb 11                	jmp    40c96e <_mbsrtowcs+0x11e>
  40c95d:	8d 76 00             	lea    0x0(%esi),%esi
  40c960:	8b 0f                	mov    (%edi),%ecx
  40c962:	01 c5                	add    %eax,%ebp
  40c964:	01 c1                	add    %eax,%ecx
  40c966:	39 6c 24 58          	cmp    %ebp,0x58(%esp)
  40c96a:	89 0f                	mov    %ecx,(%edi)
  40c96c:	76 28                	jbe    40c996 <_mbsrtowcs+0x146>
  40c96e:	8b 44 24 18          	mov    0x18(%esp),%eax
  40c972:	89 74 24 14          	mov    %esi,0x14(%esp)
  40c976:	89 74 24 08          	mov    %esi,0x8(%esp)
  40c97a:	89 4c 24 04          	mov    %ecx,0x4(%esp)
  40c97e:	89 44 24 10          	mov    %eax,0x10(%esp)
  40c982:	8b 44 24 5c          	mov    0x5c(%esp),%eax
  40c986:	89 1c 24             	mov    %ebx,(%esp)
  40c989:	89 44 24 0c          	mov    %eax,0xc(%esp)
  40c98d:	e8 9e fc ff ff       	call   40c630 <___mbrtowc_cp>
  40c992:	85 c0                	test   %eax,%eax
  40c994:	7f ca                	jg     40c960 <_mbsrtowcs+0x110>
  40c996:	83 c4 3c             	add    $0x3c,%esp
  40c999:	89 e8                	mov    %ebp,%eax
  40c99b:	5b                   	pop    %ebx
  40c99c:	5e                   	pop    %esi
  40c99d:	5f                   	pop    %edi
  40c99e:	5d                   	pop    %ebp
  40c99f:	c3                   	ret    
  40c9a0:	83 c4 3c             	add    $0x3c,%esp
  40c9a3:	31 c0                	xor    %eax,%eax
  40c9a5:	5b                   	pop    %ebx
  40c9a6:	5e                   	pop    %esi
  40c9a7:	5f                   	pop    %edi
  40c9a8:	5d                   	pop    %ebp
  40c9a9:	c3                   	ret    
  40c9aa:	8d b6 00 00 00 00    	lea    0x0(%esi),%esi
  40c9b0:	c7 44 24 5c 90 30 41 	movl   $0x413090,0x5c(%esp)
  40c9b7:	00 
  40c9b8:	e9 b2 fe ff ff       	jmp    40c86f <_mbsrtowcs+0x1f>
  40c9bd:	8d 76 00             	lea    0x0(%esi),%esi

0040c9c0 <_mbrlen>:
  40c9c0:	53                   	push   %ebx
  40c9c1:	31 c0                	xor    %eax,%eax
  40c9c3:	83 ec 38             	sub    $0x38,%esp
  40c9c6:	66 89 44 24 2e       	mov    %ax,0x2e(%esp)
  40c9cb:	a1 28 42 41 00       	mov    0x414228,%eax
  40c9d0:	8b 18                	mov    (%eax),%ebx
  40c9d2:	c7 44 24 04 00 00 00 	movl   $0x0,0x4(%esp)
  40c9d9:	00 
  40c9da:	c7 04 24 02 00 00 00 	movl   $0x2,(%esp)
  40c9e1:	e8 82 10 00 00       	call   40da68 <_setlocale>
  40c9e6:	c7 44 24 04 2e 00 00 	movl   $0x2e,0x4(%esp)
  40c9ed:	00 
  40c9ee:	89 04 24             	mov    %eax,(%esp)
  40c9f1:	e8 b2 10 00 00       	call   40daa8 <_strchr>
  40c9f6:	31 c9                	xor    %ecx,%ecx
  40c9f8:	85 c0                	test   %eax,%eax
  40c9fa:	74 0d                	je     40ca09 <_mbrlen+0x49>
  40c9fc:	83 c0 01             	add    $0x1,%eax
  40c9ff:	89 04 24             	mov    %eax,(%esp)
  40ca02:	e8 a9 10 00 00       	call   40dab0 <_atoi>
  40ca07:	89 c1                	mov    %eax,%ecx
  40ca09:	8b 54 24 48          	mov    0x48(%esp),%edx
  40ca0d:	85 d2                	test   %edx,%edx
  40ca0f:	74 2f                	je     40ca40 <_mbrlen+0x80>
  40ca11:	8b 44 24 44          	mov    0x44(%esp),%eax
  40ca15:	89 5c 24 14          	mov    %ebx,0x14(%esp)
  40ca19:	89 4c 24 10          	mov    %ecx,0x10(%esp)
  40ca1d:	89 54 24 0c          	mov    %edx,0xc(%esp)
  40ca21:	89 44 24 08          	mov    %eax,0x8(%esp)
  40ca25:	8b 44 24 40          	mov    0x40(%esp),%eax
  40ca29:	89 44 24 04          	mov    %eax,0x4(%esp)
  40ca2d:	8d 44 24 2e          	lea    0x2e(%esp),%eax
  40ca31:	89 04 24             	mov    %eax,(%esp)
  40ca34:	e8 f7 fb ff ff       	call   40c630 <___mbrtowc_cp>
  40ca39:	83 c4 38             	add    $0x38,%esp
  40ca3c:	5b                   	pop    %ebx
  40ca3d:	c3                   	ret    
  40ca3e:	66 90                	xchg   %ax,%ax
  40ca40:	ba 8c 30 41 00       	mov    $0x41308c,%edx
  40ca45:	eb ca                	jmp    40ca11 <_mbrlen+0x51>
  40ca47:	90                   	nop
  40ca48:	90                   	nop
  40ca49:	90                   	nop
  40ca4a:	90                   	nop
  40ca4b:	90                   	nop
  40ca4c:	90                   	nop
  40ca4d:	90                   	nop
  40ca4e:	90                   	nop
  40ca4f:	90                   	nop

0040ca50 <___rv_alloc_D2A>:
  40ca50:	53                   	push   %ebx
  40ca51:	31 db                	xor    %ebx,%ebx
  40ca53:	83 ec 18             	sub    $0x18,%esp
  40ca56:	8b 4c 24 20          	mov    0x20(%esp),%ecx
  40ca5a:	83 f9 13             	cmp    $0x13,%ecx
  40ca5d:	76 11                	jbe    40ca70 <___rv_alloc_D2A+0x20>
  40ca5f:	b8 04 00 00 00       	mov    $0x4,%eax
  40ca64:	01 c0                	add    %eax,%eax
  40ca66:	83 c3 01             	add    $0x1,%ebx
  40ca69:	8d 50 10             	lea    0x10(%eax),%edx
  40ca6c:	39 ca                	cmp    %ecx,%edx
  40ca6e:	76 f4                	jbe    40ca64 <___rv_alloc_D2A+0x14>
  40ca70:	89 1c 24             	mov    %ebx,(%esp)
  40ca73:	e8 a8 03 00 00       	call   40ce20 <___Balloc_D2A>
  40ca78:	89 18                	mov    %ebx,(%eax)
  40ca7a:	83 c4 18             	add    $0x18,%esp
  40ca7d:	83 c0 04             	add    $0x4,%eax
  40ca80:	5b                   	pop    %ebx
  40ca81:	c3                   	ret    
  40ca82:	8d b4 26 00 00 00 00 	lea    0x0(%esi,%eiz,1),%esi
  40ca89:	8d bc 27 00 00 00 00 	lea    0x0(%edi,%eiz,1),%edi

0040ca90 <___nrv_alloc_D2A>:
  40ca90:	56                   	push   %esi
  40ca91:	53                   	push   %ebx
  40ca92:	83 ec 14             	sub    $0x14,%esp
  40ca95:	8b 44 24 28          	mov    0x28(%esp),%eax
  40ca99:	8b 5c 24 20          	mov    0x20(%esp),%ebx
  40ca9d:	8b 74 24 24          	mov    0x24(%esp),%esi
  40caa1:	89 04 24             	mov    %eax,(%esp)
  40caa4:	e8 a7 ff ff ff       	call   40ca50 <___rv_alloc_D2A>
  40caa9:	0f b6 13             	movzbl (%ebx),%edx
  40caac:	8d 4b 01             	lea    0x1(%ebx),%ecx
  40caaf:	84 d2                	test   %dl,%dl
  40cab1:	88 10                	mov    %dl,(%eax)
  40cab3:	89 c2                	mov    %eax,%edx
  40cab5:	74 10                	je     40cac7 <___nrv_alloc_D2A+0x37>
  40cab7:	83 c1 01             	add    $0x1,%ecx
  40caba:	0f b6 59 ff          	movzbl -0x1(%ecx),%ebx
  40cabe:	83 c2 01             	add    $0x1,%edx
  40cac1:	84 db                	test   %bl,%bl
  40cac3:	88 1a                	mov    %bl,(%edx)
  40cac5:	75 f0                	jne    40cab7 <___nrv_alloc_D2A+0x27>
  40cac7:	85 f6                	test   %esi,%esi
  40cac9:	74 02                	je     40cacd <___nrv_alloc_D2A+0x3d>
  40cacb:	89 16                	mov    %edx,(%esi)
  40cacd:	83 c4 14             	add    $0x14,%esp
  40cad0:	5b                   	pop    %ebx
  40cad1:	5e                   	pop    %esi
  40cad2:	c3                   	ret    
  40cad3:	8d b6 00 00 00 00    	lea    0x0(%esi),%esi
  40cad9:	8d bc 27 00 00 00 00 	lea    0x0(%edi,%eiz,1),%edi

0040cae0 <___freedtoa>:
  40cae0:	8b 44 24 04          	mov    0x4(%esp),%eax
  40cae4:	ba 01 00 00 00       	mov    $0x1,%edx
  40cae9:	8b 48 fc             	mov    -0x4(%eax),%ecx
  40caec:	83 e8 04             	sub    $0x4,%eax
  40caef:	d3 e2                	shl    %cl,%edx
  40caf1:	89 48 04             	mov    %ecx,0x4(%eax)
  40caf4:	89 50 08             	mov    %edx,0x8(%eax)
  40caf7:	89 44 24 04          	mov    %eax,0x4(%esp)
  40cafb:	e9 f0 03 00 00       	jmp    40cef0 <___Bfree_D2A>

0040cb00 <___quorem_D2A>:
  40cb00:	55                   	push   %ebp
  40cb01:	57                   	push   %edi
  40cb02:	56                   	push   %esi
  40cb03:	53                   	push   %ebx
  40cb04:	83 ec 4c             	sub    $0x4c,%esp
  40cb07:	8b 44 24 64          	mov    0x64(%esp),%eax
  40cb0b:	8b 7c 24 60          	mov    0x60(%esp),%edi
  40cb0f:	8b 50 10             	mov    0x10(%eax),%edx
  40cb12:	31 c0                	xor    %eax,%eax
  40cb14:	3b 57 10             	cmp    0x10(%edi),%edx
  40cb17:	0f 8f d6 01 00 00    	jg     40ccf3 <___quorem_D2A+0x1f3>
  40cb1d:	8b 44 24 64          	mov    0x64(%esp),%eax
  40cb21:	8b 74 24 60          	mov    0x60(%esp),%esi
  40cb25:	83 c0 14             	add    $0x14,%eax
  40cb28:	89 c7                	mov    %eax,%edi
  40cb2a:	89 44 24 38          	mov    %eax,0x38(%esp)
  40cb2e:	8d 42 ff             	lea    -0x1(%edx),%eax
  40cb31:	31 d2                	xor    %edx,%edx
  40cb33:	89 44 24 30          	mov    %eax,0x30(%esp)
  40cb37:	c1 e0 02             	shl    $0x2,%eax
  40cb3a:	01 c7                	add    %eax,%edi
  40cb3c:	8d 5e 14             	lea    0x14(%esi),%ebx
  40cb3f:	01 d8                	add    %ebx,%eax
  40cb41:	89 7c 24 28          	mov    %edi,0x28(%esp)
  40cb45:	8b 3f                	mov    (%edi),%edi
  40cb47:	89 44 24 3c          	mov    %eax,0x3c(%esp)
  40cb4b:	8b 00                	mov    (%eax),%eax
  40cb4d:	89 5c 24 2c          	mov    %ebx,0x2c(%esp)
  40cb51:	8d 4f 01             	lea    0x1(%edi),%ecx
  40cb54:	f7 f1                	div    %ecx
  40cb56:	89 7c 24 10          	mov    %edi,0x10(%esp)
  40cb5a:	85 c0                	test   %eax,%eax
  40cb5c:	89 c5                	mov    %eax,%ebp
  40cb5e:	89 44 24 34          	mov    %eax,0x34(%esp)
  40cb62:	0f 84 c7 00 00 00    	je     40cc2f <___quorem_D2A+0x12f>
  40cb68:	8b 7c 24 38          	mov    0x38(%esp),%edi
  40cb6c:	89 de                	mov    %ebx,%esi
  40cb6e:	c7 44 24 20 00 00 00 	movl   $0x0,0x20(%esp)
  40cb75:	00 
  40cb76:	c7 44 24 24 00 00 00 	movl   $0x0,0x24(%esp)
  40cb7d:	00 
  40cb7e:	c7 44 24 10 00 00 00 	movl   $0x0,0x10(%esp)
  40cb85:	00 
  40cb86:	c7 44 24 14 00 00 00 	movl   $0x0,0x14(%esp)
  40cb8d:	00 
  40cb8e:	66 90                	xchg   %ax,%ax
  40cb90:	83 c7 04             	add    $0x4,%edi
  40cb93:	89 e8                	mov    %ebp,%eax
  40cb95:	f7 67 fc             	mull   -0x4(%edi)
  40cb98:	03 44 24 20          	add    0x20(%esp),%eax
  40cb9c:	13 54 24 24          	adc    0x24(%esp),%edx
  40cba0:	c7 44 24 1c 00 00 00 	movl   $0x0,0x1c(%esp)
  40cba7:	00 
  40cba8:	89 44 24 18          	mov    %eax,0x18(%esp)
  40cbac:	89 d3                	mov    %edx,%ebx
  40cbae:	89 d9                	mov    %ebx,%ecx
  40cbb0:	31 db                	xor    %ebx,%ebx
  40cbb2:	89 4c 24 20          	mov    %ecx,0x20(%esp)
  40cbb6:	8b 0e                	mov    (%esi),%ecx
  40cbb8:	89 5c 24 24          	mov    %ebx,0x24(%esp)
  40cbbc:	31 db                	xor    %ebx,%ebx
  40cbbe:	2b 4c 24 18          	sub    0x18(%esp),%ecx
  40cbc2:	1b 5c 24 1c          	sbb    0x1c(%esp),%ebx
  40cbc6:	2b 4c 24 10          	sub    0x10(%esp),%ecx
  40cbca:	1b 5c 24 14          	sbb    0x14(%esp),%ebx
  40cbce:	83 c6 04             	add    $0x4,%esi
  40cbd1:	c7 44 24 14 00 00 00 	movl   $0x0,0x14(%esp)
  40cbd8:	00 
  40cbd9:	89 d8                	mov    %ebx,%eax
  40cbdb:	83 e0 01             	and    $0x1,%eax
  40cbde:	39 7c 24 28          	cmp    %edi,0x28(%esp)
  40cbe2:	89 44 24 10          	mov    %eax,0x10(%esp)
  40cbe6:	89 4e fc             	mov    %ecx,-0x4(%esi)
  40cbe9:	73 a5                	jae    40cb90 <___quorem_D2A+0x90>
  40cbeb:	8b 44 24 3c          	mov    0x3c(%esp),%eax
  40cbef:	8b 38                	mov    (%eax),%edi
  40cbf1:	85 ff                	test   %edi,%edi
  40cbf3:	75 3a                	jne    40cc2f <___quorem_D2A+0x12f>
  40cbf5:	8b 4c 24 2c          	mov    0x2c(%esp),%ecx
  40cbf9:	89 c6                	mov    %eax,%esi
  40cbfb:	83 e8 04             	sub    $0x4,%eax
  40cbfe:	39 c1                	cmp    %eax,%ecx
  40cc00:	73 22                	jae    40cc24 <___quorem_D2A+0x124>
  40cc02:	8b 76 fc             	mov    -0x4(%esi),%esi
  40cc05:	85 f6                	test   %esi,%esi
  40cc07:	75 1b                	jne    40cc24 <___quorem_D2A+0x124>
  40cc09:	8b 54 24 30          	mov    0x30(%esp),%edx
  40cc0d:	eb 07                	jmp    40cc16 <___quorem_D2A+0x116>
  40cc0f:	90                   	nop
  40cc10:	8b 18                	mov    (%eax),%ebx
  40cc12:	85 db                	test   %ebx,%ebx
  40cc14:	75 0a                	jne    40cc20 <___quorem_D2A+0x120>
  40cc16:	83 e8 04             	sub    $0x4,%eax
  40cc19:	83 ea 01             	sub    $0x1,%edx
  40cc1c:	39 c1                	cmp    %eax,%ecx
  40cc1e:	72 f0                	jb     40cc10 <___quorem_D2A+0x110>
  40cc20:	89 54 24 30          	mov    %edx,0x30(%esp)
  40cc24:	8b 44 24 60          	mov    0x60(%esp),%eax
  40cc28:	8b 7c 24 30          	mov    0x30(%esp),%edi
  40cc2c:	89 78 10             	mov    %edi,0x10(%eax)
  40cc2f:	8b 44 24 64          	mov    0x64(%esp),%eax
  40cc33:	89 44 24 04          	mov    %eax,0x4(%esp)
  40cc37:	8b 44 24 60          	mov    0x60(%esp),%eax
  40cc3b:	89 04 24             	mov    %eax,(%esp)
  40cc3e:	e8 2d 08 00 00       	call   40d470 <___cmp_D2A>
  40cc43:	85 c0                	test   %eax,%eax
  40cc45:	0f 88 a4 00 00 00    	js     40ccef <___quorem_D2A+0x1ef>
  40cc4b:	31 f6                	xor    %esi,%esi
  40cc4d:	31 ff                	xor    %edi,%edi
  40cc4f:	8d 45 01             	lea    0x1(%ebp),%eax
  40cc52:	8b 6c 24 2c          	mov    0x2c(%esp),%ebp
  40cc56:	89 74 24 10          	mov    %esi,0x10(%esp)
  40cc5a:	8b 74 24 38          	mov    0x38(%esp),%esi
  40cc5e:	89 7c 24 14          	mov    %edi,0x14(%esp)
  40cc62:	8b 7c 24 28          	mov    0x28(%esp),%edi
  40cc66:	89 44 24 34          	mov    %eax,0x34(%esp)
  40cc6a:	8d b6 00 00 00 00    	lea    0x0(%esi),%esi
  40cc70:	83 c6 04             	add    $0x4,%esi
  40cc73:	8b 45 00             	mov    0x0(%ebp),%eax
  40cc76:	31 db                	xor    %ebx,%ebx
  40cc78:	8b 4e fc             	mov    -0x4(%esi),%ecx
  40cc7b:	31 d2                	xor    %edx,%edx
  40cc7d:	29 c8                	sub    %ecx,%eax
  40cc7f:	19 da                	sbb    %ebx,%edx
  40cc81:	2b 44 24 10          	sub    0x10(%esp),%eax
  40cc85:	1b 54 24 14          	sbb    0x14(%esp),%edx
  40cc89:	83 c5 04             	add    $0x4,%ebp
  40cc8c:	c7 44 24 14 00 00 00 	movl   $0x0,0x14(%esp)
  40cc93:	00 
  40cc94:	89 d3                	mov    %edx,%ebx
  40cc96:	83 e3 01             	and    $0x1,%ebx
  40cc99:	39 f7                	cmp    %esi,%edi
  40cc9b:	89 5c 24 10          	mov    %ebx,0x10(%esp)
  40cc9f:	89 45 fc             	mov    %eax,-0x4(%ebp)
  40cca2:	73 cc                	jae    40cc70 <___quorem_D2A+0x170>
  40cca4:	8b 44 24 2c          	mov    0x2c(%esp),%eax
  40cca8:	8b 5c 24 30          	mov    0x30(%esp),%ebx
  40ccac:	8d 14 98             	lea    (%eax,%ebx,4),%edx
  40ccaf:	8b 3a                	mov    (%edx),%edi
  40ccb1:	85 ff                	test   %edi,%edi
  40ccb3:	75 3a                	jne    40ccef <___quorem_D2A+0x1ef>
  40ccb5:	8b 4c 24 2c          	mov    0x2c(%esp),%ecx
  40ccb9:	8d 42 fc             	lea    -0x4(%edx),%eax
  40ccbc:	39 c1                	cmp    %eax,%ecx
  40ccbe:	73 24                	jae    40cce4 <___quorem_D2A+0x1e4>
  40ccc0:	8b 72 fc             	mov    -0x4(%edx),%esi
  40ccc3:	85 f6                	test   %esi,%esi
  40ccc5:	75 1d                	jne    40cce4 <___quorem_D2A+0x1e4>
  40ccc7:	89 da                	mov    %ebx,%edx
  40ccc9:	eb 0b                	jmp    40ccd6 <___quorem_D2A+0x1d6>
  40cccb:	90                   	nop
  40cccc:	8d 74 26 00          	lea    0x0(%esi,%eiz,1),%esi
  40ccd0:	8b 18                	mov    (%eax),%ebx
  40ccd2:	85 db                	test   %ebx,%ebx
  40ccd4:	75 0a                	jne    40cce0 <___quorem_D2A+0x1e0>
  40ccd6:	83 e8 04             	sub    $0x4,%eax
  40ccd9:	83 ea 01             	sub    $0x1,%edx
  40ccdc:	39 c1                	cmp    %eax,%ecx
  40ccde:	72 f0                	jb     40ccd0 <___quorem_D2A+0x1d0>
  40cce0:	89 54 24 30          	mov    %edx,0x30(%esp)
  40cce4:	8b 44 24 60          	mov    0x60(%esp),%eax
  40cce8:	8b 7c 24 30          	mov    0x30(%esp),%edi
  40ccec:	89 78 10             	mov    %edi,0x10(%eax)
  40ccef:	8b 44 24 34          	mov    0x34(%esp),%eax
  40ccf3:	83 c4 4c             	add    $0x4c,%esp
  40ccf6:	5b                   	pop    %ebx
  40ccf7:	5e                   	pop    %esi
  40ccf8:	5f                   	pop    %edi
  40ccf9:	5d                   	pop    %ebp
  40ccfa:	c3                   	ret    
  40ccfb:	90                   	nop
  40ccfc:	90                   	nop
  40ccfd:	90                   	nop
  40ccfe:	90                   	nop
  40ccff:	90                   	nop

0040cd00 <_dtoa_lock>:
  40cd00:	55                   	push   %ebp
  40cd01:	89 e5                	mov    %esp,%ebp
  40cd03:	53                   	push   %ebx
  40cd04:	89 c3                	mov    %eax,%ebx
  40cd06:	83 ec 14             	sub    $0x14,%esp
  40cd09:	8b 15 e8 39 41 00    	mov    0x4139e8,%edx
  40cd0f:	83 fa 02             	cmp    $0x2,%edx
  40cd12:	74 7f                	je     40cd93 <_dtoa_lock+0x93>
  40cd14:	85 d2                	test   %edx,%edx
  40cd16:	75 1d                	jne    40cd35 <_dtoa_lock+0x35>
  40cd18:	eb 2a                	jmp    40cd44 <_dtoa_lock+0x44>
  40cd1a:	8d b6 00 00 00 00    	lea    0x0(%esi),%esi
  40cd20:	c7 04 24 01 00 00 00 	movl   $0x1,(%esp)
  40cd27:	e8 0c 16 00 00       	call   40e338 <_Sleep@4>
  40cd2c:	83 ec 04             	sub    $0x4,%esp
  40cd2f:	8b 15 e8 39 41 00    	mov    0x4139e8,%edx
  40cd35:	83 fa 01             	cmp    $0x1,%edx
  40cd38:	74 e6                	je     40cd20 <_dtoa_lock+0x20>
  40cd3a:	83 fa 02             	cmp    $0x2,%edx
  40cd3d:	74 54                	je     40cd93 <_dtoa_lock+0x93>
  40cd3f:	8b 5d fc             	mov    -0x4(%ebp),%ebx
  40cd42:	c9                   	leave  
  40cd43:	c3                   	ret    
  40cd44:	c7 44 24 04 01 00 00 	movl   $0x1,0x4(%esp)
  40cd4b:	00 
  40cd4c:	c7 04 24 e8 39 41 00 	movl   $0x4139e8,(%esp)
  40cd53:	e8 e8 15 00 00       	call   40e340 <_InterlockedExchange@8>
  40cd58:	83 ec 08             	sub    $0x8,%esp
  40cd5b:	85 c0                	test   %eax,%eax
  40cd5d:	75 51                	jne    40cdb0 <_dtoa_lock+0xb0>
  40cd5f:	c7 04 24 00 3a 41 00 	movl   $0x413a00,(%esp)
  40cd66:	e8 95 15 00 00       	call   40e300 <_InitializeCriticalSection@4>
  40cd6b:	83 ec 04             	sub    $0x4,%esp
  40cd6e:	c7 04 24 18 3a 41 00 	movl   $0x413a18,(%esp)
  40cd75:	e8 86 15 00 00       	call   40e300 <_InitializeCriticalSection@4>
  40cd7a:	83 ec 04             	sub    $0x4,%esp
  40cd7d:	c7 04 24 d0 cd 40 00 	movl   $0x40cdd0,(%esp)
  40cd84:	e8 57 45 ff ff       	call   4012e0 <_atexit>
  40cd89:	c7 05 e8 39 41 00 02 	movl   $0x2,0x4139e8
  40cd90:	00 00 00 
  40cd93:	8d 04 5b             	lea    (%ebx,%ebx,2),%eax
  40cd96:	8d 04 c5 00 3a 41 00 	lea    0x413a00(,%eax,8),%eax
  40cd9d:	89 04 24             	mov    %eax,(%esp)
  40cda0:	e8 33 15 00 00       	call   40e2d8 <_EnterCriticalSection@4>
  40cda5:	8b 5d fc             	mov    -0x4(%ebp),%ebx
  40cda8:	83 ec 04             	sub    $0x4,%esp
  40cdab:	c9                   	leave  
  40cdac:	c3                   	ret    
  40cdad:	8d 76 00             	lea    0x0(%esi),%esi
  40cdb0:	83 f8 02             	cmp    $0x2,%eax
  40cdb3:	0f 85 76 ff ff ff    	jne    40cd2f <_dtoa_lock+0x2f>
  40cdb9:	c7 05 e8 39 41 00 02 	movl   $0x2,0x4139e8
  40cdc0:	00 00 00 
  40cdc3:	eb ce                	jmp    40cd93 <_dtoa_lock+0x93>
  40cdc5:	8d 74 26 00          	lea    0x0(%esi,%eiz,1),%esi
  40cdc9:	8d bc 27 00 00 00 00 	lea    0x0(%edi,%eiz,1),%edi

0040cdd0 <_dtoa_lock_cleanup>:
  40cdd0:	55                   	push   %ebp
  40cdd1:	89 e5                	mov    %esp,%ebp
  40cdd3:	83 ec 18             	sub    $0x18,%esp
  40cdd6:	c7 44 24 04 03 00 00 	movl   $0x3,0x4(%esp)
  40cddd:	00 
  40cdde:	c7 04 24 e8 39 41 00 	movl   $0x4139e8,(%esp)
  40cde5:	e8 56 15 00 00       	call   40e340 <_InterlockedExchange@8>
  40cdea:	83 ec 08             	sub    $0x8,%esp
  40cded:	83 f8 02             	cmp    $0x2,%eax
  40cdf0:	74 02                	je     40cdf4 <_dtoa_lock_cleanup+0x24>
  40cdf2:	c9                   	leave  
  40cdf3:	c3                   	ret    
  40cdf4:	c7 04 24 00 3a 41 00 	movl   $0x413a00,(%esp)
  40cdfb:	e8 f8 14 00 00       	call   40e2f8 <_DeleteCriticalSection@4>
  40ce00:	83 ec 04             	sub    $0x4,%esp
  40ce03:	c7 04 24 18 3a 41 00 	movl   $0x413a18,(%esp)
  40ce0a:	e8 e9 14 00 00       	call   40e2f8 <_DeleteCriticalSection@4>
  40ce0f:	83 ec 04             	sub    $0x4,%esp
  40ce12:	c9                   	leave  
  40ce13:	c3                   	ret    
  40ce14:	8d b6 00 00 00 00    	lea    0x0(%esi),%esi
  40ce1a:	8d bf 00 00 00 00    	lea    0x0(%edi),%edi

0040ce20 <___Balloc_D2A>:
  40ce20:	55                   	push   %ebp
  40ce21:	31 c0                	xor    %eax,%eax
  40ce23:	89 e5                	mov    %esp,%ebp
  40ce25:	57                   	push   %edi
  40ce26:	56                   	push   %esi
  40ce27:	53                   	push   %ebx
  40ce28:	83 ec 1c             	sub    $0x1c,%esp
  40ce2b:	8b 75 08             	mov    0x8(%ebp),%esi
  40ce2e:	e8 cd fe ff ff       	call   40cd00 <_dtoa_lock>
  40ce33:	83 fe 09             	cmp    $0x9,%esi
  40ce36:	7f 2e                	jg     40ce66 <___Balloc_D2A+0x46>
  40ce38:	8b 1c b5 c0 39 41 00 	mov    0x4139c0(,%esi,4),%ebx
  40ce3f:	85 db                	test   %ebx,%ebx
  40ce41:	74 6e                	je     40ceb1 <___Balloc_D2A+0x91>
  40ce43:	8b 03                	mov    (%ebx),%eax
  40ce45:	83 3d e8 39 41 00 02 	cmpl   $0x2,0x4139e8
  40ce4c:	89 04 b5 c0 39 41 00 	mov    %eax,0x4139c0(,%esi,4)
  40ce53:	75 44                	jne    40ce99 <___Balloc_D2A+0x79>
  40ce55:	c7 04 24 00 3a 41 00 	movl   $0x413a00,(%esp)
  40ce5c:	e8 8f 14 00 00       	call   40e2f0 <_LeaveCriticalSection@4>
  40ce61:	83 ec 04             	sub    $0x4,%esp
  40ce64:	eb 33                	jmp    40ce99 <___Balloc_D2A+0x79>
  40ce66:	bf 01 00 00 00       	mov    $0x1,%edi
  40ce6b:	89 f1                	mov    %esi,%ecx
  40ce6d:	d3 e7                	shl    %cl,%edi
  40ce6f:	8d 04 bd 1b 00 00 00 	lea    0x1b(,%edi,4),%eax
  40ce76:	c1 e8 03             	shr    $0x3,%eax
  40ce79:	c1 e0 03             	shl    $0x3,%eax
  40ce7c:	89 04 24             	mov    %eax,(%esp)
  40ce7f:	e8 74 0b 00 00       	call   40d9f8 <_malloc>
  40ce84:	85 c0                	test   %eax,%eax
  40ce86:	89 c3                	mov    %eax,%ebx
  40ce88:	74 5f                	je     40cee9 <___Balloc_D2A+0xc9>
  40ce8a:	83 3d e8 39 41 00 02 	cmpl   $0x2,0x4139e8
  40ce91:	89 73 04             	mov    %esi,0x4(%ebx)
  40ce94:	89 7b 08             	mov    %edi,0x8(%ebx)
  40ce97:	74 bc                	je     40ce55 <___Balloc_D2A+0x35>
  40ce99:	c7 43 10 00 00 00 00 	movl   $0x0,0x10(%ebx)
  40cea0:	89 d8                	mov    %ebx,%eax
  40cea2:	c7 43 0c 00 00 00 00 	movl   $0x0,0xc(%ebx)
  40cea9:	8d 65 f4             	lea    -0xc(%ebp),%esp
  40ceac:	5b                   	pop    %ebx
  40cead:	5e                   	pop    %esi
  40ceae:	5f                   	pop    %edi
  40ceaf:	5d                   	pop    %ebp
  40ceb0:	c3                   	ret    
  40ceb1:	8b 1d a8 f8 40 00    	mov    0x40f8a8,%ebx
  40ceb7:	bf 01 00 00 00       	mov    $0x1,%edi
  40cebc:	89 f1                	mov    %esi,%ecx
  40cebe:	d3 e7                	shl    %cl,%edi
  40cec0:	8d 04 bd 1b 00 00 00 	lea    0x1b(,%edi,4),%eax
  40cec7:	c1 e8 03             	shr    $0x3,%eax
  40ceca:	89 da                	mov    %ebx,%edx
  40cecc:	81 ea c0 30 41 00    	sub    $0x4130c0,%edx
  40ced2:	c1 fa 03             	sar    $0x3,%edx
  40ced5:	01 c2                	add    %eax,%edx
  40ced7:	81 fa 20 01 00 00    	cmp    $0x120,%edx
  40cedd:	77 9a                	ja     40ce79 <___Balloc_D2A+0x59>
  40cedf:	8d 04 c3             	lea    (%ebx,%eax,8),%eax
  40cee2:	a3 a8 f8 40 00       	mov    %eax,0x40f8a8
  40cee7:	eb a1                	jmp    40ce8a <___Balloc_D2A+0x6a>
  40cee9:	31 c0                	xor    %eax,%eax
  40ceeb:	eb bc                	jmp    40cea9 <___Balloc_D2A+0x89>
  40ceed:	8d 76 00             	lea    0x0(%esi),%esi

0040cef0 <___Bfree_D2A>:
  40cef0:	55                   	push   %ebp
  40cef1:	89 e5                	mov    %esp,%ebp
  40cef3:	53                   	push   %ebx
  40cef4:	83 ec 14             	sub    $0x14,%esp
  40cef7:	8b 5d 08             	mov    0x8(%ebp),%ebx
  40cefa:	85 db                	test   %ebx,%ebx
  40cefc:	74 29                	je     40cf27 <___Bfree_D2A+0x37>
  40cefe:	83 7b 04 09          	cmpl   $0x9,0x4(%ebx)
  40cf02:	7f 2c                	jg     40cf30 <___Bfree_D2A+0x40>
  40cf04:	31 c0                	xor    %eax,%eax
  40cf06:	e8 f5 fd ff ff       	call   40cd00 <_dtoa_lock>
  40cf0b:	8b 43 04             	mov    0x4(%ebx),%eax
  40cf0e:	83 3d e8 39 41 00 02 	cmpl   $0x2,0x4139e8
  40cf15:	8b 14 85 c0 39 41 00 	mov    0x4139c0(,%eax,4),%edx
  40cf1c:	89 1c 85 c0 39 41 00 	mov    %ebx,0x4139c0(,%eax,4)
  40cf23:	89 13                	mov    %edx,(%ebx)
  40cf25:	74 19                	je     40cf40 <___Bfree_D2A+0x50>
  40cf27:	8b 5d fc             	mov    -0x4(%ebp),%ebx
  40cf2a:	c9                   	leave  
  40cf2b:	c3                   	ret    
  40cf2c:	8d 74 26 00          	lea    0x0(%esi,%eiz,1),%esi
  40cf30:	8b 5d fc             	mov    -0x4(%ebp),%ebx
  40cf33:	c9                   	leave  
  40cf34:	e9 c7 0a 00 00       	jmp    40da00 <_free>
  40cf39:	8d b4 26 00 00 00 00 	lea    0x0(%esi,%eiz,1),%esi
  40cf40:	c7 04 24 00 3a 41 00 	movl   $0x413a00,(%esp)
  40cf47:	e8 a4 13 00 00       	call   40e2f0 <_LeaveCriticalSection@4>
  40cf4c:	8b 5d fc             	mov    -0x4(%ebp),%ebx
  40cf4f:	83 ec 04             	sub    $0x4,%esp
  40cf52:	c9                   	leave  
  40cf53:	c3                   	ret    
  40cf54:	8d b6 00 00 00 00    	lea    0x0(%esi),%esi
  40cf5a:	8d bf 00 00 00 00    	lea    0x0(%edi),%edi

0040cf60 <___multadd_D2A>:
  40cf60:	55                   	push   %ebp
  40cf61:	31 c9                	xor    %ecx,%ecx
  40cf63:	57                   	push   %edi
  40cf64:	56                   	push   %esi
  40cf65:	53                   	push   %ebx
  40cf66:	83 ec 2c             	sub    $0x2c,%esp
  40cf69:	8b 44 24 40          	mov    0x40(%esp),%eax
  40cf6d:	8b 7c 24 48          	mov    0x48(%esp),%edi
  40cf71:	8b 40 10             	mov    0x10(%eax),%eax
  40cf74:	89 fd                	mov    %edi,%ebp
  40cf76:	c1 fd 1f             	sar    $0x1f,%ebp
  40cf79:	89 44 24 1c          	mov    %eax,0x1c(%esp)
  40cf7d:	8b 44 24 40          	mov    0x40(%esp),%eax
  40cf81:	8d 58 14             	lea    0x14(%eax),%ebx
  40cf84:	8b 44 24 44          	mov    0x44(%esp),%eax
  40cf88:	89 44 24 10          	mov    %eax,0x10(%esp)
  40cf8c:	c1 f8 1f             	sar    $0x1f,%eax
  40cf8f:	89 44 24 14          	mov    %eax,0x14(%esp)
  40cf93:	8b 04 8b             	mov    (%ebx,%ecx,4),%eax
  40cf96:	8b 74 24 14          	mov    0x14(%esp),%esi
  40cf9a:	0f af f0             	imul   %eax,%esi
  40cf9d:	f7 64 24 10          	mull   0x10(%esp)
  40cfa1:	01 f2                	add    %esi,%edx
  40cfa3:	01 f8                	add    %edi,%eax
  40cfa5:	11 ea                	adc    %ebp,%edx
  40cfa7:	89 d5                	mov    %edx,%ebp
  40cfa9:	89 ef                	mov    %ebp,%edi
  40cfab:	31 ed                	xor    %ebp,%ebp
  40cfad:	89 04 8b             	mov    %eax,(%ebx,%ecx,4)
  40cfb0:	83 c1 01             	add    $0x1,%ecx
  40cfb3:	39 4c 24 1c          	cmp    %ecx,0x1c(%esp)
  40cfb7:	7f da                	jg     40cf93 <___multadd_D2A+0x33>
  40cfb9:	89 ea                	mov    %ebp,%edx
  40cfbb:	8b 44 24 40          	mov    0x40(%esp),%eax
  40cfbf:	09 fa                	or     %edi,%edx
  40cfc1:	74 1d                	je     40cfe0 <___multadd_D2A+0x80>
  40cfc3:	8b 54 24 1c          	mov    0x1c(%esp),%edx
  40cfc7:	3b 50 08             	cmp    0x8(%eax),%edx
  40cfca:	7d 1c                	jge    40cfe8 <___multadd_D2A+0x88>
  40cfcc:	8b 54 24 40          	mov    0x40(%esp),%edx
  40cfd0:	8b 44 24 1c          	mov    0x1c(%esp),%eax
  40cfd4:	89 7c 82 14          	mov    %edi,0x14(%edx,%eax,4)
  40cfd8:	83 c0 01             	add    $0x1,%eax
  40cfdb:	89 42 10             	mov    %eax,0x10(%edx)
  40cfde:	89 d0                	mov    %edx,%eax
  40cfe0:	83 c4 2c             	add    $0x2c,%esp
  40cfe3:	5b                   	pop    %ebx
  40cfe4:	5e                   	pop    %esi
  40cfe5:	5f                   	pop    %edi
  40cfe6:	5d                   	pop    %ebp
  40cfe7:	c3                   	ret    
  40cfe8:	8b 40 04             	mov    0x4(%eax),%eax
  40cfeb:	89 44 24 10          	mov    %eax,0x10(%esp)
  40cfef:	83 c0 01             	add    $0x1,%eax
  40cff2:	89 04 24             	mov    %eax,(%esp)
  40cff5:	e8 26 fe ff ff       	call   40ce20 <___Balloc_D2A>
  40cffa:	85 c0                	test   %eax,%eax
  40cffc:	89 c3                	mov    %eax,%ebx
  40cffe:	74 3a                	je     40d03a <___multadd_D2A+0xda>
  40d000:	8d 48 0c             	lea    0xc(%eax),%ecx
  40d003:	8b 44 24 40          	mov    0x40(%esp),%eax
  40d007:	8b 40 10             	mov    0x10(%eax),%eax
  40d00a:	89 0c 24             	mov    %ecx,(%esp)
  40d00d:	8d 14 85 08 00 00 00 	lea    0x8(,%eax,4),%edx
  40d014:	8b 44 24 40          	mov    0x40(%esp),%eax
  40d018:	89 54 24 08          	mov    %edx,0x8(%esp)
  40d01c:	83 c0 0c             	add    $0xc,%eax
  40d01f:	89 44 24 04          	mov    %eax,0x4(%esp)
  40d023:	e8 18 0a 00 00       	call   40da40 <_memcpy>
  40d028:	8b 44 24 40          	mov    0x40(%esp),%eax
  40d02c:	89 04 24             	mov    %eax,(%esp)
  40d02f:	e8 bc fe ff ff       	call   40cef0 <___Bfree_D2A>
  40d034:	89 5c 24 40          	mov    %ebx,0x40(%esp)
  40d038:	eb 92                	jmp    40cfcc <___multadd_D2A+0x6c>
  40d03a:	31 c0                	xor    %eax,%eax
  40d03c:	eb a2                	jmp    40cfe0 <___multadd_D2A+0x80>
  40d03e:	66 90                	xchg   %ax,%ax

0040d040 <___i2b_D2A>:
  40d040:	83 ec 1c             	sub    $0x1c,%esp
  40d043:	c7 04 24 01 00 00 00 	movl   $0x1,(%esp)
  40d04a:	e8 d1 fd ff ff       	call   40ce20 <___Balloc_D2A>
  40d04f:	85 c0                	test   %eax,%eax
  40d051:	74 0e                	je     40d061 <___i2b_D2A+0x21>
  40d053:	8b 54 24 20          	mov    0x20(%esp),%edx
  40d057:	c7 40 10 01 00 00 00 	movl   $0x1,0x10(%eax)
  40d05e:	89 50 14             	mov    %edx,0x14(%eax)
  40d061:	83 c4 1c             	add    $0x1c,%esp
  40d064:	c3                   	ret    
  40d065:	8d 74 26 00          	lea    0x0(%esi,%eiz,1),%esi
  40d069:	8d bc 27 00 00 00 00 	lea    0x0(%edi,%eiz,1),%edi

0040d070 <___mult_D2A>:
  40d070:	55                   	push   %ebp
  40d071:	57                   	push   %edi
  40d072:	56                   	push   %esi
  40d073:	53                   	push   %ebx
  40d074:	83 ec 3c             	sub    $0x3c,%esp
  40d077:	8b 7c 24 50          	mov    0x50(%esp),%edi
  40d07b:	8b 6c 24 54          	mov    0x54(%esp),%ebp
  40d07f:	8b 77 10             	mov    0x10(%edi),%esi
  40d082:	8b 5d 10             	mov    0x10(%ebp),%ebx
  40d085:	39 de                	cmp    %ebx,%esi
  40d087:	7d 0c                	jge    40d095 <___mult_D2A+0x25>
  40d089:	89 f0                	mov    %esi,%eax
  40d08b:	89 de                	mov    %ebx,%esi
  40d08d:	89 c3                	mov    %eax,%ebx
  40d08f:	89 f8                	mov    %edi,%eax
  40d091:	89 ef                	mov    %ebp,%edi
  40d093:	89 c5                	mov    %eax,%ebp
  40d095:	8d 04 1e             	lea    (%esi,%ebx,1),%eax
  40d098:	3b 47 08             	cmp    0x8(%edi),%eax
  40d09b:	89 44 24 20          	mov    %eax,0x20(%esp)
  40d09f:	0f 9f c0             	setg   %al
  40d0a2:	0f b6 c0             	movzbl %al,%eax
  40d0a5:	03 47 04             	add    0x4(%edi),%eax
  40d0a8:	89 04 24             	mov    %eax,(%esp)
  40d0ab:	e8 70 fd ff ff       	call   40ce20 <___Balloc_D2A>
  40d0b0:	85 c0                	test   %eax,%eax
  40d0b2:	89 44 24 2c          	mov    %eax,0x2c(%esp)
  40d0b6:	0f 84 08 01 00 00    	je     40d1c4 <___mult_D2A+0x154>
  40d0bc:	8b 4c 24 20          	mov    0x20(%esp),%ecx
  40d0c0:	8d 40 14             	lea    0x14(%eax),%eax
  40d0c3:	89 44 24 18          	mov    %eax,0x18(%esp)
  40d0c7:	8d 0c 88             	lea    (%eax,%ecx,4),%ecx
  40d0ca:	89 ca                	mov    %ecx,%edx
  40d0cc:	39 d0                	cmp    %edx,%eax
  40d0ce:	89 4c 24 28          	mov    %ecx,0x28(%esp)
  40d0d2:	73 11                	jae    40d0e5 <___mult_D2A+0x75>
  40d0d4:	8b 54 24 28          	mov    0x28(%esp),%edx
  40d0d8:	c7 00 00 00 00 00    	movl   $0x0,(%eax)
  40d0de:	83 c0 04             	add    $0x4,%eax
  40d0e1:	39 c2                	cmp    %eax,%edx
  40d0e3:	77 f3                	ja     40d0d8 <___mult_D2A+0x68>
  40d0e5:	8d 47 14             	lea    0x14(%edi),%eax
  40d0e8:	89 44 24 24          	mov    %eax,0x24(%esp)
  40d0ec:	8d 04 b0             	lea    (%eax,%esi,4),%eax
  40d0ef:	89 44 24 10          	mov    %eax,0x10(%esp)
  40d0f3:	8d 45 14             	lea    0x14(%ebp),%eax
  40d0f6:	8d 1c 98             	lea    (%eax,%ebx,4),%ebx
  40d0f9:	39 d8                	cmp    %ebx,%eax
  40d0fb:	89 44 24 14          	mov    %eax,0x14(%esp)
  40d0ff:	89 5c 24 1c          	mov    %ebx,0x1c(%esp)
  40d103:	73 74                	jae    40d179 <___mult_D2A+0x109>
  40d105:	83 44 24 14 04       	addl   $0x4,0x14(%esp)
  40d10a:	8b 44 24 14          	mov    0x14(%esp),%eax
  40d10e:	8b 68 fc             	mov    -0x4(%eax),%ebp
  40d111:	85 ed                	test   %ebp,%ebp
  40d113:	74 55                	je     40d16a <___mult_D2A+0xfa>
  40d115:	8b 7c 24 18          	mov    0x18(%esp),%edi
  40d119:	8b 74 24 24          	mov    0x24(%esp),%esi
  40d11d:	c7 44 24 08 00 00 00 	movl   $0x0,0x8(%esp)
  40d124:	00 
  40d125:	c7 44 24 0c 00 00 00 	movl   $0x0,0xc(%esp)
  40d12c:	00 
  40d12d:	eb 03                	jmp    40d132 <___mult_D2A+0xc2>
  40d12f:	90                   	nop
  40d130:	89 c7                	mov    %eax,%edi
  40d132:	83 c6 04             	add    $0x4,%esi
  40d135:	8b 0f                	mov    (%edi),%ecx
  40d137:	89 e8                	mov    %ebp,%eax
  40d139:	f7 66 fc             	mull   -0x4(%esi)
  40d13c:	31 db                	xor    %ebx,%ebx
  40d13e:	01 c1                	add    %eax,%ecx
  40d140:	11 d3                	adc    %edx,%ebx
  40d142:	03 4c 24 08          	add    0x8(%esp),%ecx
  40d146:	13 5c 24 0c          	adc    0xc(%esp),%ebx
  40d14a:	89 0f                	mov    %ecx,(%edi)
  40d14c:	89 da                	mov    %ebx,%edx
  40d14e:	89 d0                	mov    %edx,%eax
  40d150:	31 d2                	xor    %edx,%edx
  40d152:	39 74 24 10          	cmp    %esi,0x10(%esp)
  40d156:	89 44 24 08          	mov    %eax,0x8(%esp)
  40d15a:	8d 47 04             	lea    0x4(%edi),%eax
  40d15d:	89 54 24 0c          	mov    %edx,0xc(%esp)
  40d161:	77 cd                	ja     40d130 <___mult_D2A+0xc0>
  40d163:	8b 44 24 08          	mov    0x8(%esp),%eax
  40d167:	89 47 04             	mov    %eax,0x4(%edi)
  40d16a:	8b 44 24 14          	mov    0x14(%esp),%eax
  40d16e:	83 44 24 18 04       	addl   $0x4,0x18(%esp)
  40d173:	39 44 24 1c          	cmp    %eax,0x1c(%esp)
  40d177:	77 8c                	ja     40d105 <___mult_D2A+0x95>
  40d179:	8b 7c 24 20          	mov    0x20(%esp),%edi
  40d17d:	85 ff                	test   %edi,%edi
  40d17f:	7e 30                	jle    40d1b1 <___mult_D2A+0x141>
  40d181:	8b 5c 24 28          	mov    0x28(%esp),%ebx
  40d185:	8b 73 fc             	mov    -0x4(%ebx),%esi
  40d188:	85 f6                	test   %esi,%esi
  40d18a:	75 25                	jne    40d1b1 <___mult_D2A+0x141>
  40d18c:	8b 54 24 20          	mov    0x20(%esp),%edx
  40d190:	89 d0                	mov    %edx,%eax
  40d192:	c1 e0 02             	shl    $0x2,%eax
  40d195:	29 c3                	sub    %eax,%ebx
  40d197:	89 d8                	mov    %ebx,%eax
  40d199:	eb 0d                	jmp    40d1a8 <___mult_D2A+0x138>
  40d19b:	90                   	nop
  40d19c:	8d 74 26 00          	lea    0x0(%esi,%eiz,1),%esi
  40d1a0:	8b 4c 90 fc          	mov    -0x4(%eax,%edx,4),%ecx
  40d1a4:	85 c9                	test   %ecx,%ecx
  40d1a6:	75 05                	jne    40d1ad <___mult_D2A+0x13d>
  40d1a8:	83 ea 01             	sub    $0x1,%edx
  40d1ab:	75 f3                	jne    40d1a0 <___mult_D2A+0x130>
  40d1ad:	89 54 24 20          	mov    %edx,0x20(%esp)
  40d1b1:	8b 44 24 2c          	mov    0x2c(%esp),%eax
  40d1b5:	8b 5c 24 20          	mov    0x20(%esp),%ebx
  40d1b9:	89 58 10             	mov    %ebx,0x10(%eax)
  40d1bc:	83 c4 3c             	add    $0x3c,%esp
  40d1bf:	5b                   	pop    %ebx
  40d1c0:	5e                   	pop    %esi
  40d1c1:	5f                   	pop    %edi
  40d1c2:	5d                   	pop    %ebp
  40d1c3:	c3                   	ret    
  40d1c4:	31 c0                	xor    %eax,%eax
  40d1c6:	eb f4                	jmp    40d1bc <___mult_D2A+0x14c>
  40d1c8:	90                   	nop
  40d1c9:	8d b4 26 00 00 00 00 	lea    0x0(%esi,%eiz,1),%esi

0040d1d0 <___pow5mult_D2A>:
  40d1d0:	55                   	push   %ebp
  40d1d1:	89 e5                	mov    %esp,%ebp
  40d1d3:	57                   	push   %edi
  40d1d4:	56                   	push   %esi
  40d1d5:	53                   	push   %ebx
  40d1d6:	83 ec 1c             	sub    $0x1c,%esp
  40d1d9:	8b 5d 0c             	mov    0xc(%ebp),%ebx
  40d1dc:	8b 55 08             	mov    0x8(%ebp),%edx
  40d1df:	89 d8                	mov    %ebx,%eax
  40d1e1:	83 e0 03             	and    $0x3,%eax
  40d1e4:	0f 85 9e 00 00 00    	jne    40d288 <___pow5mult_D2A+0xb8>
  40d1ea:	c1 fb 02             	sar    $0x2,%ebx
  40d1ed:	89 d0                	mov    %edx,%eax
  40d1ef:	85 db                	test   %ebx,%ebx
  40d1f1:	74 4e                	je     40d241 <___pow5mult_D2A+0x71>
  40d1f3:	8b 3d a0 30 41 00    	mov    0x4130a0,%edi
  40d1f9:	85 ff                	test   %edi,%edi
  40d1fb:	0f 84 d5 00 00 00    	je     40d2d6 <___pow5mult_D2A+0x106>
  40d201:	f6 c3 01             	test   $0x1,%bl
  40d204:	75 13                	jne    40d219 <___pow5mult_D2A+0x49>
  40d206:	d1 fb                	sar    %ebx
  40d208:	74 35                	je     40d23f <___pow5mult_D2A+0x6f>
  40d20a:	8b 37                	mov    (%edi),%esi
  40d20c:	85 f6                	test   %esi,%esi
  40d20e:	66 90                	xchg   %ax,%ax
  40d210:	74 3e                	je     40d250 <___pow5mult_D2A+0x80>
  40d212:	89 f7                	mov    %esi,%edi
  40d214:	f6 c3 01             	test   $0x1,%bl
  40d217:	74 ed                	je     40d206 <___pow5mult_D2A+0x36>
  40d219:	89 7c 24 04          	mov    %edi,0x4(%esp)
  40d21d:	89 14 24             	mov    %edx,(%esp)
  40d220:	89 55 e4             	mov    %edx,-0x1c(%ebp)
  40d223:	e8 48 fe ff ff       	call   40d070 <___mult_D2A>
  40d228:	85 c0                	test   %eax,%eax
  40d22a:	89 c6                	mov    %eax,%esi
  40d22c:	74 7f                	je     40d2ad <___pow5mult_D2A+0xdd>
  40d22e:	8b 55 e4             	mov    -0x1c(%ebp),%edx
  40d231:	89 14 24             	mov    %edx,(%esp)
  40d234:	e8 b7 fc ff ff       	call   40cef0 <___Bfree_D2A>
  40d239:	d1 fb                	sar    %ebx
  40d23b:	89 f2                	mov    %esi,%edx
  40d23d:	75 cb                	jne    40d20a <___pow5mult_D2A+0x3a>
  40d23f:	89 d0                	mov    %edx,%eax
  40d241:	8d 65 f4             	lea    -0xc(%ebp),%esp
  40d244:	5b                   	pop    %ebx
  40d245:	5e                   	pop    %esi
  40d246:	5f                   	pop    %edi
  40d247:	5d                   	pop    %ebp
  40d248:	c3                   	ret    
  40d249:	8d b4 26 00 00 00 00 	lea    0x0(%esi,%eiz,1),%esi
  40d250:	b8 01 00 00 00       	mov    $0x1,%eax
  40d255:	89 55 e4             	mov    %edx,-0x1c(%ebp)
  40d258:	e8 a3 fa ff ff       	call   40cd00 <_dtoa_lock>
  40d25d:	8b 37                	mov    (%edi),%esi
  40d25f:	8b 55 e4             	mov    -0x1c(%ebp),%edx
  40d262:	85 f6                	test   %esi,%esi
  40d264:	74 51                	je     40d2b7 <___pow5mult_D2A+0xe7>
  40d266:	83 3d e8 39 41 00 02 	cmpl   $0x2,0x4139e8
  40d26d:	75 a3                	jne    40d212 <___pow5mult_D2A+0x42>
  40d26f:	c7 04 24 18 3a 41 00 	movl   $0x413a18,(%esp)
  40d276:	89 f7                	mov    %esi,%edi
  40d278:	89 55 e4             	mov    %edx,-0x1c(%ebp)
  40d27b:	e8 70 10 00 00       	call   40e2f0 <_LeaveCriticalSection@4>
  40d280:	8b 55 e4             	mov    -0x1c(%ebp),%edx
  40d283:	83 ec 04             	sub    $0x4,%esp
  40d286:	eb 8c                	jmp    40d214 <___pow5mult_D2A+0x44>
  40d288:	8b 04 85 9c 03 41 00 	mov    0x41039c(,%eax,4),%eax
  40d28f:	89 14 24             	mov    %edx,(%esp)
  40d292:	c7 44 24 08 00 00 00 	movl   $0x0,0x8(%esp)
  40d299:	00 
  40d29a:	89 44 24 04          	mov    %eax,0x4(%esp)
  40d29e:	e8 bd fc ff ff       	call   40cf60 <___multadd_D2A>
  40d2a3:	85 c0                	test   %eax,%eax
  40d2a5:	89 c2                	mov    %eax,%edx
  40d2a7:	0f 85 3d ff ff ff    	jne    40d1ea <___pow5mult_D2A+0x1a>
  40d2ad:	31 c0                	xor    %eax,%eax
  40d2af:	8d 65 f4             	lea    -0xc(%ebp),%esp
  40d2b2:	5b                   	pop    %ebx
  40d2b3:	5e                   	pop    %esi
  40d2b4:	5f                   	pop    %edi
  40d2b5:	5d                   	pop    %ebp
  40d2b6:	c3                   	ret    
  40d2b7:	89 7c 24 04          	mov    %edi,0x4(%esp)
  40d2bb:	89 3c 24             	mov    %edi,(%esp)
  40d2be:	e8 ad fd ff ff       	call   40d070 <___mult_D2A>
  40d2c3:	85 c0                	test   %eax,%eax
  40d2c5:	89 c6                	mov    %eax,%esi
  40d2c7:	89 07                	mov    %eax,(%edi)
  40d2c9:	74 e2                	je     40d2ad <___pow5mult_D2A+0xdd>
  40d2cb:	c7 00 00 00 00 00    	movl   $0x0,(%eax)
  40d2d1:	8b 55 e4             	mov    -0x1c(%ebp),%edx
  40d2d4:	eb 90                	jmp    40d266 <___pow5mult_D2A+0x96>
  40d2d6:	b8 01 00 00 00       	mov    $0x1,%eax
  40d2db:	89 55 e4             	mov    %edx,-0x1c(%ebp)
  40d2de:	e8 1d fa ff ff       	call   40cd00 <_dtoa_lock>
  40d2e3:	8b 3d a0 30 41 00    	mov    0x4130a0,%edi
  40d2e9:	8b 55 e4             	mov    -0x1c(%ebp),%edx
  40d2ec:	85 ff                	test   %edi,%edi
  40d2ee:	74 27                	je     40d317 <___pow5mult_D2A+0x147>
  40d2f0:	83 3d e8 39 41 00 02 	cmpl   $0x2,0x4139e8
  40d2f7:	0f 85 04 ff ff ff    	jne    40d201 <___pow5mult_D2A+0x31>
  40d2fd:	c7 04 24 18 3a 41 00 	movl   $0x413a18,(%esp)
  40d304:	89 55 e4             	mov    %edx,-0x1c(%ebp)
  40d307:	e8 e4 0f 00 00       	call   40e2f0 <_LeaveCriticalSection@4>
  40d30c:	8b 55 e4             	mov    -0x1c(%ebp),%edx
  40d30f:	83 ec 04             	sub    $0x4,%esp
  40d312:	e9 ea fe ff ff       	jmp    40d201 <___pow5mult_D2A+0x31>
  40d317:	c7 04 24 01 00 00 00 	movl   $0x1,(%esp)
  40d31e:	e8 fd fa ff ff       	call   40ce20 <___Balloc_D2A>
  40d323:	85 c0                	test   %eax,%eax
  40d325:	89 c7                	mov    %eax,%edi
  40d327:	74 1e                	je     40d347 <___pow5mult_D2A+0x177>
  40d329:	c7 40 14 71 02 00 00 	movl   $0x271,0x14(%eax)
  40d330:	8b 55 e4             	mov    -0x1c(%ebp),%edx
  40d333:	c7 40 10 01 00 00 00 	movl   $0x1,0x10(%eax)
  40d33a:	a3 a0 30 41 00       	mov    %eax,0x4130a0
  40d33f:	c7 00 00 00 00 00    	movl   $0x0,(%eax)
  40d345:	eb a9                	jmp    40d2f0 <___pow5mult_D2A+0x120>
  40d347:	c7 05 a0 30 41 00 00 	movl   $0x0,0x4130a0
  40d34e:	00 00 00 
  40d351:	31 c0                	xor    %eax,%eax
  40d353:	e9 57 ff ff ff       	jmp    40d2af <___pow5mult_D2A+0xdf>
  40d358:	90                   	nop
  40d359:	8d b4 26 00 00 00 00 	lea    0x0(%esi,%eiz,1),%esi

0040d360 <___lshift_D2A>:
  40d360:	55                   	push   %ebp
  40d361:	57                   	push   %edi
  40d362:	56                   	push   %esi
  40d363:	53                   	push   %ebx
  40d364:	83 ec 2c             	sub    $0x2c,%esp
  40d367:	8b 44 24 40          	mov    0x40(%esp),%eax
  40d36b:	8b 74 24 44          	mov    0x44(%esp),%esi
  40d36f:	89 c7                	mov    %eax,%edi
  40d371:	8b 50 04             	mov    0x4(%eax),%edx
  40d374:	8b 40 10             	mov    0x10(%eax),%eax
  40d377:	89 f3                	mov    %esi,%ebx
  40d379:	c1 fb 05             	sar    $0x5,%ebx
  40d37c:	01 d8                	add    %ebx,%eax
  40d37e:	8d 68 01             	lea    0x1(%eax),%ebp
  40d381:	89 44 24 18          	mov    %eax,0x18(%esp)
  40d385:	8b 47 08             	mov    0x8(%edi),%eax
  40d388:	39 c5                	cmp    %eax,%ebp
  40d38a:	7e 0d                	jle    40d399 <___lshift_D2A+0x39>
  40d38c:	8d 74 26 00          	lea    0x0(%esi,%eiz,1),%esi
  40d390:	01 c0                	add    %eax,%eax
  40d392:	83 c2 01             	add    $0x1,%edx
  40d395:	39 c5                	cmp    %eax,%ebp
  40d397:	7f f7                	jg     40d390 <___lshift_D2A+0x30>
  40d399:	89 14 24             	mov    %edx,(%esp)
  40d39c:	e8 7f fa ff ff       	call   40ce20 <___Balloc_D2A>
  40d3a1:	85 c0                	test   %eax,%eax
  40d3a3:	89 44 24 14          	mov    %eax,0x14(%esp)
  40d3a7:	0f 84 bc 00 00 00    	je     40d469 <___lshift_D2A+0x109>
  40d3ad:	85 db                	test   %ebx,%ebx
  40d3af:	8d 50 14             	lea    0x14(%eax),%edx
  40d3b2:	7e 13                	jle    40d3c7 <___lshift_D2A+0x67>
  40d3b4:	31 c0                	xor    %eax,%eax
  40d3b6:	c7 04 82 00 00 00 00 	movl   $0x0,(%edx,%eax,4)
  40d3bd:	83 c0 01             	add    $0x1,%eax
  40d3c0:	39 d8                	cmp    %ebx,%eax
  40d3c2:	75 f2                	jne    40d3b6 <___lshift_D2A+0x56>
  40d3c4:	8d 14 82             	lea    (%edx,%eax,4),%edx
  40d3c7:	8b 7c 24 40          	mov    0x40(%esp),%edi
  40d3cb:	8b 44 24 40          	mov    0x40(%esp),%eax
  40d3cf:	8b 4f 10             	mov    0x10(%edi),%ecx
  40d3d2:	83 c0 14             	add    $0x14,%eax
  40d3d5:	83 e6 1f             	and    $0x1f,%esi
  40d3d8:	89 74 24 0c          	mov    %esi,0xc(%esp)
  40d3dc:	8d 3c 88             	lea    (%eax,%ecx,4),%edi
  40d3df:	89 f9                	mov    %edi,%ecx
  40d3e1:	74 72                	je     40d455 <___lshift_D2A+0xf5>
  40d3e3:	c7 44 24 10 20 00 00 	movl   $0x20,0x10(%esp)
  40d3ea:	00 
  40d3eb:	89 6c 24 1c          	mov    %ebp,0x1c(%esp)
  40d3ef:	89 cd                	mov    %ecx,%ebp
  40d3f1:	29 74 24 10          	sub    %esi,0x10(%esp)
  40d3f5:	31 f6                	xor    %esi,%esi
  40d3f7:	eb 09                	jmp    40d402 <___lshift_D2A+0xa2>
  40d3f9:	8d b4 26 00 00 00 00 	lea    0x0(%esi,%eiz,1),%esi
  40d400:	89 fa                	mov    %edi,%edx
  40d402:	8b 18                	mov    (%eax),%ebx
  40d404:	83 c0 04             	add    $0x4,%eax
  40d407:	0f b6 4c 24 0c       	movzbl 0xc(%esp),%ecx
  40d40c:	8d 7a 04             	lea    0x4(%edx),%edi
  40d40f:	d3 e3                	shl    %cl,%ebx
  40d411:	0f b6 4c 24 10       	movzbl 0x10(%esp),%ecx
  40d416:	09 f3                	or     %esi,%ebx
  40d418:	89 1a                	mov    %ebx,(%edx)
  40d41a:	8b 70 fc             	mov    -0x4(%eax),%esi
  40d41d:	d3 ee                	shr    %cl,%esi
  40d41f:	39 c5                	cmp    %eax,%ebp
  40d421:	77 dd                	ja     40d400 <___lshift_D2A+0xa0>
  40d423:	85 f6                	test   %esi,%esi
  40d425:	8b 6c 24 1c          	mov    0x1c(%esp),%ebp
  40d429:	89 72 04             	mov    %esi,0x4(%edx)
  40d42c:	74 07                	je     40d435 <___lshift_D2A+0xd5>
  40d42e:	8b 6c 24 18          	mov    0x18(%esp),%ebp
  40d432:	83 c5 02             	add    $0x2,%ebp
  40d435:	8b 7c 24 14          	mov    0x14(%esp),%edi
  40d439:	8d 45 ff             	lea    -0x1(%ebp),%eax
  40d43c:	89 47 10             	mov    %eax,0x10(%edi)
  40d43f:	8b 44 24 40          	mov    0x40(%esp),%eax
  40d443:	89 04 24             	mov    %eax,(%esp)
  40d446:	e8 a5 fa ff ff       	call   40cef0 <___Bfree_D2A>
  40d44b:	89 f8                	mov    %edi,%eax
  40d44d:	83 c4 2c             	add    $0x2c,%esp
  40d450:	5b                   	pop    %ebx
  40d451:	5e                   	pop    %esi
  40d452:	5f                   	pop    %edi
  40d453:	5d                   	pop    %ebp
  40d454:	c3                   	ret    
  40d455:	89 fb                	mov    %edi,%ebx
  40d457:	83 c0 04             	add    $0x4,%eax
  40d45a:	8b 48 fc             	mov    -0x4(%eax),%ecx
  40d45d:	83 c2 04             	add    $0x4,%edx
  40d460:	39 c3                	cmp    %eax,%ebx
  40d462:	89 4a fc             	mov    %ecx,-0x4(%edx)
  40d465:	77 f0                	ja     40d457 <___lshift_D2A+0xf7>
  40d467:	eb cc                	jmp    40d435 <___lshift_D2A+0xd5>
  40d469:	31 c0                	xor    %eax,%eax
  40d46b:	eb e0                	jmp    40d44d <___lshift_D2A+0xed>
  40d46d:	8d 76 00             	lea    0x0(%esi),%esi

0040d470 <___cmp_D2A>:
  40d470:	53                   	push   %ebx
  40d471:	8b 4c 24 08          	mov    0x8(%esp),%ecx
  40d475:	8b 54 24 0c          	mov    0xc(%esp),%edx
  40d479:	8b 41 10             	mov    0x10(%ecx),%eax
  40d47c:	8b 5a 10             	mov    0x10(%edx),%ebx
  40d47f:	29 d8                	sub    %ebx,%eax
  40d481:	85 c0                	test   %eax,%eax
  40d483:	75 24                	jne    40d4a9 <___cmp_D2A+0x39>
  40d485:	c1 e3 02             	shl    $0x2,%ebx
  40d488:	83 c1 14             	add    $0x14,%ecx
  40d48b:	8d 04 19             	lea    (%ecx,%ebx,1),%eax
  40d48e:	8d 54 1a 14          	lea    0x14(%edx,%ebx,1),%edx
  40d492:	eb 04                	jmp    40d498 <___cmp_D2A+0x28>
  40d494:	39 c1                	cmp    %eax,%ecx
  40d496:	73 18                	jae    40d4b0 <___cmp_D2A+0x40>
  40d498:	83 ea 04             	sub    $0x4,%edx
  40d49b:	83 e8 04             	sub    $0x4,%eax
  40d49e:	8b 1a                	mov    (%edx),%ebx
  40d4a0:	39 18                	cmp    %ebx,(%eax)
  40d4a2:	74 f0                	je     40d494 <___cmp_D2A+0x24>
  40d4a4:	19 c0                	sbb    %eax,%eax
  40d4a6:	83 c8 01             	or     $0x1,%eax
  40d4a9:	5b                   	pop    %ebx
  40d4aa:	c3                   	ret    
  40d4ab:	90                   	nop
  40d4ac:	8d 74 26 00          	lea    0x0(%esi,%eiz,1),%esi
  40d4b0:	31 c0                	xor    %eax,%eax
  40d4b2:	5b                   	pop    %ebx
  40d4b3:	c3                   	ret    
  40d4b4:	8d b6 00 00 00 00    	lea    0x0(%esi),%esi
  40d4ba:	8d bf 00 00 00 00    	lea    0x0(%edi),%edi

0040d4c0 <___diff_D2A>:
  40d4c0:	55                   	push   %ebp
  40d4c1:	57                   	push   %edi
  40d4c2:	56                   	push   %esi
  40d4c3:	53                   	push   %ebx
  40d4c4:	83 ec 2c             	sub    $0x2c,%esp
  40d4c7:	8b 74 24 40          	mov    0x40(%esp),%esi
  40d4cb:	8b 5c 24 44          	mov    0x44(%esp),%ebx
  40d4cf:	89 34 24             	mov    %esi,(%esp)
  40d4d2:	89 5c 24 04          	mov    %ebx,0x4(%esp)
  40d4d6:	e8 95 ff ff ff       	call   40d470 <___cmp_D2A>
  40d4db:	85 c0                	test   %eax,%eax
  40d4dd:	0f 84 1f 01 00 00    	je     40d602 <___diff_D2A+0x142>
  40d4e3:	0f 88 3f 01 00 00    	js     40d628 <___diff_D2A+0x168>
  40d4e9:	31 ff                	xor    %edi,%edi
  40d4eb:	8b 46 04             	mov    0x4(%esi),%eax
  40d4ee:	89 04 24             	mov    %eax,(%esp)
  40d4f1:	e8 2a f9 ff ff       	call   40ce20 <___Balloc_D2A>
  40d4f6:	85 c0                	test   %eax,%eax
  40d4f8:	89 c2                	mov    %eax,%edx
  40d4fa:	89 44 24 1c          	mov    %eax,0x1c(%esp)
  40d4fe:	0f 84 34 01 00 00    	je     40d638 <___diff_D2A+0x178>
  40d504:	89 78 0c             	mov    %edi,0xc(%eax)
  40d507:	8b 46 10             	mov    0x10(%esi),%eax
  40d50a:	83 c6 14             	add    $0x14,%esi
  40d50d:	8d 6b 14             	lea    0x14(%ebx),%ebp
  40d510:	8d 7a 14             	lea    0x14(%edx),%edi
  40d513:	c7 44 24 08 00 00 00 	movl   $0x0,0x8(%esp)
  40d51a:	00 
  40d51b:	89 44 24 18          	mov    %eax,0x18(%esp)
  40d51f:	8d 04 86             	lea    (%esi,%eax,4),%eax
  40d522:	89 44 24 10          	mov    %eax,0x10(%esp)
  40d526:	8b 43 10             	mov    0x10(%ebx),%eax
  40d529:	c7 44 24 0c 00 00 00 	movl   $0x0,0xc(%esp)
  40d530:	00 
  40d531:	8d 44 85 00          	lea    0x0(%ebp,%eax,4),%eax
  40d535:	89 44 24 14          	mov    %eax,0x14(%esp)
  40d539:	8d b4 26 00 00 00 00 	lea    0x0(%esi,%eiz,1),%esi
  40d540:	83 c5 04             	add    $0x4,%ebp
  40d543:	83 c6 04             	add    $0x4,%esi
  40d546:	8b 4d fc             	mov    -0x4(%ebp),%ecx
  40d549:	8b 46 fc             	mov    -0x4(%esi),%eax
  40d54c:	31 d2                	xor    %edx,%edx
  40d54e:	31 db                	xor    %ebx,%ebx
  40d550:	29 c8                	sub    %ecx,%eax
  40d552:	19 da                	sbb    %ebx,%edx
  40d554:	2b 44 24 08          	sub    0x8(%esp),%eax
  40d558:	1b 54 24 0c          	sbb    0xc(%esp),%edx
  40d55c:	83 c7 04             	add    $0x4,%edi
  40d55f:	c7 44 24 0c 00 00 00 	movl   $0x0,0xc(%esp)
  40d566:	00 
  40d567:	89 d1                	mov    %edx,%ecx
  40d569:	83 e1 01             	and    $0x1,%ecx
  40d56c:	39 6c 24 14          	cmp    %ebp,0x14(%esp)
  40d570:	89 4c 24 08          	mov    %ecx,0x8(%esp)
  40d574:	89 47 fc             	mov    %eax,-0x4(%edi)
  40d577:	77 c7                	ja     40d540 <___diff_D2A+0x80>
  40d579:	39 74 24 10          	cmp    %esi,0x10(%esp)
  40d57d:	76 4b                	jbe    40d5ca <___diff_D2A+0x10a>
  40d57f:	8b 5c 24 0c          	mov    0xc(%esp),%ebx
  40d583:	8b 4c 24 08          	mov    0x8(%esp),%ecx
  40d587:	89 7c 24 14          	mov    %edi,0x14(%esp)
  40d58b:	89 74 24 08          	mov    %esi,0x8(%esp)
  40d58f:	90                   	nop
  40d590:	83 c6 04             	add    $0x4,%esi
  40d593:	8b 46 fc             	mov    -0x4(%esi),%eax
  40d596:	31 d2                	xor    %edx,%edx
  40d598:	29 c8                	sub    %ecx,%eax
  40d59a:	19 da                	sbb    %ebx,%edx
  40d59c:	83 c7 04             	add    $0x4,%edi
  40d59f:	89 d5                	mov    %edx,%ebp
  40d5a1:	31 db                	xor    %ebx,%ebx
  40d5a3:	83 e5 01             	and    $0x1,%ebp
  40d5a6:	39 74 24 10          	cmp    %esi,0x10(%esp)
  40d5aa:	89 e9                	mov    %ebp,%ecx
  40d5ac:	89 47 fc             	mov    %eax,-0x4(%edi)
  40d5af:	77 df                	ja     40d590 <___diff_D2A+0xd0>
  40d5b1:	8b 6c 24 08          	mov    0x8(%esp),%ebp
  40d5b5:	8b 7c 24 10          	mov    0x10(%esp),%edi
  40d5b9:	8b 5c 24 14          	mov    0x14(%esp),%ebx
  40d5bd:	f7 d5                	not    %ebp
  40d5bf:	8d 54 3d 00          	lea    0x0(%ebp,%edi,1),%edx
  40d5c3:	c1 ea 02             	shr    $0x2,%edx
  40d5c6:	8d 7c 93 04          	lea    0x4(%ebx,%edx,4),%edi
  40d5ca:	85 c0                	test   %eax,%eax
  40d5cc:	75 21                	jne    40d5ef <___diff_D2A+0x12f>
  40d5ce:	8b 54 24 18          	mov    0x18(%esp),%edx
  40d5d2:	89 d0                	mov    %edx,%eax
  40d5d4:	c1 e0 02             	shl    $0x2,%eax
  40d5d7:	29 c7                	sub    %eax,%edi
  40d5d9:	89 d0                	mov    %edx,%eax
  40d5db:	90                   	nop
  40d5dc:	8d 74 26 00          	lea    0x0(%esi,%eiz,1),%esi
  40d5e0:	83 e8 01             	sub    $0x1,%eax
  40d5e3:	8b 6c 87 fc          	mov    -0x4(%edi,%eax,4),%ebp
  40d5e7:	85 ed                	test   %ebp,%ebp
  40d5e9:	74 f5                	je     40d5e0 <___diff_D2A+0x120>
  40d5eb:	89 44 24 18          	mov    %eax,0x18(%esp)
  40d5ef:	8b 44 24 1c          	mov    0x1c(%esp),%eax
  40d5f3:	8b 54 24 18          	mov    0x18(%esp),%edx
  40d5f7:	89 50 10             	mov    %edx,0x10(%eax)
  40d5fa:	83 c4 2c             	add    $0x2c,%esp
  40d5fd:	5b                   	pop    %ebx
  40d5fe:	5e                   	pop    %esi
  40d5ff:	5f                   	pop    %edi
  40d600:	5d                   	pop    %ebp
  40d601:	c3                   	ret    
  40d602:	c7 04 24 00 00 00 00 	movl   $0x0,(%esp)
  40d609:	e8 12 f8 ff ff       	call   40ce20 <___Balloc_D2A>
  40d60e:	85 c0                	test   %eax,%eax
  40d610:	74 26                	je     40d638 <___diff_D2A+0x178>
  40d612:	c7 40 10 01 00 00 00 	movl   $0x1,0x10(%eax)
  40d619:	c7 40 14 00 00 00 00 	movl   $0x0,0x14(%eax)
  40d620:	83 c4 2c             	add    $0x2c,%esp
  40d623:	5b                   	pop    %ebx
  40d624:	5e                   	pop    %esi
  40d625:	5f                   	pop    %edi
  40d626:	5d                   	pop    %ebp
  40d627:	c3                   	ret    
  40d628:	89 f0                	mov    %esi,%eax
  40d62a:	bf 01 00 00 00       	mov    $0x1,%edi
  40d62f:	89 de                	mov    %ebx,%esi
  40d631:	89 c3                	mov    %eax,%ebx
  40d633:	e9 b3 fe ff ff       	jmp    40d4eb <___diff_D2A+0x2b>
  40d638:	31 c0                	xor    %eax,%eax
  40d63a:	eb be                	jmp    40d5fa <___diff_D2A+0x13a>
  40d63c:	8d 74 26 00          	lea    0x0(%esi,%eiz,1),%esi

0040d640 <___b2d_D2A>:
  40d640:	55                   	push   %ebp
  40d641:	b9 20 00 00 00       	mov    $0x20,%ecx
  40d646:	57                   	push   %edi
  40d647:	56                   	push   %esi
  40d648:	53                   	push   %ebx
  40d649:	83 ec 14             	sub    $0x14,%esp
  40d64c:	8b 44 24 28          	mov    0x28(%esp),%eax
  40d650:	8b 7c 24 2c          	mov    0x2c(%esp),%edi
  40d654:	8d 58 14             	lea    0x14(%eax),%ebx
  40d657:	8b 40 10             	mov    0x10(%eax),%eax
  40d65a:	8d 2c 83             	lea    (%ebx,%eax,4),%ebp
  40d65d:	8b 55 fc             	mov    -0x4(%ebp),%edx
  40d660:	8d 75 fc             	lea    -0x4(%ebp),%esi
  40d663:	0f bd c2             	bsr    %edx,%eax
  40d666:	83 f0 1f             	xor    $0x1f,%eax
  40d669:	29 c1                	sub    %eax,%ecx
  40d66b:	83 f8 0a             	cmp    $0xa,%eax
  40d66e:	89 0f                	mov    %ecx,(%edi)
  40d670:	7f 3e                	jg     40d6b0 <___b2d_D2A+0x70>
  40d672:	b9 0b 00 00 00       	mov    $0xb,%ecx
  40d677:	89 d7                	mov    %edx,%edi
  40d679:	29 c1                	sub    %eax,%ecx
  40d67b:	d3 ef                	shr    %cl,%edi
  40d67d:	81 cf 00 00 f0 3f    	or     $0x3ff00000,%edi
  40d683:	89 7c 24 04          	mov    %edi,0x4(%esp)
  40d687:	31 ff                	xor    %edi,%edi
  40d689:	39 f3                	cmp    %esi,%ebx
  40d68b:	c7 04 24 00 00 00 00 	movl   $0x0,(%esp)
  40d692:	73 05                	jae    40d699 <___b2d_D2A+0x59>
  40d694:	8b 7d f8             	mov    -0x8(%ebp),%edi
  40d697:	d3 ef                	shr    %cl,%edi
  40d699:	8d 48 15             	lea    0x15(%eax),%ecx
  40d69c:	d3 e2                	shl    %cl,%edx
  40d69e:	09 d7                	or     %edx,%edi
  40d6a0:	89 3c 24             	mov    %edi,(%esp)
  40d6a3:	dd 04 24             	fldl   (%esp)
  40d6a6:	83 c4 14             	add    $0x14,%esp
  40d6a9:	5b                   	pop    %ebx
  40d6aa:	5e                   	pop    %esi
  40d6ab:	5f                   	pop    %edi
  40d6ac:	5d                   	pop    %ebp
  40d6ad:	c3                   	ret    
  40d6ae:	66 90                	xchg   %ax,%ax
  40d6b0:	31 ff                	xor    %edi,%edi
  40d6b2:	39 f3                	cmp    %esi,%ebx
  40d6b4:	73 06                	jae    40d6bc <___b2d_D2A+0x7c>
  40d6b6:	8b 7d f8             	mov    -0x8(%ebp),%edi
  40d6b9:	8d 75 f8             	lea    -0x8(%ebp),%esi
  40d6bc:	89 c1                	mov    %eax,%ecx
  40d6be:	83 e9 0b             	sub    $0xb,%ecx
  40d6c1:	89 4c 24 0c          	mov    %ecx,0xc(%esp)
  40d6c5:	74 49                	je     40d710 <___b2d_D2A+0xd0>
  40d6c7:	0f b6 4c 24 0c       	movzbl 0xc(%esp),%ecx
  40d6cc:	bd 2b 00 00 00       	mov    $0x2b,%ebp
  40d6d1:	29 c5                	sub    %eax,%ebp
  40d6d3:	89 f8                	mov    %edi,%eax
  40d6d5:	c7 04 24 00 00 00 00 	movl   $0x0,(%esp)
  40d6dc:	d3 e2                	shl    %cl,%edx
  40d6de:	89 e9                	mov    %ebp,%ecx
  40d6e0:	d3 e8                	shr    %cl,%eax
  40d6e2:	81 ca 00 00 f0 3f    	or     $0x3ff00000,%edx
  40d6e8:	09 c2                	or     %eax,%edx
  40d6ea:	31 c0                	xor    %eax,%eax
  40d6ec:	39 de                	cmp    %ebx,%esi
  40d6ee:	89 54 24 04          	mov    %edx,0x4(%esp)
  40d6f2:	76 05                	jbe    40d6f9 <___b2d_D2A+0xb9>
  40d6f4:	8b 46 fc             	mov    -0x4(%esi),%eax
  40d6f7:	d3 e8                	shr    %cl,%eax
  40d6f9:	0f b6 4c 24 0c       	movzbl 0xc(%esp),%ecx
  40d6fe:	d3 e7                	shl    %cl,%edi
  40d700:	09 f8                	or     %edi,%eax
  40d702:	89 04 24             	mov    %eax,(%esp)
  40d705:	dd 04 24             	fldl   (%esp)
  40d708:	83 c4 14             	add    $0x14,%esp
  40d70b:	5b                   	pop    %ebx
  40d70c:	5e                   	pop    %esi
  40d70d:	5f                   	pop    %edi
  40d70e:	5d                   	pop    %ebp
  40d70f:	c3                   	ret    
  40d710:	81 ca 00 00 f0 3f    	or     $0x3ff00000,%edx
  40d716:	89 3c 24             	mov    %edi,(%esp)
  40d719:	89 54 24 04          	mov    %edx,0x4(%esp)
  40d71d:	dd 04 24             	fldl   (%esp)
  40d720:	83 c4 14             	add    $0x14,%esp
  40d723:	5b                   	pop    %ebx
  40d724:	5e                   	pop    %esi
  40d725:	5f                   	pop    %edi
  40d726:	5d                   	pop    %ebp
  40d727:	c3                   	ret    
  40d728:	90                   	nop
  40d729:	8d b4 26 00 00 00 00 	lea    0x0(%esi,%eiz,1),%esi

0040d730 <___d2b_D2A>:
  40d730:	55                   	push   %ebp
  40d731:	57                   	push   %edi
  40d732:	56                   	push   %esi
  40d733:	53                   	push   %ebx
  40d734:	83 ec 1c             	sub    $0x1c,%esp
  40d737:	dd 44 24 30          	fldl   0x30(%esp)
  40d73b:	c7 04 24 01 00 00 00 	movl   $0x1,(%esp)
  40d742:	dd 5c 24 08          	fstpl  0x8(%esp)
  40d746:	e8 d5 f6 ff ff       	call   40ce20 <___Balloc_D2A>
  40d74b:	85 c0                	test   %eax,%eax
  40d74d:	0f 84 c5 00 00 00    	je     40d818 <___d2b_D2A+0xe8>
  40d753:	8b 54 24 0c          	mov    0xc(%esp),%edx
  40d757:	89 d3                	mov    %edx,%ebx
  40d759:	81 e2 ff ff ff 7f    	and    $0x7fffffff,%edx
  40d75f:	c1 ea 14             	shr    $0x14,%edx
  40d762:	81 e3 ff ff 0f 00    	and    $0xfffff,%ebx
  40d768:	85 d2                	test   %edx,%edx
  40d76a:	74 06                	je     40d772 <___d2b_D2A+0x42>
  40d76c:	81 cb 00 00 10 00    	or     $0x100000,%ebx
  40d772:	8b 7c 24 08          	mov    0x8(%esp),%edi
  40d776:	85 ff                	test   %edi,%edi
  40d778:	75 3e                	jne    40d7b8 <___d2b_D2A+0x88>
  40d77a:	f3 0f bc cb          	tzcnt  %ebx,%ecx
  40d77e:	d3 eb                	shr    %cl,%ebx
  40d780:	85 d2                	test   %edx,%edx
  40d782:	8d 71 20             	lea    0x20(%ecx),%esi
  40d785:	b9 01 00 00 00       	mov    $0x1,%ecx
  40d78a:	89 58 14             	mov    %ebx,0x14(%eax)
  40d78d:	c7 40 10 01 00 00 00 	movl   $0x1,0x10(%eax)
  40d794:	74 56                	je     40d7ec <___d2b_D2A+0xbc>
  40d796:	8b 7c 24 38          	mov    0x38(%esp),%edi
  40d79a:	8d 94 16 cd fb ff ff 	lea    -0x433(%esi,%edx,1),%edx
  40d7a1:	89 17                	mov    %edx,(%edi)
  40d7a3:	ba 35 00 00 00       	mov    $0x35,%edx
  40d7a8:	29 f2                	sub    %esi,%edx
  40d7aa:	8b 74 24 3c          	mov    0x3c(%esp),%esi
  40d7ae:	89 16                	mov    %edx,(%esi)
  40d7b0:	83 c4 1c             	add    $0x1c,%esp
  40d7b3:	5b                   	pop    %ebx
  40d7b4:	5e                   	pop    %esi
  40d7b5:	5f                   	pop    %edi
  40d7b6:	5d                   	pop    %ebp
  40d7b7:	c3                   	ret    
  40d7b8:	f3 0f bc f7          	tzcnt  %edi,%esi
  40d7bc:	89 f1                	mov    %esi,%ecx
  40d7be:	d3 ef                	shr    %cl,%edi
  40d7c0:	85 f6                	test   %esi,%esi
  40d7c2:	74 4f                	je     40d813 <___d2b_D2A+0xe3>
  40d7c4:	b9 20 00 00 00       	mov    $0x20,%ecx
  40d7c9:	89 dd                	mov    %ebx,%ebp
  40d7cb:	29 f1                	sub    %esi,%ecx
  40d7cd:	d3 e5                	shl    %cl,%ebp
  40d7cf:	89 e9                	mov    %ebp,%ecx
  40d7d1:	09 f9                	or     %edi,%ecx
  40d7d3:	89 48 14             	mov    %ecx,0x14(%eax)
  40d7d6:	89 f1                	mov    %esi,%ecx
  40d7d8:	d3 eb                	shr    %cl,%ebx
  40d7da:	83 fb 01             	cmp    $0x1,%ebx
  40d7dd:	19 c9                	sbb    %ecx,%ecx
  40d7df:	83 c1 02             	add    $0x2,%ecx
  40d7e2:	85 d2                	test   %edx,%edx
  40d7e4:	89 58 18             	mov    %ebx,0x18(%eax)
  40d7e7:	89 48 10             	mov    %ecx,0x10(%eax)
  40d7ea:	75 aa                	jne    40d796 <___d2b_D2A+0x66>
  40d7ec:	8b 7c 24 38          	mov    0x38(%esp),%edi
  40d7f0:	81 ee 32 04 00 00    	sub    $0x432,%esi
  40d7f6:	0f bd 54 88 10       	bsr    0x10(%eax,%ecx,4),%edx
  40d7fb:	c1 e1 05             	shl    $0x5,%ecx
  40d7fe:	89 37                	mov    %esi,(%edi)
  40d800:	8b 74 24 3c          	mov    0x3c(%esp),%esi
  40d804:	83 f2 1f             	xor    $0x1f,%edx
  40d807:	29 d1                	sub    %edx,%ecx
  40d809:	89 0e                	mov    %ecx,(%esi)
  40d80b:	83 c4 1c             	add    $0x1c,%esp
  40d80e:	5b                   	pop    %ebx
  40d80f:	5e                   	pop    %esi
  40d810:	5f                   	pop    %edi
  40d811:	5d                   	pop    %ebp
  40d812:	c3                   	ret    
  40d813:	89 78 14             	mov    %edi,0x14(%eax)
  40d816:	eb c2                	jmp    40d7da <___d2b_D2A+0xaa>
  40d818:	31 c0                	xor    %eax,%eax
  40d81a:	eb 94                	jmp    40d7b0 <___d2b_D2A+0x80>
  40d81c:	8d 74 26 00          	lea    0x0(%esi,%eiz,1),%esi

0040d820 <___strcp_D2A>:
  40d820:	8b 4c 24 08          	mov    0x8(%esp),%ecx
  40d824:	8b 44 24 04          	mov    0x4(%esp),%eax
  40d828:	8d 51 01             	lea    0x1(%ecx),%edx
  40d82b:	0f b6 09             	movzbl (%ecx),%ecx
  40d82e:	84 c9                	test   %cl,%cl
  40d830:	88 08                	mov    %cl,(%eax)
  40d832:	74 10                	je     40d844 <___strcp_D2A+0x24>
  40d834:	83 c2 01             	add    $0x1,%edx
  40d837:	0f b6 4a ff          	movzbl -0x1(%edx),%ecx
  40d83b:	83 c0 01             	add    $0x1,%eax
  40d83e:	84 c9                	test   %cl,%cl
  40d840:	88 08                	mov    %cl,(%eax)
  40d842:	75 f0                	jne    40d834 <___strcp_D2A+0x14>
  40d844:	f3 c3                	repz ret 
  40d846:	90                   	nop
  40d847:	90                   	nop
  40d848:	90                   	nop
  40d849:	90                   	nop
  40d84a:	90                   	nop
  40d84b:	90                   	nop
  40d84c:	90                   	nop
  40d84d:	90                   	nop
  40d84e:	90                   	nop
  40d84f:	90                   	nop

0040d850 <___rshift_D2A>:
  40d850:	55                   	push   %ebp
  40d851:	57                   	push   %edi
  40d852:	56                   	push   %esi
  40d853:	53                   	push   %ebx
  40d854:	83 ec 10             	sub    $0x10,%esp
  40d857:	8b 74 24 24          	mov    0x24(%esp),%esi
  40d85b:	8b 44 24 24          	mov    0x24(%esp),%eax
  40d85f:	8b 4c 24 28          	mov    0x28(%esp),%ecx
  40d863:	8b 56 10             	mov    0x10(%esi),%edx
  40d866:	8d 68 14             	lea    0x14(%eax),%ebp
  40d869:	89 c8                	mov    %ecx,%eax
  40d86b:	c1 f8 05             	sar    $0x5,%eax
  40d86e:	39 d0                	cmp    %edx,%eax
  40d870:	0f 8d 8a 00 00 00    	jge    40d900 <___rshift_D2A+0xb0>
  40d876:	8d 44 85 00          	lea    0x0(%ebp,%eax,4),%eax
  40d87a:	83 e1 1f             	and    $0x1f,%ecx
  40d87d:	8d 7c 95 00          	lea    0x0(%ebp,%edx,4),%edi
  40d881:	89 44 24 04          	mov    %eax,0x4(%esp)
  40d885:	89 0c 24             	mov    %ecx,(%esp)
  40d888:	0f 84 92 00 00 00    	je     40d920 <___rshift_D2A+0xd0>
  40d88e:	8b 74 24 04          	mov    0x4(%esp),%esi
  40d892:	8b 04 24             	mov    (%esp),%eax
  40d895:	c7 44 24 08 20 00 00 	movl   $0x20,0x8(%esp)
  40d89c:	00 
  40d89d:	29 44 24 08          	sub    %eax,0x8(%esp)
  40d8a1:	8b 1e                	mov    (%esi),%ebx
  40d8a3:	8d 56 04             	lea    0x4(%esi),%edx
  40d8a6:	89 c1                	mov    %eax,%ecx
  40d8a8:	d3 eb                	shr    %cl,%ebx
  40d8aa:	39 d7                	cmp    %edx,%edi
  40d8ac:	0f 86 ac 00 00 00    	jbe    40d95e <___rshift_D2A+0x10e>
  40d8b2:	89 ee                	mov    %ebp,%esi
  40d8b4:	89 6c 24 0c          	mov    %ebp,0xc(%esp)
  40d8b8:	8b 6c 24 08          	mov    0x8(%esp),%ebp
  40d8bc:	8d 74 26 00          	lea    0x0(%esi,%eiz,1),%esi
  40d8c0:	8b 02                	mov    (%edx),%eax
  40d8c2:	89 e9                	mov    %ebp,%ecx
  40d8c4:	83 c6 04             	add    $0x4,%esi
  40d8c7:	83 c2 04             	add    $0x4,%edx
  40d8ca:	d3 e0                	shl    %cl,%eax
  40d8cc:	0f b6 0c 24          	movzbl (%esp),%ecx
  40d8d0:	09 d8                	or     %ebx,%eax
  40d8d2:	89 46 fc             	mov    %eax,-0x4(%esi)
  40d8d5:	8b 5a fc             	mov    -0x4(%edx),%ebx
  40d8d8:	d3 eb                	shr    %cl,%ebx
  40d8da:	39 d7                	cmp    %edx,%edi
  40d8dc:	77 e2                	ja     40d8c0 <___rshift_D2A+0x70>
  40d8de:	2b 7c 24 04          	sub    0x4(%esp),%edi
  40d8e2:	8b 6c 24 0c          	mov    0xc(%esp),%ebp
  40d8e6:	8d 47 fb             	lea    -0x5(%edi),%eax
  40d8e9:	c1 e8 02             	shr    $0x2,%eax
  40d8ec:	8d 44 85 04          	lea    0x4(%ebp,%eax,4),%eax
  40d8f0:	85 db                	test   %ebx,%ebx
  40d8f2:	89 18                	mov    %ebx,(%eax)
  40d8f4:	74 03                	je     40d8f9 <___rshift_D2A+0xa9>
  40d8f6:	83 c0 04             	add    $0x4,%eax
  40d8f9:	29 e8                	sub    %ebp,%eax
  40d8fb:	c1 f8 02             	sar    $0x2,%eax
  40d8fe:	eb 4b                	jmp    40d94b <___rshift_D2A+0xfb>
  40d900:	8b 44 24 24          	mov    0x24(%esp),%eax
  40d904:	c7 40 10 00 00 00 00 	movl   $0x0,0x10(%eax)
  40d90b:	8b 44 24 24          	mov    0x24(%esp),%eax
  40d90f:	c7 40 14 00 00 00 00 	movl   $0x0,0x14(%eax)
  40d916:	83 c4 10             	add    $0x10,%esp
  40d919:	5b                   	pop    %ebx
  40d91a:	5e                   	pop    %esi
  40d91b:	5f                   	pop    %edi
  40d91c:	5d                   	pop    %ebp
  40d91d:	c3                   	ret    
  40d91e:	66 90                	xchg   %ax,%ax
  40d920:	39 c7                	cmp    %eax,%edi
  40d922:	89 ea                	mov    %ebp,%edx
  40d924:	76 da                	jbe    40d900 <___rshift_D2A+0xb0>
  40d926:	83 c0 04             	add    $0x4,%eax
  40d929:	8b 48 fc             	mov    -0x4(%eax),%ecx
  40d92c:	83 c2 04             	add    $0x4,%edx
  40d92f:	39 c7                	cmp    %eax,%edi
  40d931:	89 4a fc             	mov    %ecx,-0x4(%edx)
  40d934:	77 f0                	ja     40d926 <___rshift_D2A+0xd6>
  40d936:	8b 44 24 04          	mov    0x4(%esp),%eax
  40d93a:	f7 d0                	not    %eax
  40d93c:	01 f8                	add    %edi,%eax
  40d93e:	c1 e8 02             	shr    $0x2,%eax
  40d941:	8d 04 85 04 00 00 00 	lea    0x4(,%eax,4),%eax
  40d948:	c1 f8 02             	sar    $0x2,%eax
  40d94b:	8b 74 24 24          	mov    0x24(%esp),%esi
  40d94f:	85 c0                	test   %eax,%eax
  40d951:	89 46 10             	mov    %eax,0x10(%esi)
  40d954:	74 b5                	je     40d90b <___rshift_D2A+0xbb>
  40d956:	83 c4 10             	add    $0x10,%esp
  40d959:	5b                   	pop    %ebx
  40d95a:	5e                   	pop    %esi
  40d95b:	5f                   	pop    %edi
  40d95c:	5d                   	pop    %ebp
  40d95d:	c3                   	ret    
  40d95e:	89 e8                	mov    %ebp,%eax
  40d960:	eb 8e                	jmp    40d8f0 <___rshift_D2A+0xa0>
  40d962:	8d b4 26 00 00 00 00 	lea    0x0(%esi,%eiz,1),%esi
  40d969:	8d bc 27 00 00 00 00 	lea    0x0(%edi,%eiz,1),%edi

0040d970 <___trailz_D2A>:
  40d970:	53                   	push   %ebx
  40d971:	8b 44 24 08          	mov    0x8(%esp),%eax
  40d975:	8b 48 10             	mov    0x10(%eax),%ecx
  40d978:	8d 50 14             	lea    0x14(%eax),%edx
  40d97b:	8d 1c 8a             	lea    (%edx,%ecx,4),%ebx
  40d97e:	39 da                	cmp    %ebx,%edx
  40d980:	73 28                	jae    40d9aa <___trailz_D2A+0x3a>
  40d982:	8b 48 14             	mov    0x14(%eax),%ecx
  40d985:	31 c0                	xor    %eax,%eax
  40d987:	85 c9                	test   %ecx,%ecx
  40d989:	74 0b                	je     40d996 <___trailz_D2A+0x26>
  40d98b:	eb 15                	jmp    40d9a2 <___trailz_D2A+0x32>
  40d98d:	8d 76 00             	lea    0x0(%esi),%esi
  40d990:	8b 0a                	mov    (%edx),%ecx
  40d992:	85 c9                	test   %ecx,%ecx
  40d994:	75 0c                	jne    40d9a2 <___trailz_D2A+0x32>
  40d996:	83 c2 04             	add    $0x4,%edx
  40d999:	83 c0 20             	add    $0x20,%eax
  40d99c:	39 d3                	cmp    %edx,%ebx
  40d99e:	77 f0                	ja     40d990 <___trailz_D2A+0x20>
  40d9a0:	5b                   	pop    %ebx
  40d9a1:	c3                   	ret    
  40d9a2:	f3 0f bc c9          	tzcnt  %ecx,%ecx
  40d9a6:	01 c8                	add    %ecx,%eax
  40d9a8:	5b                   	pop    %ebx
  40d9a9:	c3                   	ret    
  40d9aa:	31 c0                	xor    %eax,%eax
  40d9ac:	5b                   	pop    %ebx
  40d9ad:	c3                   	ret    
  40d9ae:	90                   	nop
  40d9af:	90                   	nop

0040d9b0 <_signal>:
  40d9b0:	ff 25 a0 42 41 00    	jmp    *0x4142a0
  40d9b6:	90                   	nop
  40d9b7:	90                   	nop

0040d9b8 <__setmode>:
  40d9b8:	ff 25 4c 42 41 00    	jmp    *0x41424c
  40d9be:	90                   	nop
  40d9bf:	90                   	nop

0040d9c0 <___p__fmode>:
  40d9c0:	ff 25 30 42 41 00    	jmp    *0x414230
  40d9c6:	90                   	nop
  40d9c7:	90                   	nop

0040d9c8 <___p__environ>:
  40d9c8:	ff 25 2c 42 41 00    	jmp    *0x41422c
  40d9ce:	90                   	nop
  40d9cf:	90                   	nop

0040d9d0 <__cexit>:
  40d9d0:	ff 25 38 42 41 00    	jmp    *0x414238
  40d9d6:	90                   	nop
  40d9d7:	90                   	nop

0040d9d8 <___getmainargs>:
  40d9d8:	ff 25 24 42 41 00    	jmp    *0x414224
  40d9de:	90                   	nop
  40d9df:	90                   	nop

0040d9e0 <_puts>:
  40d9e0:	ff 25 94 42 41 00    	jmp    *0x414294
  40d9e6:	90                   	nop
  40d9e7:	90                   	nop

0040d9e8 <_printf>:
  40d9e8:	ff 25 8c 42 41 00    	jmp    *0x41428c
  40d9ee:	90                   	nop
  40d9ef:	90                   	nop

0040d9f0 <_putchar>:
  40d9f0:	ff 25 90 42 41 00    	jmp    *0x414290
  40d9f6:	90                   	nop
  40d9f7:	90                   	nop

0040d9f8 <_malloc>:
  40d9f8:	ff 25 78 42 41 00    	jmp    *0x414278
  40d9fe:	90                   	nop
  40d9ff:	90                   	nop

0040da00 <_free>:
  40da00:	ff 25 64 42 41 00    	jmp    *0x414264
  40da06:	90                   	nop
  40da07:	90                   	nop

0040da08 <_calloc>:
  40da08:	ff 25 5c 42 41 00    	jmp    *0x41425c
  40da0e:	90                   	nop
  40da0f:	90                   	nop

0040da10 <_time>:
  40da10:	ff 25 b0 42 41 00    	jmp    *0x4142b0
  40da16:	90                   	nop
  40da17:	90                   	nop

0040da18 <_strlen>:
  40da18:	ff 25 ac 42 41 00    	jmp    *0x4142ac
  40da1e:	90                   	nop
  40da1f:	90                   	nop

0040da20 <_isspace>:
  40da20:	ff 25 70 42 41 00    	jmp    *0x414270
  40da26:	90                   	nop
  40da27:	90                   	nop

0040da28 <_fwrite>:
  40da28:	ff 25 68 42 41 00    	jmp    *0x414268
  40da2e:	90                   	nop
  40da2f:	90                   	nop

0040da30 <_vfprintf>:
  40da30:	ff 25 b8 42 41 00    	jmp    *0x4142b8
  40da36:	90                   	nop
  40da37:	90                   	nop

0040da38 <_abort>:
  40da38:	ff 25 50 42 41 00    	jmp    *0x414250
  40da3e:	90                   	nop
  40da3f:	90                   	nop

0040da40 <_memcpy>:
  40da40:	ff 25 80 42 41 00    	jmp    *0x414280
  40da46:	90                   	nop
  40da47:	90                   	nop

0040da48 <_tolower>:
  40da48:	ff 25 b4 42 41 00    	jmp    *0x4142b4
  40da4e:	90                   	nop
  40da4f:	90                   	nop

0040da50 <_realloc>:
  40da50:	ff 25 98 42 41 00    	jmp    *0x414298
  40da56:	90                   	nop
  40da57:	90                   	nop

0040da58 <_strcoll>:
  40da58:	ff 25 a8 42 41 00    	jmp    *0x4142a8
  40da5e:	90                   	nop
  40da5f:	90                   	nop

0040da60 <__errno>:
  40da60:	ff 25 3c 42 41 00    	jmp    *0x41423c
  40da66:	90                   	nop
  40da67:	90                   	nop

0040da68 <_setlocale>:
  40da68:	ff 25 9c 42 41 00    	jmp    *0x41429c
  40da6e:	90                   	nop
  40da6f:	90                   	nop

0040da70 <_wcstombs>:
  40da70:	ff 25 c0 42 41 00    	jmp    *0x4142c0
  40da76:	90                   	nop
  40da77:	90                   	nop

0040da78 <_mbstowcs>:
  40da78:	ff 25 7c 42 41 00    	jmp    *0x41427c
  40da7e:	90                   	nop
  40da7f:	90                   	nop

0040da80 <__fullpath>:
  40da80:	ff 25 40 42 41 00    	jmp    *0x414240
  40da86:	90                   	nop
  40da87:	90                   	nop

0040da88 <_fputc>:
  40da88:	ff 25 60 42 41 00    	jmp    *0x414260
  40da8e:	90                   	nop
  40da8f:	90                   	nop

0040da90 <_localeconv>:
  40da90:	ff 25 74 42 41 00    	jmp    *0x414274
  40da96:	90                   	nop
  40da97:	90                   	nop

0040da98 <_getenv>:
  40da98:	ff 25 6c 42 41 00    	jmp    *0x41426c
  40da9e:	90                   	nop
  40da9f:	90                   	nop

0040daa0 <_wcslen>:
  40daa0:	ff 25 bc 42 41 00    	jmp    *0x4142bc
  40daa6:	90                   	nop
  40daa7:	90                   	nop

0040daa8 <_strchr>:
  40daa8:	ff 25 a4 42 41 00    	jmp    *0x4142a4
  40daae:	90                   	nop
  40daaf:	90                   	nop

0040dab0 <_atoi>:
  40dab0:	ff 25 58 42 41 00    	jmp    *0x414258
  40dab6:	90                   	nop
  40dab7:	90                   	nop

0040dab8 <.text>:
  40dab8:	66 90                	xchg   %ax,%ax
  40daba:	66 90                	xchg   %ax,%ax
  40dabc:	66 90                	xchg   %ax,%ax
  40dabe:	66 90                	xchg   %ax,%ax

0040dac0 <_moncontrol.part.0>:
  40dac0:	83 ec 1c             	sub    $0x1c,%esp
  40dac3:	a1 40 3a 41 00       	mov    0x413a40,%eax
  40dac8:	89 44 24 0c          	mov    %eax,0xc(%esp)
  40dacc:	a1 e0 f8 40 00       	mov    0x40f8e0,%eax
  40dad1:	89 44 24 08          	mov    %eax,0x8(%esp)
  40dad5:	a1 c8 f8 40 00       	mov    0x40f8c8,%eax
  40dada:	89 44 24 04          	mov    %eax,0x4(%esp)
  40dade:	a1 c4 f8 40 00       	mov    0x40f8c4,%eax
  40dae3:	89 04 24             	mov    %eax,(%esp)
  40dae6:	e8 75 07 00 00       	call   40e260 <_profil>
  40daeb:	c7 05 c0 f8 40 00 00 	movl   $0x0,0x40f8c0
  40daf2:	00 00 00 
  40daf5:	83 c4 1c             	add    $0x1c,%esp
  40daf8:	c3                   	ret    
  40daf9:	8d b4 26 00 00 00 00 	lea    0x0(%esi,%eiz,1),%esi

0040db00 <_monstartup>:
  40db00:	55                   	push   %ebp
  40db01:	ba 1f 85 eb 51       	mov    $0x51eb851f,%edx
  40db06:	57                   	push   %edi
  40db07:	56                   	push   %esi
  40db08:	53                   	push   %ebx
  40db09:	83 ec 2c             	sub    $0x2c,%esp
  40db0c:	8b 4c 24 44          	mov    0x44(%esp),%ecx
  40db10:	8b 44 24 40          	mov    0x40(%esp),%eax
  40db14:	c7 05 ec f8 40 00 02 	movl   $0x2,0x40f8ec
  40db1b:	00 00 00 
  40db1e:	8d 71 03             	lea    0x3(%ecx),%esi
  40db21:	83 e0 fc             	and    $0xfffffffc,%eax
  40db24:	83 e6 fc             	and    $0xfffffffc,%esi
  40db27:	89 35 e4 f8 40 00    	mov    %esi,0x40f8e4
  40db2d:	29 c6                	sub    %eax,%esi
  40db2f:	a3 e0 f8 40 00       	mov    %eax,0x40f8e0
  40db34:	8d 04 36             	lea    (%esi,%esi,1),%eax
  40db37:	89 f3                	mov    %esi,%ebx
  40db39:	f7 e2                	mul    %edx
  40db3b:	d1 eb                	shr    %ebx
  40db3d:	89 35 e8 f8 40 00    	mov    %esi,0x40f8e8
  40db43:	89 1d c8 f8 40 00    	mov    %ebx,0x40f8c8
  40db49:	c1 ea 05             	shr    $0x5,%edx
  40db4c:	83 fa 31             	cmp    $0x31,%edx
  40db4f:	89 1d d0 f8 40 00    	mov    %ebx,0x40f8d0
  40db55:	7f 79                	jg     40dbd0 <_monstartup+0xd0>
  40db57:	c7 05 dc f8 40 00 32 	movl   $0x32,0x40f8dc
  40db5e:	00 00 00 
  40db61:	bd 58 02 00 00       	mov    $0x258,%ebp
  40db66:	8d 54 5d 00          	lea    0x0(%ebp,%ebx,2),%edx
  40db6a:	89 14 24             	mov    %edx,(%esp)
  40db6d:	89 2d d8 f8 40 00    	mov    %ebp,0x40f8d8
  40db73:	89 54 24 14          	mov    %edx,0x14(%esp)
  40db77:	e8 7c fe ff ff       	call   40d9f8 <_malloc>
  40db7c:	8b 54 24 14          	mov    0x14(%esp),%edx
  40db80:	c7 44 24 04 00 00 00 	movl   $0x0,0x4(%esp)
  40db87:	00 
  40db88:	89 54 24 08          	mov    %edx,0x8(%esp)
  40db8c:	89 c7                	mov    %eax,%edi
  40db8e:	01 fd                	add    %edi,%ebp
  40db90:	89 04 24             	mov    %eax,(%esp)
  40db93:	e8 28 08 00 00       	call   40e3c0 <_memset>
  40db98:	31 c0                	xor    %eax,%eax
  40db9a:	89 2d c4 f8 40 00    	mov    %ebp,0x40f8c4
  40dba0:	01 dd                	add    %ebx,%ebp
  40dba2:	39 de                	cmp    %ebx,%esi
  40dba4:	89 3d d4 f8 40 00    	mov    %edi,0x40f8d4
  40dbaa:	89 2d cc f8 40 00    	mov    %ebp,0x40f8cc
  40dbb0:	66 89 47 08          	mov    %ax,0x8(%edi)
  40dbb4:	77 4b                	ja     40dc01 <_monstartup+0x101>
  40dbb6:	c7 05 40 3a 41 00 00 	movl   $0x10000,0x413a40
  40dbbd:	00 01 00 
  40dbc0:	83 c4 2c             	add    $0x2c,%esp
  40dbc3:	5b                   	pop    %ebx
  40dbc4:	5e                   	pop    %esi
  40dbc5:	5f                   	pop    %edi
  40dbc6:	5d                   	pop    %ebp
  40dbc7:	e9 f4 fe ff ff       	jmp    40dac0 <_moncontrol.part.0>
  40dbcc:	8d 74 26 00          	lea    0x0(%esi,%eiz,1),%esi
  40dbd0:	81 fa fe ff 00 00    	cmp    $0xfffe,%edx
  40dbd6:	7e 18                	jle    40dbf0 <_monstartup+0xf0>
  40dbd8:	c7 05 dc f8 40 00 fe 	movl   $0xfffe,0x40f8dc
  40dbdf:	ff 00 00 
  40dbe2:	bd e8 ff 0b 00       	mov    $0xbffe8,%ebp
  40dbe7:	e9 7a ff ff ff       	jmp    40db66 <_monstartup+0x66>
  40dbec:	8d 74 26 00          	lea    0x0(%esi,%eiz,1),%esi
  40dbf0:	8d 2c 52             	lea    (%edx,%edx,2),%ebp
  40dbf3:	89 15 dc f8 40 00    	mov    %edx,0x40f8dc
  40dbf9:	c1 e5 02             	shl    $0x2,%ebp
  40dbfc:	e9 65 ff ff ff       	jmp    40db66 <_monstartup+0x66>
  40dc01:	89 5c 24 1c          	mov    %ebx,0x1c(%esp)
  40dc05:	db 44 24 1c          	fildl  0x1c(%esp)
  40dc09:	89 74 24 1c          	mov    %esi,0x1c(%esp)
  40dc0d:	db 44 24 1c          	fildl  0x1c(%esp)
  40dc11:	de f9                	fdivrp %st,%st(1)
  40dc13:	d9 7c 24 1a          	fnstcw 0x1a(%esp)
  40dc17:	0f b7 44 24 1a       	movzwl 0x1a(%esp),%eax
  40dc1c:	b4 0c                	mov    $0xc,%ah
  40dc1e:	66 89 44 24 18       	mov    %ax,0x18(%esp)
  40dc23:	d8 0d 24 05 41 00    	fmuls  0x410524
  40dc29:	d9 6c 24 18          	fldcw  0x18(%esp)
  40dc2d:	db 1d 40 3a 41 00    	fistpl 0x413a40
  40dc33:	d9 6c 24 1a          	fldcw  0x1a(%esp)
  40dc37:	83 c4 2c             	add    $0x2c,%esp
  40dc3a:	5b                   	pop    %ebx
  40dc3b:	5e                   	pop    %esi
  40dc3c:	5f                   	pop    %edi
  40dc3d:	5d                   	pop    %ebp
  40dc3e:	e9 7d fe ff ff       	jmp    40dac0 <_moncontrol.part.0>
  40dc43:	8d b6 00 00 00 00    	lea    0x0(%esi),%esi
  40dc49:	8d bc 27 00 00 00 00 	lea    0x0(%edi,%eiz,1),%edi

0040dc50 <_moncontrol>:
  40dc50:	83 ec 1c             	sub    $0x1c,%esp
  40dc53:	8b 54 24 20          	mov    0x20(%esp),%edx
  40dc57:	85 d2                	test   %edx,%edx
  40dc59:	75 35                	jne    40dc90 <_moncontrol+0x40>
  40dc5b:	c7 44 24 0c 00 00 00 	movl   $0x0,0xc(%esp)
  40dc62:	00 
  40dc63:	c7 44 24 08 00 00 00 	movl   $0x0,0x8(%esp)
  40dc6a:	00 
  40dc6b:	c7 44 24 04 00 00 00 	movl   $0x0,0x4(%esp)
  40dc72:	00 
  40dc73:	c7 04 24 00 00 00 00 	movl   $0x0,(%esp)
  40dc7a:	e8 e1 05 00 00       	call   40e260 <_profil>
  40dc7f:	c7 05 c0 f8 40 00 03 	movl   $0x3,0x40f8c0
  40dc86:	00 00 00 
  40dc89:	83 c4 1c             	add    $0x1c,%esp
  40dc8c:	c3                   	ret    
  40dc8d:	8d 76 00             	lea    0x0(%esi),%esi
  40dc90:	83 c4 1c             	add    $0x1c,%esp
  40dc93:	e9 28 fe ff ff       	jmp    40dac0 <_moncontrol.part.0>
  40dc98:	90                   	nop
  40dc99:	8d b4 26 00 00 00 00 	lea    0x0(%esi,%eiz,1),%esi

0040dca0 <__mcleanup>:
  40dca0:	55                   	push   %ebp
  40dca1:	57                   	push   %edi
  40dca2:	56                   	push   %esi
  40dca3:	53                   	push   %ebx
  40dca4:	83 ec 5c             	sub    $0x5c,%esp
  40dca7:	83 3d c0 f8 40 00 02 	cmpl   $0x2,0x40f8c0
  40dcae:	0f 84 4b 01 00 00    	je     40ddff <__mcleanup+0x15f>
  40dcb4:	c7 04 24 00 00 00 00 	movl   $0x0,(%esp)
  40dcbb:	e8 90 ff ff ff       	call   40dc50 <_moncontrol>
  40dcc0:	c7 44 24 08 b6 01 00 	movl   $0x1b6,0x8(%esp)
  40dcc7:	00 
  40dcc8:	c7 44 24 04 01 83 00 	movl   $0x8301,0x4(%esp)
  40dccf:	00 
  40dcd0:	c7 04 24 19 05 41 00 	movl   $0x410519,(%esp)
  40dcd7:	e8 cc 06 00 00       	call   40e3a8 <_open>
  40dcdc:	85 c0                	test   %eax,%eax
  40dcde:	89 c6                	mov    %eax,%esi
  40dce0:	0f 88 05 01 00 00    	js     40ddeb <__mcleanup+0x14b>
  40dce6:	a1 e0 f8 40 00       	mov    0x40f8e0,%eax
  40dceb:	8d 7c 24 24          	lea    0x24(%esp),%edi
  40dcef:	c7 44 24 08 20 00 00 	movl   $0x20,0x8(%esp)
  40dcf6:	00 
  40dcf7:	89 34 24             	mov    %esi,(%esp)
  40dcfa:	c7 44 24 3c 79 18 05 	movl   $0x51879,0x3c(%esp)
  40dd01:	00 
  40dd02:	89 44 24 30          	mov    %eax,0x30(%esp)
  40dd06:	a1 e4 f8 40 00       	mov    0x40f8e4,%eax
  40dd0b:	c7 44 24 40 64 00 00 	movl   $0x64,0x40(%esp)
  40dd12:	00 
  40dd13:	89 44 24 34          	mov    %eax,0x34(%esp)
  40dd17:	a1 c8 f8 40 00       	mov    0x40f8c8,%eax
  40dd1c:	83 c0 20             	add    $0x20,%eax
  40dd1f:	89 44 24 38          	mov    %eax,0x38(%esp)
  40dd23:	8d 44 24 30          	lea    0x30(%esp),%eax
  40dd27:	89 44 24 04          	mov    %eax,0x4(%esp)
  40dd2b:	e8 80 06 00 00       	call   40e3b0 <_write>
  40dd30:	a1 c8 f8 40 00       	mov    0x40f8c8,%eax
  40dd35:	89 34 24             	mov    %esi,(%esp)
  40dd38:	89 44 24 08          	mov    %eax,0x8(%esp)
  40dd3c:	a1 c4 f8 40 00       	mov    0x40f8c4,%eax
  40dd41:	89 44 24 04          	mov    %eax,0x4(%esp)
  40dd45:	e8 66 06 00 00       	call   40e3b0 <_write>
  40dd4a:	a1 d0 f8 40 00       	mov    0x40f8d0,%eax
  40dd4f:	c7 44 24 18 00 00 00 	movl   $0x0,0x18(%esp)
  40dd56:	00 
  40dd57:	d1 e8                	shr    %eax
  40dd59:	89 44 24 1c          	mov    %eax,0x1c(%esp)
  40dd5d:	74 7c                	je     40dddb <__mcleanup+0x13b>
  40dd5f:	90                   	nop
  40dd60:	a1 cc f8 40 00       	mov    0x40f8cc,%eax
  40dd65:	8b 4c 24 18          	mov    0x18(%esp),%ecx
  40dd69:	0f b7 04 48          	movzwl (%eax,%ecx,2),%eax
  40dd6d:	66 85 c0             	test   %ax,%ax
  40dd70:	74 5a                	je     40ddcc <__mcleanup+0x12c>
  40dd72:	8b 0d ec f8 40 00    	mov    0x40f8ec,%ecx
  40dd78:	8b 15 d4 f8 40 00    	mov    0x40f8d4,%edx
  40dd7e:	8d 1c 09             	lea    (%ecx,%ecx,1),%ebx
  40dd81:	0f af 5c 24 18       	imul   0x18(%esp),%ebx
  40dd86:	03 1d e0 f8 40 00    	add    0x40f8e0,%ebx
  40dd8c:	8d 74 26 00          	lea    0x0(%esi,%eiz,1),%esi
  40dd90:	8d 2c 40             	lea    (%eax,%eax,2),%ebp
  40dd93:	c1 e5 02             	shl    $0x2,%ebp
  40dd96:	01 ea                	add    %ebp,%edx
  40dd98:	8b 02                	mov    (%edx),%eax
  40dd9a:	89 5c 24 24          	mov    %ebx,0x24(%esp)
  40dd9e:	89 44 24 28          	mov    %eax,0x28(%esp)
  40dda2:	8b 42 04             	mov    0x4(%edx),%eax
  40dda5:	c7 44 24 08 0c 00 00 	movl   $0xc,0x8(%esp)
  40ddac:	00 
  40ddad:	89 7c 24 04          	mov    %edi,0x4(%esp)
  40ddb1:	89 34 24             	mov    %esi,(%esp)
  40ddb4:	89 44 24 2c          	mov    %eax,0x2c(%esp)
  40ddb8:	e8 f3 05 00 00       	call   40e3b0 <_write>
  40ddbd:	8b 15 d4 f8 40 00    	mov    0x40f8d4,%edx
  40ddc3:	0f b7 44 2a 08       	movzwl 0x8(%edx,%ebp,1),%eax
  40ddc8:	85 c0                	test   %eax,%eax
  40ddca:	75 c4                	jne    40dd90 <__mcleanup+0xf0>
  40ddcc:	83 44 24 18 01       	addl   $0x1,0x18(%esp)
  40ddd1:	8b 44 24 18          	mov    0x18(%esp),%eax
  40ddd5:	39 44 24 1c          	cmp    %eax,0x1c(%esp)
  40ddd9:	75 85                	jne    40dd60 <__mcleanup+0xc0>
  40dddb:	89 34 24             	mov    %esi,(%esp)
  40ddde:	e8 d5 05 00 00       	call   40e3b8 <_close>
  40dde3:	83 c4 5c             	add    $0x5c,%esp
  40dde6:	5b                   	pop    %ebx
  40dde7:	5e                   	pop    %esi
  40dde8:	5f                   	pop    %edi
  40dde9:	5d                   	pop    %ebp
  40ddea:	c3                   	ret    
  40ddeb:	c7 04 24 19 05 41 00 	movl   $0x410519,(%esp)
  40ddf2:	e8 d1 05 00 00       	call   40e3c8 <_perror>
  40ddf7:	83 c4 5c             	add    $0x5c,%esp
  40ddfa:	5b                   	pop    %ebx
  40ddfb:	5e                   	pop    %esi
  40ddfc:	5f                   	pop    %edi
  40ddfd:	5d                   	pop    %ebp
  40ddfe:	c3                   	ret    
  40ddff:	c7 44 24 08 19 00 00 	movl   $0x19,0x8(%esp)
  40de06:	00 
  40de07:	c7 44 24 04 00 05 41 	movl   $0x410500,0x4(%esp)
  40de0e:	00 
  40de0f:	c7 04 24 02 00 00 00 	movl   $0x2,(%esp)
  40de16:	e8 95 05 00 00       	call   40e3b0 <_write>
  40de1b:	e9 94 fe ff ff       	jmp    40dcb4 <__mcleanup+0x14>

0040de20 <_mcount>:
  40de20:	55                   	push   %ebp
  40de21:	89 e5                	mov    %esp,%ebp
  40de23:	57                   	push   %edi
  40de24:	56                   	push   %esi
  40de25:	53                   	push   %ebx
  40de26:	50                   	push   %eax
  40de27:	51                   	push   %ecx
  40de28:	52                   	push   %edx
  40de29:	8b 0d c0 f8 40 00    	mov    0x40f8c0,%ecx
  40de2f:	8b 45 00             	mov    0x0(%ebp),%eax
  40de32:	8b 5d 04             	mov    0x4(%ebp),%ebx
  40de35:	85 c9                	test   %ecx,%ecx
  40de37:	8b 40 04             	mov    0x4(%eax),%eax
  40de3a:	0f 85 98 00 00 00    	jne    40ded8 <_mcount+0xb8>
  40de40:	2b 05 e0 f8 40 00    	sub    0x40f8e0,%eax
  40de46:	3b 05 e8 f8 40 00    	cmp    0x40f8e8,%eax
  40de4c:	c7 05 c0 f8 40 00 01 	movl   $0x1,0x40f8c0
  40de53:	00 00 00 
  40de56:	0f 87 b7 00 00 00    	ja     40df13 <_mcount+0xf3>
  40de5c:	8b 15 ec f8 40 00    	mov    0x40f8ec,%edx
  40de62:	83 fa 02             	cmp    $0x2,%edx
  40de65:	0f 84 b5 00 00 00    	je     40df20 <_mcount+0x100>
  40de6b:	8d 0c 12             	lea    (%edx,%edx,1),%ecx
  40de6e:	31 d2                	xor    %edx,%edx
  40de70:	f7 f1                	div    %ecx
  40de72:	8b 15 cc f8 40 00    	mov    0x40f8cc,%edx
  40de78:	8d 3c 42             	lea    (%edx,%eax,2),%edi
  40de7b:	0f b7 07             	movzwl (%edi),%eax
  40de7e:	66 85 c0             	test   %ax,%ax
  40de81:	74 5d                	je     40dee0 <_mcount+0xc0>
  40de83:	8b 35 d4 f8 40 00    	mov    0x40f8d4,%esi
  40de89:	8d 04 40             	lea    (%eax,%eax,2),%eax
  40de8c:	8d 0c 86             	lea    (%esi,%eax,4),%ecx
  40de8f:	3b 19                	cmp    (%ecx),%ebx
  40de91:	75 18                	jne    40deab <_mcount+0x8b>
  40de93:	e9 b1 00 00 00       	jmp    40df49 <_mcount+0x129>
  40de98:	0f b7 d0             	movzwl %ax,%edx
  40de9b:	8d 14 52             	lea    (%edx,%edx,2),%edx
  40de9e:	8d 14 96             	lea    (%esi,%edx,4),%edx
  40dea1:	3b 1a                	cmp    (%edx),%ebx
  40dea3:	0f 84 88 00 00 00    	je     40df31 <_mcount+0x111>
  40dea9:	89 d1                	mov    %edx,%ecx
  40deab:	0f b7 41 08          	movzwl 0x8(%ecx),%eax
  40deaf:	66 85 c0             	test   %ax,%ax
  40deb2:	75 e4                	jne    40de98 <_mcount+0x78>
  40deb4:	0f b7 46 08          	movzwl 0x8(%esi),%eax
  40deb8:	83 c0 01             	add    $0x1,%eax
  40debb:	0f b7 d0             	movzwl %ax,%edx
  40debe:	3b 15 dc f8 40 00    	cmp    0x40f8dc,%edx
  40dec4:	66 89 46 08          	mov    %ax,0x8(%esi)
  40dec8:	0f 8c 82 00 00 00    	jl     40df50 <_mcount+0x130>
  40dece:	c7 05 c0 f8 40 00 02 	movl   $0x2,0x40f8c0
  40ded5:	00 00 00 
  40ded8:	5a                   	pop    %edx
  40ded9:	59                   	pop    %ecx
  40deda:	58                   	pop    %eax
  40dedb:	5b                   	pop    %ebx
  40dedc:	5e                   	pop    %esi
  40dedd:	5f                   	pop    %edi
  40dede:	5d                   	pop    %ebp
  40dedf:	c3                   	ret    
  40dee0:	a1 d4 f8 40 00       	mov    0x40f8d4,%eax
  40dee5:	0f b7 70 08          	movzwl 0x8(%eax),%esi
  40dee9:	8d 56 01             	lea    0x1(%esi),%edx
  40deec:	0f b7 ca             	movzwl %dx,%ecx
  40deef:	3b 0d dc f8 40 00    	cmp    0x40f8dc,%ecx
  40def5:	66 89 50 08          	mov    %dx,0x8(%eax)
  40def9:	7d d3                	jge    40dece <_mcount+0xae>
  40defb:	66 89 17             	mov    %dx,(%edi)
  40defe:	8d 14 49             	lea    (%ecx,%ecx,2),%edx
  40df01:	8d 04 90             	lea    (%eax,%edx,4),%eax
  40df04:	31 d2                	xor    %edx,%edx
  40df06:	89 18                	mov    %ebx,(%eax)
  40df08:	c7 40 04 01 00 00 00 	movl   $0x1,0x4(%eax)
  40df0f:	66 89 50 08          	mov    %dx,0x8(%eax)
  40df13:	c7 05 c0 f8 40 00 00 	movl   $0x0,0x40f8c0
  40df1a:	00 00 00 
  40df1d:	eb b9                	jmp    40ded8 <_mcount+0xb8>
  40df1f:	90                   	nop
  40df20:	8b 15 cc f8 40 00    	mov    0x40f8cc,%edx
  40df26:	c1 e8 02             	shr    $0x2,%eax
  40df29:	8d 3c 42             	lea    (%edx,%eax,2),%edi
  40df2c:	e9 4a ff ff ff       	jmp    40de7b <_mcount+0x5b>
  40df31:	0f b7 5a 08          	movzwl 0x8(%edx),%ebx
  40df35:	83 42 04 01          	addl   $0x1,0x4(%edx)
  40df39:	66 89 59 08          	mov    %bx,0x8(%ecx)
  40df3d:	0f b7 0f             	movzwl (%edi),%ecx
  40df40:	66 89 4a 08          	mov    %cx,0x8(%edx)
  40df44:	66 89 07             	mov    %ax,(%edi)
  40df47:	eb ca                	jmp    40df13 <_mcount+0xf3>
  40df49:	83 41 04 01          	addl   $0x1,0x4(%ecx)
  40df4d:	eb c4                	jmp    40df13 <_mcount+0xf3>
  40df4f:	90                   	nop
  40df50:	0f b7 0f             	movzwl (%edi),%ecx
  40df53:	8d 14 52             	lea    (%edx,%edx,2),%edx
  40df56:	8d 14 96             	lea    (%esi,%edx,4),%edx
  40df59:	89 1a                	mov    %ebx,(%edx)
  40df5b:	c7 42 04 01 00 00 00 	movl   $0x1,0x4(%edx)
  40df62:	66 89 4a 08          	mov    %cx,0x8(%edx)
  40df66:	66 89 07             	mov    %ax,(%edi)
  40df69:	eb a8                	jmp    40df13 <_mcount+0xf3>
  40df6b:	90                   	nop
  40df6c:	90                   	nop
  40df6d:	90                   	nop
  40df6e:	90                   	nop
  40df6f:	90                   	nop

0040df70 <_get_thrpc>:
  40df70:	55                   	push   %ebp
  40df71:	89 e5                	mov    %esp,%ebp
  40df73:	56                   	push   %esi
  40df74:	53                   	push   %ebx
  40df75:	89 c3                	mov    %eax,%ebx
  40df77:	81 ec e0 02 00 00    	sub    $0x2e0,%esp
  40df7d:	89 04 24             	mov    %eax,(%esp)
  40df80:	e8 c3 03 00 00       	call   40e348 <_SuspendThread@4>
  40df85:	83 ec 04             	sub    $0x4,%esp
  40df88:	83 f8 ff             	cmp    $0xffffffff,%eax
  40df8b:	75 13                	jne    40dfa0 <_get_thrpc+0x30>
  40df8d:	8d 65 f8             	lea    -0x8(%ebp),%esp
  40df90:	b8 ff ff ff ff       	mov    $0xffffffff,%eax
  40df95:	5b                   	pop    %ebx
  40df96:	5e                   	pop    %esi
  40df97:	5d                   	pop    %ebp
  40df98:	c3                   	ret    
  40df99:	8d b4 26 00 00 00 00 	lea    0x0(%esi,%eiz,1),%esi
  40dfa0:	8d 85 2c fd ff ff    	lea    -0x2d4(%ebp),%eax
  40dfa6:	89 1c 24             	mov    %ebx,(%esp)
  40dfa9:	89 44 24 04          	mov    %eax,0x4(%esp)
  40dfad:	c7 85 2c fd ff ff 03 	movl   $0x10003,-0x2d4(%ebp)
  40dfb4:	00 01 00 
  40dfb7:	e8 94 03 00 00       	call   40e350 <_GetThreadContext@8>
  40dfbc:	83 ec 08             	sub    $0x8,%esp
  40dfbf:	83 f8 01             	cmp    $0x1,%eax
  40dfc2:	89 1c 24             	mov    %ebx,(%esp)
  40dfc5:	19 f6                	sbb    %esi,%esi
  40dfc7:	0b b5 e4 fd ff ff    	or     -0x21c(%ebp),%esi
  40dfcd:	e8 86 03 00 00       	call   40e358 <_ResumeThread@4>
  40dfd2:	89 f0                	mov    %esi,%eax
  40dfd4:	83 ec 04             	sub    $0x4,%esp
  40dfd7:	8d 65 f8             	lea    -0x8(%ebp),%esp
  40dfda:	5b                   	pop    %ebx
  40dfdb:	5e                   	pop    %esi
  40dfdc:	5d                   	pop    %ebp
  40dfdd:	c3                   	ret    
  40dfde:	66 90                	xchg   %ax,%ax

0040dfe0 <_profthr_func@4>:
  40dfe0:	55                   	push   %ebp
  40dfe1:	89 e5                	mov    %esp,%ebp
  40dfe3:	53                   	push   %ebx
  40dfe4:	83 ec 14             	sub    $0x14,%esp
  40dfe7:	8b 5d 08             	mov    0x8(%ebp),%ebx
  40dfea:	8d b6 00 00 00 00    	lea    0x0(%esi),%esi
  40dff0:	8b 03                	mov    (%ebx),%eax
  40dff2:	e8 79 ff ff ff       	call   40df70 <_get_thrpc>
  40dff7:	8b 53 0c             	mov    0xc(%ebx),%edx
  40dffa:	39 d0                	cmp    %edx,%eax
  40dffc:	72 1a                	jb     40e018 <_profthr_func@4+0x38>
  40dffe:	3b 43 10             	cmp    0x10(%ebx),%eax
  40e001:	73 15                	jae    40e018 <_profthr_func@4+0x38>
  40e003:	29 d0                	sub    %edx,%eax
  40e005:	d1 e8                	shr    %eax
  40e007:	f7 63 14             	mull   0x14(%ebx)
  40e00a:	0f ac d0 10          	shrd   $0x10,%edx,%eax
  40e00e:	8b 53 08             	mov    0x8(%ebx),%edx
  40e011:	8d 04 42             	lea    (%edx,%eax,2),%eax
  40e014:	66 83 00 01          	addw   $0x1,(%eax)
  40e018:	c7 04 24 0a 00 00 00 	movl   $0xa,(%esp)
  40e01f:	e8 14 03 00 00       	call   40e338 <_Sleep@4>
  40e024:	83 ec 04             	sub    $0x4,%esp
  40e027:	eb c7                	jmp    40dff0 <_profthr_func@4+0x10>
  40e029:	8d b4 26 00 00 00 00 	lea    0x0(%esi,%eiz,1),%esi

0040e030 <_profile_ctl>:
  40e030:	55                   	push   %ebp
  40e031:	89 e5                	mov    %esp,%ebp
  40e033:	57                   	push   %edi
  40e034:	56                   	push   %esi
  40e035:	53                   	push   %ebx
  40e036:	83 ec 3c             	sub    $0x3c,%esp
  40e039:	8b 75 18             	mov    0x18(%ebp),%esi
  40e03c:	8b 5d 08             	mov    0x8(%ebp),%ebx
  40e03f:	81 fe 00 00 01 00    	cmp    $0x10000,%esi
  40e045:	0f 87 a5 01 00 00    	ja     40e1f0 <_profile_ctl+0x1c0>
  40e04b:	8b 43 04             	mov    0x4(%ebx),%eax
  40e04e:	85 c0                	test   %eax,%eax
  40e050:	74 21                	je     40e073 <_profile_ctl+0x43>
  40e052:	c7 44 24 04 00 00 00 	movl   $0x0,0x4(%esp)
  40e059:	00 
  40e05a:	89 04 24             	mov    %eax,(%esp)
  40e05d:	e8 fe 02 00 00       	call   40e360 <_TerminateThread@8>
  40e062:	8b 43 04             	mov    0x4(%ebx),%eax
  40e065:	83 ec 08             	sub    $0x8,%esp
  40e068:	89 04 24             	mov    %eax,(%esp)
  40e06b:	e8 f8 02 00 00       	call   40e368 <_CloseHandle@4>
  40e070:	83 ec 04             	sub    $0x4,%esp
  40e073:	8b 03                	mov    (%ebx),%eax
  40e075:	85 c0                	test   %eax,%eax
  40e077:	74 0b                	je     40e084 <_profile_ctl+0x54>
  40e079:	89 04 24             	mov    %eax,(%esp)
  40e07c:	e8 e7 02 00 00       	call   40e368 <_CloseHandle@4>
  40e081:	83 ec 04             	sub    $0x4,%esp
  40e084:	31 c0                	xor    %eax,%eax
  40e086:	85 f6                	test   %esi,%esi
  40e088:	75 08                	jne    40e092 <_profile_ctl+0x62>
  40e08a:	8d 65 f4             	lea    -0xc(%ebp),%esp
  40e08d:	5b                   	pop    %ebx
  40e08e:	5e                   	pop    %esi
  40e08f:	5f                   	pop    %edi
  40e090:	5d                   	pop    %ebp
  40e091:	c3                   	ret    
  40e092:	8b 45 10             	mov    0x10(%ebp),%eax
  40e095:	c7 44 24 04 00 00 00 	movl   $0x0,0x4(%esp)
  40e09c:	00 
  40e09d:	89 44 24 08          	mov    %eax,0x8(%esp)
  40e0a1:	8b 45 0c             	mov    0xc(%ebp),%eax
  40e0a4:	89 04 24             	mov    %eax,(%esp)
  40e0a7:	e8 14 03 00 00       	call   40e3c0 <_memset>
  40e0ac:	f6 c3 01             	test   $0x1,%bl
  40e0af:	89 da                	mov    %ebx,%edx
  40e0b1:	b9 18 00 00 00       	mov    $0x18,%ecx
  40e0b6:	0f 85 49 01 00 00    	jne    40e205 <_profile_ctl+0x1d5>
  40e0bc:	f6 c2 02             	test   $0x2,%dl
  40e0bf:	0f 85 4d 01 00 00    	jne    40e212 <_profile_ctl+0x1e2>
  40e0c5:	89 cf                	mov    %ecx,%edi
  40e0c7:	31 c0                	xor    %eax,%eax
  40e0c9:	83 e7 fc             	and    $0xfffffffc,%edi
  40e0cc:	c7 04 02 00 00 00 00 	movl   $0x0,(%edx,%eax,1)
  40e0d3:	83 c0 04             	add    $0x4,%eax
  40e0d6:	39 f8                	cmp    %edi,%eax
  40e0d8:	72 f2                	jb     40e0cc <_profile_ctl+0x9c>
  40e0da:	01 c2                	add    %eax,%edx
  40e0dc:	f6 c1 02             	test   $0x2,%cl
  40e0df:	0f 85 fb 00 00 00    	jne    40e1e0 <_profile_ctl+0x1b0>
  40e0e5:	83 e1 01             	and    $0x1,%ecx
  40e0e8:	0f 85 ea 00 00 00    	jne    40e1d8 <_profile_ctl+0x1a8>
  40e0ee:	8b 45 0c             	mov    0xc(%ebp),%eax
  40e0f1:	31 d2                	xor    %edx,%edx
  40e0f3:	89 74 24 08          	mov    %esi,0x8(%esp)
  40e0f7:	c7 44 24 0c 00 00 00 	movl   $0x0,0xc(%esp)
  40e0fe:	00 
  40e0ff:	a3 4c 3a 41 00       	mov    %eax,0x413a4c
  40e104:	8b 45 14             	mov    0x14(%ebp),%eax
  40e107:	a3 50 3a 41 00       	mov    %eax,0x413a50
  40e10c:	8b 45 10             	mov    0x10(%ebp),%eax
  40e10f:	d1 e8                	shr    %eax
  40e111:	0f a4 c2 10          	shld   $0x10,%eax,%edx
  40e115:	c1 e0 10             	shl    $0x10,%eax
  40e118:	89 04 24             	mov    %eax,(%esp)
  40e11b:	89 54 24 04          	mov    %edx,0x4(%esp)
  40e11f:	e8 7c 97 ff ff       	call   4078a0 <___udivdi3>
  40e124:	8b 4d 14             	mov    0x14(%ebp),%ecx
  40e127:	89 35 58 3a 41 00    	mov    %esi,0x413a58
  40e12d:	8d 04 41             	lea    (%ecx,%eax,2),%eax
  40e130:	a3 54 3a 41 00       	mov    %eax,0x413a54
  40e135:	e8 36 02 00 00       	call   40e370 <_GetCurrentProcess@0>
  40e13a:	89 c7                	mov    %eax,%edi
  40e13c:	e8 37 02 00 00       	call   40e378 <_GetCurrentThread@0>
  40e141:	89 c6                	mov    %eax,%esi
  40e143:	e8 28 02 00 00       	call   40e370 <_GetCurrentProcess@0>
  40e148:	c7 44 24 18 02 00 00 	movl   $0x2,0x18(%esp)
  40e14f:	00 
  40e150:	c7 44 24 14 00 00 00 	movl   $0x0,0x14(%esp)
  40e157:	00 
  40e158:	c7 44 24 10 00 00 00 	movl   $0x0,0x10(%esp)
  40e15f:	00 
  40e160:	89 5c 24 0c          	mov    %ebx,0xc(%esp)
  40e164:	89 7c 24 08          	mov    %edi,0x8(%esp)
  40e168:	89 74 24 04          	mov    %esi,0x4(%esp)
  40e16c:	89 04 24             	mov    %eax,(%esp)
  40e16f:	e8 0c 02 00 00       	call   40e380 <_DuplicateHandle@28>
  40e174:	83 ec 1c             	sub    $0x1c,%esp
  40e177:	85 c0                	test   %eax,%eax
  40e179:	0f 84 a4 00 00 00    	je     40e223 <_profile_ctl+0x1f3>
  40e17f:	8d 45 e4             	lea    -0x1c(%ebp),%eax
  40e182:	89 44 24 14          	mov    %eax,0x14(%esp)
  40e186:	c7 44 24 10 00 00 00 	movl   $0x0,0x10(%esp)
  40e18d:	00 
  40e18e:	89 5c 24 0c          	mov    %ebx,0xc(%esp)
  40e192:	c7 44 24 08 e0 df 40 	movl   $0x40dfe0,0x8(%esp)
  40e199:	00 
  40e19a:	c7 44 24 04 00 00 00 	movl   $0x0,0x4(%esp)
  40e1a1:	00 
  40e1a2:	c7 04 24 00 00 00 00 	movl   $0x0,(%esp)
  40e1a9:	e8 da 01 00 00       	call   40e388 <_CreateThread@24>
  40e1ae:	83 ec 18             	sub    $0x18,%esp
  40e1b1:	89 43 04             	mov    %eax,0x4(%ebx)
  40e1b4:	c7 44 24 04 0f 00 00 	movl   $0xf,0x4(%esp)
  40e1bb:	00 
  40e1bc:	89 04 24             	mov    %eax,(%esp)
  40e1bf:	e8 cc 01 00 00       	call   40e390 <_SetThreadPriority@8>
  40e1c4:	8b 4b 04             	mov    0x4(%ebx),%ecx
  40e1c7:	83 ec 08             	sub    $0x8,%esp
  40e1ca:	85 c9                	test   %ecx,%ecx
  40e1cc:	74 6a                	je     40e238 <_profile_ctl+0x208>
  40e1ce:	8d 65 f4             	lea    -0xc(%ebp),%esp
  40e1d1:	31 c0                	xor    %eax,%eax
  40e1d3:	5b                   	pop    %ebx
  40e1d4:	5e                   	pop    %esi
  40e1d5:	5f                   	pop    %edi
  40e1d6:	5d                   	pop    %ebp
  40e1d7:	c3                   	ret    
  40e1d8:	c6 02 00             	movb   $0x0,(%edx)
  40e1db:	e9 0e ff ff ff       	jmp    40e0ee <_profile_ctl+0xbe>
  40e1e0:	31 ff                	xor    %edi,%edi
  40e1e2:	83 c2 02             	add    $0x2,%edx
  40e1e5:	66 89 7a fe          	mov    %di,-0x2(%edx)
  40e1e9:	e9 f7 fe ff ff       	jmp    40e0e5 <_profile_ctl+0xb5>
  40e1ee:	66 90                	xchg   %ax,%ax
  40e1f0:	e8 6b f8 ff ff       	call   40da60 <__errno>
  40e1f5:	c7 00 16 00 00 00    	movl   $0x16,(%eax)
  40e1fb:	b8 ff ff ff ff       	mov    $0xffffffff,%eax
  40e200:	e9 85 fe ff ff       	jmp    40e08a <_profile_ctl+0x5a>
  40e205:	c6 03 00             	movb   $0x0,(%ebx)
  40e208:	8d 53 01             	lea    0x1(%ebx),%edx
  40e20b:	b1 17                	mov    $0x17,%cl
  40e20d:	e9 aa fe ff ff       	jmp    40e0bc <_profile_ctl+0x8c>
  40e212:	31 c0                	xor    %eax,%eax
  40e214:	83 c2 02             	add    $0x2,%edx
  40e217:	66 89 42 fe          	mov    %ax,-0x2(%edx)
  40e21b:	83 e9 02             	sub    $0x2,%ecx
  40e21e:	e9 a2 fe ff ff       	jmp    40e0c5 <_profile_ctl+0x95>
  40e223:	e8 38 f8 ff ff       	call   40da60 <__errno>
  40e228:	c7 00 03 00 00 00    	movl   $0x3,(%eax)
  40e22e:	b8 ff ff ff ff       	mov    $0xffffffff,%eax
  40e233:	e9 52 fe ff ff       	jmp    40e08a <_profile_ctl+0x5a>
  40e238:	8b 03                	mov    (%ebx),%eax
  40e23a:	89 04 24             	mov    %eax,(%esp)
  40e23d:	e8 26 01 00 00       	call   40e368 <_CloseHandle@4>
  40e242:	c7 03 00 00 00 00    	movl   $0x0,(%ebx)
  40e248:	83 ec 04             	sub    $0x4,%esp
  40e24b:	e8 10 f8 ff ff       	call   40da60 <__errno>
  40e250:	c7 00 0b 00 00 00    	movl   $0xb,(%eax)
  40e256:	b8 ff ff ff ff       	mov    $0xffffffff,%eax
  40e25b:	e9 2a fe ff ff       	jmp    40e08a <_profile_ctl+0x5a>

0040e260 <_profil>:
  40e260:	83 ec 2c             	sub    $0x2c,%esp
  40e263:	8b 44 24 3c          	mov    0x3c(%esp),%eax
  40e267:	c7 04 24 44 3a 41 00 	movl   $0x413a44,(%esp)
  40e26e:	89 44 24 10          	mov    %eax,0x10(%esp)
  40e272:	8b 44 24 38          	mov    0x38(%esp),%eax
  40e276:	89 44 24 0c          	mov    %eax,0xc(%esp)
  40e27a:	8b 44 24 34          	mov    0x34(%esp),%eax
  40e27e:	89 44 24 08          	mov    %eax,0x8(%esp)
  40e282:	8b 44 24 30          	mov    0x30(%esp),%eax
  40e286:	89 44 24 04          	mov    %eax,0x4(%esp)
  40e28a:	e8 a1 fd ff ff       	call   40e030 <_profile_ctl>
  40e28f:	83 c4 2c             	add    $0x2c,%esp
  40e292:	c3                   	ret    
  40e293:	90                   	nop
  40e294:	90                   	nop
  40e295:	90                   	nop
  40e296:	90                   	nop
  40e297:	90                   	nop
  40e298:	90                   	nop
  40e299:	90                   	nop
  40e29a:	90                   	nop
  40e29b:	90                   	nop
  40e29c:	90                   	nop
  40e29d:	90                   	nop
  40e29e:	90                   	nop
  40e29f:	90                   	nop

0040e2a0 <_SetUnhandledExceptionFilter@4>:
  40e2a0:	ff 25 e8 41 41 00    	jmp    *0x4141e8
  40e2a6:	90                   	nop
  40e2a7:	90                   	nop

0040e2a8 <_ExitProcess@4>:
  40e2a8:	ff 25 a0 41 41 00    	jmp    *0x4141a0
  40e2ae:	90                   	nop
  40e2af:	90                   	nop

0040e2b0 <_GetModuleHandleA@4>:
  40e2b0:	ff 25 c0 41 41 00    	jmp    *0x4141c0
  40e2b6:	90                   	nop
  40e2b7:	90                   	nop

0040e2b8 <_GetProcAddress@8>:
  40e2b8:	ff 25 c4 41 41 00    	jmp    *0x4141c4
  40e2be:	90                   	nop
  40e2bf:	90                   	nop

0040e2c0 <_GetCommandLineA@0>:
  40e2c0:	ff 25 b0 41 41 00    	jmp    *0x4141b0
  40e2c6:	90                   	nop
  40e2c7:	90                   	nop

0040e2c8 <_VirtualQuery@12>:
  40e2c8:	ff 25 00 42 41 00    	jmp    *0x414200
  40e2ce:	90                   	nop
  40e2cf:	90                   	nop

0040e2d0 <_VirtualProtect@16>:
  40e2d0:	ff 25 fc 41 41 00    	jmp    *0x4141fc
  40e2d6:	90                   	nop
  40e2d7:	90                   	nop

0040e2d8 <_EnterCriticalSection@4>:
  40e2d8:	ff 25 9c 41 41 00    	jmp    *0x41419c
  40e2de:	90                   	nop
  40e2df:	90                   	nop

0040e2e0 <_TlsGetValue@4>:
  40e2e0:	ff 25 f8 41 41 00    	jmp    *0x4141f8
  40e2e6:	90                   	nop
  40e2e7:	90                   	nop

0040e2e8 <_GetLastError@0>:
  40e2e8:	ff 25 bc 41 41 00    	jmp    *0x4141bc
  40e2ee:	90                   	nop
  40e2ef:	90                   	nop

0040e2f0 <_LeaveCriticalSection@4>:
  40e2f0:	ff 25 d8 41 41 00    	jmp    *0x4141d8
  40e2f6:	90                   	nop
  40e2f7:	90                   	nop

0040e2f8 <_DeleteCriticalSection@4>:
  40e2f8:	ff 25 94 41 41 00    	jmp    *0x414194
  40e2fe:	90                   	nop
  40e2ff:	90                   	nop

0040e300 <_InitializeCriticalSection@4>:
  40e300:	ff 25 cc 41 41 00    	jmp    *0x4141cc
  40e306:	90                   	nop
  40e307:	90                   	nop

0040e308 <_FindNextFileA@8>:
  40e308:	ff 25 ac 41 41 00    	jmp    *0x4141ac
  40e30e:	90                   	nop
  40e30f:	90                   	nop

0040e310 <_FindFirstFileA@8>:
  40e310:	ff 25 a8 41 41 00    	jmp    *0x4141a8
  40e316:	90                   	nop
  40e317:	90                   	nop

0040e318 <_FindClose@4>:
  40e318:	ff 25 a4 41 41 00    	jmp    *0x4141a4
  40e31e:	90                   	nop
  40e31f:	90                   	nop

0040e320 <_WideCharToMultiByte@32>:
  40e320:	ff 25 04 42 41 00    	jmp    *0x414204
  40e326:	90                   	nop
  40e327:	90                   	nop

0040e328 <_IsDBCSLeadByteEx@8>:
  40e328:	ff 25 d4 41 41 00    	jmp    *0x4141d4
  40e32e:	90                   	nop
  40e32f:	90                   	nop

0040e330 <_MultiByteToWideChar@24>:
  40e330:	ff 25 dc 41 41 00    	jmp    *0x4141dc
  40e336:	90                   	nop
  40e337:	90                   	nop

0040e338 <_Sleep@4>:
  40e338:	ff 25 ec 41 41 00    	jmp    *0x4141ec
  40e33e:	90                   	nop
  40e33f:	90                   	nop

0040e340 <_InterlockedExchange@8>:
  40e340:	ff 25 d0 41 41 00    	jmp    *0x4141d0
  40e346:	90                   	nop
  40e347:	90                   	nop

0040e348 <_SuspendThread@4>:
  40e348:	ff 25 f0 41 41 00    	jmp    *0x4141f0
  40e34e:	90                   	nop
  40e34f:	90                   	nop

0040e350 <_GetThreadContext@8>:
  40e350:	ff 25 c8 41 41 00    	jmp    *0x4141c8
  40e356:	90                   	nop
  40e357:	90                   	nop

0040e358 <_ResumeThread@4>:
  40e358:	ff 25 e0 41 41 00    	jmp    *0x4141e0
  40e35e:	90                   	nop
  40e35f:	90                   	nop

0040e360 <_TerminateThread@8>:
  40e360:	ff 25 f4 41 41 00    	jmp    *0x4141f4
  40e366:	90                   	nop
  40e367:	90                   	nop

0040e368 <_CloseHandle@4>:
  40e368:	ff 25 8c 41 41 00    	jmp    *0x41418c
  40e36e:	90                   	nop
  40e36f:	90                   	nop

0040e370 <_GetCurrentProcess@0>:
  40e370:	ff 25 b4 41 41 00    	jmp    *0x4141b4
  40e376:	90                   	nop
  40e377:	90                   	nop

0040e378 <_GetCurrentThread@0>:
  40e378:	ff 25 b8 41 41 00    	jmp    *0x4141b8
  40e37e:	90                   	nop
  40e37f:	90                   	nop

0040e380 <_DuplicateHandle@28>:
  40e380:	ff 25 98 41 41 00    	jmp    *0x414198
  40e386:	90                   	nop
  40e387:	90                   	nop

0040e388 <_CreateThread@24>:
  40e388:	ff 25 90 41 41 00    	jmp    *0x414190
  40e38e:	90                   	nop
  40e38f:	90                   	nop

0040e390 <_SetThreadPriority@8>:
  40e390:	ff 25 e4 41 41 00    	jmp    *0x4141e4
  40e396:	90                   	nop
  40e397:	90                   	nop

0040e398 <_strdup>:
  40e398:	ff 25 14 42 41 00    	jmp    *0x414214
  40e39e:	90                   	nop
  40e39f:	90                   	nop

0040e3a0 <_stricoll>:
  40e3a0:	ff 25 18 42 41 00    	jmp    *0x414218
  40e3a6:	90                   	nop
  40e3a7:	90                   	nop

0040e3a8 <_open>:
  40e3a8:	ff 25 10 42 41 00    	jmp    *0x414210
  40e3ae:	90                   	nop
  40e3af:	90                   	nop

0040e3b0 <_write>:
  40e3b0:	ff 25 1c 42 41 00    	jmp    *0x41421c
  40e3b6:	90                   	nop
  40e3b7:	90                   	nop

0040e3b8 <_close>:
  40e3b8:	ff 25 0c 42 41 00    	jmp    *0x41420c
  40e3be:	90                   	nop
  40e3bf:	90                   	nop

0040e3c0 <_memset>:
  40e3c0:	ff 25 84 42 41 00    	jmp    *0x414284
  40e3c6:	90                   	nop
  40e3c7:	90                   	nop

0040e3c8 <_perror>:
  40e3c8:	ff 25 88 42 41 00    	jmp    *0x414288
  40e3ce:	90                   	nop
  40e3cf:	90                   	nop

0040e3d0 <__monstartup>:
  40e3d0:	a1 08 30 41 00       	mov    0x413008,%eax
  40e3d5:	8d 50 01             	lea    0x1(%eax),%edx
  40e3d8:	85 c0                	test   %eax,%eax
  40e3da:	89 15 08 30 41 00    	mov    %edx,0x413008
  40e3e0:	74 01                	je     40e3e3 <__monstartup+0x13>
  40e3e2:	c3                   	ret    
  40e3e3:	83 ec 1c             	sub    $0x1c,%esp
  40e3e6:	c7 44 24 04 48 e4 40 	movl   $0x40e448,0x4(%esp)
  40e3ed:	00 
  40e3ee:	c7 04 24 00 13 40 00 	movl   $0x401300,(%esp)
  40e3f5:	e8 06 f7 ff ff       	call   40db00 <_monstartup>
  40e3fa:	c7 04 24 a0 dc 40 00 	movl   $0x40dca0,(%esp)
  40e401:	e8 da 2e ff ff       	call   4012e0 <_atexit>
  40e406:	83 c4 1c             	add    $0x1c,%esp
  40e409:	c3                   	ret    
  40e40a:	90                   	nop
  40e40b:	90                   	nop
  40e40c:	90                   	nop
  40e40d:	90                   	nop
  40e40e:	90                   	nop
  40e40f:	90                   	nop

0040e410 <_register_frame_ctor>:
  40e410:	55                   	push   %ebp
  40e411:	89 e5                	mov    %esp,%ebp
  40e413:	83 ec 18             	sub    $0x18,%esp
  40e416:	e8 e5 2e ff ff       	call   401300 <___gcc_register_frame>
  40e41b:	c7 04 24 90 13 40 00 	movl   $0x401390,(%esp)
  40e422:	e8 b9 2e ff ff       	call   4012e0 <_atexit>
  40e427:	c9                   	leave  
  40e428:	c3                   	ret    
  40e429:	90                   	nop
  40e42a:	90                   	nop
  40e42b:	90                   	nop
  40e42c:	90                   	nop
  40e42d:	90                   	nop
  40e42e:	90                   	nop
  40e42f:	90                   	nop

0040e430 <__CTOR_LIST__>:
  40e430:	ff                   	(bad)  
  40e431:	ff                   	(bad)  
  40e432:	ff                   	(bad)  
  40e433:	ff d0                	call   *%eax

0040e434 <.ctors>:
  40e434:	d0 e3                	shl    %bl
  40e436:	40                   	inc    %eax
	...

0040e438 <.ctors.65535>:
  40e438:	10 e4                	adc    %ah,%ah
  40e43a:	40                   	inc    %eax
  40e43b:	00 00                	add    %al,(%eax)
  40e43d:	00 00                	add    %al,(%eax)
	...

0040e440 <__DTOR_LIST__>:
  40e440:	ff                   	(bad)  
  40e441:	ff                   	(bad)  
  40e442:	ff                   	(bad)  
  40e443:	ff 00                	incl   (%eax)
  40e445:	00 00                	add    %al,(%eax)
	...
