
foo.exe:     file format pei-i386


Disassembly of section .text:

00401000 <__gnu_exception_handler@4>:
  401000:	53                   	push   %ebx
  401001:	83 ec 18             	sub    $0x18,%esp
  401004:	8b 44 24 20          	mov    0x20(%esp),%eax
  401008:	8b 00                	mov    (%eax),%eax
  40100a:	8b 00                	mov    (%eax),%eax
  40100c:	3d 91 00 00 c0       	cmp    $0xc0000091,%eax
  401011:	77 4d                	ja     401060 <__gnu_exception_handler@4+0x60>
  401013:	3d 8d 00 00 c0       	cmp    $0xc000008d,%eax
  401018:	73 5b                	jae    401075 <__gnu_exception_handler@4+0x75>
  40101a:	3d 05 00 00 c0       	cmp    $0xc0000005,%eax
  40101f:	0f 85 8e 00 00 00    	jne    4010b3 <__gnu_exception_handler@4+0xb3>
  401025:	c7 44 24 04 00 00 00 	movl   $0x0,0x4(%esp)
  40102c:	00 
  40102d:	c7 04 24 0b 00 00 00 	movl   $0xb,(%esp)
  401034:	e8 97 b0 00 00       	call   40c0d0 <_signal>
  401039:	83 f8 01             	cmp    $0x1,%eax
  40103c:	0f 84 c1 00 00 00    	je     401103 <__gnu_exception_handler@4+0x103>
  401042:	85 c0                	test   %eax,%eax
  401044:	0f 85 a6 00 00 00    	jne    4010f0 <__gnu_exception_handler@4+0xf0>
  40104a:	8d b6 00 00 00 00    	lea    0x0(%esi),%esi
  401050:	31 c0                	xor    %eax,%eax
  401052:	83 c4 18             	add    $0x18,%esp
  401055:	5b                   	pop    %ebx
  401056:	c2 04 00             	ret    $0x4
  401059:	8d b4 26 00 00 00 00 	lea    0x0(%esi,%eiz,1),%esi
  401060:	3d 94 00 00 c0       	cmp    $0xc0000094,%eax
  401065:	74 19                	je     401080 <__gnu_exception_handler@4+0x80>
  401067:	3d 96 00 00 c0       	cmp    $0xc0000096,%eax
  40106c:	74 4c                	je     4010ba <__gnu_exception_handler@4+0xba>
  40106e:	3d 93 00 00 c0       	cmp    $0xc0000093,%eax
  401073:	75 db                	jne    401050 <__gnu_exception_handler@4+0x50>
  401075:	bb 01 00 00 00       	mov    $0x1,%ebx
  40107a:	eb 06                	jmp    401082 <__gnu_exception_handler@4+0x82>
  40107c:	8d 74 26 00          	lea    0x0(%esi,%eiz,1),%esi
  401080:	31 db                	xor    %ebx,%ebx
  401082:	c7 44 24 04 00 00 00 	movl   $0x0,0x4(%esp)
  401089:	00 
  40108a:	c7 04 24 08 00 00 00 	movl   $0x8,(%esp)
  401091:	e8 3a b0 00 00       	call   40c0d0 <_signal>
  401096:	83 f8 01             	cmp    $0x1,%eax
  401099:	0f 84 a1 00 00 00    	je     401140 <__gnu_exception_handler@4+0x140>
  40109f:	85 c0                	test   %eax,%eax
  4010a1:	74 ad                	je     401050 <__gnu_exception_handler@4+0x50>
  4010a3:	c7 04 24 08 00 00 00 	movl   $0x8,(%esp)
  4010aa:	ff d0                	call   *%eax
  4010ac:	b8 ff ff ff ff       	mov    $0xffffffff,%eax
  4010b1:	eb 9f                	jmp    401052 <__gnu_exception_handler@4+0x52>
  4010b3:	3d 1d 00 00 c0       	cmp    $0xc000001d,%eax
  4010b8:	75 96                	jne    401050 <__gnu_exception_handler@4+0x50>
  4010ba:	c7 44 24 04 00 00 00 	movl   $0x0,0x4(%esp)
  4010c1:	00 
  4010c2:	c7 04 24 04 00 00 00 	movl   $0x4,(%esp)
  4010c9:	e8 02 b0 00 00       	call   40c0d0 <_signal>
  4010ce:	83 f8 01             	cmp    $0x1,%eax
  4010d1:	74 4c                	je     40111f <__gnu_exception_handler@4+0x11f>
  4010d3:	85 c0                	test   %eax,%eax
  4010d5:	0f 84 75 ff ff ff    	je     401050 <__gnu_exception_handler@4+0x50>
  4010db:	c7 04 24 04 00 00 00 	movl   $0x4,(%esp)
  4010e2:	ff d0                	call   *%eax
  4010e4:	b8 ff ff ff ff       	mov    $0xffffffff,%eax
  4010e9:	e9 64 ff ff ff       	jmp    401052 <__gnu_exception_handler@4+0x52>
  4010ee:	66 90                	xchg   %ax,%ax
  4010f0:	c7 04 24 0b 00 00 00 	movl   $0xb,(%esp)
  4010f7:	ff d0                	call   *%eax
  4010f9:	b8 ff ff ff ff       	mov    $0xffffffff,%eax
  4010fe:	e9 4f ff ff ff       	jmp    401052 <__gnu_exception_handler@4+0x52>
  401103:	c7 44 24 04 01 00 00 	movl   $0x1,0x4(%esp)
  40110a:	00 
  40110b:	c7 04 24 0b 00 00 00 	movl   $0xb,(%esp)
  401112:	e8 b9 af 00 00       	call   40c0d0 <_signal>
  401117:	83 c8 ff             	or     $0xffffffff,%eax
  40111a:	e9 33 ff ff ff       	jmp    401052 <__gnu_exception_handler@4+0x52>
  40111f:	c7 44 24 04 01 00 00 	movl   $0x1,0x4(%esp)
  401126:	00 
  401127:	c7 04 24 04 00 00 00 	movl   $0x4,(%esp)
  40112e:	e8 9d af 00 00       	call   40c0d0 <_signal>
  401133:	83 c8 ff             	or     $0xffffffff,%eax
  401136:	e9 17 ff ff ff       	jmp    401052 <__gnu_exception_handler@4+0x52>
  40113b:	90                   	nop
  40113c:	8d 74 26 00          	lea    0x0(%esi,%eiz,1),%esi
  401140:	c7 44 24 04 01 00 00 	movl   $0x1,0x4(%esp)
  401147:	00 
  401148:	c7 04 24 08 00 00 00 	movl   $0x8,(%esp)
  40114f:	e8 7c af 00 00       	call   40c0d0 <_signal>
  401154:	85 db                	test   %ebx,%ebx
  401156:	b8 ff ff ff ff       	mov    $0xffffffff,%eax
  40115b:	0f 84 f1 fe ff ff    	je     401052 <__gnu_exception_handler@4+0x52>
  401161:	89 44 24 0c          	mov    %eax,0xc(%esp)
  401165:	e8 66 45 00 00       	call   4056d0 <__fpreset>
  40116a:	8b 44 24 0c          	mov    0xc(%esp),%eax
  40116e:	e9 df fe ff ff       	jmp    401052 <__gnu_exception_handler@4+0x52>
  401173:	8d b6 00 00 00 00    	lea    0x0(%esi),%esi
  401179:	8d bc 27 00 00 00 00 	lea    0x0(%edi,%eiz,1),%edi

00401180 <___mingw_CRTStartup>:
  401180:	55                   	push   %ebp
  401181:	89 e5                	mov    %esp,%ebp
  401183:	53                   	push   %ebx
  401184:	83 ec 14             	sub    $0x14,%esp
  401187:	a1 7c e0 40 00       	mov    0x40e07c,%eax
  40118c:	85 c0                	test   %eax,%eax
  40118e:	74 1c                	je     4011ac <___mingw_CRTStartup+0x2c>
  401190:	c7 44 24 08 00 00 00 	movl   $0x0,0x8(%esp)
  401197:	00 
  401198:	c7 44 24 04 02 00 00 	movl   $0x2,0x4(%esp)
  40119f:	00 
  4011a0:	c7 04 24 00 00 00 00 	movl   $0x0,(%esp)
  4011a7:	ff d0                	call   *%eax
  4011a9:	83 ec 0c             	sub    $0xc,%esp
  4011ac:	c7 04 24 00 10 40 00 	movl   $0x401000,(%esp)
  4011b3:	e8 20 b0 00 00       	call   40c1d8 <_SetUnhandledExceptionFilter@4>
  4011b8:	83 ec 04             	sub    $0x4,%esp
  4011bb:	e8 20 45 00 00       	call   4056e0 <___cpu_features_init>
  4011c0:	e8 0b 45 00 00       	call   4056d0 <__fpreset>
  4011c5:	e8 f6 45 00 00       	call   4057c0 <__setargv>
  4011ca:	a1 3c 10 41 00       	mov    0x41103c,%eax
  4011cf:	85 c0                	test   %eax,%eax
  4011d1:	74 42                	je     401215 <___mingw_CRTStartup+0x95>
  4011d3:	8b 1d d4 21 41 00    	mov    0x4121d4,%ebx
  4011d9:	a3 38 d8 40 00       	mov    %eax,0x40d838
  4011de:	89 44 24 04          	mov    %eax,0x4(%esp)
  4011e2:	8b 43 10             	mov    0x10(%ebx),%eax
  4011e5:	89 04 24             	mov    %eax,(%esp)
  4011e8:	e8 eb ae 00 00       	call   40c0d8 <__setmode>
  4011ed:	a1 3c 10 41 00       	mov    0x41103c,%eax
  4011f2:	89 44 24 04          	mov    %eax,0x4(%esp)
  4011f6:	8b 43 30             	mov    0x30(%ebx),%eax
  4011f9:	89 04 24             	mov    %eax,(%esp)
  4011fc:	e8 d7 ae 00 00       	call   40c0d8 <__setmode>
  401201:	a1 3c 10 41 00       	mov    0x41103c,%eax
  401206:	89 44 24 04          	mov    %eax,0x4(%esp)
  40120a:	8b 43 50             	mov    0x50(%ebx),%eax
  40120d:	89 04 24             	mov    %eax,(%esp)
  401210:	e8 c3 ae 00 00       	call   40c0d8 <__setmode>
  401215:	e8 c6 ae 00 00       	call   40c0e0 <___p__fmode>
  40121a:	8b 15 38 d8 40 00    	mov    0x40d838,%edx
  401220:	89 10                	mov    %edx,(%eax)
  401222:	e8 e9 49 00 00       	call   405c10 <__pei386_runtime_relocator>
  401227:	83 e4 f0             	and    $0xfffffff0,%esp
  40122a:	e8 41 4c 00 00       	call   405e70 <___main>
  40122f:	e8 b4 ae 00 00       	call   40c0e8 <___p__environ>
  401234:	8b 00                	mov    (%eax),%eax
  401236:	89 44 24 08          	mov    %eax,0x8(%esp)
  40123a:	a1 00 10 41 00       	mov    0x411000,%eax
  40123f:	89 44 24 04          	mov    %eax,0x4(%esp)
  401243:	a1 04 10 41 00       	mov    0x411004,%eax
  401248:	89 04 24             	mov    %eax,(%esp)
  40124b:	e8 35 1e 00 00       	call   403085 <_main>
  401250:	89 c3                	mov    %eax,%ebx
  401252:	e8 99 ae 00 00       	call   40c0f0 <__cexit>
  401257:	89 1c 24             	mov    %ebx,(%esp)
  40125a:	e8 81 af 00 00       	call   40c1e0 <_ExitProcess@4>
  40125f:	90                   	nop

00401260 <__mingw32_init_mainargs>:
  401260:	83 ec 3c             	sub    $0x3c,%esp
  401263:	8d 44 24 2c          	lea    0x2c(%esp),%eax
  401267:	89 44 24 10          	mov    %eax,0x10(%esp)
  40126b:	a1 3c d8 40 00       	mov    0x40d83c,%eax
  401270:	c7 44 24 04 00 10 41 	movl   $0x411000,0x4(%esp)
  401277:	00 
  401278:	c7 04 24 04 10 41 00 	movl   $0x411004,(%esp)
  40127f:	c7 44 24 2c 00 00 00 	movl   $0x0,0x2c(%esp)
  401286:	00 
  401287:	83 e0 01             	and    $0x1,%eax
  40128a:	89 44 24 0c          	mov    %eax,0xc(%esp)
  40128e:	8d 44 24 28          	lea    0x28(%esp),%eax
  401292:	89 44 24 08          	mov    %eax,0x8(%esp)
  401296:	e8 5d ae 00 00       	call   40c0f8 <___getmainargs>
  40129b:	83 c4 3c             	add    $0x3c,%esp
  40129e:	c3                   	ret    
  40129f:	90                   	nop

004012a0 <_mainCRTStartup>:
  4012a0:	83 ec 1c             	sub    $0x1c,%esp
  4012a3:	c7 04 24 01 00 00 00 	movl   $0x1,(%esp)
  4012aa:	ff 15 c4 21 41 00    	call   *0x4121c4
  4012b0:	e8 cb fe ff ff       	call   401180 <___mingw_CRTStartup>
  4012b5:	8d 74 26 00          	lea    0x0(%esi,%eiz,1),%esi
  4012b9:	8d bc 27 00 00 00 00 	lea    0x0(%edi,%eiz,1),%edi

004012c0 <_WinMainCRTStartup>:
  4012c0:	83 ec 1c             	sub    $0x1c,%esp
  4012c3:	c7 04 24 02 00 00 00 	movl   $0x2,(%esp)
  4012ca:	ff 15 c4 21 41 00    	call   *0x4121c4
  4012d0:	e8 ab fe ff ff       	call   401180 <___mingw_CRTStartup>
  4012d5:	8d 74 26 00          	lea    0x0(%esi,%eiz,1),%esi
  4012d9:	8d bc 27 00 00 00 00 	lea    0x0(%edi,%eiz,1),%edi

004012e0 <_atexit>:
  4012e0:	a1 e4 21 41 00       	mov    0x4121e4,%eax
  4012e5:	ff e0                	jmp    *%eax
  4012e7:	89 f6                	mov    %esi,%esi
  4012e9:	8d bc 27 00 00 00 00 	lea    0x0(%edi,%eiz,1),%edi

004012f0 <__onexit>:
  4012f0:	a1 d8 21 41 00       	mov    0x4121d8,%eax
  4012f5:	ff e0                	jmp    *%eax
  4012f7:	90                   	nop
  4012f8:	90                   	nop
  4012f9:	90                   	nop
  4012fa:	90                   	nop
  4012fb:	90                   	nop
  4012fc:	90                   	nop
  4012fd:	90                   	nop
  4012fe:	90                   	nop
  4012ff:	90                   	nop

00401300 <___gcc_register_frame>:
  401300:	55                   	push   %ebp
  401301:	89 e5                	mov    %esp,%ebp
  401303:	83 ec 18             	sub    $0x18,%esp
  401306:	c7 04 24 00 e0 40 00 	movl   $0x40e000,(%esp)
  40130d:	e8 d6 ae 00 00       	call   40c1e8 <_GetModuleHandleA@4>
  401312:	ba 00 00 00 00       	mov    $0x0,%edx
  401317:	83 ec 04             	sub    $0x4,%esp
  40131a:	85 c0                	test   %eax,%eax
  40131c:	74 15                	je     401333 <___gcc_register_frame+0x33>
  40131e:	c7 44 24 04 13 e0 40 	movl   $0x40e013,0x4(%esp)
  401325:	00 
  401326:	89 04 24             	mov    %eax,(%esp)
  401329:	e8 c2 ae 00 00       	call   40c1f0 <_GetProcAddress@8>
  40132e:	83 ec 08             	sub    $0x8,%esp
  401331:	89 c2                	mov    %eax,%edx
  401333:	85 d2                	test   %edx,%edx
  401335:	74 11                	je     401348 <___gcc_register_frame+0x48>
  401337:	c7 44 24 04 08 10 41 	movl   $0x411008,0x4(%esp)
  40133e:	00 
  40133f:	c7 04 24 c0 f0 40 00 	movl   $0x40f0c0,(%esp)
  401346:	ff d2                	call   *%edx
  401348:	a1 5c d8 40 00       	mov    0x40d85c,%eax
  40134d:	85 c0                	test   %eax,%eax
  40134f:	74 3a                	je     40138b <___gcc_register_frame+0x8b>
  401351:	c7 04 24 29 e0 40 00 	movl   $0x40e029,(%esp)
  401358:	e8 8b ae 00 00       	call   40c1e8 <_GetModuleHandleA@4>
  40135d:	ba 00 00 00 00       	mov    $0x0,%edx
  401362:	83 ec 04             	sub    $0x4,%esp
  401365:	85 c0                	test   %eax,%eax
  401367:	74 15                	je     40137e <___gcc_register_frame+0x7e>
  401369:	c7 44 24 04 37 e0 40 	movl   $0x40e037,0x4(%esp)
  401370:	00 
  401371:	89 04 24             	mov    %eax,(%esp)
  401374:	e8 77 ae 00 00       	call   40c1f0 <_GetProcAddress@8>
  401379:	83 ec 08             	sub    $0x8,%esp
  40137c:	89 c2                	mov    %eax,%edx
  40137e:	85 d2                	test   %edx,%edx
  401380:	74 09                	je     40138b <___gcc_register_frame+0x8b>
  401382:	c7 04 24 5c d8 40 00 	movl   $0x40d85c,(%esp)
  401389:	ff d2                	call   *%edx
  40138b:	c9                   	leave  
  40138c:	c3                   	ret    
  40138d:	8d 76 00             	lea    0x0(%esi),%esi

00401390 <___gcc_deregister_frame>:
  401390:	55                   	push   %ebp
  401391:	89 e5                	mov    %esp,%ebp
  401393:	83 ec 18             	sub    $0x18,%esp
  401396:	c7 04 24 00 e0 40 00 	movl   $0x40e000,(%esp)
  40139d:	e8 46 ae 00 00       	call   40c1e8 <_GetModuleHandleA@4>
  4013a2:	ba 00 00 00 00       	mov    $0x0,%edx
  4013a7:	83 ec 04             	sub    $0x4,%esp
  4013aa:	85 c0                	test   %eax,%eax
  4013ac:	74 15                	je     4013c3 <___gcc_deregister_frame+0x33>
  4013ae:	c7 44 24 04 4b e0 40 	movl   $0x40e04b,0x4(%esp)
  4013b5:	00 
  4013b6:	89 04 24             	mov    %eax,(%esp)
  4013b9:	e8 32 ae 00 00       	call   40c1f0 <_GetProcAddress@8>
  4013be:	83 ec 08             	sub    $0x8,%esp
  4013c1:	89 c2                	mov    %eax,%edx
  4013c3:	85 d2                	test   %edx,%edx
  4013c5:	74 09                	je     4013d0 <___gcc_deregister_frame+0x40>
  4013c7:	c7 04 24 c0 f0 40 00 	movl   $0x40f0c0,(%esp)
  4013ce:	ff d2                	call   *%edx
  4013d0:	c9                   	leave  
  4013d1:	c3                   	ret    
  4013d2:	90                   	nop
  4013d3:	90                   	nop
  4013d4:	90                   	nop
  4013d5:	90                   	nop
  4013d6:	90                   	nop
  4013d7:	90                   	nop
  4013d8:	90                   	nop
  4013d9:	90                   	nop
  4013da:	90                   	nop
  4013db:	90                   	nop
  4013dc:	90                   	nop
  4013dd:	90                   	nop
  4013de:	90                   	nop
  4013df:	90                   	nop

004013e0 <_printBitBoard>:
  4013e0:	55                   	push   %ebp
  4013e1:	89 e5                	mov    %esp,%ebp
  4013e3:	57                   	push   %edi
  4013e4:	56                   	push   %esi
  4013e5:	53                   	push   %ebx
  4013e6:	83 ec 2c             	sub    $0x2c,%esp
  4013e9:	8b 45 08             	mov    0x8(%ebp),%eax
  4013ec:	89 45 d0             	mov    %eax,-0x30(%ebp)
  4013ef:	8b 45 0c             	mov    0xc(%ebp),%eax
  4013f2:	89 45 d4             	mov    %eax,-0x2c(%ebp)
  4013f5:	c7 04 24 64 e0 40 00 	movl   $0x40e064,(%esp)
  4013fc:	e8 ff ac 00 00       	call   40c100 <_puts>
  401401:	c7 45 e4 07 00 00 00 	movl   $0x7,-0x1c(%ebp)
  401408:	eb 71                	jmp    40147b <_printBitBoard+0x9b>
  40140a:	c7 45 e0 00 00 00 00 	movl   $0x0,-0x20(%ebp)
  401411:	eb 52                	jmp    401465 <_printBitBoard+0x85>
  401413:	8b 45 e4             	mov    -0x1c(%ebp),%eax
  401416:	8d 14 c5 00 00 00 00 	lea    0x0(,%eax,8),%edx
  40141d:	8b 45 e0             	mov    -0x20(%ebp),%eax
  401420:	8d 0c 02             	lea    (%edx,%eax,1),%ecx
  401423:	8b 45 d0             	mov    -0x30(%ebp),%eax
  401426:	8b 55 d4             	mov    -0x2c(%ebp),%edx
  401429:	0f ad d0             	shrd   %cl,%edx,%eax
  40142c:	d3 ea                	shr    %cl,%edx
  40142e:	f6 c1 20             	test   $0x20,%cl
  401431:	74 04                	je     401437 <_printBitBoard+0x57>
  401433:	89 d0                	mov    %edx,%eax
  401435:	31 d2                	xor    %edx,%edx
  401437:	89 c7                	mov    %eax,%edi
  401439:	83 e7 01             	and    $0x1,%edi
  40143c:	89 fb                	mov    %edi,%ebx
  40143e:	89 d0                	mov    %edx,%eax
  401440:	83 e0 00             	and    $0x0,%eax
  401443:	89 c6                	mov    %eax,%esi
  401445:	89 d8                	mov    %ebx,%eax
  401447:	09 f0                	or     %esi,%eax
  401449:	85 c0                	test   %eax,%eax
  40144b:	0f 95 c0             	setne  %al
  40144e:	0f b6 c0             	movzbl %al,%eax
  401451:	89 44 24 04          	mov    %eax,0x4(%esp)
  401455:	c7 04 24 78 e0 40 00 	movl   $0x40e078,(%esp)
  40145c:	e8 a7 ac 00 00       	call   40c108 <_printf>
  401461:	83 45 e0 01          	addl   $0x1,-0x20(%ebp)
  401465:	83 7d e0 07          	cmpl   $0x7,-0x20(%ebp)
  401469:	7e a8                	jle    401413 <_printBitBoard+0x33>
  40146b:	c7 04 24 0a 00 00 00 	movl   $0xa,(%esp)
  401472:	e8 99 ac 00 00       	call   40c110 <_putchar>
  401477:	83 6d e4 01          	subl   $0x1,-0x1c(%ebp)
  40147b:	83 7d e4 00          	cmpl   $0x0,-0x1c(%ebp)
  40147f:	79 89                	jns    40140a <_printBitBoard+0x2a>
  401481:	c7 04 24 0a 00 00 00 	movl   $0xa,(%esp)
  401488:	e8 83 ac 00 00       	call   40c110 <_putchar>
  40148d:	83 c4 2c             	add    $0x2c,%esp
  401490:	5b                   	pop    %ebx
  401491:	5e                   	pop    %esi
  401492:	5f                   	pop    %edi
  401493:	5d                   	pop    %ebp
  401494:	c3                   	ret    

00401495 <_getLSB>:
  401495:	55                   	push   %ebp
  401496:	89 e5                	mov    %esp,%ebp
  401498:	57                   	push   %edi
  401499:	56                   	push   %esi
  40149a:	53                   	push   %ebx
  40149b:	83 ec 1c             	sub    $0x1c,%esp
  40149e:	8b 4d 08             	mov    0x8(%ebp),%ecx
  4014a1:	89 4d d8             	mov    %ecx,-0x28(%ebp)
  4014a4:	8b 4d 0c             	mov    0xc(%ebp),%ecx
  4014a7:	89 4d dc             	mov    %ecx,-0x24(%ebp)
  4014aa:	c7 45 e8 89 0a cb b4 	movl   $0xb4cb0a89,-0x18(%ebp)
  4014b1:	c7 45 ec 71 9d f7 03 	movl   $0x3f79d71,-0x14(%ebp)
  4014b8:	8b 4d d8             	mov    -0x28(%ebp),%ecx
  4014bb:	8b 5d dc             	mov    -0x24(%ebp),%ebx
  4014be:	83 c1 ff             	add    $0xffffffff,%ecx
  4014c1:	83 d3 ff             	adc    $0xffffffff,%ebx
  4014c4:	89 ce                	mov    %ecx,%esi
  4014c6:	33 75 d8             	xor    -0x28(%ebp),%esi
  4014c9:	89 f0                	mov    %esi,%eax
  4014cb:	89 df                	mov    %ebx,%edi
  4014cd:	33 7d dc             	xor    -0x24(%ebp),%edi
  4014d0:	89 fa                	mov    %edi,%edx
  4014d2:	8b 4d e8             	mov    -0x18(%ebp),%ecx
  4014d5:	89 cb                	mov    %ecx,%ebx
  4014d7:	0f af da             	imul   %edx,%ebx
  4014da:	8b 4d ec             	mov    -0x14(%ebp),%ecx
  4014dd:	0f af c8             	imul   %eax,%ecx
  4014e0:	01 d9                	add    %ebx,%ecx
  4014e2:	f7 65 e8             	mull   -0x18(%ebp)
  4014e5:	01 d1                	add    %edx,%ecx
  4014e7:	89 ca                	mov    %ecx,%edx
  4014e9:	89 d0                	mov    %edx,%eax
  4014eb:	31 d2                	xor    %edx,%edx
  4014ed:	c1 e8 1a             	shr    $0x1a,%eax
  4014f0:	8b 04 85 00 d0 40 00 	mov    0x40d000(,%eax,4),%eax
  4014f7:	83 c4 1c             	add    $0x1c,%esp
  4014fa:	5b                   	pop    %ebx
  4014fb:	5e                   	pop    %esi
  4014fc:	5f                   	pop    %edi
  4014fd:	5d                   	pop    %ebp
  4014fe:	c3                   	ret    

004014ff <_getSquare>:
  4014ff:	55                   	push   %ebp
  401500:	89 e5                	mov    %esp,%ebp
  401502:	57                   	push   %edi
  401503:	56                   	push   %esi
  401504:	53                   	push   %ebx
  401505:	83 ec 54             	sub    $0x54,%esp
  401508:	8b 4d 08             	mov    0x8(%ebp),%ecx
  40150b:	b8 01 00 00 00       	mov    $0x1,%eax
  401510:	ba 00 00 00 00       	mov    $0x0,%edx
  401515:	0f a5 c2             	shld   %cl,%eax,%edx
  401518:	d3 e0                	shl    %cl,%eax
  40151a:	f6 c1 20             	test   $0x20,%cl
  40151d:	74 04                	je     401523 <_getSquare+0x24>
  40151f:	89 c2                	mov    %eax,%edx
  401521:	31 c0                	xor    %eax,%eax
  401523:	89 45 e8             	mov    %eax,-0x18(%ebp)
  401526:	89 55 ec             	mov    %edx,-0x14(%ebp)
  401529:	8b 45 0c             	mov    0xc(%ebp),%eax
  40152c:	8b 08                	mov    (%eax),%ecx
  40152e:	8b 58 04             	mov    0x4(%eax),%ebx
  401531:	8b 45 0c             	mov    0xc(%ebp),%eax
  401534:	8b 50 0c             	mov    0xc(%eax),%edx
  401537:	8b 40 08             	mov    0x8(%eax),%eax
  40153a:	89 45 d8             	mov    %eax,-0x28(%ebp)
  40153d:	89 55 dc             	mov    %edx,-0x24(%ebp)
  401540:	89 c8                	mov    %ecx,%eax
  401542:	0b 45 d8             	or     -0x28(%ebp),%eax
  401545:	89 c6                	mov    %eax,%esi
  401547:	89 d8                	mov    %ebx,%eax
  401549:	0b 45 dc             	or     -0x24(%ebp),%eax
  40154c:	89 c7                	mov    %eax,%edi
  40154e:	89 f0                	mov    %esi,%eax
  401550:	23 45 e8             	and    -0x18(%ebp),%eax
  401553:	89 45 d0             	mov    %eax,-0x30(%ebp)
  401556:	89 f8                	mov    %edi,%eax
  401558:	23 45 ec             	and    -0x14(%ebp),%eax
  40155b:	89 45 d4             	mov    %eax,-0x2c(%ebp)
  40155e:	8b 55 d0             	mov    -0x30(%ebp),%edx
  401561:	8b 4d d4             	mov    -0x2c(%ebp),%ecx
  401564:	89 c8                	mov    %ecx,%eax
  401566:	09 d0                	or     %edx,%eax
  401568:	85 c0                	test   %eax,%eax
  40156a:	75 0a                	jne    401576 <_getSquare+0x77>
  40156c:	a1 18 d1 40 00       	mov    0x40d118,%eax
  401571:	e9 1d 01 00 00       	jmp    401693 <_getSquare+0x194>
  401576:	8b 45 0c             	mov    0xc(%ebp),%eax
  401579:	8b 50 3c             	mov    0x3c(%eax),%edx
  40157c:	8b 40 38             	mov    0x38(%eax),%eax
  40157f:	89 c7                	mov    %eax,%edi
  401581:	23 7d e8             	and    -0x18(%ebp),%edi
  401584:	89 7d c8             	mov    %edi,-0x38(%ebp)
  401587:	89 d0                	mov    %edx,%eax
  401589:	23 45 ec             	and    -0x14(%ebp),%eax
  40158c:	89 45 cc             	mov    %eax,-0x34(%ebp)
  40158f:	8b 5d c8             	mov    -0x38(%ebp),%ebx
  401592:	8b 75 cc             	mov    -0x34(%ebp),%esi
  401595:	89 f0                	mov    %esi,%eax
  401597:	09 d8                	or     %ebx,%eax
  401599:	85 c0                	test   %eax,%eax
  40159b:	74 0a                	je     4015a7 <_getSquare+0xa8>
  40159d:	a1 24 10 41 00       	mov    0x411024,%eax
  4015a2:	e9 ec 00 00 00       	jmp    401693 <_getSquare+0x194>
  4015a7:	8b 45 0c             	mov    0xc(%ebp),%eax
  4015aa:	8b 50 34             	mov    0x34(%eax),%edx
  4015ad:	8b 40 30             	mov    0x30(%eax),%eax
  4015b0:	89 c7                	mov    %eax,%edi
  4015b2:	23 7d e8             	and    -0x18(%ebp),%edi
  4015b5:	89 7d c0             	mov    %edi,-0x40(%ebp)
  4015b8:	89 d0                	mov    %edx,%eax
  4015ba:	23 45 ec             	and    -0x14(%ebp),%eax
  4015bd:	89 45 c4             	mov    %eax,-0x3c(%ebp)
  4015c0:	8b 55 c0             	mov    -0x40(%ebp),%edx
  4015c3:	8b 4d c4             	mov    -0x3c(%ebp),%ecx
  4015c6:	89 c8                	mov    %ecx,%eax
  4015c8:	09 d0                	or     %edx,%eax
  4015ca:	85 c0                	test   %eax,%eax
  4015cc:	74 0a                	je     4015d8 <_getSquare+0xd9>
  4015ce:	a1 04 d1 40 00       	mov    0x40d104,%eax
  4015d3:	e9 bb 00 00 00       	jmp    401693 <_getSquare+0x194>
  4015d8:	8b 45 0c             	mov    0xc(%ebp),%eax
  4015db:	8b 50 2c             	mov    0x2c(%eax),%edx
  4015de:	8b 40 28             	mov    0x28(%eax),%eax
  4015e1:	89 c7                	mov    %eax,%edi
  4015e3:	23 7d e8             	and    -0x18(%ebp),%edi
  4015e6:	89 7d b8             	mov    %edi,-0x48(%ebp)
  4015e9:	89 d0                	mov    %edx,%eax
  4015eb:	23 45 ec             	and    -0x14(%ebp),%eax
  4015ee:	89 45 bc             	mov    %eax,-0x44(%ebp)
  4015f1:	8b 5d b8             	mov    -0x48(%ebp),%ebx
  4015f4:	8b 75 bc             	mov    -0x44(%ebp),%esi
  4015f7:	89 f0                	mov    %esi,%eax
  4015f9:	09 d8                	or     %ebx,%eax
  4015fb:	85 c0                	test   %eax,%eax
  4015fd:	74 0a                	je     401609 <_getSquare+0x10a>
  4015ff:	a1 08 d1 40 00       	mov    0x40d108,%eax
  401604:	e9 8a 00 00 00       	jmp    401693 <_getSquare+0x194>
  401609:	8b 45 0c             	mov    0xc(%ebp),%eax
  40160c:	8b 50 24             	mov    0x24(%eax),%edx
  40160f:	8b 40 20             	mov    0x20(%eax),%eax
  401612:	89 c3                	mov    %eax,%ebx
  401614:	23 5d e8             	and    -0x18(%ebp),%ebx
  401617:	89 5d b0             	mov    %ebx,-0x50(%ebp)
  40161a:	89 d0                	mov    %edx,%eax
  40161c:	23 45 ec             	and    -0x14(%ebp),%eax
  40161f:	89 45 b4             	mov    %eax,-0x4c(%ebp)
  401622:	8b 55 b0             	mov    -0x50(%ebp),%edx
  401625:	8b 4d b4             	mov    -0x4c(%ebp),%ecx
  401628:	89 c8                	mov    %ecx,%eax
  40162a:	09 d0                	or     %edx,%eax
  40162c:	85 c0                	test   %eax,%eax
  40162e:	74 07                	je     401637 <_getSquare+0x138>
  401630:	a1 0c d1 40 00       	mov    0x40d10c,%eax
  401635:	eb 5c                	jmp    401693 <_getSquare+0x194>
  401637:	8b 45 0c             	mov    0xc(%ebp),%eax
  40163a:	8b 50 1c             	mov    0x1c(%eax),%edx
  40163d:	8b 40 18             	mov    0x18(%eax),%eax
  401640:	89 c7                	mov    %eax,%edi
  401642:	23 7d e8             	and    -0x18(%ebp),%edi
  401645:	89 7d a8             	mov    %edi,-0x58(%ebp)
  401648:	89 d0                	mov    %edx,%eax
  40164a:	23 45 ec             	and    -0x14(%ebp),%eax
  40164d:	89 45 ac             	mov    %eax,-0x54(%ebp)
  401650:	8b 5d a8             	mov    -0x58(%ebp),%ebx
  401653:	8b 75 ac             	mov    -0x54(%ebp),%esi
  401656:	89 f0                	mov    %esi,%eax
  401658:	09 d8                	or     %ebx,%eax
  40165a:	85 c0                	test   %eax,%eax
  40165c:	74 07                	je     401665 <_getSquare+0x166>
  40165e:	a1 10 d1 40 00       	mov    0x40d110,%eax
  401663:	eb 2e                	jmp    401693 <_getSquare+0x194>
  401665:	8b 45 0c             	mov    0xc(%ebp),%eax
  401668:	8b 50 14             	mov    0x14(%eax),%edx
  40166b:	8b 40 10             	mov    0x10(%eax),%eax
  40166e:	89 c3                	mov    %eax,%ebx
  401670:	23 5d e8             	and    -0x18(%ebp),%ebx
  401673:	89 5d a0             	mov    %ebx,-0x60(%ebp)
  401676:	89 d0                	mov    %edx,%eax
  401678:	23 45 ec             	and    -0x14(%ebp),%eax
  40167b:	89 45 a4             	mov    %eax,-0x5c(%ebp)
  40167e:	8b 55 a0             	mov    -0x60(%ebp),%edx
  401681:	8b 4d a4             	mov    -0x5c(%ebp),%ecx
  401684:	89 c8                	mov    %ecx,%eax
  401686:	09 d0                	or     %edx,%eax
  401688:	85 c0                	test   %eax,%eax
  40168a:	74 07                	je     401693 <_getSquare+0x194>
  40168c:	a1 14 d1 40 00       	mov    0x40d114,%eax
  401691:	eb 00                	jmp    401693 <_getSquare+0x194>
  401693:	83 c4 54             	add    $0x54,%esp
  401696:	5b                   	pop    %ebx
  401697:	5e                   	pop    %esi
  401698:	5f                   	pop    %edi
  401699:	5d                   	pop    %ebp
  40169a:	c3                   	ret    

0040169b <_countSetBits>:
  40169b:	55                   	push   %ebp
  40169c:	89 e5                	mov    %esp,%ebp
  40169e:	83 ec 20             	sub    $0x20,%esp
  4016a1:	8b 45 08             	mov    0x8(%ebp),%eax
  4016a4:	89 45 e8             	mov    %eax,-0x18(%ebp)
  4016a7:	8b 45 0c             	mov    0xc(%ebp),%eax
  4016aa:	89 45 ec             	mov    %eax,-0x14(%ebp)
  4016ad:	8b 45 e8             	mov    -0x18(%ebp),%eax
  4016b0:	8b 55 ec             	mov    -0x14(%ebp),%edx
  4016b3:	09 d0                	or     %edx,%eax
  4016b5:	85 c0                	test   %eax,%eax
  4016b7:	75 07                	jne    4016c0 <_countSetBits+0x25>
  4016b9:	b8 00 00 00 00       	mov    $0x0,%eax
  4016be:	eb 52                	jmp    401712 <_countSetBits+0x77>
  4016c0:	c7 45 fc 00 00 00 00 	movl   $0x0,-0x4(%ebp)
  4016c7:	eb 3a                	jmp    401703 <_countSetBits+0x68>
  4016c9:	8b 45 e8             	mov    -0x18(%ebp),%eax
  4016cc:	8b 55 ec             	mov    -0x14(%ebp),%edx
  4016cf:	89 04 24             	mov    %eax,(%esp)
  4016d2:	89 54 24 04          	mov    %edx,0x4(%esp)
  4016d6:	e8 ba fd ff ff       	call   401495 <_getLSB>
  4016db:	89 45 f8             	mov    %eax,-0x8(%ebp)
  4016de:	83 45 fc 01          	addl   $0x1,-0x4(%ebp)
  4016e2:	8b 4d f8             	mov    -0x8(%ebp),%ecx
  4016e5:	b8 01 00 00 00       	mov    $0x1,%eax
  4016ea:	ba 00 00 00 00       	mov    $0x0,%edx
  4016ef:	0f a5 c2             	shld   %cl,%eax,%edx
  4016f2:	d3 e0                	shl    %cl,%eax
  4016f4:	f6 c1 20             	test   $0x20,%cl
  4016f7:	74 04                	je     4016fd <_countSetBits+0x62>
  4016f9:	89 c2                	mov    %eax,%edx
  4016fb:	31 c0                	xor    %eax,%eax
  4016fd:	31 45 e8             	xor    %eax,-0x18(%ebp)
  401700:	31 55 ec             	xor    %edx,-0x14(%ebp)
  401703:	8b 45 e8             	mov    -0x18(%ebp),%eax
  401706:	8b 55 ec             	mov    -0x14(%ebp),%edx
  401709:	09 d0                	or     %edx,%eax
  40170b:	85 c0                	test   %eax,%eax
  40170d:	75 ba                	jne    4016c9 <_countSetBits+0x2e>
  40170f:	8b 45 fc             	mov    -0x4(%ebp),%eax
  401712:	c9                   	leave  
  401713:	c3                   	ret    

00401714 <_getSetBits>:
  401714:	55                   	push   %ebp
  401715:	89 e5                	mov    %esp,%ebp
  401717:	83 ec 20             	sub    $0x20,%esp
  40171a:	8b 45 08             	mov    0x8(%ebp),%eax
  40171d:	89 45 e8             	mov    %eax,-0x18(%ebp)
  401720:	8b 45 0c             	mov    0xc(%ebp),%eax
  401723:	89 45 ec             	mov    %eax,-0x14(%ebp)
  401726:	c7 45 fc 00 00 00 00 	movl   $0x0,-0x4(%ebp)
  40172d:	eb 4e                	jmp    40177d <_getSetBits+0x69>
  40172f:	8b 45 e8             	mov    -0x18(%ebp),%eax
  401732:	8b 55 ec             	mov    -0x14(%ebp),%edx
  401735:	89 04 24             	mov    %eax,(%esp)
  401738:	89 54 24 04          	mov    %edx,0x4(%esp)
  40173c:	e8 54 fd ff ff       	call   401495 <_getLSB>
  401741:	89 45 f8             	mov    %eax,-0x8(%ebp)
  401744:	8b 45 fc             	mov    -0x4(%ebp),%eax
  401747:	8d 14 85 00 00 00 00 	lea    0x0(,%eax,4),%edx
  40174e:	8b 45 10             	mov    0x10(%ebp),%eax
  401751:	01 c2                	add    %eax,%edx
  401753:	8b 45 f8             	mov    -0x8(%ebp),%eax
  401756:	89 02                	mov    %eax,(%edx)
  401758:	83 45 fc 01          	addl   $0x1,-0x4(%ebp)
  40175c:	8b 4d f8             	mov    -0x8(%ebp),%ecx
  40175f:	b8 01 00 00 00       	mov    $0x1,%eax
  401764:	ba 00 00 00 00       	mov    $0x0,%edx
  401769:	0f a5 c2             	shld   %cl,%eax,%edx
  40176c:	d3 e0                	shl    %cl,%eax
  40176e:	f6 c1 20             	test   $0x20,%cl
  401771:	74 04                	je     401777 <_getSetBits+0x63>
  401773:	89 c2                	mov    %eax,%edx
  401775:	31 c0                	xor    %eax,%eax
  401777:	31 45 e8             	xor    %eax,-0x18(%ebp)
  40177a:	31 55 ec             	xor    %edx,-0x14(%ebp)
  40177d:	8b 45 e8             	mov    -0x18(%ebp),%eax
  401780:	8b 55 ec             	mov    -0x14(%ebp),%edx
  401783:	09 d0                	or     %edx,%eax
  401785:	85 c0                	test   %eax,%eax
  401787:	75 a6                	jne    40172f <_getSetBits+0x1b>
  401789:	8b 45 fc             	mov    -0x4(%ebp),%eax
  40178c:	8d 14 85 00 00 00 00 	lea    0x0(,%eax,4),%edx
  401793:	8b 45 10             	mov    0x10(%ebp),%eax
  401796:	01 d0                	add    %edx,%eax
  401798:	c7 00 ff ff ff ff    	movl   $0xffffffff,(%eax)
  40179e:	c9                   	leave  
  40179f:	c3                   	ret    

004017a0 <_BoardInit>:
  4017a0:	55                   	push   %ebp
  4017a1:	89 e5                	mov    %esp,%ebp
  4017a3:	83 ec 28             	sub    $0x28,%esp
  4017a6:	c7 04 24 b8 00 00 00 	movl   $0xb8,(%esp)
  4017ad:	e8 66 a9 00 00       	call   40c118 <_malloc>
  4017b2:	89 45 f4             	mov    %eax,-0xc(%ebp)
  4017b5:	a1 20 d1 40 00       	mov    0x40d120,%eax
  4017ba:	8b 15 24 d1 40 00    	mov    0x40d124,%edx
  4017c0:	8b 4d f4             	mov    -0xc(%ebp),%ecx
  4017c3:	89 01                	mov    %eax,(%ecx)
  4017c5:	89 51 04             	mov    %edx,0x4(%ecx)
  4017c8:	a1 28 d1 40 00       	mov    0x40d128,%eax
  4017cd:	8b 15 2c d1 40 00    	mov    0x40d12c,%edx
  4017d3:	8b 4d f4             	mov    -0xc(%ebp),%ecx
  4017d6:	89 41 08             	mov    %eax,0x8(%ecx)
  4017d9:	89 51 0c             	mov    %edx,0xc(%ecx)
  4017dc:	a1 30 d1 40 00       	mov    0x40d130,%eax
  4017e1:	8b 15 34 d1 40 00    	mov    0x40d134,%edx
  4017e7:	8b 4d f4             	mov    -0xc(%ebp),%ecx
  4017ea:	89 41 10             	mov    %eax,0x10(%ecx)
  4017ed:	89 51 14             	mov    %edx,0x14(%ecx)
  4017f0:	a1 38 d1 40 00       	mov    0x40d138,%eax
  4017f5:	8b 15 3c d1 40 00    	mov    0x40d13c,%edx
  4017fb:	8b 4d f4             	mov    -0xc(%ebp),%ecx
  4017fe:	89 41 18             	mov    %eax,0x18(%ecx)
  401801:	89 51 1c             	mov    %edx,0x1c(%ecx)
  401804:	a1 40 d1 40 00       	mov    0x40d140,%eax
  401809:	8b 15 44 d1 40 00    	mov    0x40d144,%edx
  40180f:	8b 4d f4             	mov    -0xc(%ebp),%ecx
  401812:	89 41 20             	mov    %eax,0x20(%ecx)
  401815:	89 51 24             	mov    %edx,0x24(%ecx)
  401818:	a1 48 d1 40 00       	mov    0x40d148,%eax
  40181d:	8b 15 4c d1 40 00    	mov    0x40d14c,%edx
  401823:	8b 4d f4             	mov    -0xc(%ebp),%ecx
  401826:	89 41 28             	mov    %eax,0x28(%ecx)
  401829:	89 51 2c             	mov    %edx,0x2c(%ecx)
  40182c:	a1 50 d1 40 00       	mov    0x40d150,%eax
  401831:	8b 15 54 d1 40 00    	mov    0x40d154,%edx
  401837:	8b 4d f4             	mov    -0xc(%ebp),%ecx
  40183a:	89 41 30             	mov    %eax,0x30(%ecx)
  40183d:	89 51 34             	mov    %edx,0x34(%ecx)
  401840:	a1 58 d1 40 00       	mov    0x40d158,%eax
  401845:	8b 15 5c d1 40 00    	mov    0x40d15c,%edx
  40184b:	8b 4d f4             	mov    -0xc(%ebp),%ecx
  40184e:	89 41 38             	mov    %eax,0x38(%ecx)
  401851:	89 51 3c             	mov    %edx,0x3c(%ecx)
  401854:	8b 55 f4             	mov    -0xc(%ebp),%edx
  401857:	8b 45 f4             	mov    -0xc(%ebp),%eax
  40185a:	89 50 40             	mov    %edx,0x40(%eax)
  40185d:	8b 45 f4             	mov    -0xc(%ebp),%eax
  401860:	8d 50 08             	lea    0x8(%eax),%edx
  401863:	8b 45 f4             	mov    -0xc(%ebp),%eax
  401866:	89 50 44             	mov    %edx,0x44(%eax)
  401869:	8b 45 f4             	mov    -0xc(%ebp),%eax
  40186c:	8d 50 38             	lea    0x38(%eax),%edx
  40186f:	8b 45 f4             	mov    -0xc(%ebp),%eax
  401872:	89 50 48             	mov    %edx,0x48(%eax)
  401875:	8b 45 f4             	mov    -0xc(%ebp),%eax
  401878:	8d 50 30             	lea    0x30(%eax),%edx
  40187b:	8b 45 f4             	mov    -0xc(%ebp),%eax
  40187e:	89 50 4c             	mov    %edx,0x4c(%eax)
  401881:	8b 45 f4             	mov    -0xc(%ebp),%eax
  401884:	8d 50 28             	lea    0x28(%eax),%edx
  401887:	8b 45 f4             	mov    -0xc(%ebp),%eax
  40188a:	89 50 50             	mov    %edx,0x50(%eax)
  40188d:	8b 45 f4             	mov    -0xc(%ebp),%eax
  401890:	8d 50 20             	lea    0x20(%eax),%edx
  401893:	8b 45 f4             	mov    -0xc(%ebp),%eax
  401896:	89 50 54             	mov    %edx,0x54(%eax)
  401899:	8b 45 f4             	mov    -0xc(%ebp),%eax
  40189c:	8d 50 18             	lea    0x18(%eax),%edx
  40189f:	8b 45 f4             	mov    -0xc(%ebp),%eax
  4018a2:	89 50 58             	mov    %edx,0x58(%eax)
  4018a5:	8b 45 f4             	mov    -0xc(%ebp),%eax
  4018a8:	8d 50 10             	lea    0x10(%eax),%edx
  4018ab:	8b 45 f4             	mov    -0xc(%ebp),%eax
  4018ae:	89 50 5c             	mov    %edx,0x5c(%eax)
  4018b1:	8b 45 f4             	mov    -0xc(%ebp),%eax
  4018b4:	c7 40 60 00 00 00 00 	movl   $0x0,0x60(%eax)
  4018bb:	8b 45 f4             	mov    -0xc(%ebp),%eax
  4018be:	c7 40 64 64 00 00 00 	movl   $0x64,0x64(%eax)
  4018c5:	8b 45 f4             	mov    -0xc(%ebp),%eax
  4018c8:	c7 40 68 32 00 00 00 	movl   $0x32,0x68(%eax)
  4018cf:	8b 45 f4             	mov    -0xc(%ebp),%eax
  4018d2:	c7 40 6c 01 00 00 00 	movl   $0x1,0x6c(%eax)
  4018d9:	8b 45 f4             	mov    -0xc(%ebp),%eax
  4018dc:	c7 40 70 01 00 00 00 	movl   $0x1,0x70(%eax)
  4018e3:	8b 45 f4             	mov    -0xc(%ebp),%eax
  4018e6:	c7 40 74 01 00 00 00 	movl   $0x1,0x74(%eax)
  4018ed:	8b 45 f4             	mov    -0xc(%ebp),%eax
  4018f0:	c7 40 78 01 00 00 00 	movl   $0x1,0x78(%eax)
  4018f7:	8b 45 f4             	mov    -0xc(%ebp),%eax
  4018fa:	c7 40 7c 00 00 00 00 	movl   $0x0,0x7c(%eax)
  401901:	8b 45 f4             	mov    -0xc(%ebp),%eax
  401904:	c7 80 80 00 00 00 00 	movl   $0x0,0x80(%eax)
  40190b:	00 00 00 
  40190e:	e8 c8 00 00 00       	call   4019db <_generateKingMap>
  401913:	8b 55 f4             	mov    -0xc(%ebp),%edx
  401916:	89 82 84 00 00 00    	mov    %eax,0x84(%edx)
  40191c:	e8 75 04 00 00       	call   401d96 <_generateKnightMap>
  401921:	8b 55 f4             	mov    -0xc(%ebp),%edx
  401924:	89 82 88 00 00 00    	mov    %eax,0x88(%edx)
  40192a:	e8 66 08 00 00       	call   402195 <_generateOccupancyMaskRook>
  40192f:	8b 55 f4             	mov    -0xc(%ebp),%edx
  401932:	89 82 8c 00 00 00    	mov    %eax,0x8c(%edx)
  401938:	8b 45 f4             	mov    -0xc(%ebp),%eax
  40193b:	c7 80 90 00 00 00 e0 	movl   $0x40d1e0,0x90(%eax)
  401942:	d1 40 00 
  401945:	8b 45 f4             	mov    -0xc(%ebp),%eax
  401948:	c7 80 94 00 00 00 e0 	movl   $0x40d3e0,0x94(%eax)
  40194f:	d3 40 00 
  401952:	8b 45 f4             	mov    -0xc(%ebp),%eax
  401955:	8b 80 8c 00 00 00    	mov    0x8c(%eax),%eax
  40195b:	89 04 24             	mov    %eax,(%esp)
  40195e:	e8 60 0b 00 00       	call   4024c3 <_generateOccupancyVariationRook>
  401963:	8b 55 f4             	mov    -0xc(%ebp),%edx
  401966:	89 82 98 00 00 00    	mov    %eax,0x98(%edx)
  40196c:	8b 45 f4             	mov    -0xc(%ebp),%eax
  40196f:	89 04 24             	mov    %eax,(%esp)
  401972:	e8 6e 0f 00 00       	call   4028e5 <_generateMoveDatabaseRook>
  401977:	8b 55 f4             	mov    -0xc(%ebp),%edx
  40197a:	89 82 9c 00 00 00    	mov    %eax,0x9c(%edx)
  401980:	e8 87 09 00 00       	call   40230c <_generateOccupancyMaskBishop>
  401985:	8b 55 f4             	mov    -0xc(%ebp),%edx
  401988:	89 82 a0 00 00 00    	mov    %eax,0xa0(%edx)
  40198e:	8b 45 f4             	mov    -0xc(%ebp),%eax
  401991:	c7 80 a4 00 00 00 e0 	movl   $0x40d2e0,0xa4(%eax)
  401998:	d2 40 00 
  40199b:	8b 45 f4             	mov    -0xc(%ebp),%eax
  40199e:	c7 80 a8 00 00 00 e0 	movl   $0x40d5e0,0xa8(%eax)
  4019a5:	d5 40 00 
  4019a8:	8b 45 f4             	mov    -0xc(%ebp),%eax
  4019ab:	8b 80 a0 00 00 00    	mov    0xa0(%eax),%eax
  4019b1:	89 04 24             	mov    %eax,(%esp)
  4019b4:	e8 1b 0d 00 00       	call   4026d4 <_generateOccupancyVariationBishop>
  4019b9:	8b 55 f4             	mov    -0xc(%ebp),%edx
  4019bc:	89 82 ac 00 00 00    	mov    %eax,0xac(%edx)
  4019c2:	8b 45 f4             	mov    -0xc(%ebp),%eax
  4019c5:	89 04 24             	mov    %eax,(%esp)
  4019c8:	e8 cd 12 00 00       	call   402c9a <_generateMoveDatabaseBishop>
  4019cd:	8b 55 f4             	mov    -0xc(%ebp),%edx
  4019d0:	89 82 b0 00 00 00    	mov    %eax,0xb0(%edx)
  4019d6:	8b 45 f4             	mov    -0xc(%ebp),%eax
  4019d9:	c9                   	leave  
  4019da:	c3                   	ret    

004019db <_generateKingMap>:
  4019db:	55                   	push   %ebp
  4019dc:	89 e5                	mov    %esp,%ebp
  4019de:	57                   	push   %edi
  4019df:	56                   	push   %esi
  4019e0:	53                   	push   %ebx
  4019e1:	83 ec 6c             	sub    $0x6c,%esp
  4019e4:	c7 44 24 04 08 00 00 	movl   $0x8,0x4(%esp)
  4019eb:	00 
  4019ec:	c7 04 24 40 00 00 00 	movl   $0x40,(%esp)
  4019f3:	e8 28 a7 00 00       	call   40c120 <_calloc>
  4019f8:	89 45 e0             	mov    %eax,-0x20(%ebp)
  4019fb:	c7 45 d8 01 00 00 00 	movl   $0x1,-0x28(%ebp)
  401a02:	c7 45 dc 00 00 00 00 	movl   $0x0,-0x24(%ebp)
  401a09:	c7 45 e4 00 00 00 00 	movl   $0x0,-0x1c(%ebp)
  401a10:	e9 6c 03 00 00       	jmp    401d81 <_generateKingMap+0x3a6>
  401a15:	8b 45 e4             	mov    -0x1c(%ebp),%eax
  401a18:	83 c0 09             	add    $0x9,%eax
  401a1b:	83 f8 3f             	cmp    $0x3f,%eax
  401a1e:	7f 6f                	jg     401a8f <_generateKingMap+0xb4>
  401a20:	8b 55 e4             	mov    -0x1c(%ebp),%edx
  401a23:	89 d0                	mov    %edx,%eax
  401a25:	c1 f8 1f             	sar    $0x1f,%eax
  401a28:	c1 e8 1d             	shr    $0x1d,%eax
  401a2b:	89 c1                	mov    %eax,%ecx
  401a2d:	8d 04 0a             	lea    (%edx,%ecx,1),%eax
  401a30:	83 e0 07             	and    $0x7,%eax
  401a33:	29 c8                	sub    %ecx,%eax
  401a35:	83 f8 07             	cmp    $0x7,%eax
  401a38:	74 55                	je     401a8f <_generateKingMap+0xb4>
  401a3a:	8b 45 e4             	mov    -0x1c(%ebp),%eax
  401a3d:	8d 14 c5 00 00 00 00 	lea    0x0(,%eax,8),%edx
  401a44:	8b 45 e0             	mov    -0x20(%ebp),%eax
  401a47:	8d 3c 02             	lea    (%edx,%eax,1),%edi
  401a4a:	8b 45 e4             	mov    -0x1c(%ebp),%eax
  401a4d:	8d 14 c5 00 00 00 00 	lea    0x0(,%eax,8),%edx
  401a54:	8b 45 e0             	mov    -0x20(%ebp),%eax
  401a57:	01 d0                	add    %edx,%eax
  401a59:	8b 18                	mov    (%eax),%ebx
  401a5b:	8b 70 04             	mov    0x4(%eax),%esi
  401a5e:	8b 45 e4             	mov    -0x1c(%ebp),%eax
  401a61:	8d 48 09             	lea    0x9(%eax),%ecx
  401a64:	8b 45 d8             	mov    -0x28(%ebp),%eax
  401a67:	8b 55 dc             	mov    -0x24(%ebp),%edx
  401a6a:	0f a5 c2             	shld   %cl,%eax,%edx
  401a6d:	d3 e0                	shl    %cl,%eax
  401a6f:	f6 c1 20             	test   $0x20,%cl
  401a72:	74 04                	je     401a78 <_generateKingMap+0x9d>
  401a74:	89 c2                	mov    %eax,%edx
  401a76:	31 c0                	xor    %eax,%eax
  401a78:	89 d9                	mov    %ebx,%ecx
  401a7a:	09 c1                	or     %eax,%ecx
  401a7c:	89 4d d0             	mov    %ecx,-0x30(%ebp)
  401a7f:	09 d6                	or     %edx,%esi
  401a81:	89 75 d4             	mov    %esi,-0x2c(%ebp)
  401a84:	8b 45 d0             	mov    -0x30(%ebp),%eax
  401a87:	8b 55 d4             	mov    -0x2c(%ebp),%edx
  401a8a:	89 07                	mov    %eax,(%edi)
  401a8c:	89 57 04             	mov    %edx,0x4(%edi)
  401a8f:	8b 45 e4             	mov    -0x1c(%ebp),%eax
  401a92:	83 e8 09             	sub    $0x9,%eax
  401a95:	85 c0                	test   %eax,%eax
  401a97:	78 5f                	js     401af8 <_generateKingMap+0x11d>
  401a99:	8b 45 e4             	mov    -0x1c(%ebp),%eax
  401a9c:	83 e0 07             	and    $0x7,%eax
  401a9f:	85 c0                	test   %eax,%eax
  401aa1:	74 55                	je     401af8 <_generateKingMap+0x11d>
  401aa3:	8b 45 e4             	mov    -0x1c(%ebp),%eax
  401aa6:	8d 14 c5 00 00 00 00 	lea    0x0(,%eax,8),%edx
  401aad:	8b 45 e0             	mov    -0x20(%ebp),%eax
  401ab0:	8d 3c 02             	lea    (%edx,%eax,1),%edi
  401ab3:	8b 45 e4             	mov    -0x1c(%ebp),%eax
  401ab6:	8d 14 c5 00 00 00 00 	lea    0x0(,%eax,8),%edx
  401abd:	8b 45 e0             	mov    -0x20(%ebp),%eax
  401ac0:	01 d0                	add    %edx,%eax
  401ac2:	8b 18                	mov    (%eax),%ebx
  401ac4:	8b 70 04             	mov    0x4(%eax),%esi
  401ac7:	8b 45 e4             	mov    -0x1c(%ebp),%eax
  401aca:	8d 48 f7             	lea    -0x9(%eax),%ecx
  401acd:	8b 45 d8             	mov    -0x28(%ebp),%eax
  401ad0:	8b 55 dc             	mov    -0x24(%ebp),%edx
  401ad3:	0f a5 c2             	shld   %cl,%eax,%edx
  401ad6:	d3 e0                	shl    %cl,%eax
  401ad8:	f6 c1 20             	test   $0x20,%cl
  401adb:	74 04                	je     401ae1 <_generateKingMap+0x106>
  401add:	89 c2                	mov    %eax,%edx
  401adf:	31 c0                	xor    %eax,%eax
  401ae1:	89 d9                	mov    %ebx,%ecx
  401ae3:	09 c1                	or     %eax,%ecx
  401ae5:	89 4d c8             	mov    %ecx,-0x38(%ebp)
  401ae8:	09 d6                	or     %edx,%esi
  401aea:	89 75 cc             	mov    %esi,-0x34(%ebp)
  401aed:	8b 45 c8             	mov    -0x38(%ebp),%eax
  401af0:	8b 55 cc             	mov    -0x34(%ebp),%edx
  401af3:	89 07                	mov    %eax,(%edi)
  401af5:	89 57 04             	mov    %edx,0x4(%edi)
  401af8:	8b 45 e4             	mov    -0x1c(%ebp),%eax
  401afb:	83 c0 07             	add    $0x7,%eax
  401afe:	83 f8 3f             	cmp    $0x3f,%eax
  401b01:	7f 5f                	jg     401b62 <_generateKingMap+0x187>
  401b03:	8b 45 e4             	mov    -0x1c(%ebp),%eax
  401b06:	83 e0 07             	and    $0x7,%eax
  401b09:	85 c0                	test   %eax,%eax
  401b0b:	74 55                	je     401b62 <_generateKingMap+0x187>
  401b0d:	8b 45 e4             	mov    -0x1c(%ebp),%eax
  401b10:	8d 14 c5 00 00 00 00 	lea    0x0(,%eax,8),%edx
  401b17:	8b 45 e0             	mov    -0x20(%ebp),%eax
  401b1a:	8d 3c 02             	lea    (%edx,%eax,1),%edi
  401b1d:	8b 45 e4             	mov    -0x1c(%ebp),%eax
  401b20:	8d 14 c5 00 00 00 00 	lea    0x0(,%eax,8),%edx
  401b27:	8b 45 e0             	mov    -0x20(%ebp),%eax
  401b2a:	01 d0                	add    %edx,%eax
  401b2c:	8b 18                	mov    (%eax),%ebx
  401b2e:	8b 70 04             	mov    0x4(%eax),%esi
  401b31:	8b 45 e4             	mov    -0x1c(%ebp),%eax
  401b34:	8d 48 07             	lea    0x7(%eax),%ecx
  401b37:	8b 45 d8             	mov    -0x28(%ebp),%eax
  401b3a:	8b 55 dc             	mov    -0x24(%ebp),%edx
  401b3d:	0f a5 c2             	shld   %cl,%eax,%edx
  401b40:	d3 e0                	shl    %cl,%eax
  401b42:	f6 c1 20             	test   $0x20,%cl
  401b45:	74 04                	je     401b4b <_generateKingMap+0x170>
  401b47:	89 c2                	mov    %eax,%edx
  401b49:	31 c0                	xor    %eax,%eax
  401b4b:	89 d9                	mov    %ebx,%ecx
  401b4d:	09 c1                	or     %eax,%ecx
  401b4f:	89 4d c0             	mov    %ecx,-0x40(%ebp)
  401b52:	09 d6                	or     %edx,%esi
  401b54:	89 75 c4             	mov    %esi,-0x3c(%ebp)
  401b57:	8b 45 c0             	mov    -0x40(%ebp),%eax
  401b5a:	8b 55 c4             	mov    -0x3c(%ebp),%edx
  401b5d:	89 07                	mov    %eax,(%edi)
  401b5f:	89 57 04             	mov    %edx,0x4(%edi)
  401b62:	8b 45 e4             	mov    -0x1c(%ebp),%eax
  401b65:	83 e8 07             	sub    $0x7,%eax
  401b68:	85 c0                	test   %eax,%eax
  401b6a:	78 6f                	js     401bdb <_generateKingMap+0x200>
  401b6c:	8b 55 e4             	mov    -0x1c(%ebp),%edx
  401b6f:	89 d0                	mov    %edx,%eax
  401b71:	c1 f8 1f             	sar    $0x1f,%eax
  401b74:	c1 e8 1d             	shr    $0x1d,%eax
  401b77:	89 c1                	mov    %eax,%ecx
  401b79:	8d 04 0a             	lea    (%edx,%ecx,1),%eax
  401b7c:	83 e0 07             	and    $0x7,%eax
  401b7f:	29 c8                	sub    %ecx,%eax
  401b81:	83 f8 07             	cmp    $0x7,%eax
  401b84:	74 55                	je     401bdb <_generateKingMap+0x200>
  401b86:	8b 45 e4             	mov    -0x1c(%ebp),%eax
  401b89:	8d 14 c5 00 00 00 00 	lea    0x0(,%eax,8),%edx
  401b90:	8b 45 e0             	mov    -0x20(%ebp),%eax
  401b93:	8d 3c 02             	lea    (%edx,%eax,1),%edi
  401b96:	8b 45 e4             	mov    -0x1c(%ebp),%eax
  401b99:	8d 14 c5 00 00 00 00 	lea    0x0(,%eax,8),%edx
  401ba0:	8b 45 e0             	mov    -0x20(%ebp),%eax
  401ba3:	01 d0                	add    %edx,%eax
  401ba5:	8b 18                	mov    (%eax),%ebx
  401ba7:	8b 70 04             	mov    0x4(%eax),%esi
  401baa:	8b 45 e4             	mov    -0x1c(%ebp),%eax
  401bad:	8d 48 f9             	lea    -0x7(%eax),%ecx
  401bb0:	8b 45 d8             	mov    -0x28(%ebp),%eax
  401bb3:	8b 55 dc             	mov    -0x24(%ebp),%edx
  401bb6:	0f a5 c2             	shld   %cl,%eax,%edx
  401bb9:	d3 e0                	shl    %cl,%eax
  401bbb:	f6 c1 20             	test   $0x20,%cl
  401bbe:	74 04                	je     401bc4 <_generateKingMap+0x1e9>
  401bc0:	89 c2                	mov    %eax,%edx
  401bc2:	31 c0                	xor    %eax,%eax
  401bc4:	89 d9                	mov    %ebx,%ecx
  401bc6:	09 c1                	or     %eax,%ecx
  401bc8:	89 4d b8             	mov    %ecx,-0x48(%ebp)
  401bcb:	09 d6                	or     %edx,%esi
  401bcd:	89 75 bc             	mov    %esi,-0x44(%ebp)
  401bd0:	8b 45 b8             	mov    -0x48(%ebp),%eax
  401bd3:	8b 55 bc             	mov    -0x44(%ebp),%edx
  401bd6:	89 07                	mov    %eax,(%edi)
  401bd8:	89 57 04             	mov    %edx,0x4(%edi)
  401bdb:	8b 45 e4             	mov    -0x1c(%ebp),%eax
  401bde:	83 c0 01             	add    $0x1,%eax
  401be1:	83 f8 3f             	cmp    $0x3f,%eax
  401be4:	7f 6f                	jg     401c55 <_generateKingMap+0x27a>
  401be6:	8b 55 e4             	mov    -0x1c(%ebp),%edx
  401be9:	89 d0                	mov    %edx,%eax
  401beb:	c1 f8 1f             	sar    $0x1f,%eax
  401bee:	c1 e8 1d             	shr    $0x1d,%eax
  401bf1:	89 c1                	mov    %eax,%ecx
  401bf3:	8d 04 0a             	lea    (%edx,%ecx,1),%eax
  401bf6:	83 e0 07             	and    $0x7,%eax
  401bf9:	29 c8                	sub    %ecx,%eax
  401bfb:	83 f8 07             	cmp    $0x7,%eax
  401bfe:	74 55                	je     401c55 <_generateKingMap+0x27a>
  401c00:	8b 45 e4             	mov    -0x1c(%ebp),%eax
  401c03:	8d 14 c5 00 00 00 00 	lea    0x0(,%eax,8),%edx
  401c0a:	8b 45 e0             	mov    -0x20(%ebp),%eax
  401c0d:	8d 3c 02             	lea    (%edx,%eax,1),%edi
  401c10:	8b 45 e4             	mov    -0x1c(%ebp),%eax
  401c13:	8d 14 c5 00 00 00 00 	lea    0x0(,%eax,8),%edx
  401c1a:	8b 45 e0             	mov    -0x20(%ebp),%eax
  401c1d:	01 d0                	add    %edx,%eax
  401c1f:	8b 18                	mov    (%eax),%ebx
  401c21:	8b 70 04             	mov    0x4(%eax),%esi
  401c24:	8b 45 e4             	mov    -0x1c(%ebp),%eax
  401c27:	8d 48 01             	lea    0x1(%eax),%ecx
  401c2a:	8b 45 d8             	mov    -0x28(%ebp),%eax
  401c2d:	8b 55 dc             	mov    -0x24(%ebp),%edx
  401c30:	0f a5 c2             	shld   %cl,%eax,%edx
  401c33:	d3 e0                	shl    %cl,%eax
  401c35:	f6 c1 20             	test   $0x20,%cl
  401c38:	74 04                	je     401c3e <_generateKingMap+0x263>
  401c3a:	89 c2                	mov    %eax,%edx
  401c3c:	31 c0                	xor    %eax,%eax
  401c3e:	89 d9                	mov    %ebx,%ecx
  401c40:	09 c1                	or     %eax,%ecx
  401c42:	89 4d b0             	mov    %ecx,-0x50(%ebp)
  401c45:	09 d6                	or     %edx,%esi
  401c47:	89 75 b4             	mov    %esi,-0x4c(%ebp)
  401c4a:	8b 45 b0             	mov    -0x50(%ebp),%eax
  401c4d:	8b 55 b4             	mov    -0x4c(%ebp),%edx
  401c50:	89 07                	mov    %eax,(%edi)
  401c52:	89 57 04             	mov    %edx,0x4(%edi)
  401c55:	8b 45 e4             	mov    -0x1c(%ebp),%eax
  401c58:	83 e8 01             	sub    $0x1,%eax
  401c5b:	85 c0                	test   %eax,%eax
  401c5d:	78 5f                	js     401cbe <_generateKingMap+0x2e3>
  401c5f:	8b 45 e4             	mov    -0x1c(%ebp),%eax
  401c62:	83 e0 07             	and    $0x7,%eax
  401c65:	85 c0                	test   %eax,%eax
  401c67:	74 55                	je     401cbe <_generateKingMap+0x2e3>
  401c69:	8b 45 e4             	mov    -0x1c(%ebp),%eax
  401c6c:	8d 14 c5 00 00 00 00 	lea    0x0(,%eax,8),%edx
  401c73:	8b 45 e0             	mov    -0x20(%ebp),%eax
  401c76:	8d 3c 02             	lea    (%edx,%eax,1),%edi
  401c79:	8b 45 e4             	mov    -0x1c(%ebp),%eax
  401c7c:	8d 14 c5 00 00 00 00 	lea    0x0(,%eax,8),%edx
  401c83:	8b 45 e0             	mov    -0x20(%ebp),%eax
  401c86:	01 d0                	add    %edx,%eax
  401c88:	8b 18                	mov    (%eax),%ebx
  401c8a:	8b 70 04             	mov    0x4(%eax),%esi
  401c8d:	8b 45 e4             	mov    -0x1c(%ebp),%eax
  401c90:	8d 48 ff             	lea    -0x1(%eax),%ecx
  401c93:	8b 45 d8             	mov    -0x28(%ebp),%eax
  401c96:	8b 55 dc             	mov    -0x24(%ebp),%edx
  401c99:	0f a5 c2             	shld   %cl,%eax,%edx
  401c9c:	d3 e0                	shl    %cl,%eax
  401c9e:	f6 c1 20             	test   $0x20,%cl
  401ca1:	74 04                	je     401ca7 <_generateKingMap+0x2cc>
  401ca3:	89 c2                	mov    %eax,%edx
  401ca5:	31 c0                	xor    %eax,%eax
  401ca7:	89 d9                	mov    %ebx,%ecx
  401ca9:	09 c1                	or     %eax,%ecx
  401cab:	89 4d a8             	mov    %ecx,-0x58(%ebp)
  401cae:	09 d6                	or     %edx,%esi
  401cb0:	89 75 ac             	mov    %esi,-0x54(%ebp)
  401cb3:	8b 45 a8             	mov    -0x58(%ebp),%eax
  401cb6:	8b 55 ac             	mov    -0x54(%ebp),%edx
  401cb9:	89 07                	mov    %eax,(%edi)
  401cbb:	89 57 04             	mov    %edx,0x4(%edi)
  401cbe:	8b 45 e4             	mov    -0x1c(%ebp),%eax
  401cc1:	83 c0 08             	add    $0x8,%eax
  401cc4:	83 f8 3f             	cmp    $0x3f,%eax
  401cc7:	7f 55                	jg     401d1e <_generateKingMap+0x343>
  401cc9:	8b 45 e4             	mov    -0x1c(%ebp),%eax
  401ccc:	8d 14 c5 00 00 00 00 	lea    0x0(,%eax,8),%edx
  401cd3:	8b 45 e0             	mov    -0x20(%ebp),%eax
  401cd6:	8d 3c 02             	lea    (%edx,%eax,1),%edi
  401cd9:	8b 45 e4             	mov    -0x1c(%ebp),%eax
  401cdc:	8d 14 c5 00 00 00 00 	lea    0x0(,%eax,8),%edx
  401ce3:	8b 45 e0             	mov    -0x20(%ebp),%eax
  401ce6:	01 d0                	add    %edx,%eax
  401ce8:	8b 18                	mov    (%eax),%ebx
  401cea:	8b 70 04             	mov    0x4(%eax),%esi
  401ced:	8b 45 e4             	mov    -0x1c(%ebp),%eax
  401cf0:	8d 48 08             	lea    0x8(%eax),%ecx
  401cf3:	8b 45 d8             	mov    -0x28(%ebp),%eax
  401cf6:	8b 55 dc             	mov    -0x24(%ebp),%edx
  401cf9:	0f a5 c2             	shld   %cl,%eax,%edx
  401cfc:	d3 e0                	shl    %cl,%eax
  401cfe:	f6 c1 20             	test   $0x20,%cl
  401d01:	74 04                	je     401d07 <_generateKingMap+0x32c>
  401d03:	89 c2                	mov    %eax,%edx
  401d05:	31 c0                	xor    %eax,%eax
  401d07:	89 d9                	mov    %ebx,%ecx
  401d09:	09 c1                	or     %eax,%ecx
  401d0b:	89 4d a0             	mov    %ecx,-0x60(%ebp)
  401d0e:	09 d6                	or     %edx,%esi
  401d10:	89 75 a4             	mov    %esi,-0x5c(%ebp)
  401d13:	8b 45 a0             	mov    -0x60(%ebp),%eax
  401d16:	8b 55 a4             	mov    -0x5c(%ebp),%edx
  401d19:	89 07                	mov    %eax,(%edi)
  401d1b:	89 57 04             	mov    %edx,0x4(%edi)
  401d1e:	8b 45 e4             	mov    -0x1c(%ebp),%eax
  401d21:	83 e8 08             	sub    $0x8,%eax
  401d24:	85 c0                	test   %eax,%eax
  401d26:	78 55                	js     401d7d <_generateKingMap+0x3a2>
  401d28:	8b 45 e4             	mov    -0x1c(%ebp),%eax
  401d2b:	8d 14 c5 00 00 00 00 	lea    0x0(,%eax,8),%edx
  401d32:	8b 45 e0             	mov    -0x20(%ebp),%eax
  401d35:	8d 3c 02             	lea    (%edx,%eax,1),%edi
  401d38:	8b 45 e4             	mov    -0x1c(%ebp),%eax
  401d3b:	8d 14 c5 00 00 00 00 	lea    0x0(,%eax,8),%edx
  401d42:	8b 45 e0             	mov    -0x20(%ebp),%eax
  401d45:	01 d0                	add    %edx,%eax
  401d47:	8b 18                	mov    (%eax),%ebx
  401d49:	8b 70 04             	mov    0x4(%eax),%esi
  401d4c:	8b 45 e4             	mov    -0x1c(%ebp),%eax
  401d4f:	8d 48 f8             	lea    -0x8(%eax),%ecx
  401d52:	8b 45 d8             	mov    -0x28(%ebp),%eax
  401d55:	8b 55 dc             	mov    -0x24(%ebp),%edx
  401d58:	0f a5 c2             	shld   %cl,%eax,%edx
  401d5b:	d3 e0                	shl    %cl,%eax
  401d5d:	f6 c1 20             	test   $0x20,%cl
  401d60:	74 04                	je     401d66 <_generateKingMap+0x38b>
  401d62:	89 c2                	mov    %eax,%edx
  401d64:	31 c0                	xor    %eax,%eax
  401d66:	89 d9                	mov    %ebx,%ecx
  401d68:	09 c1                	or     %eax,%ecx
  401d6a:	89 4d 98             	mov    %ecx,-0x68(%ebp)
  401d6d:	09 d6                	or     %edx,%esi
  401d6f:	89 75 9c             	mov    %esi,-0x64(%ebp)
  401d72:	8b 45 98             	mov    -0x68(%ebp),%eax
  401d75:	8b 55 9c             	mov    -0x64(%ebp),%edx
  401d78:	89 07                	mov    %eax,(%edi)
  401d7a:	89 57 04             	mov    %edx,0x4(%edi)
  401d7d:	83 45 e4 01          	addl   $0x1,-0x1c(%ebp)
  401d81:	83 7d e4 3f          	cmpl   $0x3f,-0x1c(%ebp)
  401d85:	0f 8e 8a fc ff ff    	jle    401a15 <_generateKingMap+0x3a>
  401d8b:	8b 45 e0             	mov    -0x20(%ebp),%eax
  401d8e:	83 c4 6c             	add    $0x6c,%esp
  401d91:	5b                   	pop    %ebx
  401d92:	5e                   	pop    %esi
  401d93:	5f                   	pop    %edi
  401d94:	5d                   	pop    %ebp
  401d95:	c3                   	ret    

00401d96 <_generateKnightMap>:
  401d96:	55                   	push   %ebp
  401d97:	89 e5                	mov    %esp,%ebp
  401d99:	57                   	push   %edi
  401d9a:	56                   	push   %esi
  401d9b:	53                   	push   %ebx
  401d9c:	83 ec 6c             	sub    $0x6c,%esp
  401d9f:	c7 44 24 04 08 00 00 	movl   $0x8,0x4(%esp)
  401da6:	00 
  401da7:	c7 04 24 40 00 00 00 	movl   $0x40,(%esp)
  401dae:	e8 6d a3 00 00       	call   40c120 <_calloc>
  401db3:	89 45 e0             	mov    %eax,-0x20(%ebp)
  401db6:	c7 45 d8 01 00 00 00 	movl   $0x1,-0x28(%ebp)
  401dbd:	c7 45 dc 00 00 00 00 	movl   $0x0,-0x24(%ebp)
  401dc4:	c7 45 e4 00 00 00 00 	movl   $0x0,-0x1c(%ebp)
  401dcb:	e9 b0 03 00 00       	jmp    402180 <_generateKnightMap+0x3ea>
  401dd0:	8b 45 e4             	mov    -0x1c(%ebp),%eax
  401dd3:	83 c0 11             	add    $0x11,%eax
  401dd6:	83 f8 3f             	cmp    $0x3f,%eax
  401dd9:	7f 6f                	jg     401e4a <_generateKnightMap+0xb4>
  401ddb:	8b 55 e4             	mov    -0x1c(%ebp),%edx
  401dde:	89 d0                	mov    %edx,%eax
  401de0:	c1 f8 1f             	sar    $0x1f,%eax
  401de3:	c1 e8 1d             	shr    $0x1d,%eax
  401de6:	89 c1                	mov    %eax,%ecx
  401de8:	8d 04 0a             	lea    (%edx,%ecx,1),%eax
  401deb:	83 e0 07             	and    $0x7,%eax
  401dee:	29 c8                	sub    %ecx,%eax
  401df0:	83 f8 07             	cmp    $0x7,%eax
  401df3:	74 55                	je     401e4a <_generateKnightMap+0xb4>
  401df5:	8b 45 e4             	mov    -0x1c(%ebp),%eax
  401df8:	8d 14 c5 00 00 00 00 	lea    0x0(,%eax,8),%edx
  401dff:	8b 45 e0             	mov    -0x20(%ebp),%eax
  401e02:	8d 3c 02             	lea    (%edx,%eax,1),%edi
  401e05:	8b 45 e4             	mov    -0x1c(%ebp),%eax
  401e08:	8d 14 c5 00 00 00 00 	lea    0x0(,%eax,8),%edx
  401e0f:	8b 45 e0             	mov    -0x20(%ebp),%eax
  401e12:	01 d0                	add    %edx,%eax
  401e14:	8b 18                	mov    (%eax),%ebx
  401e16:	8b 70 04             	mov    0x4(%eax),%esi
  401e19:	8b 45 e4             	mov    -0x1c(%ebp),%eax
  401e1c:	8d 48 11             	lea    0x11(%eax),%ecx
  401e1f:	8b 45 d8             	mov    -0x28(%ebp),%eax
  401e22:	8b 55 dc             	mov    -0x24(%ebp),%edx
  401e25:	0f a5 c2             	shld   %cl,%eax,%edx
  401e28:	d3 e0                	shl    %cl,%eax
  401e2a:	f6 c1 20             	test   $0x20,%cl
  401e2d:	74 04                	je     401e33 <_generateKnightMap+0x9d>
  401e2f:	89 c2                	mov    %eax,%edx
  401e31:	31 c0                	xor    %eax,%eax
  401e33:	89 d9                	mov    %ebx,%ecx
  401e35:	09 c1                	or     %eax,%ecx
  401e37:	89 4d d0             	mov    %ecx,-0x30(%ebp)
  401e3a:	09 d6                	or     %edx,%esi
  401e3c:	89 75 d4             	mov    %esi,-0x2c(%ebp)
  401e3f:	8b 45 d0             	mov    -0x30(%ebp),%eax
  401e42:	8b 55 d4             	mov    -0x2c(%ebp),%edx
  401e45:	89 07                	mov    %eax,(%edi)
  401e47:	89 57 04             	mov    %edx,0x4(%edi)
  401e4a:	8b 45 e4             	mov    -0x1c(%ebp),%eax
  401e4d:	83 e8 11             	sub    $0x11,%eax
  401e50:	85 c0                	test   %eax,%eax
  401e52:	78 5f                	js     401eb3 <_generateKnightMap+0x11d>
  401e54:	8b 45 e4             	mov    -0x1c(%ebp),%eax
  401e57:	83 e0 07             	and    $0x7,%eax
  401e5a:	85 c0                	test   %eax,%eax
  401e5c:	74 55                	je     401eb3 <_generateKnightMap+0x11d>
  401e5e:	8b 45 e4             	mov    -0x1c(%ebp),%eax
  401e61:	8d 14 c5 00 00 00 00 	lea    0x0(,%eax,8),%edx
  401e68:	8b 45 e0             	mov    -0x20(%ebp),%eax
  401e6b:	8d 3c 02             	lea    (%edx,%eax,1),%edi
  401e6e:	8b 45 e4             	mov    -0x1c(%ebp),%eax
  401e71:	8d 14 c5 00 00 00 00 	lea    0x0(,%eax,8),%edx
  401e78:	8b 45 e0             	mov    -0x20(%ebp),%eax
  401e7b:	01 d0                	add    %edx,%eax
  401e7d:	8b 18                	mov    (%eax),%ebx
  401e7f:	8b 70 04             	mov    0x4(%eax),%esi
  401e82:	8b 45 e4             	mov    -0x1c(%ebp),%eax
  401e85:	8d 48 ef             	lea    -0x11(%eax),%ecx
  401e88:	8b 45 d8             	mov    -0x28(%ebp),%eax
  401e8b:	8b 55 dc             	mov    -0x24(%ebp),%edx
  401e8e:	0f a5 c2             	shld   %cl,%eax,%edx
  401e91:	d3 e0                	shl    %cl,%eax
  401e93:	f6 c1 20             	test   $0x20,%cl
  401e96:	74 04                	je     401e9c <_generateKnightMap+0x106>
  401e98:	89 c2                	mov    %eax,%edx
  401e9a:	31 c0                	xor    %eax,%eax
  401e9c:	89 d9                	mov    %ebx,%ecx
  401e9e:	09 c1                	or     %eax,%ecx
  401ea0:	89 4d c8             	mov    %ecx,-0x38(%ebp)
  401ea3:	09 d6                	or     %edx,%esi
  401ea5:	89 75 cc             	mov    %esi,-0x34(%ebp)
  401ea8:	8b 45 c8             	mov    -0x38(%ebp),%eax
  401eab:	8b 55 cc             	mov    -0x34(%ebp),%edx
  401eae:	89 07                	mov    %eax,(%edi)
  401eb0:	89 57 04             	mov    %edx,0x4(%edi)
  401eb3:	8b 45 e4             	mov    -0x1c(%ebp),%eax
  401eb6:	83 c0 0f             	add    $0xf,%eax
  401eb9:	83 f8 3f             	cmp    $0x3f,%eax
  401ebc:	7f 5f                	jg     401f1d <_generateKnightMap+0x187>
  401ebe:	8b 45 e4             	mov    -0x1c(%ebp),%eax
  401ec1:	83 e0 07             	and    $0x7,%eax
  401ec4:	85 c0                	test   %eax,%eax
  401ec6:	74 55                	je     401f1d <_generateKnightMap+0x187>
  401ec8:	8b 45 e4             	mov    -0x1c(%ebp),%eax
  401ecb:	8d 14 c5 00 00 00 00 	lea    0x0(,%eax,8),%edx
  401ed2:	8b 45 e0             	mov    -0x20(%ebp),%eax
  401ed5:	8d 3c 02             	lea    (%edx,%eax,1),%edi
  401ed8:	8b 45 e4             	mov    -0x1c(%ebp),%eax
  401edb:	8d 14 c5 00 00 00 00 	lea    0x0(,%eax,8),%edx
  401ee2:	8b 45 e0             	mov    -0x20(%ebp),%eax
  401ee5:	01 d0                	add    %edx,%eax
  401ee7:	8b 18                	mov    (%eax),%ebx
  401ee9:	8b 70 04             	mov    0x4(%eax),%esi
  401eec:	8b 45 e4             	mov    -0x1c(%ebp),%eax
  401eef:	8d 48 0f             	lea    0xf(%eax),%ecx
  401ef2:	8b 45 d8             	mov    -0x28(%ebp),%eax
  401ef5:	8b 55 dc             	mov    -0x24(%ebp),%edx
  401ef8:	0f a5 c2             	shld   %cl,%eax,%edx
  401efb:	d3 e0                	shl    %cl,%eax
  401efd:	f6 c1 20             	test   $0x20,%cl
  401f00:	74 04                	je     401f06 <_generateKnightMap+0x170>
  401f02:	89 c2                	mov    %eax,%edx
  401f04:	31 c0                	xor    %eax,%eax
  401f06:	89 d9                	mov    %ebx,%ecx
  401f08:	09 c1                	or     %eax,%ecx
  401f0a:	89 4d c0             	mov    %ecx,-0x40(%ebp)
  401f0d:	09 d6                	or     %edx,%esi
  401f0f:	89 75 c4             	mov    %esi,-0x3c(%ebp)
  401f12:	8b 45 c0             	mov    -0x40(%ebp),%eax
  401f15:	8b 55 c4             	mov    -0x3c(%ebp),%edx
  401f18:	89 07                	mov    %eax,(%edi)
  401f1a:	89 57 04             	mov    %edx,0x4(%edi)
  401f1d:	8b 45 e4             	mov    -0x1c(%ebp),%eax
  401f20:	83 e8 0f             	sub    $0xf,%eax
  401f23:	85 c0                	test   %eax,%eax
  401f25:	78 6f                	js     401f96 <_generateKnightMap+0x200>
  401f27:	8b 55 e4             	mov    -0x1c(%ebp),%edx
  401f2a:	89 d0                	mov    %edx,%eax
  401f2c:	c1 f8 1f             	sar    $0x1f,%eax
  401f2f:	c1 e8 1d             	shr    $0x1d,%eax
  401f32:	89 c1                	mov    %eax,%ecx
  401f34:	8d 04 0a             	lea    (%edx,%ecx,1),%eax
  401f37:	83 e0 07             	and    $0x7,%eax
  401f3a:	29 c8                	sub    %ecx,%eax
  401f3c:	83 f8 07             	cmp    $0x7,%eax
  401f3f:	74 55                	je     401f96 <_generateKnightMap+0x200>
  401f41:	8b 45 e4             	mov    -0x1c(%ebp),%eax
  401f44:	8d 14 c5 00 00 00 00 	lea    0x0(,%eax,8),%edx
  401f4b:	8b 45 e0             	mov    -0x20(%ebp),%eax
  401f4e:	8d 3c 02             	lea    (%edx,%eax,1),%edi
  401f51:	8b 45 e4             	mov    -0x1c(%ebp),%eax
  401f54:	8d 14 c5 00 00 00 00 	lea    0x0(,%eax,8),%edx
  401f5b:	8b 45 e0             	mov    -0x20(%ebp),%eax
  401f5e:	01 d0                	add    %edx,%eax
  401f60:	8b 18                	mov    (%eax),%ebx
  401f62:	8b 70 04             	mov    0x4(%eax),%esi
  401f65:	8b 45 e4             	mov    -0x1c(%ebp),%eax
  401f68:	8d 48 f1             	lea    -0xf(%eax),%ecx
  401f6b:	8b 45 d8             	mov    -0x28(%ebp),%eax
  401f6e:	8b 55 dc             	mov    -0x24(%ebp),%edx
  401f71:	0f a5 c2             	shld   %cl,%eax,%edx
  401f74:	d3 e0                	shl    %cl,%eax
  401f76:	f6 c1 20             	test   $0x20,%cl
  401f79:	74 04                	je     401f7f <_generateKnightMap+0x1e9>
  401f7b:	89 c2                	mov    %eax,%edx
  401f7d:	31 c0                	xor    %eax,%eax
  401f7f:	89 d9                	mov    %ebx,%ecx
  401f81:	09 c1                	or     %eax,%ecx
  401f83:	89 4d b8             	mov    %ecx,-0x48(%ebp)
  401f86:	09 d6                	or     %edx,%esi
  401f88:	89 75 bc             	mov    %esi,-0x44(%ebp)
  401f8b:	8b 45 b8             	mov    -0x48(%ebp),%eax
  401f8e:	8b 55 bc             	mov    -0x44(%ebp),%edx
  401f91:	89 07                	mov    %eax,(%edi)
  401f93:	89 57 04             	mov    %edx,0x4(%edi)
  401f96:	8b 45 e4             	mov    -0x1c(%ebp),%eax
  401f99:	83 c0 0a             	add    $0xa,%eax
  401f9c:	83 f8 3f             	cmp    $0x3f,%eax
  401f9f:	7f 6f                	jg     402010 <_generateKnightMap+0x27a>
  401fa1:	8b 55 e4             	mov    -0x1c(%ebp),%edx
  401fa4:	89 d0                	mov    %edx,%eax
  401fa6:	c1 f8 1f             	sar    $0x1f,%eax
  401fa9:	c1 e8 1d             	shr    $0x1d,%eax
  401fac:	89 c1                	mov    %eax,%ecx
  401fae:	8d 04 0a             	lea    (%edx,%ecx,1),%eax
  401fb1:	83 e0 07             	and    $0x7,%eax
  401fb4:	29 c8                	sub    %ecx,%eax
  401fb6:	83 f8 05             	cmp    $0x5,%eax
  401fb9:	7f 55                	jg     402010 <_generateKnightMap+0x27a>
  401fbb:	8b 45 e4             	mov    -0x1c(%ebp),%eax
  401fbe:	8d 14 c5 00 00 00 00 	lea    0x0(,%eax,8),%edx
  401fc5:	8b 45 e0             	mov    -0x20(%ebp),%eax
  401fc8:	8d 3c 02             	lea    (%edx,%eax,1),%edi
  401fcb:	8b 45 e4             	mov    -0x1c(%ebp),%eax
  401fce:	8d 14 c5 00 00 00 00 	lea    0x0(,%eax,8),%edx
  401fd5:	8b 45 e0             	mov    -0x20(%ebp),%eax
  401fd8:	01 d0                	add    %edx,%eax
  401fda:	8b 18                	mov    (%eax),%ebx
  401fdc:	8b 70 04             	mov    0x4(%eax),%esi
  401fdf:	8b 45 e4             	mov    -0x1c(%ebp),%eax
  401fe2:	8d 48 0a             	lea    0xa(%eax),%ecx
  401fe5:	8b 45 d8             	mov    -0x28(%ebp),%eax
  401fe8:	8b 55 dc             	mov    -0x24(%ebp),%edx
  401feb:	0f a5 c2             	shld   %cl,%eax,%edx
  401fee:	d3 e0                	shl    %cl,%eax
  401ff0:	f6 c1 20             	test   $0x20,%cl
  401ff3:	74 04                	je     401ff9 <_generateKnightMap+0x263>
  401ff5:	89 c2                	mov    %eax,%edx
  401ff7:	31 c0                	xor    %eax,%eax
  401ff9:	89 d9                	mov    %ebx,%ecx
  401ffb:	09 c1                	or     %eax,%ecx
  401ffd:	89 4d b0             	mov    %ecx,-0x50(%ebp)
  402000:	09 d6                	or     %edx,%esi
  402002:	89 75 b4             	mov    %esi,-0x4c(%ebp)
  402005:	8b 45 b0             	mov    -0x50(%ebp),%eax
  402008:	8b 55 b4             	mov    -0x4c(%ebp),%edx
  40200b:	89 07                	mov    %eax,(%edi)
  40200d:	89 57 04             	mov    %edx,0x4(%edi)
  402010:	8b 45 e4             	mov    -0x1c(%ebp),%eax
  402013:	83 e8 0a             	sub    $0xa,%eax
  402016:	85 c0                	test   %eax,%eax
  402018:	78 6f                	js     402089 <_generateKnightMap+0x2f3>
  40201a:	8b 55 e4             	mov    -0x1c(%ebp),%edx
  40201d:	89 d0                	mov    %edx,%eax
  40201f:	c1 f8 1f             	sar    $0x1f,%eax
  402022:	c1 e8 1d             	shr    $0x1d,%eax
  402025:	89 c1                	mov    %eax,%ecx
  402027:	8d 04 0a             	lea    (%edx,%ecx,1),%eax
  40202a:	83 e0 07             	and    $0x7,%eax
  40202d:	29 c8                	sub    %ecx,%eax
  40202f:	83 f8 01             	cmp    $0x1,%eax
  402032:	7e 55                	jle    402089 <_generateKnightMap+0x2f3>
  402034:	8b 45 e4             	mov    -0x1c(%ebp),%eax
  402037:	8d 14 c5 00 00 00 00 	lea    0x0(,%eax,8),%edx
  40203e:	8b 45 e0             	mov    -0x20(%ebp),%eax
  402041:	8d 3c 02             	lea    (%edx,%eax,1),%edi
  402044:	8b 45 e4             	mov    -0x1c(%ebp),%eax
  402047:	8d 14 c5 00 00 00 00 	lea    0x0(,%eax,8),%edx
  40204e:	8b 45 e0             	mov    -0x20(%ebp),%eax
  402051:	01 d0                	add    %edx,%eax
  402053:	8b 18                	mov    (%eax),%ebx
  402055:	8b 70 04             	mov    0x4(%eax),%esi
  402058:	8b 45 e4             	mov    -0x1c(%ebp),%eax
  40205b:	8d 48 f6             	lea    -0xa(%eax),%ecx
  40205e:	8b 45 d8             	mov    -0x28(%ebp),%eax
  402061:	8b 55 dc             	mov    -0x24(%ebp),%edx
  402064:	0f a5 c2             	shld   %cl,%eax,%edx
  402067:	d3 e0                	shl    %cl,%eax
  402069:	f6 c1 20             	test   $0x20,%cl
  40206c:	74 04                	je     402072 <_generateKnightMap+0x2dc>
  40206e:	89 c2                	mov    %eax,%edx
  402070:	31 c0                	xor    %eax,%eax
  402072:	89 d9                	mov    %ebx,%ecx
  402074:	09 c1                	or     %eax,%ecx
  402076:	89 4d a8             	mov    %ecx,-0x58(%ebp)
  402079:	09 d6                	or     %edx,%esi
  40207b:	89 75 ac             	mov    %esi,-0x54(%ebp)
  40207e:	8b 45 a8             	mov    -0x58(%ebp),%eax
  402081:	8b 55 ac             	mov    -0x54(%ebp),%edx
  402084:	89 07                	mov    %eax,(%edi)
  402086:	89 57 04             	mov    %edx,0x4(%edi)
  402089:	8b 45 e4             	mov    -0x1c(%ebp),%eax
  40208c:	83 c0 06             	add    $0x6,%eax
  40208f:	83 f8 3f             	cmp    $0x3f,%eax
  402092:	7f 6f                	jg     402103 <_generateKnightMap+0x36d>
  402094:	8b 55 e4             	mov    -0x1c(%ebp),%edx
  402097:	89 d0                	mov    %edx,%eax
  402099:	c1 f8 1f             	sar    $0x1f,%eax
  40209c:	c1 e8 1d             	shr    $0x1d,%eax
  40209f:	89 c1                	mov    %eax,%ecx
  4020a1:	8d 04 0a             	lea    (%edx,%ecx,1),%eax
  4020a4:	83 e0 07             	and    $0x7,%eax
  4020a7:	29 c8                	sub    %ecx,%eax
  4020a9:	83 f8 01             	cmp    $0x1,%eax
  4020ac:	7e 55                	jle    402103 <_generateKnightMap+0x36d>
  4020ae:	8b 45 e4             	mov    -0x1c(%ebp),%eax
  4020b1:	8d 14 c5 00 00 00 00 	lea    0x0(,%eax,8),%edx
  4020b8:	8b 45 e0             	mov    -0x20(%ebp),%eax
  4020bb:	8d 3c 02             	lea    (%edx,%eax,1),%edi
  4020be:	8b 45 e4             	mov    -0x1c(%ebp),%eax
  4020c1:	8d 14 c5 00 00 00 00 	lea    0x0(,%eax,8),%edx
  4020c8:	8b 45 e0             	mov    -0x20(%ebp),%eax
  4020cb:	01 d0                	add    %edx,%eax
  4020cd:	8b 18                	mov    (%eax),%ebx
  4020cf:	8b 70 04             	mov    0x4(%eax),%esi
  4020d2:	8b 45 e4             	mov    -0x1c(%ebp),%eax
  4020d5:	8d 48 06             	lea    0x6(%eax),%ecx
  4020d8:	8b 45 d8             	mov    -0x28(%ebp),%eax
  4020db:	8b 55 dc             	mov    -0x24(%ebp),%edx
  4020de:	0f a5 c2             	shld   %cl,%eax,%edx
  4020e1:	d3 e0                	shl    %cl,%eax
  4020e3:	f6 c1 20             	test   $0x20,%cl
  4020e6:	74 04                	je     4020ec <_generateKnightMap+0x356>
  4020e8:	89 c2                	mov    %eax,%edx
  4020ea:	31 c0                	xor    %eax,%eax
  4020ec:	89 d9                	mov    %ebx,%ecx
  4020ee:	09 c1                	or     %eax,%ecx
  4020f0:	89 4d a0             	mov    %ecx,-0x60(%ebp)
  4020f3:	09 d6                	or     %edx,%esi
  4020f5:	89 75 a4             	mov    %esi,-0x5c(%ebp)
  4020f8:	8b 45 a0             	mov    -0x60(%ebp),%eax
  4020fb:	8b 55 a4             	mov    -0x5c(%ebp),%edx
  4020fe:	89 07                	mov    %eax,(%edi)
  402100:	89 57 04             	mov    %edx,0x4(%edi)
  402103:	8b 45 e4             	mov    -0x1c(%ebp),%eax
  402106:	83 e8 06             	sub    $0x6,%eax
  402109:	85 c0                	test   %eax,%eax
  40210b:	78 6f                	js     40217c <_generateKnightMap+0x3e6>
  40210d:	8b 55 e4             	mov    -0x1c(%ebp),%edx
  402110:	89 d0                	mov    %edx,%eax
  402112:	c1 f8 1f             	sar    $0x1f,%eax
  402115:	c1 e8 1d             	shr    $0x1d,%eax
  402118:	89 c1                	mov    %eax,%ecx
  40211a:	8d 04 0a             	lea    (%edx,%ecx,1),%eax
  40211d:	83 e0 07             	and    $0x7,%eax
  402120:	29 c8                	sub    %ecx,%eax
  402122:	83 f8 05             	cmp    $0x5,%eax
  402125:	7f 55                	jg     40217c <_generateKnightMap+0x3e6>
  402127:	8b 45 e4             	mov    -0x1c(%ebp),%eax
  40212a:	8d 14 c5 00 00 00 00 	lea    0x0(,%eax,8),%edx
  402131:	8b 45 e0             	mov    -0x20(%ebp),%eax
  402134:	8d 3c 02             	lea    (%edx,%eax,1),%edi
  402137:	8b 45 e4             	mov    -0x1c(%ebp),%eax
  40213a:	8d 14 c5 00 00 00 00 	lea    0x0(,%eax,8),%edx
  402141:	8b 45 e0             	mov    -0x20(%ebp),%eax
  402144:	01 d0                	add    %edx,%eax
  402146:	8b 18                	mov    (%eax),%ebx
  402148:	8b 70 04             	mov    0x4(%eax),%esi
  40214b:	8b 45 e4             	mov    -0x1c(%ebp),%eax
  40214e:	8d 48 fa             	lea    -0x6(%eax),%ecx
  402151:	8b 45 d8             	mov    -0x28(%ebp),%eax
  402154:	8b 55 dc             	mov    -0x24(%ebp),%edx
  402157:	0f a5 c2             	shld   %cl,%eax,%edx
  40215a:	d3 e0                	shl    %cl,%eax
  40215c:	f6 c1 20             	test   $0x20,%cl
  40215f:	74 04                	je     402165 <_generateKnightMap+0x3cf>
  402161:	89 c2                	mov    %eax,%edx
  402163:	31 c0                	xor    %eax,%eax
  402165:	89 d9                	mov    %ebx,%ecx
  402167:	09 c1                	or     %eax,%ecx
  402169:	89 4d 98             	mov    %ecx,-0x68(%ebp)
  40216c:	09 d6                	or     %edx,%esi
  40216e:	89 75 9c             	mov    %esi,-0x64(%ebp)
  402171:	8b 45 98             	mov    -0x68(%ebp),%eax
  402174:	8b 55 9c             	mov    -0x64(%ebp),%edx
  402177:	89 07                	mov    %eax,(%edi)
  402179:	89 57 04             	mov    %edx,0x4(%edi)
  40217c:	83 45 e4 01          	addl   $0x1,-0x1c(%ebp)
  402180:	83 7d e4 3f          	cmpl   $0x3f,-0x1c(%ebp)
  402184:	0f 8e 46 fc ff ff    	jle    401dd0 <_generateKnightMap+0x3a>
  40218a:	8b 45 e0             	mov    -0x20(%ebp),%eax
  40218d:	83 c4 6c             	add    $0x6c,%esp
  402190:	5b                   	pop    %ebx
  402191:	5e                   	pop    %esi
  402192:	5f                   	pop    %edi
  402193:	5d                   	pop    %ebp
  402194:	c3                   	ret    

00402195 <_generateOccupancyMaskRook>:
  402195:	55                   	push   %ebp
  402196:	89 e5                	mov    %esp,%ebp
  402198:	83 ec 38             	sub    $0x38,%esp
  40219b:	c7 04 24 00 02 00 00 	movl   $0x200,(%esp)
  4021a2:	e8 71 9f 00 00       	call   40c118 <_malloc>
  4021a7:	89 45 e4             	mov    %eax,-0x1c(%ebp)
  4021aa:	c7 45 f0 00 00 00 00 	movl   $0x0,-0x10(%ebp)
  4021b1:	c7 45 e8 00 00 00 00 	movl   $0x0,-0x18(%ebp)
  4021b8:	c7 45 ec 00 00 00 00 	movl   $0x0,-0x14(%ebp)
  4021bf:	e9 39 01 00 00       	jmp    4022fd <_generateOccupancyMaskRook+0x168>
  4021c4:	8b 45 f0             	mov    -0x10(%ebp),%eax
  4021c7:	83 c0 08             	add    $0x8,%eax
  4021ca:	89 45 f4             	mov    %eax,-0xc(%ebp)
  4021cd:	eb 25                	jmp    4021f4 <_generateOccupancyMaskRook+0x5f>
  4021cf:	8b 4d f4             	mov    -0xc(%ebp),%ecx
  4021d2:	b8 01 00 00 00       	mov    $0x1,%eax
  4021d7:	ba 00 00 00 00       	mov    $0x0,%edx
  4021dc:	0f a5 c2             	shld   %cl,%eax,%edx
  4021df:	d3 e0                	shl    %cl,%eax
  4021e1:	f6 c1 20             	test   $0x20,%cl
  4021e4:	74 04                	je     4021ea <_generateOccupancyMaskRook+0x55>
  4021e6:	89 c2                	mov    %eax,%edx
  4021e8:	31 c0                	xor    %eax,%eax
  4021ea:	09 45 e8             	or     %eax,-0x18(%ebp)
  4021ed:	09 55 ec             	or     %edx,-0x14(%ebp)
  4021f0:	83 45 f4 08          	addl   $0x8,-0xc(%ebp)
  4021f4:	83 7d f4 37          	cmpl   $0x37,-0xc(%ebp)
  4021f8:	7e d5                	jle    4021cf <_generateOccupancyMaskRook+0x3a>
  4021fa:	8b 45 f0             	mov    -0x10(%ebp),%eax
  4021fd:	83 e8 08             	sub    $0x8,%eax
  402200:	89 45 f4             	mov    %eax,-0xc(%ebp)
  402203:	eb 25                	jmp    40222a <_generateOccupancyMaskRook+0x95>
  402205:	8b 4d f4             	mov    -0xc(%ebp),%ecx
  402208:	b8 01 00 00 00       	mov    $0x1,%eax
  40220d:	ba 00 00 00 00       	mov    $0x0,%edx
  402212:	0f a5 c2             	shld   %cl,%eax,%edx
  402215:	d3 e0                	shl    %cl,%eax
  402217:	f6 c1 20             	test   $0x20,%cl
  40221a:	74 04                	je     402220 <_generateOccupancyMaskRook+0x8b>
  40221c:	89 c2                	mov    %eax,%edx
  40221e:	31 c0                	xor    %eax,%eax
  402220:	09 45 e8             	or     %eax,-0x18(%ebp)
  402223:	09 55 ec             	or     %edx,-0x14(%ebp)
  402226:	83 6d f4 08          	subl   $0x8,-0xc(%ebp)
  40222a:	83 7d f4 07          	cmpl   $0x7,-0xc(%ebp)
  40222e:	7f d5                	jg     402205 <_generateOccupancyMaskRook+0x70>
  402230:	8b 45 f0             	mov    -0x10(%ebp),%eax
  402233:	83 c0 01             	add    $0x1,%eax
  402236:	89 45 f4             	mov    %eax,-0xc(%ebp)
  402239:	eb 25                	jmp    402260 <_generateOccupancyMaskRook+0xcb>
  40223b:	8b 4d f4             	mov    -0xc(%ebp),%ecx
  40223e:	b8 01 00 00 00       	mov    $0x1,%eax
  402243:	ba 00 00 00 00       	mov    $0x0,%edx
  402248:	0f a5 c2             	shld   %cl,%eax,%edx
  40224b:	d3 e0                	shl    %cl,%eax
  40224d:	f6 c1 20             	test   $0x20,%cl
  402250:	74 04                	je     402256 <_generateOccupancyMaskRook+0xc1>
  402252:	89 c2                	mov    %eax,%edx
  402254:	31 c0                	xor    %eax,%eax
  402256:	09 45 e8             	or     %eax,-0x18(%ebp)
  402259:	09 55 ec             	or     %edx,-0x14(%ebp)
  40225c:	83 45 f4 01          	addl   $0x1,-0xc(%ebp)
  402260:	8b 45 f4             	mov    -0xc(%ebp),%eax
  402263:	99                   	cltd   
  402264:	c1 ea 1d             	shr    $0x1d,%edx
  402267:	01 d0                	add    %edx,%eax
  402269:	83 e0 07             	and    $0x7,%eax
  40226c:	29 d0                	sub    %edx,%eax
  40226e:	83 f8 07             	cmp    $0x7,%eax
  402271:	74 0a                	je     40227d <_generateOccupancyMaskRook+0xe8>
  402273:	8b 45 f4             	mov    -0xc(%ebp),%eax
  402276:	83 e0 07             	and    $0x7,%eax
  402279:	85 c0                	test   %eax,%eax
  40227b:	75 be                	jne    40223b <_generateOccupancyMaskRook+0xa6>
  40227d:	8b 45 f0             	mov    -0x10(%ebp),%eax
  402280:	83 e8 01             	sub    $0x1,%eax
  402283:	89 45 f4             	mov    %eax,-0xc(%ebp)
  402286:	eb 25                	jmp    4022ad <_generateOccupancyMaskRook+0x118>
  402288:	8b 4d f4             	mov    -0xc(%ebp),%ecx
  40228b:	b8 01 00 00 00       	mov    $0x1,%eax
  402290:	ba 00 00 00 00       	mov    $0x0,%edx
  402295:	0f a5 c2             	shld   %cl,%eax,%edx
  402298:	d3 e0                	shl    %cl,%eax
  40229a:	f6 c1 20             	test   $0x20,%cl
  40229d:	74 04                	je     4022a3 <_generateOccupancyMaskRook+0x10e>
  40229f:	89 c2                	mov    %eax,%edx
  4022a1:	31 c0                	xor    %eax,%eax
  4022a3:	09 45 e8             	or     %eax,-0x18(%ebp)
  4022a6:	09 55 ec             	or     %edx,-0x14(%ebp)
  4022a9:	83 6d f4 01          	subl   $0x1,-0xc(%ebp)
  4022ad:	8b 45 f4             	mov    -0xc(%ebp),%eax
  4022b0:	99                   	cltd   
  4022b1:	c1 ea 1d             	shr    $0x1d,%edx
  4022b4:	01 d0                	add    %edx,%eax
  4022b6:	83 e0 07             	and    $0x7,%eax
  4022b9:	29 d0                	sub    %edx,%eax
  4022bb:	83 f8 07             	cmp    $0x7,%eax
  4022be:	74 10                	je     4022d0 <_generateOccupancyMaskRook+0x13b>
  4022c0:	8b 45 f4             	mov    -0xc(%ebp),%eax
  4022c3:	83 e0 07             	and    $0x7,%eax
  4022c6:	85 c0                	test   %eax,%eax
  4022c8:	74 06                	je     4022d0 <_generateOccupancyMaskRook+0x13b>
  4022ca:	83 7d f4 00          	cmpl   $0x0,-0xc(%ebp)
  4022ce:	79 b8                	jns    402288 <_generateOccupancyMaskRook+0xf3>
  4022d0:	8b 45 f0             	mov    -0x10(%ebp),%eax
  4022d3:	8d 14 c5 00 00 00 00 	lea    0x0(,%eax,8),%edx
  4022da:	8b 45 e4             	mov    -0x1c(%ebp),%eax
  4022dd:	8d 0c 02             	lea    (%edx,%eax,1),%ecx
  4022e0:	8b 45 e8             	mov    -0x18(%ebp),%eax
  4022e3:	8b 55 ec             	mov    -0x14(%ebp),%edx
  4022e6:	89 01                	mov    %eax,(%ecx)
  4022e8:	89 51 04             	mov    %edx,0x4(%ecx)
  4022eb:	83 45 f0 01          	addl   $0x1,-0x10(%ebp)
  4022ef:	c7 45 e8 00 00 00 00 	movl   $0x0,-0x18(%ebp)
  4022f6:	c7 45 ec 00 00 00 00 	movl   $0x0,-0x14(%ebp)
  4022fd:	83 7d f0 3f          	cmpl   $0x3f,-0x10(%ebp)
  402301:	0f 8e bd fe ff ff    	jle    4021c4 <_generateOccupancyMaskRook+0x2f>
  402307:	8b 45 e4             	mov    -0x1c(%ebp),%eax
  40230a:	c9                   	leave  
  40230b:	c3                   	ret    

0040230c <_generateOccupancyMaskBishop>:
  40230c:	55                   	push   %ebp
  40230d:	89 e5                	mov    %esp,%ebp
  40230f:	83 ec 38             	sub    $0x38,%esp
  402312:	c7 04 24 00 02 00 00 	movl   $0x200,(%esp)
  402319:	e8 fa 9d 00 00       	call   40c118 <_malloc>
  40231e:	89 45 e4             	mov    %eax,-0x1c(%ebp)
  402321:	c7 45 f0 00 00 00 00 	movl   $0x0,-0x10(%ebp)
  402328:	c7 45 e8 00 00 00 00 	movl   $0x0,-0x18(%ebp)
  40232f:	c7 45 ec 00 00 00 00 	movl   $0x0,-0x14(%ebp)
  402336:	e9 79 01 00 00       	jmp    4024b4 <_generateOccupancyMaskBishop+0x1a8>
  40233b:	8b 45 f0             	mov    -0x10(%ebp),%eax
  40233e:	83 c0 09             	add    $0x9,%eax
  402341:	89 45 f4             	mov    %eax,-0xc(%ebp)
  402344:	eb 25                	jmp    40236b <_generateOccupancyMaskBishop+0x5f>
  402346:	8b 4d f4             	mov    -0xc(%ebp),%ecx
  402349:	b8 01 00 00 00       	mov    $0x1,%eax
  40234e:	ba 00 00 00 00       	mov    $0x0,%edx
  402353:	0f a5 c2             	shld   %cl,%eax,%edx
  402356:	d3 e0                	shl    %cl,%eax
  402358:	f6 c1 20             	test   $0x20,%cl
  40235b:	74 04                	je     402361 <_generateOccupancyMaskBishop+0x55>
  40235d:	89 c2                	mov    %eax,%edx
  40235f:	31 c0                	xor    %eax,%eax
  402361:	09 45 e8             	or     %eax,-0x18(%ebp)
  402364:	09 55 ec             	or     %edx,-0x14(%ebp)
  402367:	83 45 f4 09          	addl   $0x9,-0xc(%ebp)
  40236b:	8b 45 f4             	mov    -0xc(%ebp),%eax
  40236e:	99                   	cltd   
  40236f:	c1 ea 1d             	shr    $0x1d,%edx
  402372:	01 d0                	add    %edx,%eax
  402374:	83 e0 07             	and    $0x7,%eax
  402377:	29 d0                	sub    %edx,%eax
  402379:	83 f8 07             	cmp    $0x7,%eax
  40237c:	74 10                	je     40238e <_generateOccupancyMaskBishop+0x82>
  40237e:	8b 45 f4             	mov    -0xc(%ebp),%eax
  402381:	83 e0 07             	and    $0x7,%eax
  402384:	85 c0                	test   %eax,%eax
  402386:	74 06                	je     40238e <_generateOccupancyMaskBishop+0x82>
  402388:	83 7d f4 37          	cmpl   $0x37,-0xc(%ebp)
  40238c:	7e b8                	jle    402346 <_generateOccupancyMaskBishop+0x3a>
  40238e:	8b 45 f0             	mov    -0x10(%ebp),%eax
  402391:	83 e8 09             	sub    $0x9,%eax
  402394:	89 45 f4             	mov    %eax,-0xc(%ebp)
  402397:	eb 25                	jmp    4023be <_generateOccupancyMaskBishop+0xb2>
  402399:	8b 4d f4             	mov    -0xc(%ebp),%ecx
  40239c:	b8 01 00 00 00       	mov    $0x1,%eax
  4023a1:	ba 00 00 00 00       	mov    $0x0,%edx
  4023a6:	0f a5 c2             	shld   %cl,%eax,%edx
  4023a9:	d3 e0                	shl    %cl,%eax
  4023ab:	f6 c1 20             	test   $0x20,%cl
  4023ae:	74 04                	je     4023b4 <_generateOccupancyMaskBishop+0xa8>
  4023b0:	89 c2                	mov    %eax,%edx
  4023b2:	31 c0                	xor    %eax,%eax
  4023b4:	09 45 e8             	or     %eax,-0x18(%ebp)
  4023b7:	09 55 ec             	or     %edx,-0x14(%ebp)
  4023ba:	83 6d f4 09          	subl   $0x9,-0xc(%ebp)
  4023be:	8b 45 f4             	mov    -0xc(%ebp),%eax
  4023c1:	99                   	cltd   
  4023c2:	c1 ea 1d             	shr    $0x1d,%edx
  4023c5:	01 d0                	add    %edx,%eax
  4023c7:	83 e0 07             	and    $0x7,%eax
  4023ca:	29 d0                	sub    %edx,%eax
  4023cc:	83 f8 07             	cmp    $0x7,%eax
  4023cf:	74 10                	je     4023e1 <_generateOccupancyMaskBishop+0xd5>
  4023d1:	8b 45 f4             	mov    -0xc(%ebp),%eax
  4023d4:	83 e0 07             	and    $0x7,%eax
  4023d7:	85 c0                	test   %eax,%eax
  4023d9:	74 06                	je     4023e1 <_generateOccupancyMaskBishop+0xd5>
  4023db:	83 7d f4 07          	cmpl   $0x7,-0xc(%ebp)
  4023df:	7f b8                	jg     402399 <_generateOccupancyMaskBishop+0x8d>
  4023e1:	8b 45 f0             	mov    -0x10(%ebp),%eax
  4023e4:	83 c0 07             	add    $0x7,%eax
  4023e7:	89 45 f4             	mov    %eax,-0xc(%ebp)
  4023ea:	eb 25                	jmp    402411 <_generateOccupancyMaskBishop+0x105>
  4023ec:	8b 4d f4             	mov    -0xc(%ebp),%ecx
  4023ef:	b8 01 00 00 00       	mov    $0x1,%eax
  4023f4:	ba 00 00 00 00       	mov    $0x0,%edx
  4023f9:	0f a5 c2             	shld   %cl,%eax,%edx
  4023fc:	d3 e0                	shl    %cl,%eax
  4023fe:	f6 c1 20             	test   $0x20,%cl
  402401:	74 04                	je     402407 <_generateOccupancyMaskBishop+0xfb>
  402403:	89 c2                	mov    %eax,%edx
  402405:	31 c0                	xor    %eax,%eax
  402407:	09 45 e8             	or     %eax,-0x18(%ebp)
  40240a:	09 55 ec             	or     %edx,-0x14(%ebp)
  40240d:	83 45 f4 07          	addl   $0x7,-0xc(%ebp)
  402411:	8b 45 f4             	mov    -0xc(%ebp),%eax
  402414:	99                   	cltd   
  402415:	c1 ea 1d             	shr    $0x1d,%edx
  402418:	01 d0                	add    %edx,%eax
  40241a:	83 e0 07             	and    $0x7,%eax
  40241d:	29 d0                	sub    %edx,%eax
  40241f:	83 f8 07             	cmp    $0x7,%eax
  402422:	74 10                	je     402434 <_generateOccupancyMaskBishop+0x128>
  402424:	8b 45 f4             	mov    -0xc(%ebp),%eax
  402427:	83 e0 07             	and    $0x7,%eax
  40242a:	85 c0                	test   %eax,%eax
  40242c:	74 06                	je     402434 <_generateOccupancyMaskBishop+0x128>
  40242e:	83 7d f4 37          	cmpl   $0x37,-0xc(%ebp)
  402432:	7e b8                	jle    4023ec <_generateOccupancyMaskBishop+0xe0>
  402434:	8b 45 f0             	mov    -0x10(%ebp),%eax
  402437:	83 e8 07             	sub    $0x7,%eax
  40243a:	89 45 f4             	mov    %eax,-0xc(%ebp)
  40243d:	eb 25                	jmp    402464 <_generateOccupancyMaskBishop+0x158>
  40243f:	8b 4d f4             	mov    -0xc(%ebp),%ecx
  402442:	b8 01 00 00 00       	mov    $0x1,%eax
  402447:	ba 00 00 00 00       	mov    $0x0,%edx
  40244c:	0f a5 c2             	shld   %cl,%eax,%edx
  40244f:	d3 e0                	shl    %cl,%eax
  402451:	f6 c1 20             	test   $0x20,%cl
  402454:	74 04                	je     40245a <_generateOccupancyMaskBishop+0x14e>
  402456:	89 c2                	mov    %eax,%edx
  402458:	31 c0                	xor    %eax,%eax
  40245a:	09 45 e8             	or     %eax,-0x18(%ebp)
  40245d:	09 55 ec             	or     %edx,-0x14(%ebp)
  402460:	83 6d f4 07          	subl   $0x7,-0xc(%ebp)
  402464:	8b 45 f4             	mov    -0xc(%ebp),%eax
  402467:	99                   	cltd   
  402468:	c1 ea 1d             	shr    $0x1d,%edx
  40246b:	01 d0                	add    %edx,%eax
  40246d:	83 e0 07             	and    $0x7,%eax
  402470:	29 d0                	sub    %edx,%eax
  402472:	83 f8 07             	cmp    $0x7,%eax
  402475:	74 10                	je     402487 <_generateOccupancyMaskBishop+0x17b>
  402477:	8b 45 f4             	mov    -0xc(%ebp),%eax
  40247a:	83 e0 07             	and    $0x7,%eax
  40247d:	85 c0                	test   %eax,%eax
  40247f:	74 06                	je     402487 <_generateOccupancyMaskBishop+0x17b>
  402481:	83 7d f4 07          	cmpl   $0x7,-0xc(%ebp)
  402485:	7f b8                	jg     40243f <_generateOccupancyMaskBishop+0x133>
  402487:	8b 45 f0             	mov    -0x10(%ebp),%eax
  40248a:	8d 14 c5 00 00 00 00 	lea    0x0(,%eax,8),%edx
  402491:	8b 45 e4             	mov    -0x1c(%ebp),%eax
  402494:	8d 0c 02             	lea    (%edx,%eax,1),%ecx
  402497:	8b 45 e8             	mov    -0x18(%ebp),%eax
  40249a:	8b 55 ec             	mov    -0x14(%ebp),%edx
  40249d:	89 01                	mov    %eax,(%ecx)
  40249f:	89 51 04             	mov    %edx,0x4(%ecx)
  4024a2:	83 45 f0 01          	addl   $0x1,-0x10(%ebp)
  4024a6:	c7 45 e8 00 00 00 00 	movl   $0x0,-0x18(%ebp)
  4024ad:	c7 45 ec 00 00 00 00 	movl   $0x0,-0x14(%ebp)
  4024b4:	83 7d f0 3f          	cmpl   $0x3f,-0x10(%ebp)
  4024b8:	0f 8e 7d fe ff ff    	jle    40233b <_generateOccupancyMaskBishop+0x2f>
  4024be:	8b 45 e4             	mov    -0x1c(%ebp),%eax
  4024c1:	c9                   	leave  
  4024c2:	c3                   	ret    

004024c3 <_generateOccupancyVariationRook>:
  4024c3:	55                   	push   %ebp
  4024c4:	89 e5                	mov    %esp,%ebp
  4024c6:	57                   	push   %edi
  4024c7:	56                   	push   %esi
  4024c8:	53                   	push   %ebx
  4024c9:	81 ec fc 00 00 00    	sub    $0xfc,%esp
  4024cf:	c7 04 24 00 01 00 00 	movl   $0x100,(%esp)
  4024d6:	e8 3d 9c 00 00       	call   40c118 <_malloc>
  4024db:	89 45 d4             	mov    %eax,-0x2c(%ebp)
  4024de:	c7 45 d8 00 00 00 00 	movl   $0x0,-0x28(%ebp)
  4024e5:	c7 45 dc 00 00 00 00 	movl   $0x0,-0x24(%ebp)
  4024ec:	eb 26                	jmp    402514 <_generateOccupancyVariationRook+0x51>
  4024ee:	8b 45 d8             	mov    -0x28(%ebp),%eax
  4024f1:	8d 14 85 00 00 00 00 	lea    0x0(,%eax,4),%edx
  4024f8:	8b 45 d4             	mov    -0x2c(%ebp),%eax
  4024fb:	8d 1c 02             	lea    (%edx,%eax,1),%ebx
  4024fe:	c7 04 24 00 00 01 00 	movl   $0x10000,(%esp)
  402505:	e8 0e 9c 00 00       	call   40c118 <_malloc>
  40250a:	89 03                	mov    %eax,(%ebx)
  40250c:	83 45 d8 01          	addl   $0x1,-0x28(%ebp)
  402510:	83 55 dc 00          	adcl   $0x0,-0x24(%ebp)
  402514:	83 7d dc 00          	cmpl   $0x0,-0x24(%ebp)
  402518:	72 d4                	jb     4024ee <_generateOccupancyVariationRook+0x2b>
  40251a:	83 7d dc 00          	cmpl   $0x0,-0x24(%ebp)
  40251e:	77 06                	ja     402526 <_generateOccupancyVariationRook+0x63>
  402520:	83 7d d8 3f          	cmpl   $0x3f,-0x28(%ebp)
  402524:	76 c8                	jbe    4024ee <_generateOccupancyVariationRook+0x2b>
  402526:	c7 45 e0 00 00 00 00 	movl   $0x0,-0x20(%ebp)
  40252d:	e9 8a 01 00 00       	jmp    4026bc <_generateOccupancyVariationRook+0x1f9>
  402532:	8b 45 e0             	mov    -0x20(%ebp),%eax
  402535:	8d 14 c5 00 00 00 00 	lea    0x0(,%eax,8),%edx
  40253c:	8b 45 08             	mov    0x8(%ebp),%eax
  40253f:	01 d0                	add    %edx,%eax
  402541:	8b 50 04             	mov    0x4(%eax),%edx
  402544:	8b 00                	mov    (%eax),%eax
  402546:	89 45 c8             	mov    %eax,-0x38(%ebp)
  402549:	89 55 cc             	mov    %edx,-0x34(%ebp)
  40254c:	8d 85 74 ff ff ff    	lea    -0x8c(%ebp),%eax
  402552:	89 44 24 08          	mov    %eax,0x8(%esp)
  402556:	8b 45 c8             	mov    -0x38(%ebp),%eax
  402559:	8b 55 cc             	mov    -0x34(%ebp),%edx
  40255c:	89 04 24             	mov    %eax,(%esp)
  40255f:	89 54 24 04          	mov    %edx,0x4(%esp)
  402563:	e8 ac f1 ff ff       	call   401714 <_getSetBits>
  402568:	8b 45 c8             	mov    -0x38(%ebp),%eax
  40256b:	8b 55 cc             	mov    -0x34(%ebp),%edx
  40256e:	89 04 24             	mov    %eax,(%esp)
  402571:	89 54 24 04          	mov    %edx,0x4(%esp)
  402575:	e8 21 f1 ff ff       	call   40169b <_countSetBits>
  40257a:	89 c1                	mov    %eax,%ecx
  40257c:	b8 01 00 00 00       	mov    $0x1,%eax
  402581:	ba 00 00 00 00       	mov    $0x0,%edx
  402586:	0f a5 c2             	shld   %cl,%eax,%edx
  402589:	d3 e0                	shl    %cl,%eax
  40258b:	f6 c1 20             	test   $0x20,%cl
  40258e:	74 04                	je     402594 <_generateOccupancyVariationRook+0xd1>
  402590:	89 c2                	mov    %eax,%edx
  402592:	31 c0                	xor    %eax,%eax
  402594:	89 45 c4             	mov    %eax,-0x3c(%ebp)
  402597:	c7 45 d8 00 00 00 00 	movl   $0x0,-0x28(%ebp)
  40259e:	c7 45 dc 00 00 00 00 	movl   $0x0,-0x24(%ebp)
  4025a5:	e9 f3 00 00 00       	jmp    40269d <_generateOccupancyVariationRook+0x1da>
  4025aa:	8b 45 e0             	mov    -0x20(%ebp),%eax
  4025ad:	8d 14 85 00 00 00 00 	lea    0x0(,%eax,4),%edx
  4025b4:	8b 45 d4             	mov    -0x2c(%ebp),%eax
  4025b7:	01 d0                	add    %edx,%eax
  4025b9:	8b 00                	mov    (%eax),%eax
  4025bb:	8b 55 d8             	mov    -0x28(%ebp),%edx
  4025be:	c1 e2 03             	shl    $0x3,%edx
  4025c1:	01 d0                	add    %edx,%eax
  4025c3:	c7 00 00 00 00 00    	movl   $0x0,(%eax)
  4025c9:	c7 40 04 00 00 00 00 	movl   $0x0,0x4(%eax)
  4025d0:	8d 85 24 ff ff ff    	lea    -0xdc(%ebp),%eax
  4025d6:	89 44 24 08          	mov    %eax,0x8(%esp)
  4025da:	8b 45 d8             	mov    -0x28(%ebp),%eax
  4025dd:	8b 55 dc             	mov    -0x24(%ebp),%edx
  4025e0:	89 04 24             	mov    %eax,(%esp)
  4025e3:	89 54 24 04          	mov    %edx,0x4(%esp)
  4025e7:	e8 28 f1 ff ff       	call   401714 <_getSetBits>
  4025ec:	c7 45 e4 00 00 00 00 	movl   $0x0,-0x1c(%ebp)
  4025f3:	e9 8a 00 00 00       	jmp    402682 <_generateOccupancyVariationRook+0x1bf>
  4025f8:	8b 45 e0             	mov    -0x20(%ebp),%eax
  4025fb:	8d 14 85 00 00 00 00 	lea    0x0(,%eax,4),%edx
  402602:	8b 45 d4             	mov    -0x2c(%ebp),%eax
  402605:	01 d0                	add    %edx,%eax
  402607:	8b 00                	mov    (%eax),%eax
  402609:	8b 55 d8             	mov    -0x28(%ebp),%edx
  40260c:	c1 e2 03             	shl    $0x3,%edx
  40260f:	8d 1c 10             	lea    (%eax,%edx,1),%ebx
  402612:	8b 45 e0             	mov    -0x20(%ebp),%eax
  402615:	8d 14 85 00 00 00 00 	lea    0x0(,%eax,4),%edx
  40261c:	8b 45 d4             	mov    -0x2c(%ebp),%eax
  40261f:	01 d0                	add    %edx,%eax
  402621:	8b 00                	mov    (%eax),%eax
  402623:	8b 55 d8             	mov    -0x28(%ebp),%edx
  402626:	c1 e2 03             	shl    $0x3,%edx
  402629:	01 d0                	add    %edx,%eax
  40262b:	8b 50 04             	mov    0x4(%eax),%edx
  40262e:	8b 00                	mov    (%eax),%eax
  402630:	89 85 10 ff ff ff    	mov    %eax,-0xf0(%ebp)
  402636:	89 95 14 ff ff ff    	mov    %edx,-0xec(%ebp)
  40263c:	8b 45 e4             	mov    -0x1c(%ebp),%eax
  40263f:	8b 84 85 24 ff ff ff 	mov    -0xdc(%ebp,%eax,4),%eax
  402646:	8b 8c 85 74 ff ff ff 	mov    -0x8c(%ebp,%eax,4),%ecx
  40264d:	b8 01 00 00 00       	mov    $0x1,%eax
  402652:	ba 00 00 00 00       	mov    $0x0,%edx
  402657:	0f a5 c2             	shld   %cl,%eax,%edx
  40265a:	d3 e0                	shl    %cl,%eax
  40265c:	f6 c1 20             	test   $0x20,%cl
  40265f:	74 04                	je     402665 <_generateOccupancyVariationRook+0x1a2>
  402661:	89 c2                	mov    %eax,%edx
  402663:	31 c0                	xor    %eax,%eax
  402665:	8b 8d 10 ff ff ff    	mov    -0xf0(%ebp),%ecx
  40266b:	09 c1                	or     %eax,%ecx
  40266d:	89 ce                	mov    %ecx,%esi
  40266f:	8b 8d 14 ff ff ff    	mov    -0xec(%ebp),%ecx
  402675:	09 d1                	or     %edx,%ecx
  402677:	89 cf                	mov    %ecx,%edi
  402679:	89 33                	mov    %esi,(%ebx)
  40267b:	89 7b 04             	mov    %edi,0x4(%ebx)
  40267e:	83 45 e4 01          	addl   $0x1,-0x1c(%ebp)
  402682:	8b 45 e4             	mov    -0x1c(%ebp),%eax
  402685:	8b 84 85 24 ff ff ff 	mov    -0xdc(%ebp,%eax,4),%eax
  40268c:	83 f8 ff             	cmp    $0xffffffff,%eax
  40268f:	0f 85 63 ff ff ff    	jne    4025f8 <_generateOccupancyVariationRook+0x135>
  402695:	83 45 d8 01          	addl   $0x1,-0x28(%ebp)
  402699:	83 55 dc 00          	adcl   $0x0,-0x24(%ebp)
  40269d:	8b 45 c4             	mov    -0x3c(%ebp),%eax
  4026a0:	99                   	cltd   
  4026a1:	3b 55 dc             	cmp    -0x24(%ebp),%edx
  4026a4:	0f 87 00 ff ff ff    	ja     4025aa <_generateOccupancyVariationRook+0xe7>
  4026aa:	3b 55 dc             	cmp    -0x24(%ebp),%edx
  4026ad:	72 09                	jb     4026b8 <_generateOccupancyVariationRook+0x1f5>
  4026af:	3b 45 d8             	cmp    -0x28(%ebp),%eax
  4026b2:	0f 87 f2 fe ff ff    	ja     4025aa <_generateOccupancyVariationRook+0xe7>
  4026b8:	83 45 e0 01          	addl   $0x1,-0x20(%ebp)
  4026bc:	83 7d e0 3f          	cmpl   $0x3f,-0x20(%ebp)
  4026c0:	0f 8e 6c fe ff ff    	jle    402532 <_generateOccupancyVariationRook+0x6f>
  4026c6:	8b 45 d4             	mov    -0x2c(%ebp),%eax
  4026c9:	81 c4 fc 00 00 00    	add    $0xfc,%esp
  4026cf:	5b                   	pop    %ebx
  4026d0:	5e                   	pop    %esi
  4026d1:	5f                   	pop    %edi
  4026d2:	5d                   	pop    %ebp
  4026d3:	c3                   	ret    

004026d4 <_generateOccupancyVariationBishop>:
  4026d4:	55                   	push   %ebp
  4026d5:	89 e5                	mov    %esp,%ebp
  4026d7:	57                   	push   %edi
  4026d8:	56                   	push   %esi
  4026d9:	53                   	push   %ebx
  4026da:	81 ec fc 00 00 00    	sub    $0xfc,%esp
  4026e0:	c7 04 24 00 01 00 00 	movl   $0x100,(%esp)
  4026e7:	e8 2c 9a 00 00       	call   40c118 <_malloc>
  4026ec:	89 45 d4             	mov    %eax,-0x2c(%ebp)
  4026ef:	c7 45 d8 00 00 00 00 	movl   $0x0,-0x28(%ebp)
  4026f6:	c7 45 dc 00 00 00 00 	movl   $0x0,-0x24(%ebp)
  4026fd:	eb 26                	jmp    402725 <_generateOccupancyVariationBishop+0x51>
  4026ff:	8b 45 d8             	mov    -0x28(%ebp),%eax
  402702:	8d 14 85 00 00 00 00 	lea    0x0(,%eax,4),%edx
  402709:	8b 45 d4             	mov    -0x2c(%ebp),%eax
  40270c:	8d 1c 02             	lea    (%edx,%eax,1),%ebx
  40270f:	c7 04 24 00 20 00 00 	movl   $0x2000,(%esp)
  402716:	e8 fd 99 00 00       	call   40c118 <_malloc>
  40271b:	89 03                	mov    %eax,(%ebx)
  40271d:	83 45 d8 01          	addl   $0x1,-0x28(%ebp)
  402721:	83 55 dc 00          	adcl   $0x0,-0x24(%ebp)
  402725:	83 7d dc 00          	cmpl   $0x0,-0x24(%ebp)
  402729:	72 d4                	jb     4026ff <_generateOccupancyVariationBishop+0x2b>
  40272b:	83 7d dc 00          	cmpl   $0x0,-0x24(%ebp)
  40272f:	77 06                	ja     402737 <_generateOccupancyVariationBishop+0x63>
  402731:	83 7d d8 3f          	cmpl   $0x3f,-0x28(%ebp)
  402735:	76 c8                	jbe    4026ff <_generateOccupancyVariationBishop+0x2b>
  402737:	c7 45 e0 00 00 00 00 	movl   $0x0,-0x20(%ebp)
  40273e:	e9 8a 01 00 00       	jmp    4028cd <_generateOccupancyVariationBishop+0x1f9>
  402743:	8b 45 e0             	mov    -0x20(%ebp),%eax
  402746:	8d 14 c5 00 00 00 00 	lea    0x0(,%eax,8),%edx
  40274d:	8b 45 08             	mov    0x8(%ebp),%eax
  402750:	01 d0                	add    %edx,%eax
  402752:	8b 50 04             	mov    0x4(%eax),%edx
  402755:	8b 00                	mov    (%eax),%eax
  402757:	89 45 c8             	mov    %eax,-0x38(%ebp)
  40275a:	89 55 cc             	mov    %edx,-0x34(%ebp)
  40275d:	8d 85 74 ff ff ff    	lea    -0x8c(%ebp),%eax
  402763:	89 44 24 08          	mov    %eax,0x8(%esp)
  402767:	8b 45 c8             	mov    -0x38(%ebp),%eax
  40276a:	8b 55 cc             	mov    -0x34(%ebp),%edx
  40276d:	89 04 24             	mov    %eax,(%esp)
  402770:	89 54 24 04          	mov    %edx,0x4(%esp)
  402774:	e8 9b ef ff ff       	call   401714 <_getSetBits>
  402779:	8b 45 c8             	mov    -0x38(%ebp),%eax
  40277c:	8b 55 cc             	mov    -0x34(%ebp),%edx
  40277f:	89 04 24             	mov    %eax,(%esp)
  402782:	89 54 24 04          	mov    %edx,0x4(%esp)
  402786:	e8 10 ef ff ff       	call   40169b <_countSetBits>
  40278b:	89 c1                	mov    %eax,%ecx
  40278d:	b8 01 00 00 00       	mov    $0x1,%eax
  402792:	ba 00 00 00 00       	mov    $0x0,%edx
  402797:	0f a5 c2             	shld   %cl,%eax,%edx
  40279a:	d3 e0                	shl    %cl,%eax
  40279c:	f6 c1 20             	test   $0x20,%cl
  40279f:	74 04                	je     4027a5 <_generateOccupancyVariationBishop+0xd1>
  4027a1:	89 c2                	mov    %eax,%edx
  4027a3:	31 c0                	xor    %eax,%eax
  4027a5:	89 45 c4             	mov    %eax,-0x3c(%ebp)
  4027a8:	c7 45 d8 00 00 00 00 	movl   $0x0,-0x28(%ebp)
  4027af:	c7 45 dc 00 00 00 00 	movl   $0x0,-0x24(%ebp)
  4027b6:	e9 f3 00 00 00       	jmp    4028ae <_generateOccupancyVariationBishop+0x1da>
  4027bb:	8b 45 e0             	mov    -0x20(%ebp),%eax
  4027be:	8d 14 85 00 00 00 00 	lea    0x0(,%eax,4),%edx
  4027c5:	8b 45 d4             	mov    -0x2c(%ebp),%eax
  4027c8:	01 d0                	add    %edx,%eax
  4027ca:	8b 00                	mov    (%eax),%eax
  4027cc:	8b 55 d8             	mov    -0x28(%ebp),%edx
  4027cf:	c1 e2 03             	shl    $0x3,%edx
  4027d2:	01 d0                	add    %edx,%eax
  4027d4:	c7 00 00 00 00 00    	movl   $0x0,(%eax)
  4027da:	c7 40 04 00 00 00 00 	movl   $0x0,0x4(%eax)
  4027e1:	8d 85 24 ff ff ff    	lea    -0xdc(%ebp),%eax
  4027e7:	89 44 24 08          	mov    %eax,0x8(%esp)
  4027eb:	8b 45 d8             	mov    -0x28(%ebp),%eax
  4027ee:	8b 55 dc             	mov    -0x24(%ebp),%edx
  4027f1:	89 04 24             	mov    %eax,(%esp)
  4027f4:	89 54 24 04          	mov    %edx,0x4(%esp)
  4027f8:	e8 17 ef ff ff       	call   401714 <_getSetBits>
  4027fd:	c7 45 e4 00 00 00 00 	movl   $0x0,-0x1c(%ebp)
  402804:	e9 8a 00 00 00       	jmp    402893 <_generateOccupancyVariationBishop+0x1bf>
  402809:	8b 45 e0             	mov    -0x20(%ebp),%eax
  40280c:	8d 14 85 00 00 00 00 	lea    0x0(,%eax,4),%edx
  402813:	8b 45 d4             	mov    -0x2c(%ebp),%eax
  402816:	01 d0                	add    %edx,%eax
  402818:	8b 00                	mov    (%eax),%eax
  40281a:	8b 55 d8             	mov    -0x28(%ebp),%edx
  40281d:	c1 e2 03             	shl    $0x3,%edx
  402820:	8d 1c 10             	lea    (%eax,%edx,1),%ebx
  402823:	8b 45 e0             	mov    -0x20(%ebp),%eax
  402826:	8d 14 85 00 00 00 00 	lea    0x0(,%eax,4),%edx
  40282d:	8b 45 d4             	mov    -0x2c(%ebp),%eax
  402830:	01 d0                	add    %edx,%eax
  402832:	8b 00                	mov    (%eax),%eax
  402834:	8b 55 d8             	mov    -0x28(%ebp),%edx
  402837:	c1 e2 03             	shl    $0x3,%edx
  40283a:	01 d0                	add    %edx,%eax
  40283c:	8b 50 04             	mov    0x4(%eax),%edx
  40283f:	8b 00                	mov    (%eax),%eax
  402841:	89 85 10 ff ff ff    	mov    %eax,-0xf0(%ebp)
  402847:	89 95 14 ff ff ff    	mov    %edx,-0xec(%ebp)
  40284d:	8b 45 e4             	mov    -0x1c(%ebp),%eax
  402850:	8b 84 85 24 ff ff ff 	mov    -0xdc(%ebp,%eax,4),%eax
  402857:	8b 8c 85 74 ff ff ff 	mov    -0x8c(%ebp,%eax,4),%ecx
  40285e:	b8 01 00 00 00       	mov    $0x1,%eax
  402863:	ba 00 00 00 00       	mov    $0x0,%edx
  402868:	0f a5 c2             	shld   %cl,%eax,%edx
  40286b:	d3 e0                	shl    %cl,%eax
  40286d:	f6 c1 20             	test   $0x20,%cl
  402870:	74 04                	je     402876 <_generateOccupancyVariationBishop+0x1a2>
  402872:	89 c2                	mov    %eax,%edx
  402874:	31 c0                	xor    %eax,%eax
  402876:	8b 8d 10 ff ff ff    	mov    -0xf0(%ebp),%ecx
  40287c:	09 c1                	or     %eax,%ecx
  40287e:	89 ce                	mov    %ecx,%esi
  402880:	8b 8d 14 ff ff ff    	mov    -0xec(%ebp),%ecx
  402886:	09 d1                	or     %edx,%ecx
  402888:	89 cf                	mov    %ecx,%edi
  40288a:	89 33                	mov    %esi,(%ebx)
  40288c:	89 7b 04             	mov    %edi,0x4(%ebx)
  40288f:	83 45 e4 01          	addl   $0x1,-0x1c(%ebp)
  402893:	8b 45 e4             	mov    -0x1c(%ebp),%eax
  402896:	8b 84 85 24 ff ff ff 	mov    -0xdc(%ebp,%eax,4),%eax
  40289d:	83 f8 ff             	cmp    $0xffffffff,%eax
  4028a0:	0f 85 63 ff ff ff    	jne    402809 <_generateOccupancyVariationBishop+0x135>
  4028a6:	83 45 d8 01          	addl   $0x1,-0x28(%ebp)
  4028aa:	83 55 dc 00          	adcl   $0x0,-0x24(%ebp)
  4028ae:	8b 45 c4             	mov    -0x3c(%ebp),%eax
  4028b1:	99                   	cltd   
  4028b2:	3b 55 dc             	cmp    -0x24(%ebp),%edx
  4028b5:	0f 87 00 ff ff ff    	ja     4027bb <_generateOccupancyVariationBishop+0xe7>
  4028bb:	3b 55 dc             	cmp    -0x24(%ebp),%edx
  4028be:	72 09                	jb     4028c9 <_generateOccupancyVariationBishop+0x1f5>
  4028c0:	3b 45 d8             	cmp    -0x28(%ebp),%eax
  4028c3:	0f 87 f2 fe ff ff    	ja     4027bb <_generateOccupancyVariationBishop+0xe7>
  4028c9:	83 45 e0 01          	addl   $0x1,-0x20(%ebp)
  4028cd:	83 7d e0 3f          	cmpl   $0x3f,-0x20(%ebp)
  4028d1:	0f 8e 6c fe ff ff    	jle    402743 <_generateOccupancyVariationBishop+0x6f>
  4028d7:	8b 45 d4             	mov    -0x2c(%ebp),%eax
  4028da:	81 c4 fc 00 00 00    	add    $0xfc,%esp
  4028e0:	5b                   	pop    %ebx
  4028e1:	5e                   	pop    %esi
  4028e2:	5f                   	pop    %edi
  4028e3:	5d                   	pop    %ebp
  4028e4:	c3                   	ret    

004028e5 <_generateMoveDatabaseRook>:
  4028e5:	55                   	push   %ebp
  4028e6:	89 e5                	mov    %esp,%ebp
  4028e8:	57                   	push   %edi
  4028e9:	56                   	push   %esi
  4028ea:	53                   	push   %ebx
  4028eb:	83 ec 6c             	sub    $0x6c,%esp
  4028ee:	c7 04 24 00 01 00 00 	movl   $0x100,(%esp)
  4028f5:	e8 1e 98 00 00       	call   40c118 <_malloc>
  4028fa:	89 45 d0             	mov    %eax,-0x30(%ebp)
  4028fd:	c7 45 d8 00 00 00 00 	movl   $0x0,-0x28(%ebp)
  402904:	eb 22                	jmp    402928 <_generateMoveDatabaseRook+0x43>
  402906:	8b 45 d8             	mov    -0x28(%ebp),%eax
  402909:	8d 14 85 00 00 00 00 	lea    0x0(,%eax,4),%edx
  402910:	8b 45 d0             	mov    -0x30(%ebp),%eax
  402913:	8d 1c 02             	lea    (%edx,%eax,1),%ebx
  402916:	c7 04 24 00 fd 00 00 	movl   $0xfd00,(%esp)
  40291d:	e8 f6 97 00 00       	call   40c118 <_malloc>
  402922:	89 03                	mov    %eax,(%ebx)
  402924:	83 45 d8 01          	addl   $0x1,-0x28(%ebp)
  402928:	83 7d d8 3f          	cmpl   $0x3f,-0x28(%ebp)
  40292c:	7e d8                	jle    402906 <_generateMoveDatabaseRook+0x21>
  40292e:	c7 45 dc 00 00 00 00 	movl   $0x0,-0x24(%ebp)
  402935:	e9 4b 03 00 00       	jmp    402c85 <_generateMoveDatabaseRook+0x3a0>
  40293a:	8b 45 08             	mov    0x8(%ebp),%eax
  40293d:	8b 90 8c 00 00 00    	mov    0x8c(%eax),%edx
  402943:	8b 45 dc             	mov    -0x24(%ebp),%eax
  402946:	c1 e0 03             	shl    $0x3,%eax
  402949:	01 d0                	add    %edx,%eax
  40294b:	8b 50 04             	mov    0x4(%eax),%edx
  40294e:	8b 00                	mov    (%eax),%eax
  402950:	89 04 24             	mov    %eax,(%esp)
  402953:	89 54 24 04          	mov    %edx,0x4(%esp)
  402957:	e8 3f ed ff ff       	call   40169b <_countSetBits>
  40295c:	89 45 cc             	mov    %eax,-0x34(%ebp)
  40295f:	8b 4d cc             	mov    -0x34(%ebp),%ecx
  402962:	b8 01 00 00 00       	mov    $0x1,%eax
  402967:	ba 00 00 00 00       	mov    $0x0,%edx
  40296c:	0f a5 c2             	shld   %cl,%eax,%edx
  40296f:	d3 e0                	shl    %cl,%eax
  402971:	f6 c1 20             	test   $0x20,%cl
  402974:	74 04                	je     40297a <_generateMoveDatabaseRook+0x95>
  402976:	89 c2                	mov    %eax,%edx
  402978:	31 c0                	xor    %eax,%eax
  40297a:	89 45 c8             	mov    %eax,-0x38(%ebp)
  40297d:	c7 45 d8 00 00 00 00 	movl   $0x0,-0x28(%ebp)
  402984:	e9 ec 02 00 00       	jmp    402c75 <_generateMoveDatabaseRook+0x390>
  402989:	c7 45 e0 00 00 00 00 	movl   $0x0,-0x20(%ebp)
  402990:	c7 45 e4 00 00 00 00 	movl   $0x0,-0x1c(%ebp)
  402997:	8b 45 08             	mov    0x8(%ebp),%eax
  40299a:	8b 90 98 00 00 00    	mov    0x98(%eax),%edx
  4029a0:	8b 45 dc             	mov    -0x24(%ebp),%eax
  4029a3:	c1 e0 02             	shl    $0x2,%eax
  4029a6:	01 d0                	add    %edx,%eax
  4029a8:	8b 10                	mov    (%eax),%edx
  4029aa:	8b 45 d8             	mov    -0x28(%ebp),%eax
  4029ad:	c1 e0 03             	shl    $0x3,%eax
  4029b0:	01 d0                	add    %edx,%eax
  4029b2:	8b 18                	mov    (%eax),%ebx
  4029b4:	8b 70 04             	mov    0x4(%eax),%esi
  4029b7:	8b 45 08             	mov    0x8(%ebp),%eax
  4029ba:	8b 90 94 00 00 00    	mov    0x94(%eax),%edx
  4029c0:	8b 45 dc             	mov    -0x24(%ebp),%eax
  4029c3:	c1 e0 03             	shl    $0x3,%eax
  4029c6:	01 d0                	add    %edx,%eax
  4029c8:	8b 50 04             	mov    0x4(%eax),%edx
  4029cb:	8b 00                	mov    (%eax),%eax
  4029cd:	89 f7                	mov    %esi,%edi
  4029cf:	0f af f8             	imul   %eax,%edi
  4029d2:	89 d1                	mov    %edx,%ecx
  4029d4:	0f af cb             	imul   %ebx,%ecx
  4029d7:	01 f9                	add    %edi,%ecx
  4029d9:	f7 e3                	mul    %ebx
  4029db:	89 c3                	mov    %eax,%ebx
  4029dd:	89 d6                	mov    %edx,%esi
  4029df:	8d 04 31             	lea    (%ecx,%esi,1),%eax
  4029e2:	89 c6                	mov    %eax,%esi
  4029e4:	8b 45 08             	mov    0x8(%ebp),%eax
  4029e7:	8b 90 90 00 00 00    	mov    0x90(%eax),%edx
  4029ed:	8b 45 dc             	mov    -0x24(%ebp),%eax
  4029f0:	c1 e0 02             	shl    $0x2,%eax
  4029f3:	01 d0                	add    %edx,%eax
  4029f5:	8b 00                	mov    (%eax),%eax
  4029f7:	89 c1                	mov    %eax,%ecx
  4029f9:	0f ad f3             	shrd   %cl,%esi,%ebx
  4029fc:	d3 ee                	shr    %cl,%esi
  4029fe:	f6 c1 20             	test   $0x20,%cl
  402a01:	74 04                	je     402a07 <_generateMoveDatabaseRook+0x122>
  402a03:	89 f3                	mov    %esi,%ebx
  402a05:	31 f6                	xor    %esi,%esi
  402a07:	89 d8                	mov    %ebx,%eax
  402a09:	89 f2                	mov    %esi,%edx
  402a0b:	89 45 c4             	mov    %eax,-0x3c(%ebp)
  402a0e:	8b 45 dc             	mov    -0x24(%ebp),%eax
  402a11:	83 c0 08             	add    $0x8,%eax
  402a14:	89 45 d4             	mov    %eax,-0x2c(%ebp)
  402a17:	eb 76                	jmp    402a8f <_generateMoveDatabaseRook+0x1aa>
  402a19:	8b 4d d4             	mov    -0x2c(%ebp),%ecx
  402a1c:	b8 01 00 00 00       	mov    $0x1,%eax
  402a21:	ba 00 00 00 00       	mov    $0x0,%edx
  402a26:	0f a5 c2             	shld   %cl,%eax,%edx
  402a29:	d3 e0                	shl    %cl,%eax
  402a2b:	f6 c1 20             	test   $0x20,%cl
  402a2e:	74 04                	je     402a34 <_generateMoveDatabaseRook+0x14f>
  402a30:	89 c2                	mov    %eax,%edx
  402a32:	31 c0                	xor    %eax,%eax
  402a34:	09 45 e0             	or     %eax,-0x20(%ebp)
  402a37:	09 55 e4             	or     %edx,-0x1c(%ebp)
  402a3a:	8b 45 08             	mov    0x8(%ebp),%eax
  402a3d:	8b 90 98 00 00 00    	mov    0x98(%eax),%edx
  402a43:	8b 45 dc             	mov    -0x24(%ebp),%eax
  402a46:	c1 e0 02             	shl    $0x2,%eax
  402a49:	01 d0                	add    %edx,%eax
  402a4b:	8b 10                	mov    (%eax),%edx
  402a4d:	8b 45 d8             	mov    -0x28(%ebp),%eax
  402a50:	c1 e0 03             	shl    $0x3,%eax
  402a53:	01 d0                	add    %edx,%eax
  402a55:	8b 50 04             	mov    0x4(%eax),%edx
  402a58:	8b 00                	mov    (%eax),%eax
  402a5a:	8b 4d d4             	mov    -0x2c(%ebp),%ecx
  402a5d:	0f ad d0             	shrd   %cl,%edx,%eax
  402a60:	d3 ea                	shr    %cl,%edx
  402a62:	f6 c1 20             	test   $0x20,%cl
  402a65:	74 04                	je     402a6b <_generateMoveDatabaseRook+0x186>
  402a67:	89 d0                	mov    %edx,%eax
  402a69:	31 d2                	xor    %edx,%edx
  402a6b:	89 c3                	mov    %eax,%ebx
  402a6d:	83 e3 01             	and    $0x1,%ebx
  402a70:	89 5d b0             	mov    %ebx,-0x50(%ebp)
  402a73:	89 d0                	mov    %edx,%eax
  402a75:	83 e0 00             	and    $0x0,%eax
  402a78:	89 45 b4             	mov    %eax,-0x4c(%ebp)
  402a7b:	8b 75 b0             	mov    -0x50(%ebp),%esi
  402a7e:	8b 7d b4             	mov    -0x4c(%ebp),%edi
  402a81:	89 f8                	mov    %edi,%eax
  402a83:	09 f0                	or     %esi,%eax
  402a85:	85 c0                	test   %eax,%eax
  402a87:	74 02                	je     402a8b <_generateMoveDatabaseRook+0x1a6>
  402a89:	eb 0a                	jmp    402a95 <_generateMoveDatabaseRook+0x1b0>
  402a8b:	83 45 d4 08          	addl   $0x8,-0x2c(%ebp)
  402a8f:	83 7d d4 3f          	cmpl   $0x3f,-0x2c(%ebp)
  402a93:	7e 84                	jle    402a19 <_generateMoveDatabaseRook+0x134>
  402a95:	8b 45 dc             	mov    -0x24(%ebp),%eax
  402a98:	83 e8 08             	sub    $0x8,%eax
  402a9b:	89 45 d4             	mov    %eax,-0x2c(%ebp)
  402a9e:	eb 76                	jmp    402b16 <_generateMoveDatabaseRook+0x231>
  402aa0:	8b 4d d4             	mov    -0x2c(%ebp),%ecx
  402aa3:	b8 01 00 00 00       	mov    $0x1,%eax
  402aa8:	ba 00 00 00 00       	mov    $0x0,%edx
  402aad:	0f a5 c2             	shld   %cl,%eax,%edx
  402ab0:	d3 e0                	shl    %cl,%eax
  402ab2:	f6 c1 20             	test   $0x20,%cl
  402ab5:	74 04                	je     402abb <_generateMoveDatabaseRook+0x1d6>
  402ab7:	89 c2                	mov    %eax,%edx
  402ab9:	31 c0                	xor    %eax,%eax
  402abb:	09 45 e0             	or     %eax,-0x20(%ebp)
  402abe:	09 55 e4             	or     %edx,-0x1c(%ebp)
  402ac1:	8b 45 08             	mov    0x8(%ebp),%eax
  402ac4:	8b 90 98 00 00 00    	mov    0x98(%eax),%edx
  402aca:	8b 45 dc             	mov    -0x24(%ebp),%eax
  402acd:	c1 e0 02             	shl    $0x2,%eax
  402ad0:	01 d0                	add    %edx,%eax
  402ad2:	8b 10                	mov    (%eax),%edx
  402ad4:	8b 45 d8             	mov    -0x28(%ebp),%eax
  402ad7:	c1 e0 03             	shl    $0x3,%eax
  402ada:	01 d0                	add    %edx,%eax
  402adc:	8b 50 04             	mov    0x4(%eax),%edx
  402adf:	8b 00                	mov    (%eax),%eax
  402ae1:	8b 4d d4             	mov    -0x2c(%ebp),%ecx
  402ae4:	0f ad d0             	shrd   %cl,%edx,%eax
  402ae7:	d3 ea                	shr    %cl,%edx
  402ae9:	f6 c1 20             	test   $0x20,%cl
  402aec:	74 04                	je     402af2 <_generateMoveDatabaseRook+0x20d>
  402aee:	89 d0                	mov    %edx,%eax
  402af0:	31 d2                	xor    %edx,%edx
  402af2:	89 c6                	mov    %eax,%esi
  402af4:	83 e6 01             	and    $0x1,%esi
  402af7:	89 75 a8             	mov    %esi,-0x58(%ebp)
  402afa:	89 d0                	mov    %edx,%eax
  402afc:	83 e0 00             	and    $0x0,%eax
  402aff:	89 45 ac             	mov    %eax,-0x54(%ebp)
  402b02:	8b 75 a8             	mov    -0x58(%ebp),%esi
  402b05:	8b 7d ac             	mov    -0x54(%ebp),%edi
  402b08:	89 f8                	mov    %edi,%eax
  402b0a:	09 f0                	or     %esi,%eax
  402b0c:	85 c0                	test   %eax,%eax
  402b0e:	74 02                	je     402b12 <_generateMoveDatabaseRook+0x22d>
  402b10:	eb 0a                	jmp    402b1c <_generateMoveDatabaseRook+0x237>
  402b12:	83 6d d4 08          	subl   $0x8,-0x2c(%ebp)
  402b16:	83 7d d4 00          	cmpl   $0x0,-0x2c(%ebp)
  402b1a:	79 84                	jns    402aa0 <_generateMoveDatabaseRook+0x1bb>
  402b1c:	8b 45 dc             	mov    -0x24(%ebp),%eax
  402b1f:	83 c0 01             	add    $0x1,%eax
  402b22:	89 45 d4             	mov    %eax,-0x2c(%ebp)
  402b25:	eb 76                	jmp    402b9d <_generateMoveDatabaseRook+0x2b8>
  402b27:	8b 4d d4             	mov    -0x2c(%ebp),%ecx
  402b2a:	b8 01 00 00 00       	mov    $0x1,%eax
  402b2f:	ba 00 00 00 00       	mov    $0x0,%edx
  402b34:	0f a5 c2             	shld   %cl,%eax,%edx
  402b37:	d3 e0                	shl    %cl,%eax
  402b39:	f6 c1 20             	test   $0x20,%cl
  402b3c:	74 04                	je     402b42 <_generateMoveDatabaseRook+0x25d>
  402b3e:	89 c2                	mov    %eax,%edx
  402b40:	31 c0                	xor    %eax,%eax
  402b42:	09 45 e0             	or     %eax,-0x20(%ebp)
  402b45:	09 55 e4             	or     %edx,-0x1c(%ebp)
  402b48:	8b 45 08             	mov    0x8(%ebp),%eax
  402b4b:	8b 90 98 00 00 00    	mov    0x98(%eax),%edx
  402b51:	8b 45 dc             	mov    -0x24(%ebp),%eax
  402b54:	c1 e0 02             	shl    $0x2,%eax
  402b57:	01 d0                	add    %edx,%eax
  402b59:	8b 10                	mov    (%eax),%edx
  402b5b:	8b 45 d8             	mov    -0x28(%ebp),%eax
  402b5e:	c1 e0 03             	shl    $0x3,%eax
  402b61:	01 d0                	add    %edx,%eax
  402b63:	8b 50 04             	mov    0x4(%eax),%edx
  402b66:	8b 00                	mov    (%eax),%eax
  402b68:	8b 4d d4             	mov    -0x2c(%ebp),%ecx
  402b6b:	0f ad d0             	shrd   %cl,%edx,%eax
  402b6e:	d3 ea                	shr    %cl,%edx
  402b70:	f6 c1 20             	test   $0x20,%cl
  402b73:	74 04                	je     402b79 <_generateMoveDatabaseRook+0x294>
  402b75:	89 d0                	mov    %edx,%eax
  402b77:	31 d2                	xor    %edx,%edx
  402b79:	89 c3                	mov    %eax,%ebx
  402b7b:	83 e3 01             	and    $0x1,%ebx
  402b7e:	89 5d a0             	mov    %ebx,-0x60(%ebp)
  402b81:	89 d0                	mov    %edx,%eax
  402b83:	83 e0 00             	and    $0x0,%eax
  402b86:	89 45 a4             	mov    %eax,-0x5c(%ebp)
  402b89:	8b 75 a0             	mov    -0x60(%ebp),%esi
  402b8c:	8b 7d a4             	mov    -0x5c(%ebp),%edi
  402b8f:	89 f8                	mov    %edi,%eax
  402b91:	09 f0                	or     %esi,%eax
  402b93:	85 c0                	test   %eax,%eax
  402b95:	74 02                	je     402b99 <_generateMoveDatabaseRook+0x2b4>
  402b97:	eb 0e                	jmp    402ba7 <_generateMoveDatabaseRook+0x2c2>
  402b99:	83 45 d4 01          	addl   $0x1,-0x2c(%ebp)
  402b9d:	8b 45 d4             	mov    -0x2c(%ebp),%eax
  402ba0:	83 e0 07             	and    $0x7,%eax
  402ba3:	85 c0                	test   %eax,%eax
  402ba5:	75 80                	jne    402b27 <_generateMoveDatabaseRook+0x242>
  402ba7:	8b 45 dc             	mov    -0x24(%ebp),%eax
  402baa:	83 e8 01             	sub    $0x1,%eax
  402bad:	89 45 d4             	mov    %eax,-0x2c(%ebp)
  402bb0:	eb 76                	jmp    402c28 <_generateMoveDatabaseRook+0x343>
  402bb2:	8b 4d d4             	mov    -0x2c(%ebp),%ecx
  402bb5:	b8 01 00 00 00       	mov    $0x1,%eax
  402bba:	ba 00 00 00 00       	mov    $0x0,%edx
  402bbf:	0f a5 c2             	shld   %cl,%eax,%edx
  402bc2:	d3 e0                	shl    %cl,%eax
  402bc4:	f6 c1 20             	test   $0x20,%cl
  402bc7:	74 04                	je     402bcd <_generateMoveDatabaseRook+0x2e8>
  402bc9:	89 c2                	mov    %eax,%edx
  402bcb:	31 c0                	xor    %eax,%eax
  402bcd:	09 45 e0             	or     %eax,-0x20(%ebp)
  402bd0:	09 55 e4             	or     %edx,-0x1c(%ebp)
  402bd3:	8b 45 08             	mov    0x8(%ebp),%eax
  402bd6:	8b 90 98 00 00 00    	mov    0x98(%eax),%edx
  402bdc:	8b 45 dc             	mov    -0x24(%ebp),%eax
  402bdf:	c1 e0 02             	shl    $0x2,%eax
  402be2:	01 d0                	add    %edx,%eax
  402be4:	8b 10                	mov    (%eax),%edx
  402be6:	8b 45 d8             	mov    -0x28(%ebp),%eax
  402be9:	c1 e0 03             	shl    $0x3,%eax
  402bec:	01 d0                	add    %edx,%eax
  402bee:	8b 50 04             	mov    0x4(%eax),%edx
  402bf1:	8b 00                	mov    (%eax),%eax
  402bf3:	8b 4d d4             	mov    -0x2c(%ebp),%ecx
  402bf6:	0f ad d0             	shrd   %cl,%edx,%eax
  402bf9:	d3 ea                	shr    %cl,%edx
  402bfb:	f6 c1 20             	test   $0x20,%cl
  402bfe:	74 04                	je     402c04 <_generateMoveDatabaseRook+0x31f>
  402c00:	89 d0                	mov    %edx,%eax
  402c02:	31 d2                	xor    %edx,%edx
  402c04:	89 c7                	mov    %eax,%edi
  402c06:	83 e7 01             	and    $0x1,%edi
  402c09:	89 7d 98             	mov    %edi,-0x68(%ebp)
  402c0c:	89 d0                	mov    %edx,%eax
  402c0e:	83 e0 00             	and    $0x0,%eax
  402c11:	89 45 9c             	mov    %eax,-0x64(%ebp)
  402c14:	8b 75 98             	mov    -0x68(%ebp),%esi
  402c17:	8b 7d 9c             	mov    -0x64(%ebp),%edi
  402c1a:	89 f8                	mov    %edi,%eax
  402c1c:	09 f0                	or     %esi,%eax
  402c1e:	85 c0                	test   %eax,%eax
  402c20:	74 02                	je     402c24 <_generateMoveDatabaseRook+0x33f>
  402c22:	eb 28                	jmp    402c4c <_generateMoveDatabaseRook+0x367>
  402c24:	83 6d d4 01          	subl   $0x1,-0x2c(%ebp)
  402c28:	8b 55 d4             	mov    -0x2c(%ebp),%edx
  402c2b:	89 d0                	mov    %edx,%eax
  402c2d:	c1 f8 1f             	sar    $0x1f,%eax
  402c30:	c1 e8 1d             	shr    $0x1d,%eax
  402c33:	89 c1                	mov    %eax,%ecx
  402c35:	8d 04 0a             	lea    (%edx,%ecx,1),%eax
  402c38:	83 e0 07             	and    $0x7,%eax
  402c3b:	29 c8                	sub    %ecx,%eax
  402c3d:	83 f8 07             	cmp    $0x7,%eax
  402c40:	74 0a                	je     402c4c <_generateMoveDatabaseRook+0x367>
  402c42:	83 7d d4 00          	cmpl   $0x0,-0x2c(%ebp)
  402c46:	0f 89 66 ff ff ff    	jns    402bb2 <_generateMoveDatabaseRook+0x2cd>
  402c4c:	8b 45 dc             	mov    -0x24(%ebp),%eax
  402c4f:	8d 14 85 00 00 00 00 	lea    0x0(,%eax,4),%edx
  402c56:	8b 45 d0             	mov    -0x30(%ebp),%eax
  402c59:	01 d0                	add    %edx,%eax
  402c5b:	8b 10                	mov    (%eax),%edx
  402c5d:	8b 45 c4             	mov    -0x3c(%ebp),%eax
  402c60:	c1 e0 03             	shl    $0x3,%eax
  402c63:	8d 0c 02             	lea    (%edx,%eax,1),%ecx
  402c66:	8b 45 e0             	mov    -0x20(%ebp),%eax
  402c69:	8b 55 e4             	mov    -0x1c(%ebp),%edx
  402c6c:	89 01                	mov    %eax,(%ecx)
  402c6e:	89 51 04             	mov    %edx,0x4(%ecx)
  402c71:	83 45 d8 01          	addl   $0x1,-0x28(%ebp)
  402c75:	8b 45 d8             	mov    -0x28(%ebp),%eax
  402c78:	3b 45 c8             	cmp    -0x38(%ebp),%eax
  402c7b:	0f 8c 08 fd ff ff    	jl     402989 <_generateMoveDatabaseRook+0xa4>
  402c81:	83 45 dc 01          	addl   $0x1,-0x24(%ebp)
  402c85:	83 7d dc 3f          	cmpl   $0x3f,-0x24(%ebp)
  402c89:	0f 8e ab fc ff ff    	jle    40293a <_generateMoveDatabaseRook+0x55>
  402c8f:	8b 45 d0             	mov    -0x30(%ebp),%eax
  402c92:	83 c4 6c             	add    $0x6c,%esp
  402c95:	5b                   	pop    %ebx
  402c96:	5e                   	pop    %esi
  402c97:	5f                   	pop    %edi
  402c98:	5d                   	pop    %ebp
  402c99:	c3                   	ret    

00402c9a <_generateMoveDatabaseBishop>:
  402c9a:	55                   	push   %ebp
  402c9b:	89 e5                	mov    %esp,%ebp
  402c9d:	57                   	push   %edi
  402c9e:	56                   	push   %esi
  402c9f:	53                   	push   %ebx
  402ca0:	83 ec 6c             	sub    $0x6c,%esp
  402ca3:	c7 04 24 00 01 00 00 	movl   $0x100,(%esp)
  402caa:	e8 69 94 00 00       	call   40c118 <_malloc>
  402caf:	89 45 d0             	mov    %eax,-0x30(%ebp)
  402cb2:	c7 45 d8 00 00 00 00 	movl   $0x0,-0x28(%ebp)
  402cb9:	eb 22                	jmp    402cdd <_generateMoveDatabaseBishop+0x43>
  402cbb:	8b 45 d8             	mov    -0x28(%ebp),%eax
  402cbe:	8d 14 85 00 00 00 00 	lea    0x0(,%eax,4),%edx
  402cc5:	8b 45 d0             	mov    -0x30(%ebp),%eax
  402cc8:	8d 1c 02             	lea    (%edx,%eax,1),%ebx
  402ccb:	c7 04 24 00 fd 00 00 	movl   $0xfd00,(%esp)
  402cd2:	e8 41 94 00 00       	call   40c118 <_malloc>
  402cd7:	89 03                	mov    %eax,(%ebx)
  402cd9:	83 45 d8 01          	addl   $0x1,-0x28(%ebp)
  402cdd:	83 7d d8 3f          	cmpl   $0x3f,-0x28(%ebp)
  402ce1:	7e d8                	jle    402cbb <_generateMoveDatabaseBishop+0x21>
  402ce3:	c7 45 dc 00 00 00 00 	movl   $0x0,-0x24(%ebp)
  402cea:	e9 81 03 00 00       	jmp    403070 <_generateMoveDatabaseBishop+0x3d6>
  402cef:	8b 45 08             	mov    0x8(%ebp),%eax
  402cf2:	8b 90 a0 00 00 00    	mov    0xa0(%eax),%edx
  402cf8:	8b 45 dc             	mov    -0x24(%ebp),%eax
  402cfb:	c1 e0 03             	shl    $0x3,%eax
  402cfe:	01 d0                	add    %edx,%eax
  402d00:	8b 50 04             	mov    0x4(%eax),%edx
  402d03:	8b 00                	mov    (%eax),%eax
  402d05:	89 04 24             	mov    %eax,(%esp)
  402d08:	89 54 24 04          	mov    %edx,0x4(%esp)
  402d0c:	e8 8a e9 ff ff       	call   40169b <_countSetBits>
  402d11:	89 45 cc             	mov    %eax,-0x34(%ebp)
  402d14:	8b 4d cc             	mov    -0x34(%ebp),%ecx
  402d17:	b8 01 00 00 00       	mov    $0x1,%eax
  402d1c:	ba 00 00 00 00       	mov    $0x0,%edx
  402d21:	0f a5 c2             	shld   %cl,%eax,%edx
  402d24:	d3 e0                	shl    %cl,%eax
  402d26:	f6 c1 20             	test   $0x20,%cl
  402d29:	74 04                	je     402d2f <_generateMoveDatabaseBishop+0x95>
  402d2b:	89 c2                	mov    %eax,%edx
  402d2d:	31 c0                	xor    %eax,%eax
  402d2f:	89 45 c8             	mov    %eax,-0x38(%ebp)
  402d32:	c7 45 d8 00 00 00 00 	movl   $0x0,-0x28(%ebp)
  402d39:	e9 22 03 00 00       	jmp    403060 <_generateMoveDatabaseBishop+0x3c6>
  402d3e:	c7 45 e0 00 00 00 00 	movl   $0x0,-0x20(%ebp)
  402d45:	c7 45 e4 00 00 00 00 	movl   $0x0,-0x1c(%ebp)
  402d4c:	8b 45 08             	mov    0x8(%ebp),%eax
  402d4f:	8b 90 ac 00 00 00    	mov    0xac(%eax),%edx
  402d55:	8b 45 dc             	mov    -0x24(%ebp),%eax
  402d58:	c1 e0 02             	shl    $0x2,%eax
  402d5b:	01 d0                	add    %edx,%eax
  402d5d:	8b 10                	mov    (%eax),%edx
  402d5f:	8b 45 d8             	mov    -0x28(%ebp),%eax
  402d62:	c1 e0 03             	shl    $0x3,%eax
  402d65:	01 d0                	add    %edx,%eax
  402d67:	8b 18                	mov    (%eax),%ebx
  402d69:	8b 70 04             	mov    0x4(%eax),%esi
  402d6c:	8b 45 08             	mov    0x8(%ebp),%eax
  402d6f:	8b 90 a8 00 00 00    	mov    0xa8(%eax),%edx
  402d75:	8b 45 dc             	mov    -0x24(%ebp),%eax
  402d78:	c1 e0 03             	shl    $0x3,%eax
  402d7b:	01 d0                	add    %edx,%eax
  402d7d:	8b 50 04             	mov    0x4(%eax),%edx
  402d80:	8b 00                	mov    (%eax),%eax
  402d82:	89 f7                	mov    %esi,%edi
  402d84:	0f af f8             	imul   %eax,%edi
  402d87:	89 d1                	mov    %edx,%ecx
  402d89:	0f af cb             	imul   %ebx,%ecx
  402d8c:	01 f9                	add    %edi,%ecx
  402d8e:	f7 e3                	mul    %ebx
  402d90:	89 c3                	mov    %eax,%ebx
  402d92:	89 d6                	mov    %edx,%esi
  402d94:	8d 04 31             	lea    (%ecx,%esi,1),%eax
  402d97:	89 c6                	mov    %eax,%esi
  402d99:	8b 45 08             	mov    0x8(%ebp),%eax
  402d9c:	8b 90 a4 00 00 00    	mov    0xa4(%eax),%edx
  402da2:	8b 45 dc             	mov    -0x24(%ebp),%eax
  402da5:	c1 e0 02             	shl    $0x2,%eax
  402da8:	01 d0                	add    %edx,%eax
  402daa:	8b 00                	mov    (%eax),%eax
  402dac:	89 c1                	mov    %eax,%ecx
  402dae:	0f ad f3             	shrd   %cl,%esi,%ebx
  402db1:	d3 ee                	shr    %cl,%esi
  402db3:	f6 c1 20             	test   $0x20,%cl
  402db6:	74 04                	je     402dbc <_generateMoveDatabaseBishop+0x122>
  402db8:	89 f3                	mov    %esi,%ebx
  402dba:	31 f6                	xor    %esi,%esi
  402dbc:	89 d8                	mov    %ebx,%eax
  402dbe:	89 f2                	mov    %esi,%edx
  402dc0:	89 45 c4             	mov    %eax,-0x3c(%ebp)
  402dc3:	8b 45 dc             	mov    -0x24(%ebp),%eax
  402dc6:	83 c0 09             	add    $0x9,%eax
  402dc9:	89 45 d4             	mov    %eax,-0x2c(%ebp)
  402dcc:	eb 76                	jmp    402e44 <_generateMoveDatabaseBishop+0x1aa>
  402dce:	8b 4d d4             	mov    -0x2c(%ebp),%ecx
  402dd1:	b8 01 00 00 00       	mov    $0x1,%eax
  402dd6:	ba 00 00 00 00       	mov    $0x0,%edx
  402ddb:	0f a5 c2             	shld   %cl,%eax,%edx
  402dde:	d3 e0                	shl    %cl,%eax
  402de0:	f6 c1 20             	test   $0x20,%cl
  402de3:	74 04                	je     402de9 <_generateMoveDatabaseBishop+0x14f>
  402de5:	89 c2                	mov    %eax,%edx
  402de7:	31 c0                	xor    %eax,%eax
  402de9:	09 45 e0             	or     %eax,-0x20(%ebp)
  402dec:	09 55 e4             	or     %edx,-0x1c(%ebp)
  402def:	8b 45 08             	mov    0x8(%ebp),%eax
  402df2:	8b 90 ac 00 00 00    	mov    0xac(%eax),%edx
  402df8:	8b 45 dc             	mov    -0x24(%ebp),%eax
  402dfb:	c1 e0 02             	shl    $0x2,%eax
  402dfe:	01 d0                	add    %edx,%eax
  402e00:	8b 10                	mov    (%eax),%edx
  402e02:	8b 45 d8             	mov    -0x28(%ebp),%eax
  402e05:	c1 e0 03             	shl    $0x3,%eax
  402e08:	01 d0                	add    %edx,%eax
  402e0a:	8b 50 04             	mov    0x4(%eax),%edx
  402e0d:	8b 00                	mov    (%eax),%eax
  402e0f:	8b 4d d4             	mov    -0x2c(%ebp),%ecx
  402e12:	0f ad d0             	shrd   %cl,%edx,%eax
  402e15:	d3 ea                	shr    %cl,%edx
  402e17:	f6 c1 20             	test   $0x20,%cl
  402e1a:	74 04                	je     402e20 <_generateMoveDatabaseBishop+0x186>
  402e1c:	89 d0                	mov    %edx,%eax
  402e1e:	31 d2                	xor    %edx,%edx
  402e20:	89 c3                	mov    %eax,%ebx
  402e22:	83 e3 01             	and    $0x1,%ebx
  402e25:	89 5d b0             	mov    %ebx,-0x50(%ebp)
  402e28:	89 d0                	mov    %edx,%eax
  402e2a:	83 e0 00             	and    $0x0,%eax
  402e2d:	89 45 b4             	mov    %eax,-0x4c(%ebp)
  402e30:	8b 75 b0             	mov    -0x50(%ebp),%esi
  402e33:	8b 7d b4             	mov    -0x4c(%ebp),%edi
  402e36:	89 f8                	mov    %edi,%eax
  402e38:	09 f0                	or     %esi,%eax
  402e3a:	85 c0                	test   %eax,%eax
  402e3c:	74 02                	je     402e40 <_generateMoveDatabaseBishop+0x1a6>
  402e3e:	eb 18                	jmp    402e58 <_generateMoveDatabaseBishop+0x1be>
  402e40:	83 45 d4 09          	addl   $0x9,-0x2c(%ebp)
  402e44:	8b 45 d4             	mov    -0x2c(%ebp),%eax
  402e47:	83 e0 07             	and    $0x7,%eax
  402e4a:	85 c0                	test   %eax,%eax
  402e4c:	74 0a                	je     402e58 <_generateMoveDatabaseBishop+0x1be>
  402e4e:	83 7d d4 3f          	cmpl   $0x3f,-0x2c(%ebp)
  402e52:	0f 8e 76 ff ff ff    	jle    402dce <_generateMoveDatabaseBishop+0x134>
  402e58:	8b 45 dc             	mov    -0x24(%ebp),%eax
  402e5b:	83 e8 09             	sub    $0x9,%eax
  402e5e:	89 45 d4             	mov    %eax,-0x2c(%ebp)
  402e61:	eb 76                	jmp    402ed9 <_generateMoveDatabaseBishop+0x23f>
  402e63:	8b 4d d4             	mov    -0x2c(%ebp),%ecx
  402e66:	b8 01 00 00 00       	mov    $0x1,%eax
  402e6b:	ba 00 00 00 00       	mov    $0x0,%edx
  402e70:	0f a5 c2             	shld   %cl,%eax,%edx
  402e73:	d3 e0                	shl    %cl,%eax
  402e75:	f6 c1 20             	test   $0x20,%cl
  402e78:	74 04                	je     402e7e <_generateMoveDatabaseBishop+0x1e4>
  402e7a:	89 c2                	mov    %eax,%edx
  402e7c:	31 c0                	xor    %eax,%eax
  402e7e:	09 45 e0             	or     %eax,-0x20(%ebp)
  402e81:	09 55 e4             	or     %edx,-0x1c(%ebp)
  402e84:	8b 45 08             	mov    0x8(%ebp),%eax
  402e87:	8b 90 ac 00 00 00    	mov    0xac(%eax),%edx
  402e8d:	8b 45 dc             	mov    -0x24(%ebp),%eax
  402e90:	c1 e0 02             	shl    $0x2,%eax
  402e93:	01 d0                	add    %edx,%eax
  402e95:	8b 10                	mov    (%eax),%edx
  402e97:	8b 45 d8             	mov    -0x28(%ebp),%eax
  402e9a:	c1 e0 03             	shl    $0x3,%eax
  402e9d:	01 d0                	add    %edx,%eax
  402e9f:	8b 50 04             	mov    0x4(%eax),%edx
  402ea2:	8b 00                	mov    (%eax),%eax
  402ea4:	8b 4d d4             	mov    -0x2c(%ebp),%ecx
  402ea7:	0f ad d0             	shrd   %cl,%edx,%eax
  402eaa:	d3 ea                	shr    %cl,%edx
  402eac:	f6 c1 20             	test   $0x20,%cl
  402eaf:	74 04                	je     402eb5 <_generateMoveDatabaseBishop+0x21b>
  402eb1:	89 d0                	mov    %edx,%eax
  402eb3:	31 d2                	xor    %edx,%edx
  402eb5:	89 c6                	mov    %eax,%esi
  402eb7:	83 e6 01             	and    $0x1,%esi
  402eba:	89 75 a8             	mov    %esi,-0x58(%ebp)
  402ebd:	89 d0                	mov    %edx,%eax
  402ebf:	83 e0 00             	and    $0x0,%eax
  402ec2:	89 45 ac             	mov    %eax,-0x54(%ebp)
  402ec5:	8b 75 a8             	mov    -0x58(%ebp),%esi
  402ec8:	8b 7d ac             	mov    -0x54(%ebp),%edi
  402ecb:	89 f8                	mov    %edi,%eax
  402ecd:	09 f0                	or     %esi,%eax
  402ecf:	85 c0                	test   %eax,%eax
  402ed1:	74 02                	je     402ed5 <_generateMoveDatabaseBishop+0x23b>
  402ed3:	eb 28                	jmp    402efd <_generateMoveDatabaseBishop+0x263>
  402ed5:	83 6d d4 09          	subl   $0x9,-0x2c(%ebp)
  402ed9:	8b 55 d4             	mov    -0x2c(%ebp),%edx
  402edc:	89 d0                	mov    %edx,%eax
  402ede:	c1 f8 1f             	sar    $0x1f,%eax
  402ee1:	c1 e8 1d             	shr    $0x1d,%eax
  402ee4:	89 c1                	mov    %eax,%ecx
  402ee6:	8d 04 0a             	lea    (%edx,%ecx,1),%eax
  402ee9:	83 e0 07             	and    $0x7,%eax
  402eec:	29 c8                	sub    %ecx,%eax
  402eee:	83 f8 07             	cmp    $0x7,%eax
  402ef1:	74 0a                	je     402efd <_generateMoveDatabaseBishop+0x263>
  402ef3:	83 7d d4 00          	cmpl   $0x0,-0x2c(%ebp)
  402ef7:	0f 89 66 ff ff ff    	jns    402e63 <_generateMoveDatabaseBishop+0x1c9>
  402efd:	8b 45 dc             	mov    -0x24(%ebp),%eax
  402f00:	83 c0 07             	add    $0x7,%eax
  402f03:	89 45 d4             	mov    %eax,-0x2c(%ebp)
  402f06:	eb 76                	jmp    402f7e <_generateMoveDatabaseBishop+0x2e4>
  402f08:	8b 4d d4             	mov    -0x2c(%ebp),%ecx
  402f0b:	b8 01 00 00 00       	mov    $0x1,%eax
  402f10:	ba 00 00 00 00       	mov    $0x0,%edx
  402f15:	0f a5 c2             	shld   %cl,%eax,%edx
  402f18:	d3 e0                	shl    %cl,%eax
  402f1a:	f6 c1 20             	test   $0x20,%cl
  402f1d:	74 04                	je     402f23 <_generateMoveDatabaseBishop+0x289>
  402f1f:	89 c2                	mov    %eax,%edx
  402f21:	31 c0                	xor    %eax,%eax
  402f23:	09 45 e0             	or     %eax,-0x20(%ebp)
  402f26:	09 55 e4             	or     %edx,-0x1c(%ebp)
  402f29:	8b 45 08             	mov    0x8(%ebp),%eax
  402f2c:	8b 90 ac 00 00 00    	mov    0xac(%eax),%edx
  402f32:	8b 45 dc             	mov    -0x24(%ebp),%eax
  402f35:	c1 e0 02             	shl    $0x2,%eax
  402f38:	01 d0                	add    %edx,%eax
  402f3a:	8b 10                	mov    (%eax),%edx
  402f3c:	8b 45 d8             	mov    -0x28(%ebp),%eax
  402f3f:	c1 e0 03             	shl    $0x3,%eax
  402f42:	01 d0                	add    %edx,%eax
  402f44:	8b 50 04             	mov    0x4(%eax),%edx
  402f47:	8b 00                	mov    (%eax),%eax
  402f49:	8b 4d d4             	mov    -0x2c(%ebp),%ecx
  402f4c:	0f ad d0             	shrd   %cl,%edx,%eax
  402f4f:	d3 ea                	shr    %cl,%edx
  402f51:	f6 c1 20             	test   $0x20,%cl
  402f54:	74 04                	je     402f5a <_generateMoveDatabaseBishop+0x2c0>
  402f56:	89 d0                	mov    %edx,%eax
  402f58:	31 d2                	xor    %edx,%edx
  402f5a:	89 c3                	mov    %eax,%ebx
  402f5c:	83 e3 01             	and    $0x1,%ebx
  402f5f:	89 5d a0             	mov    %ebx,-0x60(%ebp)
  402f62:	89 d0                	mov    %edx,%eax
  402f64:	83 e0 00             	and    $0x0,%eax
  402f67:	89 45 a4             	mov    %eax,-0x5c(%ebp)
  402f6a:	8b 75 a0             	mov    -0x60(%ebp),%esi
  402f6d:	8b 7d a4             	mov    -0x5c(%ebp),%edi
  402f70:	89 f8                	mov    %edi,%eax
  402f72:	09 f0                	or     %esi,%eax
  402f74:	85 c0                	test   %eax,%eax
  402f76:	74 02                	je     402f7a <_generateMoveDatabaseBishop+0x2e0>
  402f78:	eb 28                	jmp    402fa2 <_generateMoveDatabaseBishop+0x308>
  402f7a:	83 45 d4 07          	addl   $0x7,-0x2c(%ebp)
  402f7e:	8b 55 d4             	mov    -0x2c(%ebp),%edx
  402f81:	89 d0                	mov    %edx,%eax
  402f83:	c1 f8 1f             	sar    $0x1f,%eax
  402f86:	c1 e8 1d             	shr    $0x1d,%eax
  402f89:	89 c1                	mov    %eax,%ecx
  402f8b:	8d 04 0a             	lea    (%edx,%ecx,1),%eax
  402f8e:	83 e0 07             	and    $0x7,%eax
  402f91:	29 c8                	sub    %ecx,%eax
  402f93:	83 f8 07             	cmp    $0x7,%eax
  402f96:	74 0a                	je     402fa2 <_generateMoveDatabaseBishop+0x308>
  402f98:	83 7d d4 3f          	cmpl   $0x3f,-0x2c(%ebp)
  402f9c:	0f 8e 66 ff ff ff    	jle    402f08 <_generateMoveDatabaseBishop+0x26e>
  402fa2:	8b 45 dc             	mov    -0x24(%ebp),%eax
  402fa5:	83 e8 07             	sub    $0x7,%eax
  402fa8:	89 45 d4             	mov    %eax,-0x2c(%ebp)
  402fab:	eb 76                	jmp    403023 <_generateMoveDatabaseBishop+0x389>
  402fad:	8b 4d d4             	mov    -0x2c(%ebp),%ecx
  402fb0:	b8 01 00 00 00       	mov    $0x1,%eax
  402fb5:	ba 00 00 00 00       	mov    $0x0,%edx
  402fba:	0f a5 c2             	shld   %cl,%eax,%edx
  402fbd:	d3 e0                	shl    %cl,%eax
  402fbf:	f6 c1 20             	test   $0x20,%cl
  402fc2:	74 04                	je     402fc8 <_generateMoveDatabaseBishop+0x32e>
  402fc4:	89 c2                	mov    %eax,%edx
  402fc6:	31 c0                	xor    %eax,%eax
  402fc8:	09 45 e0             	or     %eax,-0x20(%ebp)
  402fcb:	09 55 e4             	or     %edx,-0x1c(%ebp)
  402fce:	8b 45 08             	mov    0x8(%ebp),%eax
  402fd1:	8b 90 ac 00 00 00    	mov    0xac(%eax),%edx
  402fd7:	8b 45 dc             	mov    -0x24(%ebp),%eax
  402fda:	c1 e0 02             	shl    $0x2,%eax
  402fdd:	01 d0                	add    %edx,%eax
  402fdf:	8b 10                	mov    (%eax),%edx
  402fe1:	8b 45 d8             	mov    -0x28(%ebp),%eax
  402fe4:	c1 e0 03             	shl    $0x3,%eax
  402fe7:	01 d0                	add    %edx,%eax
  402fe9:	8b 50 04             	mov    0x4(%eax),%edx
  402fec:	8b 00                	mov    (%eax),%eax
  402fee:	8b 4d d4             	mov    -0x2c(%ebp),%ecx
  402ff1:	0f ad d0             	shrd   %cl,%edx,%eax
  402ff4:	d3 ea                	shr    %cl,%edx
  402ff6:	f6 c1 20             	test   $0x20,%cl
  402ff9:	74 04                	je     402fff <_generateMoveDatabaseBishop+0x365>
  402ffb:	89 d0                	mov    %edx,%eax
  402ffd:	31 d2                	xor    %edx,%edx
  402fff:	89 c7                	mov    %eax,%edi
  403001:	83 e7 01             	and    $0x1,%edi
  403004:	89 7d 98             	mov    %edi,-0x68(%ebp)
  403007:	89 d0                	mov    %edx,%eax
  403009:	83 e0 00             	and    $0x0,%eax
  40300c:	89 45 9c             	mov    %eax,-0x64(%ebp)
  40300f:	8b 75 98             	mov    -0x68(%ebp),%esi
  403012:	8b 7d 9c             	mov    -0x64(%ebp),%edi
  403015:	89 f8                	mov    %edi,%eax
  403017:	09 f0                	or     %esi,%eax
  403019:	85 c0                	test   %eax,%eax
  40301b:	74 02                	je     40301f <_generateMoveDatabaseBishop+0x385>
  40301d:	eb 18                	jmp    403037 <_generateMoveDatabaseBishop+0x39d>
  40301f:	83 6d d4 07          	subl   $0x7,-0x2c(%ebp)
  403023:	8b 45 d4             	mov    -0x2c(%ebp),%eax
  403026:	83 e0 07             	and    $0x7,%eax
  403029:	85 c0                	test   %eax,%eax
  40302b:	74 0a                	je     403037 <_generateMoveDatabaseBishop+0x39d>
  40302d:	83 7d d4 00          	cmpl   $0x0,-0x2c(%ebp)
  403031:	0f 89 76 ff ff ff    	jns    402fad <_generateMoveDatabaseBishop+0x313>
  403037:	8b 45 dc             	mov    -0x24(%ebp),%eax
  40303a:	8d 14 85 00 00 00 00 	lea    0x0(,%eax,4),%edx
  403041:	8b 45 d0             	mov    -0x30(%ebp),%eax
  403044:	01 d0                	add    %edx,%eax
  403046:	8b 10                	mov    (%eax),%edx
  403048:	8b 45 c4             	mov    -0x3c(%ebp),%eax
  40304b:	c1 e0 03             	shl    $0x3,%eax
  40304e:	8d 0c 02             	lea    (%edx,%eax,1),%ecx
  403051:	8b 45 e0             	mov    -0x20(%ebp),%eax
  403054:	8b 55 e4             	mov    -0x1c(%ebp),%edx
  403057:	89 01                	mov    %eax,(%ecx)
  403059:	89 51 04             	mov    %edx,0x4(%ecx)
  40305c:	83 45 d8 01          	addl   $0x1,-0x28(%ebp)
  403060:	8b 45 d8             	mov    -0x28(%ebp),%eax
  403063:	3b 45 c8             	cmp    -0x38(%ebp),%eax
  403066:	0f 8c d2 fc ff ff    	jl     402d3e <_generateMoveDatabaseBishop+0xa4>
  40306c:	83 45 dc 01          	addl   $0x1,-0x24(%ebp)
  403070:	83 7d dc 3f          	cmpl   $0x3f,-0x24(%ebp)
  403074:	0f 8e 75 fc ff ff    	jle    402cef <_generateMoveDatabaseBishop+0x55>
  40307a:	8b 45 d0             	mov    -0x30(%ebp),%eax
  40307d:	83 c4 6c             	add    $0x6c,%esp
  403080:	5b                   	pop    %ebx
  403081:	5e                   	pop    %esi
  403082:	5f                   	pop    %edi
  403083:	5d                   	pop    %ebp
  403084:	c3                   	ret    

00403085 <_main>:
  403085:	55                   	push   %ebp
  403086:	89 e5                	mov    %esp,%ebp
  403088:	83 e4 f0             	and    $0xfffffff0,%esp
  40308b:	83 ec 20             	sub    $0x20,%esp
  40308e:	e8 dd 2d 00 00       	call   405e70 <___main>
  403093:	e8 08 e7 ff ff       	call   4017a0 <_BoardInit>
  403098:	89 44 24 1c          	mov    %eax,0x1c(%esp)
  40309c:	c7 04 24 00 00 00 00 	movl   $0x0,(%esp)
  4030a3:	e8 80 90 00 00       	call   40c128 <_time>
  4030a8:	89 44 24 18          	mov    %eax,0x18(%esp)
  4030ac:	c7 44 24 10 00 00 00 	movl   $0x0,0x10(%esp)
  4030b3:	00 
  4030b4:	a1 20 10 41 00       	mov    0x411020,%eax
  4030b9:	89 44 24 08          	mov    %eax,0x8(%esp)
  4030bd:	8d 44 24 10          	lea    0x10(%esp),%eax
  4030c1:	89 44 24 04          	mov    %eax,0x4(%esp)
  4030c5:	8b 44 24 1c          	mov    0x1c(%esp),%eax
  4030c9:	89 04 24             	mov    %eax,(%esp)
  4030cc:	e8 ab 00 00 00       	call   40317c <_getAllMoves>
  4030d1:	89 44 24 14          	mov    %eax,0x14(%esp)
  4030d5:	8b 44 24 10          	mov    0x10(%esp),%eax
  4030d9:	83 e8 01             	sub    $0x1,%eax
  4030dc:	89 44 24 10          	mov    %eax,0x10(%esp)
  4030e0:	eb 65                	jmp    403147 <_main+0xc2>
  4030e2:	8b 15 20 10 41 00    	mov    0x411020,%edx
  4030e8:	8b 44 24 10          	mov    0x10(%esp),%eax
  4030ec:	8d 0c 85 00 00 00 00 	lea    0x0(,%eax,4),%ecx
  4030f3:	8b 44 24 14          	mov    0x14(%esp),%eax
  4030f7:	01 c8                	add    %ecx,%eax
  4030f9:	8b 00                	mov    (%eax),%eax
  4030fb:	89 54 24 08          	mov    %edx,0x8(%esp)
  4030ff:	89 44 24 04          	mov    %eax,0x4(%esp)
  403103:	8b 44 24 1c          	mov    0x1c(%esp),%eax
  403107:	89 04 24             	mov    %eax,(%esp)
  40310a:	e8 99 1c 00 00       	call   404da8 <_ApplyMove>
  40310f:	8b 15 20 10 41 00    	mov    0x411020,%edx
  403115:	8b 44 24 10          	mov    0x10(%esp),%eax
  403119:	8d 0c 85 00 00 00 00 	lea    0x0(,%eax,4),%ecx
  403120:	8b 44 24 14          	mov    0x14(%esp),%eax
  403124:	01 c8                	add    %ecx,%eax
  403126:	8b 00                	mov    (%eax),%eax
  403128:	89 54 24 08          	mov    %edx,0x8(%esp)
  40312c:	89 44 24 04          	mov    %eax,0x4(%esp)
  403130:	8b 44 24 1c          	mov    0x1c(%esp),%eax
  403134:	89 04 24             	mov    %eax,(%esp)
  403137:	e8 97 1c 00 00       	call   404dd3 <_RevertMove>
  40313c:	8b 44 24 10          	mov    0x10(%esp),%eax
  403140:	83 e8 01             	sub    $0x1,%eax
  403143:	89 44 24 10          	mov    %eax,0x10(%esp)
  403147:	8b 44 24 10          	mov    0x10(%esp),%eax
  40314b:	85 c0                	test   %eax,%eax
  40314d:	75 93                	jne    4030e2 <_main+0x5d>
  40314f:	8b 44 24 1c          	mov    0x1c(%esp),%eax
  403153:	8b 50 04             	mov    0x4(%eax),%edx
  403156:	8b 00                	mov    (%eax),%eax
  403158:	89 04 24             	mov    %eax,(%esp)
  40315b:	89 54 24 04          	mov    %edx,0x4(%esp)
  40315f:	e8 7c e2 ff ff       	call   4013e0 <_printBitBoard>
  403164:	8b 44 24 1c          	mov    0x1c(%esp),%eax
  403168:	8b 50 0c             	mov    0xc(%eax),%edx
  40316b:	8b 40 08             	mov    0x8(%eax),%eax
  40316e:	89 04 24             	mov    %eax,(%esp)
  403171:	89 54 24 04          	mov    %edx,0x4(%esp)
  403175:	e8 66 e2 ff ff       	call   4013e0 <_printBitBoard>
  40317a:	c9                   	leave  
  40317b:	c3                   	ret    

0040317c <_getAllMoves>:
  40317c:	55                   	push   %ebp
  40317d:	89 e5                	mov    %esp,%ebp
  40317f:	83 ec 28             	sub    $0x28,%esp
  403182:	c7 04 24 00 04 00 00 	movl   $0x400,(%esp)
  403189:	e8 8a 8f 00 00       	call   40c118 <_malloc>
  40318e:	89 45 f4             	mov    %eax,-0xc(%ebp)
  403191:	8b 45 10             	mov    0x10(%ebp),%eax
  403194:	89 44 24 0c          	mov    %eax,0xc(%esp)
  403198:	8b 45 0c             	mov    0xc(%ebp),%eax
  40319b:	89 44 24 08          	mov    %eax,0x8(%esp)
  40319f:	8b 45 f4             	mov    -0xc(%ebp),%eax
  4031a2:	89 44 24 04          	mov    %eax,0x4(%esp)
  4031a6:	8b 45 08             	mov    0x8(%ebp),%eax
  4031a9:	89 04 24             	mov    %eax,(%esp)
  4031ac:	e8 7a 02 00 00       	call   40342b <_getKingMoves>
  4031b1:	8b 45 10             	mov    0x10(%ebp),%eax
  4031b4:	89 44 24 0c          	mov    %eax,0xc(%esp)
  4031b8:	8b 45 0c             	mov    0xc(%ebp),%eax
  4031bb:	89 44 24 08          	mov    %eax,0x8(%esp)
  4031bf:	8b 45 f4             	mov    -0xc(%ebp),%eax
  4031c2:	89 44 24 04          	mov    %eax,0x4(%esp)
  4031c6:	8b 45 08             	mov    0x8(%ebp),%eax
  4031c9:	89 04 24             	mov    %eax,(%esp)
  4031cc:	e8 65 17 00 00       	call   404936 <_getQueenMoves>
  4031d1:	8b 45 10             	mov    0x10(%ebp),%eax
  4031d4:	89 44 24 0c          	mov    %eax,0xc(%esp)
  4031d8:	8b 45 0c             	mov    0xc(%ebp),%eax
  4031db:	89 44 24 08          	mov    %eax,0x8(%esp)
  4031df:	8b 45 f4             	mov    -0xc(%ebp),%eax
  4031e2:	89 44 24 04          	mov    %eax,0x4(%esp)
  4031e6:	8b 45 08             	mov    0x8(%ebp),%eax
  4031e9:	89 04 24             	mov    %eax,(%esp)
  4031ec:	e8 f4 11 00 00       	call   4043e5 <_getRookMoves>
  4031f1:	8b 45 10             	mov    0x10(%ebp),%eax
  4031f4:	89 44 24 0c          	mov    %eax,0xc(%esp)
  4031f8:	8b 45 0c             	mov    0xc(%ebp),%eax
  4031fb:	89 44 24 08          	mov    %eax,0x8(%esp)
  4031ff:	8b 45 f4             	mov    -0xc(%ebp),%eax
  403202:	89 44 24 04          	mov    %eax,0x4(%esp)
  403206:	8b 45 08             	mov    0x8(%ebp),%eax
  403209:	89 04 24             	mov    %eax,(%esp)
  40320c:	e8 45 00 00 00       	call   403256 <_getKnightMoves>
  403211:	8b 45 10             	mov    0x10(%ebp),%eax
  403214:	89 44 24 0c          	mov    %eax,0xc(%esp)
  403218:	8b 45 0c             	mov    0xc(%ebp),%eax
  40321b:	89 44 24 08          	mov    %eax,0x8(%esp)
  40321f:	8b 45 f4             	mov    -0xc(%ebp),%eax
  403222:	89 44 24 04          	mov    %eax,0x4(%esp)
  403226:	8b 45 08             	mov    0x8(%ebp),%eax
  403229:	89 04 24             	mov    %eax,(%esp)
  40322c:	e8 86 14 00 00       	call   4046b7 <_getBishopMoves>
  403231:	8b 45 10             	mov    0x10(%ebp),%eax
  403234:	89 44 24 0c          	mov    %eax,0xc(%esp)
  403238:	8b 45 0c             	mov    0xc(%ebp),%eax
  40323b:	89 44 24 08          	mov    %eax,0x8(%esp)
  40323f:	8b 45 f4             	mov    -0xc(%ebp),%eax
  403242:	89 44 24 04          	mov    %eax,0x4(%esp)
  403246:	8b 45 08             	mov    0x8(%ebp),%eax
  403249:	89 04 24             	mov    %eax,(%esp)
  40324c:	e8 d4 03 00 00       	call   403625 <_getPawnMoves>
  403251:	8b 45 f4             	mov    -0xc(%ebp),%eax
  403254:	c9                   	leave  
  403255:	c3                   	ret    

00403256 <_getKnightMoves>:
  403256:	55                   	push   %ebp
  403257:	89 e5                	mov    %esp,%ebp
  403259:	56                   	push   %esi
  40325a:	53                   	push   %ebx
  40325b:	83 ec 40             	sub    $0x40,%esp
  40325e:	a1 20 10 41 00       	mov    0x411020,%eax
  403263:	39 45 14             	cmp    %eax,0x14(%ebp)
  403266:	75 1f                	jne    403287 <_getKnightMoves+0x31>
  403268:	8b 45 08             	mov    0x8(%ebp),%eax
  40326b:	8b 50 04             	mov    0x4(%eax),%edx
  40326e:	8b 00                	mov    (%eax),%eax
  403270:	89 45 f0             	mov    %eax,-0x10(%ebp)
  403273:	89 55 f4             	mov    %edx,-0xc(%ebp)
  403276:	8b 45 08             	mov    0x8(%ebp),%eax
  403279:	8b 50 0c             	mov    0xc(%eax),%edx
  40327c:	8b 40 08             	mov    0x8(%eax),%eax
  40327f:	89 45 e8             	mov    %eax,-0x18(%ebp)
  403282:	89 55 ec             	mov    %edx,-0x14(%ebp)
  403285:	eb 27                	jmp    4032ae <_getKnightMoves+0x58>
  403287:	a1 00 d1 40 00       	mov    0x40d100,%eax
  40328c:	39 45 14             	cmp    %eax,0x14(%ebp)
  40328f:	75 1d                	jne    4032ae <_getKnightMoves+0x58>
  403291:	8b 45 08             	mov    0x8(%ebp),%eax
  403294:	8b 50 0c             	mov    0xc(%eax),%edx
  403297:	8b 40 08             	mov    0x8(%eax),%eax
  40329a:	89 45 f0             	mov    %eax,-0x10(%ebp)
  40329d:	89 55 f4             	mov    %edx,-0xc(%ebp)
  4032a0:	8b 45 08             	mov    0x8(%ebp),%eax
  4032a3:	8b 50 04             	mov    0x4(%eax),%edx
  4032a6:	8b 00                	mov    (%eax),%eax
  4032a8:	89 45 e8             	mov    %eax,-0x18(%ebp)
  4032ab:	89 55 ec             	mov    %edx,-0x14(%ebp)
  4032ae:	8b 45 08             	mov    0x8(%ebp),%eax
  4032b1:	8b 50 2c             	mov    0x2c(%eax),%edx
  4032b4:	8b 40 28             	mov    0x28(%eax),%eax
  4032b7:	89 c1                	mov    %eax,%ecx
  4032b9:	23 4d f0             	and    -0x10(%ebp),%ecx
  4032bc:	89 4d e0             	mov    %ecx,-0x20(%ebp)
  4032bf:	89 d0                	mov    %edx,%eax
  4032c1:	23 45 f4             	and    -0xc(%ebp),%eax
  4032c4:	89 45 e4             	mov    %eax,-0x1c(%ebp)
  4032c7:	e9 48 01 00 00       	jmp    403414 <_getKnightMoves+0x1be>
  4032cc:	8b 45 e0             	mov    -0x20(%ebp),%eax
  4032cf:	8b 55 e4             	mov    -0x1c(%ebp),%edx
  4032d2:	89 04 24             	mov    %eax,(%esp)
  4032d5:	89 54 24 04          	mov    %edx,0x4(%esp)
  4032d9:	e8 b7 e1 ff ff       	call   401495 <_getLSB>
  4032de:	89 45 d4             	mov    %eax,-0x2c(%ebp)
  4032e1:	8b 45 08             	mov    0x8(%ebp),%eax
  4032e4:	8b 80 88 00 00 00    	mov    0x88(%eax),%eax
  4032ea:	8b 55 d4             	mov    -0x2c(%ebp),%edx
  4032ed:	c1 e2 03             	shl    $0x3,%edx
  4032f0:	01 d0                	add    %edx,%eax
  4032f2:	8b 50 04             	mov    0x4(%eax),%edx
  4032f5:	8b 00                	mov    (%eax),%eax
  4032f7:	8b 4d f0             	mov    -0x10(%ebp),%ecx
  4032fa:	f7 d1                	not    %ecx
  4032fc:	89 cb                	mov    %ecx,%ebx
  4032fe:	8b 4d f4             	mov    -0xc(%ebp),%ecx
  403301:	f7 d1                	not    %ecx
  403303:	89 ce                	mov    %ecx,%esi
  403305:	89 c1                	mov    %eax,%ecx
  403307:	21 d9                	and    %ebx,%ecx
  403309:	89 4d d8             	mov    %ecx,-0x28(%ebp)
  40330c:	89 d0                	mov    %edx,%eax
  40330e:	21 f0                	and    %esi,%eax
  403310:	89 45 dc             	mov    %eax,-0x24(%ebp)
  403313:	e9 cb 00 00 00       	jmp    4033e3 <_getKnightMoves+0x18d>
  403318:	8b 45 d8             	mov    -0x28(%ebp),%eax
  40331b:	8b 55 dc             	mov    -0x24(%ebp),%edx
  40331e:	89 04 24             	mov    %eax,(%esp)
  403321:	89 54 24 04          	mov    %edx,0x4(%esp)
  403325:	e8 6b e1 ff ff       	call   401495 <_getLSB>
  40332a:	89 45 d0             	mov    %eax,-0x30(%ebp)
  40332d:	c7 04 24 30 00 00 00 	movl   $0x30,(%esp)
  403334:	e8 df 8d 00 00       	call   40c118 <_malloc>
  403339:	89 45 cc             	mov    %eax,-0x34(%ebp)
  40333c:	8b 45 cc             	mov    -0x34(%ebp),%eax
  40333f:	8b 55 14             	mov    0x14(%ebp),%edx
  403342:	89 10                	mov    %edx,(%eax)
  403344:	8b 45 cc             	mov    -0x34(%ebp),%eax
  403347:	8b 55 d4             	mov    -0x2c(%ebp),%edx
  40334a:	89 50 04             	mov    %edx,0x4(%eax)
  40334d:	8b 45 cc             	mov    -0x34(%ebp),%eax
  403350:	8b 55 d0             	mov    -0x30(%ebp),%edx
  403353:	89 50 08             	mov    %edx,0x8(%eax)
  403356:	8b 4d cc             	mov    -0x34(%ebp),%ecx
  403359:	8b 45 f0             	mov    -0x10(%ebp),%eax
  40335c:	8b 55 f4             	mov    -0xc(%ebp),%edx
  40335f:	89 41 10             	mov    %eax,0x10(%ecx)
  403362:	89 51 14             	mov    %edx,0x14(%ecx)
  403365:	8b 4d cc             	mov    -0x34(%ebp),%ecx
  403368:	8b 45 e8             	mov    -0x18(%ebp),%eax
  40336b:	8b 55 ec             	mov    -0x14(%ebp),%edx
  40336e:	89 41 18             	mov    %eax,0x18(%ecx)
  403371:	89 51 1c             	mov    %edx,0x1c(%ecx)
  403374:	8b 45 08             	mov    0x8(%ebp),%eax
  403377:	89 44 24 04          	mov    %eax,0x4(%esp)
  40337b:	8b 45 d0             	mov    -0x30(%ebp),%eax
  40337e:	89 04 24             	mov    %eax,(%esp)
  403381:	e8 79 e1 ff ff       	call   4014ff <_getSquare>
  403386:	8b 55 cc             	mov    -0x34(%ebp),%edx
  403389:	89 42 20             	mov    %eax,0x20(%edx)
  40338c:	8b 15 08 d1 40 00    	mov    0x40d108,%edx
  403392:	8b 45 cc             	mov    -0x34(%ebp),%eax
  403395:	89 50 24             	mov    %edx,0x24(%eax)
  403398:	8b 15 28 10 41 00    	mov    0x411028,%edx
  40339e:	8b 45 cc             	mov    -0x34(%ebp),%eax
  4033a1:	89 50 28             	mov    %edx,0x28(%eax)
  4033a4:	8b 45 10             	mov    0x10(%ebp),%eax
  4033a7:	8b 00                	mov    (%eax),%eax
  4033a9:	8d 48 01             	lea    0x1(%eax),%ecx
  4033ac:	8b 55 10             	mov    0x10(%ebp),%edx
  4033af:	89 0a                	mov    %ecx,(%edx)
  4033b1:	8d 14 85 00 00 00 00 	lea    0x0(,%eax,4),%edx
  4033b8:	8b 45 0c             	mov    0xc(%ebp),%eax
  4033bb:	01 c2                	add    %eax,%edx
  4033bd:	8b 45 cc             	mov    -0x34(%ebp),%eax
  4033c0:	89 02                	mov    %eax,(%edx)
  4033c2:	8b 4d d0             	mov    -0x30(%ebp),%ecx
  4033c5:	b8 01 00 00 00       	mov    $0x1,%eax
  4033ca:	ba 00 00 00 00       	mov    $0x0,%edx
  4033cf:	0f a5 c2             	shld   %cl,%eax,%edx
  4033d2:	d3 e0                	shl    %cl,%eax
  4033d4:	f6 c1 20             	test   $0x20,%cl
  4033d7:	74 04                	je     4033dd <_getKnightMoves+0x187>
  4033d9:	89 c2                	mov    %eax,%edx
  4033db:	31 c0                	xor    %eax,%eax
  4033dd:	31 45 d8             	xor    %eax,-0x28(%ebp)
  4033e0:	31 55 dc             	xor    %edx,-0x24(%ebp)
  4033e3:	8b 45 d8             	mov    -0x28(%ebp),%eax
  4033e6:	8b 55 dc             	mov    -0x24(%ebp),%edx
  4033e9:	09 d0                	or     %edx,%eax
  4033eb:	85 c0                	test   %eax,%eax
  4033ed:	0f 85 25 ff ff ff    	jne    403318 <_getKnightMoves+0xc2>
  4033f3:	8b 4d d4             	mov    -0x2c(%ebp),%ecx
  4033f6:	b8 01 00 00 00       	mov    $0x1,%eax
  4033fb:	ba 00 00 00 00       	mov    $0x0,%edx
  403400:	0f a5 c2             	shld   %cl,%eax,%edx
  403403:	d3 e0                	shl    %cl,%eax
  403405:	f6 c1 20             	test   $0x20,%cl
  403408:	74 04                	je     40340e <_getKnightMoves+0x1b8>
  40340a:	89 c2                	mov    %eax,%edx
  40340c:	31 c0                	xor    %eax,%eax
  40340e:	31 45 e0             	xor    %eax,-0x20(%ebp)
  403411:	31 55 e4             	xor    %edx,-0x1c(%ebp)
  403414:	8b 45 e0             	mov    -0x20(%ebp),%eax
  403417:	8b 55 e4             	mov    -0x1c(%ebp),%edx
  40341a:	09 d0                	or     %edx,%eax
  40341c:	85 c0                	test   %eax,%eax
  40341e:	0f 85 a8 fe ff ff    	jne    4032cc <_getKnightMoves+0x76>
  403424:	83 c4 40             	add    $0x40,%esp
  403427:	5b                   	pop    %ebx
  403428:	5e                   	pop    %esi
  403429:	5d                   	pop    %ebp
  40342a:	c3                   	ret    

0040342b <_getKingMoves>:
  40342b:	55                   	push   %ebp
  40342c:	89 e5                	mov    %esp,%ebp
  40342e:	57                   	push   %edi
  40342f:	56                   	push   %esi
  403430:	53                   	push   %ebx
  403431:	83 ec 4c             	sub    $0x4c,%esp
  403434:	8b 0d 20 10 41 00    	mov    0x411020,%ecx
  40343a:	39 4d 14             	cmp    %ecx,0x14(%ebp)
  40343d:	75 1f                	jne    40345e <_getKingMoves+0x33>
  40343f:	8b 4d 08             	mov    0x8(%ebp),%ecx
  403442:	8b 01                	mov    (%ecx),%eax
  403444:	8b 51 04             	mov    0x4(%ecx),%edx
  403447:	89 45 e0             	mov    %eax,-0x20(%ebp)
  40344a:	89 55 e4             	mov    %edx,-0x1c(%ebp)
  40344d:	8b 4d 08             	mov    0x8(%ebp),%ecx
  403450:	8b 41 08             	mov    0x8(%ecx),%eax
  403453:	8b 51 0c             	mov    0xc(%ecx),%edx
  403456:	89 45 d8             	mov    %eax,-0x28(%ebp)
  403459:	89 55 dc             	mov    %edx,-0x24(%ebp)
  40345c:	eb 28                	jmp    403486 <_getKingMoves+0x5b>
  40345e:	8b 0d 00 d1 40 00    	mov    0x40d100,%ecx
  403464:	39 4d 14             	cmp    %ecx,0x14(%ebp)
  403467:	75 1d                	jne    403486 <_getKingMoves+0x5b>
  403469:	8b 4d 08             	mov    0x8(%ebp),%ecx
  40346c:	8b 41 08             	mov    0x8(%ecx),%eax
  40346f:	8b 51 0c             	mov    0xc(%ecx),%edx
  403472:	89 45 e0             	mov    %eax,-0x20(%ebp)
  403475:	89 55 e4             	mov    %edx,-0x1c(%ebp)
  403478:	8b 4d 08             	mov    0x8(%ebp),%ecx
  40347b:	8b 01                	mov    (%ecx),%eax
  40347d:	8b 51 04             	mov    0x4(%ecx),%edx
  403480:	89 45 d8             	mov    %eax,-0x28(%ebp)
  403483:	89 55 dc             	mov    %edx,-0x24(%ebp)
  403486:	8b 4d 08             	mov    0x8(%ebp),%ecx
  403489:	8b 41 10             	mov    0x10(%ecx),%eax
  40348c:	8b 51 14             	mov    0x14(%ecx),%edx
  40348f:	89 c7                	mov    %eax,%edi
  403491:	23 7d e0             	and    -0x20(%ebp),%edi
  403494:	89 7d b0             	mov    %edi,-0x50(%ebp)
  403497:	89 d0                	mov    %edx,%eax
  403499:	23 45 e4             	and    -0x1c(%ebp),%eax
  40349c:	89 45 b4             	mov    %eax,-0x4c(%ebp)
  40349f:	8b 45 b0             	mov    -0x50(%ebp),%eax
  4034a2:	8b 55 b4             	mov    -0x4c(%ebp),%edx
  4034a5:	89 04 24             	mov    %eax,(%esp)
  4034a8:	89 54 24 04          	mov    %edx,0x4(%esp)
  4034ac:	e8 e4 df ff ff       	call   401495 <_getLSB>
  4034b1:	89 45 cc             	mov    %eax,-0x34(%ebp)
  4034b4:	8b 45 08             	mov    0x8(%ebp),%eax
  4034b7:	8b 80 84 00 00 00    	mov    0x84(%eax),%eax
  4034bd:	8b 55 cc             	mov    -0x34(%ebp),%edx
  4034c0:	c1 e2 03             	shl    $0x3,%edx
  4034c3:	01 d0                	add    %edx,%eax
  4034c5:	8b 50 04             	mov    0x4(%eax),%edx
  4034c8:	8b 00                	mov    (%eax),%eax
  4034ca:	8b 4d e0             	mov    -0x20(%ebp),%ecx
  4034cd:	f7 d1                	not    %ecx
  4034cf:	89 cb                	mov    %ecx,%ebx
  4034d1:	8b 4d e4             	mov    -0x1c(%ebp),%ecx
  4034d4:	f7 d1                	not    %ecx
  4034d6:	89 ce                	mov    %ecx,%esi
  4034d8:	89 c1                	mov    %eax,%ecx
  4034da:	21 d9                	and    %ebx,%ecx
  4034dc:	89 4d d0             	mov    %ecx,-0x30(%ebp)
  4034df:	89 d0                	mov    %edx,%eax
  4034e1:	21 f0                	and    %esi,%eax
  4034e3:	89 45 d4             	mov    %eax,-0x2c(%ebp)
  4034e6:	e9 22 01 00 00       	jmp    40360d <_getKingMoves+0x1e2>
  4034eb:	8b 45 d0             	mov    -0x30(%ebp),%eax
  4034ee:	8b 55 d4             	mov    -0x2c(%ebp),%edx
  4034f1:	89 04 24             	mov    %eax,(%esp)
  4034f4:	89 54 24 04          	mov    %edx,0x4(%esp)
  4034f8:	e8 98 df ff ff       	call   401495 <_getLSB>
  4034fd:	89 45 c8             	mov    %eax,-0x38(%ebp)
  403500:	c7 04 24 30 00 00 00 	movl   $0x30,(%esp)
  403507:	e8 0c 8c 00 00       	call   40c118 <_malloc>
  40350c:	89 45 c4             	mov    %eax,-0x3c(%ebp)
  40350f:	8b 45 c4             	mov    -0x3c(%ebp),%eax
  403512:	8b 55 14             	mov    0x14(%ebp),%edx
  403515:	89 10                	mov    %edx,(%eax)
  403517:	8b 45 c4             	mov    -0x3c(%ebp),%eax
  40351a:	8b 55 cc             	mov    -0x34(%ebp),%edx
  40351d:	89 50 04             	mov    %edx,0x4(%eax)
  403520:	8b 45 c4             	mov    -0x3c(%ebp),%eax
  403523:	8b 55 c8             	mov    -0x38(%ebp),%edx
  403526:	89 50 08             	mov    %edx,0x8(%eax)
  403529:	8b 4d c4             	mov    -0x3c(%ebp),%ecx
  40352c:	8b 45 e0             	mov    -0x20(%ebp),%eax
  40352f:	8b 55 e4             	mov    -0x1c(%ebp),%edx
  403532:	89 41 10             	mov    %eax,0x10(%ecx)
  403535:	89 51 14             	mov    %edx,0x14(%ecx)
  403538:	8b 4d c4             	mov    -0x3c(%ebp),%ecx
  40353b:	8b 45 d8             	mov    -0x28(%ebp),%eax
  40353e:	8b 55 dc             	mov    -0x24(%ebp),%edx
  403541:	89 41 18             	mov    %eax,0x18(%ecx)
  403544:	89 51 1c             	mov    %edx,0x1c(%ecx)
  403547:	8b 45 08             	mov    0x8(%ebp),%eax
  40354a:	89 44 24 04          	mov    %eax,0x4(%esp)
  40354e:	8b 45 c8             	mov    -0x38(%ebp),%eax
  403551:	89 04 24             	mov    %eax,(%esp)
  403554:	e8 a6 df ff ff       	call   4014ff <_getSquare>
  403559:	8b 55 c4             	mov    -0x3c(%ebp),%edx
  40355c:	89 42 20             	mov    %eax,0x20(%edx)
  40355f:	8b 15 14 d1 40 00    	mov    0x40d114,%edx
  403565:	8b 45 c4             	mov    -0x3c(%ebp),%eax
  403568:	89 50 24             	mov    %edx,0x24(%eax)
  40356b:	8b 45 08             	mov    0x8(%ebp),%eax
  40356e:	8b 55 14             	mov    0x14(%ebp),%edx
  403571:	83 c2 0c             	add    $0xc,%edx
  403574:	8b 44 d0 0c          	mov    0xc(%eax,%edx,8),%eax
  403578:	85 c0                	test   %eax,%eax
  40357a:	74 2a                	je     4035a6 <_getKingMoves+0x17b>
  40357c:	8b 45 08             	mov    0x8(%ebp),%eax
  40357f:	8b 55 14             	mov    0x14(%ebp),%edx
  403582:	8b 44 d0 70          	mov    0x70(%eax,%edx,8),%eax
  403586:	85 c0                	test   %eax,%eax
  403588:	74 0e                	je     403598 <_getKingMoves+0x16d>
  40358a:	8b 15 ec d7 40 00    	mov    0x40d7ec,%edx
  403590:	8b 45 c4             	mov    -0x3c(%ebp),%eax
  403593:	89 50 28             	mov    %edx,0x28(%eax)
  403596:	eb 36                	jmp    4035ce <_getKingMoves+0x1a3>
  403598:	8b 15 e4 d7 40 00    	mov    0x40d7e4,%edx
  40359e:	8b 45 c4             	mov    -0x3c(%ebp),%eax
  4035a1:	89 50 28             	mov    %edx,0x28(%eax)
  4035a4:	eb 28                	jmp    4035ce <_getKingMoves+0x1a3>
  4035a6:	8b 45 08             	mov    0x8(%ebp),%eax
  4035a9:	8b 55 14             	mov    0x14(%ebp),%edx
  4035ac:	8b 44 d0 70          	mov    0x70(%eax,%edx,8),%eax
  4035b0:	85 c0                	test   %eax,%eax
  4035b2:	74 0e                	je     4035c2 <_getKingMoves+0x197>
  4035b4:	8b 15 e8 d7 40 00    	mov    0x40d7e8,%edx
  4035ba:	8b 45 c4             	mov    -0x3c(%ebp),%eax
  4035bd:	89 50 28             	mov    %edx,0x28(%eax)
  4035c0:	eb 0c                	jmp    4035ce <_getKingMoves+0x1a3>
  4035c2:	8b 15 28 10 41 00    	mov    0x411028,%edx
  4035c8:	8b 45 c4             	mov    -0x3c(%ebp),%eax
  4035cb:	89 50 28             	mov    %edx,0x28(%eax)
  4035ce:	8b 45 10             	mov    0x10(%ebp),%eax
  4035d1:	8b 00                	mov    (%eax),%eax
  4035d3:	8d 48 01             	lea    0x1(%eax),%ecx
  4035d6:	8b 55 10             	mov    0x10(%ebp),%edx
  4035d9:	89 0a                	mov    %ecx,(%edx)
  4035db:	8d 14 85 00 00 00 00 	lea    0x0(,%eax,4),%edx
  4035e2:	8b 45 0c             	mov    0xc(%ebp),%eax
  4035e5:	01 c2                	add    %eax,%edx
  4035e7:	8b 45 c4             	mov    -0x3c(%ebp),%eax
  4035ea:	89 02                	mov    %eax,(%edx)
  4035ec:	8b 4d c8             	mov    -0x38(%ebp),%ecx
  4035ef:	b8 01 00 00 00       	mov    $0x1,%eax
  4035f4:	ba 00 00 00 00       	mov    $0x0,%edx
  4035f9:	0f a5 c2             	shld   %cl,%eax,%edx
  4035fc:	d3 e0                	shl    %cl,%eax
  4035fe:	f6 c1 20             	test   $0x20,%cl
  403601:	74 04                	je     403607 <_getKingMoves+0x1dc>
  403603:	89 c2                	mov    %eax,%edx
  403605:	31 c0                	xor    %eax,%eax
  403607:	31 45 d0             	xor    %eax,-0x30(%ebp)
  40360a:	31 55 d4             	xor    %edx,-0x2c(%ebp)
  40360d:	8b 45 d0             	mov    -0x30(%ebp),%eax
  403610:	8b 55 d4             	mov    -0x2c(%ebp),%edx
  403613:	09 d0                	or     %edx,%eax
  403615:	85 c0                	test   %eax,%eax
  403617:	0f 85 ce fe ff ff    	jne    4034eb <_getKingMoves+0xc0>
  40361d:	83 c4 4c             	add    $0x4c,%esp
  403620:	5b                   	pop    %ebx
  403621:	5e                   	pop    %esi
  403622:	5f                   	pop    %edi
  403623:	5d                   	pop    %ebp
  403624:	c3                   	ret    

00403625 <_getPawnMoves>:
  403625:	55                   	push   %ebp
  403626:	89 e5                	mov    %esp,%ebp
  403628:	57                   	push   %edi
  403629:	56                   	push   %esi
  40362a:	53                   	push   %ebx
  40362b:	81 ec 7c 01 00 00    	sub    $0x17c,%esp
  403631:	a1 20 10 41 00       	mov    0x411020,%eax
  403636:	39 45 14             	cmp    %eax,0x14(%ebp)
  403639:	75 34                	jne    40366f <_getPawnMoves+0x4a>
  40363b:	8b 45 08             	mov    0x8(%ebp),%eax
  40363e:	8b 50 04             	mov    0x4(%eax),%edx
  403641:	8b 00                	mov    (%eax),%eax
  403643:	89 45 d0             	mov    %eax,-0x30(%ebp)
  403646:	89 55 d4             	mov    %edx,-0x2c(%ebp)
  403649:	8b 45 08             	mov    0x8(%ebp),%eax
  40364c:	8b 50 0c             	mov    0xc(%eax),%edx
  40364f:	8b 40 08             	mov    0x8(%eax),%eax
  403652:	89 45 c8             	mov    %eax,-0x38(%ebp)
  403655:	89 55 cc             	mov    %edx,-0x34(%ebp)
  403658:	c7 45 e0 08 00 00 00 	movl   $0x8,-0x20(%ebp)
  40365f:	c7 45 dc 07 00 00 00 	movl   $0x7,-0x24(%ebp)
  403666:	c7 45 d8 09 00 00 00 	movl   $0x9,-0x28(%ebp)
  40366d:	eb 3c                	jmp    4036ab <_getPawnMoves+0x86>
  40366f:	a1 00 d1 40 00       	mov    0x40d100,%eax
  403674:	39 45 14             	cmp    %eax,0x14(%ebp)
  403677:	75 32                	jne    4036ab <_getPawnMoves+0x86>
  403679:	8b 45 08             	mov    0x8(%ebp),%eax
  40367c:	8b 50 0c             	mov    0xc(%eax),%edx
  40367f:	8b 40 08             	mov    0x8(%eax),%eax
  403682:	89 45 d0             	mov    %eax,-0x30(%ebp)
  403685:	89 55 d4             	mov    %edx,-0x2c(%ebp)
  403688:	8b 45 08             	mov    0x8(%ebp),%eax
  40368b:	8b 50 04             	mov    0x4(%eax),%edx
  40368e:	8b 00                	mov    (%eax),%eax
  403690:	89 45 c8             	mov    %eax,-0x38(%ebp)
  403693:	89 55 cc             	mov    %edx,-0x34(%ebp)
  403696:	c7 45 e0 f8 ff ff ff 	movl   $0xfffffff8,-0x20(%ebp)
  40369d:	c7 45 dc f9 ff ff ff 	movl   $0xfffffff9,-0x24(%ebp)
  4036a4:	c7 45 d8 f7 ff ff ff 	movl   $0xfffffff7,-0x28(%ebp)
  4036ab:	8b 45 08             	mov    0x8(%ebp),%eax
  4036ae:	8b 50 3c             	mov    0x3c(%eax),%edx
  4036b1:	8b 40 38             	mov    0x38(%eax),%eax
  4036b4:	89 c1                	mov    %eax,%ecx
  4036b6:	23 4d d0             	and    -0x30(%ebp),%ecx
  4036b9:	89 4d 88             	mov    %ecx,-0x78(%ebp)
  4036bc:	89 d0                	mov    %edx,%eax
  4036be:	23 45 d4             	and    -0x2c(%ebp),%eax
  4036c1:	89 45 8c             	mov    %eax,-0x74(%ebp)
  4036c4:	a1 f8 d7 40 00       	mov    0x40d7f8,%eax
  4036c9:	89 85 40 ff ff ff    	mov    %eax,-0xc0(%ebp)
  4036cf:	a1 fc d7 40 00       	mov    0x40d7fc,%eax
  4036d4:	89 85 44 ff ff ff    	mov    %eax,-0xbc(%ebp)
  4036da:	a1 00 d8 40 00       	mov    0x40d800,%eax
  4036df:	89 85 48 ff ff ff    	mov    %eax,-0xb8(%ebp)
  4036e5:	a1 04 d8 40 00       	mov    0x40d804,%eax
  4036ea:	89 85 4c ff ff ff    	mov    %eax,-0xb4(%ebp)
  4036f0:	a1 20 10 41 00       	mov    0x411020,%eax
  4036f5:	39 45 14             	cmp    %eax,0x14(%ebp)
  4036f8:	0f 85 a6 02 00 00    	jne    4039a4 <_getPawnMoves+0x37f>
  4036fe:	8b 45 88             	mov    -0x78(%ebp),%eax
  403701:	8b 55 8c             	mov    -0x74(%ebp),%edx
  403704:	0f a4 c2 08          	shld   $0x8,%eax,%edx
  403708:	c1 e0 08             	shl    $0x8,%eax
  40370b:	89 c1                	mov    %eax,%ecx
  40370d:	89 d3                	mov    %edx,%ebx
  40370f:	8b 55 c8             	mov    -0x38(%ebp),%edx
  403712:	8b 45 d0             	mov    -0x30(%ebp),%eax
  403715:	09 d0                	or     %edx,%eax
  403717:	89 c6                	mov    %eax,%esi
  403719:	8b 55 cc             	mov    -0x34(%ebp),%edx
  40371c:	8b 45 d4             	mov    -0x2c(%ebp),%eax
  40371f:	09 d0                	or     %edx,%eax
  403721:	89 c7                	mov    %eax,%edi
  403723:	89 f0                	mov    %esi,%eax
  403725:	f7 d0                	not    %eax
  403727:	89 85 30 ff ff ff    	mov    %eax,-0xd0(%ebp)
  40372d:	89 f8                	mov    %edi,%eax
  40372f:	f7 d0                	not    %eax
  403731:	89 85 34 ff ff ff    	mov    %eax,-0xcc(%ebp)
  403737:	8b b5 30 ff ff ff    	mov    -0xd0(%ebp),%esi
  40373d:	8b bd 34 ff ff ff    	mov    -0xcc(%ebp),%edi
  403743:	89 f0                	mov    %esi,%eax
  403745:	21 c8                	and    %ecx,%eax
  403747:	89 45 c0             	mov    %eax,-0x40(%ebp)
  40374a:	89 f8                	mov    %edi,%eax
  40374c:	21 d8                	and    %ebx,%eax
  40374e:	89 45 c4             	mov    %eax,-0x3c(%ebp)
  403751:	a1 60 d1 40 00       	mov    0x40d160,%eax
  403756:	8b 15 64 d1 40 00    	mov    0x40d164,%edx
  40375c:	89 c1                	mov    %eax,%ecx
  40375e:	23 4d c0             	and    -0x40(%ebp),%ecx
  403761:	89 4d b8             	mov    %ecx,-0x48(%ebp)
  403764:	89 d0                	mov    %edx,%eax
  403766:	23 45 c4             	and    -0x3c(%ebp),%eax
  403769:	89 45 bc             	mov    %eax,-0x44(%ebp)
  40376c:	a1 60 d1 40 00       	mov    0x40d160,%eax
  403771:	8b 15 64 d1 40 00    	mov    0x40d164,%edx
  403777:	89 c3                	mov    %eax,%ebx
  403779:	f7 d3                	not    %ebx
  40377b:	89 9d 28 ff ff ff    	mov    %ebx,-0xd8(%ebp)
  403781:	89 d0                	mov    %edx,%eax
  403783:	f7 d0                	not    %eax
  403785:	89 85 2c ff ff ff    	mov    %eax,-0xd4(%ebp)
  40378b:	8b 85 28 ff ff ff    	mov    -0xd8(%ebp),%eax
  403791:	8b 95 2c ff ff ff    	mov    -0xd4(%ebp),%edx
  403797:	89 c3                	mov    %eax,%ebx
  403799:	21 5d c0             	and    %ebx,-0x40(%ebp)
  40379c:	89 d0                	mov    %edx,%eax
  40379e:	21 45 c4             	and    %eax,-0x3c(%ebp)
  4037a1:	a1 88 d1 40 00       	mov    0x40d188,%eax
  4037a6:	8b 15 8c d1 40 00    	mov    0x40d18c,%edx
  4037ac:	89 c7                	mov    %eax,%edi
  4037ae:	23 7d c0             	and    -0x40(%ebp),%edi
  4037b1:	89 bd 20 ff ff ff    	mov    %edi,-0xe0(%ebp)
  4037b7:	89 d0                	mov    %edx,%eax
  4037b9:	23 45 c4             	and    -0x3c(%ebp),%eax
  4037bc:	89 85 24 ff ff ff    	mov    %eax,-0xdc(%ebp)
  4037c2:	8b 8d 20 ff ff ff    	mov    -0xe0(%ebp),%ecx
  4037c8:	8b 9d 24 ff ff ff    	mov    -0xdc(%ebp),%ebx
  4037ce:	0f a4 cb 08          	shld   $0x8,%ecx,%ebx
  4037d2:	c1 e1 08             	shl    $0x8,%ecx
  4037d5:	8b 55 c8             	mov    -0x38(%ebp),%edx
  4037d8:	8b 45 d0             	mov    -0x30(%ebp),%eax
  4037db:	09 d0                	or     %edx,%eax
  4037dd:	89 85 18 ff ff ff    	mov    %eax,-0xe8(%ebp)
  4037e3:	8b 55 cc             	mov    -0x34(%ebp),%edx
  4037e6:	8b 45 d4             	mov    -0x2c(%ebp),%eax
  4037e9:	09 d0                	or     %edx,%eax
  4037eb:	89 85 1c ff ff ff    	mov    %eax,-0xe4(%ebp)
  4037f1:	8b 85 18 ff ff ff    	mov    -0xe8(%ebp),%eax
  4037f7:	8b 95 1c ff ff ff    	mov    -0xe4(%ebp),%edx
  4037fd:	89 c7                	mov    %eax,%edi
  4037ff:	f7 d7                	not    %edi
  403801:	89 bd 10 ff ff ff    	mov    %edi,-0xf0(%ebp)
  403807:	89 d0                	mov    %edx,%eax
  403809:	f7 d0                	not    %eax
  40380b:	89 85 14 ff ff ff    	mov    %eax,-0xec(%ebp)
  403811:	8b b5 10 ff ff ff    	mov    -0xf0(%ebp),%esi
  403817:	8b bd 14 ff ff ff    	mov    -0xec(%ebp),%edi
  40381d:	89 f0                	mov    %esi,%eax
  40381f:	21 c8                	and    %ecx,%eax
  403821:	89 45 b0             	mov    %eax,-0x50(%ebp)
  403824:	89 f8                	mov    %edi,%eax
  403826:	21 d8                	and    %ebx,%eax
  403828:	89 45 b4             	mov    %eax,-0x4c(%ebp)
  40382b:	8b 45 88             	mov    -0x78(%ebp),%eax
  40382e:	8b 55 8c             	mov    -0x74(%ebp),%edx
  403831:	0f a4 c2 07          	shld   $0x7,%eax,%edx
  403835:	c1 e0 07             	shl    $0x7,%eax
  403838:	89 c1                	mov    %eax,%ecx
  40383a:	89 d3                	mov    %edx,%ebx
  40383c:	a1 a0 d1 40 00       	mov    0x40d1a0,%eax
  403841:	8b 15 a4 d1 40 00    	mov    0x40d1a4,%edx
  403847:	89 c7                	mov    %eax,%edi
  403849:	f7 d7                	not    %edi
  40384b:	89 bd 08 ff ff ff    	mov    %edi,-0xf8(%ebp)
  403851:	89 d0                	mov    %edx,%eax
  403853:	f7 d0                	not    %eax
  403855:	89 85 0c ff ff ff    	mov    %eax,-0xf4(%ebp)
  40385b:	8b 85 08 ff ff ff    	mov    -0xf8(%ebp),%eax
  403861:	8b 95 0c ff ff ff    	mov    -0xf4(%ebp),%edx
  403867:	89 c7                	mov    %eax,%edi
  403869:	21 cf                	and    %ecx,%edi
  40386b:	89 bd 00 ff ff ff    	mov    %edi,-0x100(%ebp)
  403871:	21 d3                	and    %edx,%ebx
  403873:	89 9d 04 ff ff ff    	mov    %ebx,-0xfc(%ebp)
  403879:	8b 9d 00 ff ff ff    	mov    -0x100(%ebp),%ebx
  40387f:	8b b5 04 ff ff ff    	mov    -0xfc(%ebp),%esi
  403885:	89 d8                	mov    %ebx,%eax
  403887:	23 45 c8             	and    -0x38(%ebp),%eax
  40388a:	89 45 a8             	mov    %eax,-0x58(%ebp)
  40388d:	89 f0                	mov    %esi,%eax
  40388f:	23 45 cc             	and    -0x34(%ebp),%eax
  403892:	89 45 ac             	mov    %eax,-0x54(%ebp)
  403895:	a1 60 d1 40 00       	mov    0x40d160,%eax
  40389a:	8b 15 64 d1 40 00    	mov    0x40d164,%edx
  4038a0:	89 c1                	mov    %eax,%ecx
  4038a2:	23 4d a8             	and    -0x58(%ebp),%ecx
  4038a5:	89 4d a0             	mov    %ecx,-0x60(%ebp)
  4038a8:	89 d0                	mov    %edx,%eax
  4038aa:	23 45 ac             	and    -0x54(%ebp),%eax
  4038ad:	89 45 a4             	mov    %eax,-0x5c(%ebp)
  4038b0:	a1 60 d1 40 00       	mov    0x40d160,%eax
  4038b5:	8b 15 64 d1 40 00    	mov    0x40d164,%edx
  4038bb:	89 c3                	mov    %eax,%ebx
  4038bd:	f7 d3                	not    %ebx
  4038bf:	89 9d f8 fe ff ff    	mov    %ebx,-0x108(%ebp)
  4038c5:	89 d0                	mov    %edx,%eax
  4038c7:	f7 d0                	not    %eax
  4038c9:	89 85 fc fe ff ff    	mov    %eax,-0x104(%ebp)
  4038cf:	8b 85 f8 fe ff ff    	mov    -0x108(%ebp),%eax
  4038d5:	8b 95 fc fe ff ff    	mov    -0x104(%ebp),%edx
  4038db:	89 c7                	mov    %eax,%edi
  4038dd:	21 7d a8             	and    %edi,-0x58(%ebp)
  4038e0:	89 d0                	mov    %edx,%eax
  4038e2:	21 45 ac             	and    %eax,-0x54(%ebp)
  4038e5:	8b 45 88             	mov    -0x78(%ebp),%eax
  4038e8:	8b 55 8c             	mov    -0x74(%ebp),%edx
  4038eb:	0f a4 c2 09          	shld   $0x9,%eax,%edx
  4038ef:	c1 e0 09             	shl    $0x9,%eax
  4038f2:	89 c1                	mov    %eax,%ecx
  4038f4:	89 d3                	mov    %edx,%ebx
  4038f6:	a1 d8 d1 40 00       	mov    0x40d1d8,%eax
  4038fb:	8b 15 dc d1 40 00    	mov    0x40d1dc,%edx
  403901:	89 c7                	mov    %eax,%edi
  403903:	f7 d7                	not    %edi
  403905:	89 bd f0 fe ff ff    	mov    %edi,-0x110(%ebp)
  40390b:	89 d0                	mov    %edx,%eax
  40390d:	f7 d0                	not    %eax
  40390f:	89 85 f4 fe ff ff    	mov    %eax,-0x10c(%ebp)
  403915:	8b 85 f0 fe ff ff    	mov    -0x110(%ebp),%eax
  40391b:	8b 95 f4 fe ff ff    	mov    -0x10c(%ebp),%edx
  403921:	89 c6                	mov    %eax,%esi
  403923:	21 ce                	and    %ecx,%esi
  403925:	89 b5 e8 fe ff ff    	mov    %esi,-0x118(%ebp)
  40392b:	21 d3                	and    %edx,%ebx
  40392d:	89 9d ec fe ff ff    	mov    %ebx,-0x114(%ebp)
  403933:	8b b5 e8 fe ff ff    	mov    -0x118(%ebp),%esi
  403939:	8b bd ec fe ff ff    	mov    -0x114(%ebp),%edi
  40393f:	89 f0                	mov    %esi,%eax
  403941:	23 45 c8             	and    -0x38(%ebp),%eax
  403944:	89 45 98             	mov    %eax,-0x68(%ebp)
  403947:	89 f8                	mov    %edi,%eax
  403949:	23 45 cc             	and    -0x34(%ebp),%eax
  40394c:	89 45 9c             	mov    %eax,-0x64(%ebp)
  40394f:	a1 60 d1 40 00       	mov    0x40d160,%eax
  403954:	8b 15 64 d1 40 00    	mov    0x40d164,%edx
  40395a:	89 c1                	mov    %eax,%ecx
  40395c:	23 4d 98             	and    -0x68(%ebp),%ecx
  40395f:	89 4d 90             	mov    %ecx,-0x70(%ebp)
  403962:	89 d0                	mov    %edx,%eax
  403964:	23 45 9c             	and    -0x64(%ebp),%eax
  403967:	89 45 94             	mov    %eax,-0x6c(%ebp)
  40396a:	a1 60 d1 40 00       	mov    0x40d160,%eax
  40396f:	8b 15 64 d1 40 00    	mov    0x40d164,%edx
  403975:	89 c3                	mov    %eax,%ebx
  403977:	f7 d3                	not    %ebx
  403979:	89 9d e0 fe ff ff    	mov    %ebx,-0x120(%ebp)
  40397f:	89 d0                	mov    %edx,%eax
  403981:	f7 d0                	not    %eax
  403983:	89 85 e4 fe ff ff    	mov    %eax,-0x11c(%ebp)
  403989:	8b 85 e0 fe ff ff    	mov    -0x120(%ebp),%eax
  40398f:	8b 95 e4 fe ff ff    	mov    -0x11c(%ebp),%edx
  403995:	89 c6                	mov    %eax,%esi
  403997:	21 75 98             	and    %esi,-0x68(%ebp)
  40399a:	89 d0                	mov    %edx,%eax
  40399c:	21 45 9c             	and    %eax,-0x64(%ebp)
  40399f:	e9 c8 02 00 00       	jmp    403c6c <_getPawnMoves+0x647>
  4039a4:	a1 00 d1 40 00       	mov    0x40d100,%eax
  4039a9:	39 45 14             	cmp    %eax,0x14(%ebp)
  4039ac:	0f 85 ba 02 00 00    	jne    403c6c <_getPawnMoves+0x647>
  4039b2:	8b 45 88             	mov    -0x78(%ebp),%eax
  4039b5:	8b 55 8c             	mov    -0x74(%ebp),%edx
  4039b8:	0f ac d0 08          	shrd   $0x8,%edx,%eax
  4039bc:	c1 ea 08             	shr    $0x8,%edx
  4039bf:	89 c1                	mov    %eax,%ecx
  4039c1:	89 d3                	mov    %edx,%ebx
  4039c3:	8b 55 c8             	mov    -0x38(%ebp),%edx
  4039c6:	8b 45 d0             	mov    -0x30(%ebp),%eax
  4039c9:	09 d0                	or     %edx,%eax
  4039cb:	89 85 d8 fe ff ff    	mov    %eax,-0x128(%ebp)
  4039d1:	8b 55 cc             	mov    -0x34(%ebp),%edx
  4039d4:	8b 45 d4             	mov    -0x2c(%ebp),%eax
  4039d7:	09 d0                	or     %edx,%eax
  4039d9:	89 85 dc fe ff ff    	mov    %eax,-0x124(%ebp)
  4039df:	8b 85 d8 fe ff ff    	mov    -0x128(%ebp),%eax
  4039e5:	8b 95 dc fe ff ff    	mov    -0x124(%ebp),%edx
  4039eb:	89 c7                	mov    %eax,%edi
  4039ed:	f7 d7                	not    %edi
  4039ef:	89 bd d0 fe ff ff    	mov    %edi,-0x130(%ebp)
  4039f5:	89 d0                	mov    %edx,%eax
  4039f7:	f7 d0                	not    %eax
  4039f9:	89 85 d4 fe ff ff    	mov    %eax,-0x12c(%ebp)
  4039ff:	8b b5 d0 fe ff ff    	mov    -0x130(%ebp),%esi
  403a05:	8b bd d4 fe ff ff    	mov    -0x12c(%ebp),%edi
  403a0b:	89 f0                	mov    %esi,%eax
  403a0d:	21 c8                	and    %ecx,%eax
  403a0f:	89 45 c0             	mov    %eax,-0x40(%ebp)
  403a12:	89 f8                	mov    %edi,%eax
  403a14:	21 d8                	and    %ebx,%eax
  403a16:	89 45 c4             	mov    %eax,-0x3c(%ebp)
  403a19:	a1 98 d1 40 00       	mov    0x40d198,%eax
  403a1e:	8b 15 9c d1 40 00    	mov    0x40d19c,%edx
  403a24:	89 c1                	mov    %eax,%ecx
  403a26:	23 4d c0             	and    -0x40(%ebp),%ecx
  403a29:	89 4d b8             	mov    %ecx,-0x48(%ebp)
  403a2c:	89 d0                	mov    %edx,%eax
  403a2e:	23 45 c4             	and    -0x3c(%ebp),%eax
  403a31:	89 45 bc             	mov    %eax,-0x44(%ebp)
  403a34:	a1 98 d1 40 00       	mov    0x40d198,%eax
  403a39:	8b 15 9c d1 40 00    	mov    0x40d19c,%edx
  403a3f:	89 c3                	mov    %eax,%ebx
  403a41:	f7 d3                	not    %ebx
  403a43:	89 9d c8 fe ff ff    	mov    %ebx,-0x138(%ebp)
  403a49:	89 d0                	mov    %edx,%eax
  403a4b:	f7 d0                	not    %eax
  403a4d:	89 85 cc fe ff ff    	mov    %eax,-0x134(%ebp)
  403a53:	8b 85 c8 fe ff ff    	mov    -0x138(%ebp),%eax
  403a59:	8b 95 cc fe ff ff    	mov    -0x134(%ebp),%edx
  403a5f:	89 c3                	mov    %eax,%ebx
  403a61:	21 5d c0             	and    %ebx,-0x40(%ebp)
  403a64:	89 d0                	mov    %edx,%eax
  403a66:	21 45 c4             	and    %eax,-0x3c(%ebp)
  403a69:	a1 70 d1 40 00       	mov    0x40d170,%eax
  403a6e:	8b 15 74 d1 40 00    	mov    0x40d174,%edx
  403a74:	89 c6                	mov    %eax,%esi
  403a76:	23 75 c0             	and    -0x40(%ebp),%esi
  403a79:	89 b5 c0 fe ff ff    	mov    %esi,-0x140(%ebp)
  403a7f:	89 d0                	mov    %edx,%eax
  403a81:	23 45 c4             	and    -0x3c(%ebp),%eax
  403a84:	89 85 c4 fe ff ff    	mov    %eax,-0x13c(%ebp)
  403a8a:	8b 8d c0 fe ff ff    	mov    -0x140(%ebp),%ecx
  403a90:	8b 9d c4 fe ff ff    	mov    -0x13c(%ebp),%ebx
  403a96:	0f ac d9 08          	shrd   $0x8,%ebx,%ecx
  403a9a:	c1 eb 08             	shr    $0x8,%ebx
  403a9d:	8b 55 c8             	mov    -0x38(%ebp),%edx
  403aa0:	8b 45 d0             	mov    -0x30(%ebp),%eax
  403aa3:	09 d0                	or     %edx,%eax
  403aa5:	89 85 b8 fe ff ff    	mov    %eax,-0x148(%ebp)
  403aab:	8b 55 cc             	mov    -0x34(%ebp),%edx
  403aae:	8b 45 d4             	mov    -0x2c(%ebp),%eax
  403ab1:	09 d0                	or     %edx,%eax
  403ab3:	89 85 bc fe ff ff    	mov    %eax,-0x144(%ebp)
  403ab9:	8b 85 b8 fe ff ff    	mov    -0x148(%ebp),%eax
  403abf:	8b 95 bc fe ff ff    	mov    -0x144(%ebp),%edx
  403ac5:	89 c7                	mov    %eax,%edi
  403ac7:	f7 d7                	not    %edi
  403ac9:	89 bd b0 fe ff ff    	mov    %edi,-0x150(%ebp)
  403acf:	89 d0                	mov    %edx,%eax
  403ad1:	f7 d0                	not    %eax
  403ad3:	89 85 b4 fe ff ff    	mov    %eax,-0x14c(%ebp)
  403ad9:	8b b5 b0 fe ff ff    	mov    -0x150(%ebp),%esi
  403adf:	8b bd b4 fe ff ff    	mov    -0x14c(%ebp),%edi
  403ae5:	89 f0                	mov    %esi,%eax
  403ae7:	21 c8                	and    %ecx,%eax
  403ae9:	89 45 b0             	mov    %eax,-0x50(%ebp)
  403aec:	89 f8                	mov    %edi,%eax
  403aee:	21 d8                	and    %ebx,%eax
  403af0:	89 45 b4             	mov    %eax,-0x4c(%ebp)
  403af3:	8b 45 88             	mov    -0x78(%ebp),%eax
  403af6:	8b 55 8c             	mov    -0x74(%ebp),%edx
  403af9:	0f ac d0 07          	shrd   $0x7,%edx,%eax
  403afd:	c1 ea 07             	shr    $0x7,%edx
  403b00:	89 c1                	mov    %eax,%ecx
  403b02:	89 d3                	mov    %edx,%ebx
  403b04:	a1 d8 d1 40 00       	mov    0x40d1d8,%eax
  403b09:	8b 15 dc d1 40 00    	mov    0x40d1dc,%edx
  403b0f:	89 c6                	mov    %eax,%esi
  403b11:	f7 d6                	not    %esi
  403b13:	89 b5 a8 fe ff ff    	mov    %esi,-0x158(%ebp)
  403b19:	89 d0                	mov    %edx,%eax
  403b1b:	f7 d0                	not    %eax
  403b1d:	89 85 ac fe ff ff    	mov    %eax,-0x154(%ebp)
  403b23:	8b 85 a8 fe ff ff    	mov    -0x158(%ebp),%eax
  403b29:	8b 95 ac fe ff ff    	mov    -0x154(%ebp),%edx
  403b2f:	89 c7                	mov    %eax,%edi
  403b31:	21 cf                	and    %ecx,%edi
  403b33:	89 bd a0 fe ff ff    	mov    %edi,-0x160(%ebp)
  403b39:	21 d3                	and    %edx,%ebx
  403b3b:	89 9d a4 fe ff ff    	mov    %ebx,-0x15c(%ebp)
  403b41:	8b 9d a0 fe ff ff    	mov    -0x160(%ebp),%ebx
  403b47:	8b b5 a4 fe ff ff    	mov    -0x15c(%ebp),%esi
  403b4d:	89 d8                	mov    %ebx,%eax
  403b4f:	23 45 c8             	and    -0x38(%ebp),%eax
  403b52:	89 45 a8             	mov    %eax,-0x58(%ebp)
  403b55:	89 f0                	mov    %esi,%eax
  403b57:	23 45 cc             	and    -0x34(%ebp),%eax
  403b5a:	89 45 ac             	mov    %eax,-0x54(%ebp)
  403b5d:	a1 98 d1 40 00       	mov    0x40d198,%eax
  403b62:	8b 15 9c d1 40 00    	mov    0x40d19c,%edx
  403b68:	89 c1                	mov    %eax,%ecx
  403b6a:	23 4d a8             	and    -0x58(%ebp),%ecx
  403b6d:	89 4d a0             	mov    %ecx,-0x60(%ebp)
  403b70:	89 d0                	mov    %edx,%eax
  403b72:	23 45 ac             	and    -0x54(%ebp),%eax
  403b75:	89 45 a4             	mov    %eax,-0x5c(%ebp)
  403b78:	a1 98 d1 40 00       	mov    0x40d198,%eax
  403b7d:	8b 15 9c d1 40 00    	mov    0x40d19c,%edx
  403b83:	89 c3                	mov    %eax,%ebx
  403b85:	f7 d3                	not    %ebx
  403b87:	89 9d 98 fe ff ff    	mov    %ebx,-0x168(%ebp)
  403b8d:	89 d0                	mov    %edx,%eax
  403b8f:	f7 d0                	not    %eax
  403b91:	89 85 9c fe ff ff    	mov    %eax,-0x164(%ebp)
  403b97:	8b 85 98 fe ff ff    	mov    -0x168(%ebp),%eax
  403b9d:	8b 95 9c fe ff ff    	mov    -0x164(%ebp),%edx
  403ba3:	89 c7                	mov    %eax,%edi
  403ba5:	21 7d a8             	and    %edi,-0x58(%ebp)
  403ba8:	89 d0                	mov    %edx,%eax
  403baa:	21 45 ac             	and    %eax,-0x54(%ebp)
  403bad:	8b 45 88             	mov    -0x78(%ebp),%eax
  403bb0:	8b 55 8c             	mov    -0x74(%ebp),%edx
  403bb3:	0f ac d0 09          	shrd   $0x9,%edx,%eax
  403bb7:	c1 ea 09             	shr    $0x9,%edx
  403bba:	89 c1                	mov    %eax,%ecx
  403bbc:	89 d3                	mov    %edx,%ebx
  403bbe:	a1 a0 d1 40 00       	mov    0x40d1a0,%eax
  403bc3:	8b 15 a4 d1 40 00    	mov    0x40d1a4,%edx
  403bc9:	89 c6                	mov    %eax,%esi
  403bcb:	f7 d6                	not    %esi
  403bcd:	89 b5 90 fe ff ff    	mov    %esi,-0x170(%ebp)
  403bd3:	89 d0                	mov    %edx,%eax
  403bd5:	f7 d0                	not    %eax
  403bd7:	89 85 94 fe ff ff    	mov    %eax,-0x16c(%ebp)
  403bdd:	8b 85 90 fe ff ff    	mov    -0x170(%ebp),%eax
  403be3:	8b 95 94 fe ff ff    	mov    -0x16c(%ebp),%edx
  403be9:	89 c7                	mov    %eax,%edi
  403beb:	21 cf                	and    %ecx,%edi
  403bed:	89 bd 88 fe ff ff    	mov    %edi,-0x178(%ebp)
  403bf3:	21 d3                	and    %edx,%ebx
  403bf5:	89 9d 8c fe ff ff    	mov    %ebx,-0x174(%ebp)
  403bfb:	8b 9d 88 fe ff ff    	mov    -0x178(%ebp),%ebx
  403c01:	8b b5 8c fe ff ff    	mov    -0x174(%ebp),%esi
  403c07:	89 d8                	mov    %ebx,%eax
  403c09:	23 45 c8             	and    -0x38(%ebp),%eax
  403c0c:	89 45 98             	mov    %eax,-0x68(%ebp)
  403c0f:	89 f0                	mov    %esi,%eax
  403c11:	23 45 cc             	and    -0x34(%ebp),%eax
  403c14:	89 45 9c             	mov    %eax,-0x64(%ebp)
  403c17:	a1 98 d1 40 00       	mov    0x40d198,%eax
  403c1c:	8b 15 9c d1 40 00    	mov    0x40d19c,%edx
  403c22:	89 c1                	mov    %eax,%ecx
  403c24:	23 4d 98             	and    -0x68(%ebp),%ecx
  403c27:	89 4d 90             	mov    %ecx,-0x70(%ebp)
  403c2a:	89 d0                	mov    %edx,%eax
  403c2c:	23 45 9c             	and    -0x64(%ebp),%eax
  403c2f:	89 45 94             	mov    %eax,-0x6c(%ebp)
  403c32:	a1 98 d1 40 00       	mov    0x40d198,%eax
  403c37:	8b 15 9c d1 40 00    	mov    0x40d19c,%edx
  403c3d:	89 c6                	mov    %eax,%esi
  403c3f:	f7 d6                	not    %esi
  403c41:	89 b5 80 fe ff ff    	mov    %esi,-0x180(%ebp)
  403c47:	89 d0                	mov    %edx,%eax
  403c49:	f7 d0                	not    %eax
  403c4b:	89 85 84 fe ff ff    	mov    %eax,-0x17c(%ebp)
  403c51:	8b 85 80 fe ff ff    	mov    -0x180(%ebp),%eax
  403c57:	8b 95 84 fe ff ff    	mov    -0x17c(%ebp),%edx
  403c5d:	89 c6                	mov    %eax,%esi
  403c5f:	21 75 98             	and    %esi,-0x68(%ebp)
  403c62:	89 d0                	mov    %edx,%eax
  403c64:	21 45 9c             	and    %eax,-0x64(%ebp)
  403c67:	e9 c9 00 00 00       	jmp    403d35 <_getPawnMoves+0x710>
  403c6c:	e9 c4 00 00 00       	jmp    403d35 <_getPawnMoves+0x710>
  403c71:	8b 45 c0             	mov    -0x40(%ebp),%eax
  403c74:	8b 55 c4             	mov    -0x3c(%ebp),%edx
  403c77:	89 04 24             	mov    %eax,(%esp)
  403c7a:	89 54 24 04          	mov    %edx,0x4(%esp)
  403c7e:	e8 12 d8 ff ff       	call   401495 <_getLSB>
  403c83:	89 45 84             	mov    %eax,-0x7c(%ebp)
  403c86:	c7 04 24 30 00 00 00 	movl   $0x30,(%esp)
  403c8d:	e8 86 84 00 00       	call   40c118 <_malloc>
  403c92:	89 45 80             	mov    %eax,-0x80(%ebp)
  403c95:	8b 45 80             	mov    -0x80(%ebp),%eax
  403c98:	8b 55 14             	mov    0x14(%ebp),%edx
  403c9b:	89 10                	mov    %edx,(%eax)
  403c9d:	8b 45 e0             	mov    -0x20(%ebp),%eax
  403ca0:	8b 55 84             	mov    -0x7c(%ebp),%edx
  403ca3:	29 c2                	sub    %eax,%edx
  403ca5:	8b 45 80             	mov    -0x80(%ebp),%eax
  403ca8:	89 50 04             	mov    %edx,0x4(%eax)
  403cab:	8b 45 80             	mov    -0x80(%ebp),%eax
  403cae:	8b 55 84             	mov    -0x7c(%ebp),%edx
  403cb1:	89 50 08             	mov    %edx,0x8(%eax)
  403cb4:	8b 4d 80             	mov    -0x80(%ebp),%ecx
  403cb7:	8b 45 d0             	mov    -0x30(%ebp),%eax
  403cba:	8b 55 d4             	mov    -0x2c(%ebp),%edx
  403cbd:	89 41 10             	mov    %eax,0x10(%ecx)
  403cc0:	89 51 14             	mov    %edx,0x14(%ecx)
  403cc3:	8b 4d 80             	mov    -0x80(%ebp),%ecx
  403cc6:	8b 45 c8             	mov    -0x38(%ebp),%eax
  403cc9:	8b 55 cc             	mov    -0x34(%ebp),%edx
  403ccc:	89 41 18             	mov    %eax,0x18(%ecx)
  403ccf:	89 51 1c             	mov    %edx,0x1c(%ecx)
  403cd2:	8b 15 18 d1 40 00    	mov    0x40d118,%edx
  403cd8:	8b 45 80             	mov    -0x80(%ebp),%eax
  403cdb:	89 50 20             	mov    %edx,0x20(%eax)
  403cde:	8b 15 24 10 41 00    	mov    0x411024,%edx
  403ce4:	8b 45 80             	mov    -0x80(%ebp),%eax
  403ce7:	89 50 24             	mov    %edx,0x24(%eax)
  403cea:	8b 15 28 10 41 00    	mov    0x411028,%edx
  403cf0:	8b 45 80             	mov    -0x80(%ebp),%eax
  403cf3:	89 50 28             	mov    %edx,0x28(%eax)
  403cf6:	8b 45 10             	mov    0x10(%ebp),%eax
  403cf9:	8b 00                	mov    (%eax),%eax
  403cfb:	8d 48 01             	lea    0x1(%eax),%ecx
  403cfe:	8b 55 10             	mov    0x10(%ebp),%edx
  403d01:	89 0a                	mov    %ecx,(%edx)
  403d03:	8d 14 85 00 00 00 00 	lea    0x0(,%eax,4),%edx
  403d0a:	8b 45 0c             	mov    0xc(%ebp),%eax
  403d0d:	01 c2                	add    %eax,%edx
  403d0f:	8b 45 80             	mov    -0x80(%ebp),%eax
  403d12:	89 02                	mov    %eax,(%edx)
  403d14:	8b 4d 84             	mov    -0x7c(%ebp),%ecx
  403d17:	b8 01 00 00 00       	mov    $0x1,%eax
  403d1c:	ba 00 00 00 00       	mov    $0x0,%edx
  403d21:	0f a5 c2             	shld   %cl,%eax,%edx
  403d24:	d3 e0                	shl    %cl,%eax
  403d26:	f6 c1 20             	test   $0x20,%cl
  403d29:	74 04                	je     403d2f <_getPawnMoves+0x70a>
  403d2b:	89 c2                	mov    %eax,%edx
  403d2d:	31 c0                	xor    %eax,%eax
  403d2f:	31 45 c0             	xor    %eax,-0x40(%ebp)
  403d32:	31 55 c4             	xor    %edx,-0x3c(%ebp)
  403d35:	8b 45 c0             	mov    -0x40(%ebp),%eax
  403d38:	8b 55 c4             	mov    -0x3c(%ebp),%edx
  403d3b:	09 d0                	or     %edx,%eax
  403d3d:	85 c0                	test   %eax,%eax
  403d3f:	0f 85 2c ff ff ff    	jne    403c71 <_getPawnMoves+0x64c>
  403d45:	e9 0c 01 00 00       	jmp    403e56 <_getPawnMoves+0x831>
  403d4a:	8b 45 b8             	mov    -0x48(%ebp),%eax
  403d4d:	8b 55 bc             	mov    -0x44(%ebp),%edx
  403d50:	89 04 24             	mov    %eax,(%esp)
  403d53:	89 54 24 04          	mov    %edx,0x4(%esp)
  403d57:	e8 39 d7 ff ff       	call   401495 <_getLSB>
  403d5c:	89 85 7c ff ff ff    	mov    %eax,-0x84(%ebp)
  403d62:	c7 45 e4 00 00 00 00 	movl   $0x0,-0x1c(%ebp)
  403d69:	e9 ba 00 00 00       	jmp    403e28 <_getPawnMoves+0x803>
  403d6e:	c7 04 24 30 00 00 00 	movl   $0x30,(%esp)
  403d75:	e8 9e 83 00 00       	call   40c118 <_malloc>
  403d7a:	89 85 78 ff ff ff    	mov    %eax,-0x88(%ebp)
  403d80:	8b 85 78 ff ff ff    	mov    -0x88(%ebp),%eax
  403d86:	8b 55 14             	mov    0x14(%ebp),%edx
  403d89:	89 10                	mov    %edx,(%eax)
  403d8b:	8b 45 e0             	mov    -0x20(%ebp),%eax
  403d8e:	8b 95 7c ff ff ff    	mov    -0x84(%ebp),%edx
  403d94:	29 c2                	sub    %eax,%edx
  403d96:	8b 85 78 ff ff ff    	mov    -0x88(%ebp),%eax
  403d9c:	89 50 04             	mov    %edx,0x4(%eax)
  403d9f:	8b 85 78 ff ff ff    	mov    -0x88(%ebp),%eax
  403da5:	8b 95 7c ff ff ff    	mov    -0x84(%ebp),%edx
  403dab:	89 50 08             	mov    %edx,0x8(%eax)
  403dae:	8b 8d 78 ff ff ff    	mov    -0x88(%ebp),%ecx
  403db4:	8b 45 d0             	mov    -0x30(%ebp),%eax
  403db7:	8b 55 d4             	mov    -0x2c(%ebp),%edx
  403dba:	89 41 10             	mov    %eax,0x10(%ecx)
  403dbd:	89 51 14             	mov    %edx,0x14(%ecx)
  403dc0:	8b 8d 78 ff ff ff    	mov    -0x88(%ebp),%ecx
  403dc6:	8b 45 c8             	mov    -0x38(%ebp),%eax
  403dc9:	8b 55 cc             	mov    -0x34(%ebp),%edx
  403dcc:	89 41 18             	mov    %eax,0x18(%ecx)
  403dcf:	89 51 1c             	mov    %edx,0x1c(%ecx)
  403dd2:	8b 15 18 d1 40 00    	mov    0x40d118,%edx
  403dd8:	8b 85 78 ff ff ff    	mov    -0x88(%ebp),%eax
  403dde:	89 50 20             	mov    %edx,0x20(%eax)
  403de1:	8b 15 24 10 41 00    	mov    0x411024,%edx
  403de7:	8b 85 78 ff ff ff    	mov    -0x88(%ebp),%eax
  403ded:	89 50 24             	mov    %edx,0x24(%eax)
  403df0:	8b 45 e4             	mov    -0x1c(%ebp),%eax
  403df3:	8b 94 85 40 ff ff ff 	mov    -0xc0(%ebp,%eax,4),%edx
  403dfa:	8b 85 78 ff ff ff    	mov    -0x88(%ebp),%eax
  403e00:	89 50 28             	mov    %edx,0x28(%eax)
  403e03:	8b 45 10             	mov    0x10(%ebp),%eax
  403e06:	8b 00                	mov    (%eax),%eax
  403e08:	8d 48 01             	lea    0x1(%eax),%ecx
  403e0b:	8b 55 10             	mov    0x10(%ebp),%edx
  403e0e:	89 0a                	mov    %ecx,(%edx)
  403e10:	8d 14 85 00 00 00 00 	lea    0x0(,%eax,4),%edx
  403e17:	8b 45 0c             	mov    0xc(%ebp),%eax
  403e1a:	01 c2                	add    %eax,%edx
  403e1c:	8b 85 78 ff ff ff    	mov    -0x88(%ebp),%eax
  403e22:	89 02                	mov    %eax,(%edx)
  403e24:	83 45 e4 01          	addl   $0x1,-0x1c(%ebp)
  403e28:	83 7d e4 03          	cmpl   $0x3,-0x1c(%ebp)
  403e2c:	0f 8e 3c ff ff ff    	jle    403d6e <_getPawnMoves+0x749>
  403e32:	8b 8d 7c ff ff ff    	mov    -0x84(%ebp),%ecx
  403e38:	b8 01 00 00 00       	mov    $0x1,%eax
  403e3d:	ba 00 00 00 00       	mov    $0x0,%edx
  403e42:	0f a5 c2             	shld   %cl,%eax,%edx
  403e45:	d3 e0                	shl    %cl,%eax
  403e47:	f6 c1 20             	test   $0x20,%cl
  403e4a:	74 04                	je     403e50 <_getPawnMoves+0x82b>
  403e4c:	89 c2                	mov    %eax,%edx
  403e4e:	31 c0                	xor    %eax,%eax
  403e50:	31 45 b8             	xor    %eax,-0x48(%ebp)
  403e53:	31 55 bc             	xor    %edx,-0x44(%ebp)
  403e56:	8b 45 b8             	mov    -0x48(%ebp),%eax
  403e59:	8b 55 bc             	mov    -0x44(%ebp),%edx
  403e5c:	09 d0                	or     %edx,%eax
  403e5e:	85 c0                	test   %eax,%eax
  403e60:	0f 85 e4 fe ff ff    	jne    403d4a <_getPawnMoves+0x725>
  403e66:	e9 f9 00 00 00       	jmp    403f64 <_getPawnMoves+0x93f>
  403e6b:	8b 45 b0             	mov    -0x50(%ebp),%eax
  403e6e:	8b 55 b4             	mov    -0x4c(%ebp),%edx
  403e71:	89 04 24             	mov    %eax,(%esp)
  403e74:	89 54 24 04          	mov    %edx,0x4(%esp)
  403e78:	e8 18 d6 ff ff       	call   401495 <_getLSB>
  403e7d:	89 85 74 ff ff ff    	mov    %eax,-0x8c(%ebp)
  403e83:	c7 04 24 30 00 00 00 	movl   $0x30,(%esp)
  403e8a:	e8 89 82 00 00       	call   40c118 <_malloc>
  403e8f:	89 85 70 ff ff ff    	mov    %eax,-0x90(%ebp)
  403e95:	8b 85 70 ff ff ff    	mov    -0x90(%ebp),%eax
  403e9b:	8b 55 14             	mov    0x14(%ebp),%edx
  403e9e:	89 10                	mov    %edx,(%eax)
  403ea0:	8b 55 e0             	mov    -0x20(%ebp),%edx
  403ea3:	b8 00 00 00 00       	mov    $0x0,%eax
  403ea8:	29 d0                	sub    %edx,%eax
  403eaa:	01 c0                	add    %eax,%eax
  403eac:	89 c2                	mov    %eax,%edx
  403eae:	8b 85 74 ff ff ff    	mov    -0x8c(%ebp),%eax
  403eb4:	01 c2                	add    %eax,%edx
  403eb6:	8b 85 70 ff ff ff    	mov    -0x90(%ebp),%eax
  403ebc:	89 50 04             	mov    %edx,0x4(%eax)
  403ebf:	8b 85 70 ff ff ff    	mov    -0x90(%ebp),%eax
  403ec5:	8b 95 74 ff ff ff    	mov    -0x8c(%ebp),%edx
  403ecb:	89 50 08             	mov    %edx,0x8(%eax)
  403ece:	8b 8d 70 ff ff ff    	mov    -0x90(%ebp),%ecx
  403ed4:	8b 45 d0             	mov    -0x30(%ebp),%eax
  403ed7:	8b 55 d4             	mov    -0x2c(%ebp),%edx
  403eda:	89 41 10             	mov    %eax,0x10(%ecx)
  403edd:	89 51 14             	mov    %edx,0x14(%ecx)
  403ee0:	8b 8d 70 ff ff ff    	mov    -0x90(%ebp),%ecx
  403ee6:	8b 45 c8             	mov    -0x38(%ebp),%eax
  403ee9:	8b 55 cc             	mov    -0x34(%ebp),%edx
  403eec:	89 41 18             	mov    %eax,0x18(%ecx)
  403eef:	89 51 1c             	mov    %edx,0x1c(%ecx)
  403ef2:	8b 15 18 d1 40 00    	mov    0x40d118,%edx
  403ef8:	8b 85 70 ff ff ff    	mov    -0x90(%ebp),%eax
  403efe:	89 50 20             	mov    %edx,0x20(%eax)
  403f01:	8b 15 24 10 41 00    	mov    0x411024,%edx
  403f07:	8b 85 70 ff ff ff    	mov    -0x90(%ebp),%eax
  403f0d:	89 50 24             	mov    %edx,0x24(%eax)
  403f10:	8b 15 e0 d7 40 00    	mov    0x40d7e0,%edx
  403f16:	8b 85 70 ff ff ff    	mov    -0x90(%ebp),%eax
  403f1c:	89 50 28             	mov    %edx,0x28(%eax)
  403f1f:	8b 45 10             	mov    0x10(%ebp),%eax
  403f22:	8b 00                	mov    (%eax),%eax
  403f24:	8d 48 01             	lea    0x1(%eax),%ecx
  403f27:	8b 55 10             	mov    0x10(%ebp),%edx
  403f2a:	89 0a                	mov    %ecx,(%edx)
  403f2c:	8d 14 85 00 00 00 00 	lea    0x0(,%eax,4),%edx
  403f33:	8b 45 0c             	mov    0xc(%ebp),%eax
  403f36:	01 c2                	add    %eax,%edx
  403f38:	8b 85 70 ff ff ff    	mov    -0x90(%ebp),%eax
  403f3e:	89 02                	mov    %eax,(%edx)
  403f40:	8b 8d 74 ff ff ff    	mov    -0x8c(%ebp),%ecx
  403f46:	b8 01 00 00 00       	mov    $0x1,%eax
  403f4b:	ba 00 00 00 00       	mov    $0x0,%edx
  403f50:	0f a5 c2             	shld   %cl,%eax,%edx
  403f53:	d3 e0                	shl    %cl,%eax
  403f55:	f6 c1 20             	test   $0x20,%cl
  403f58:	74 04                	je     403f5e <_getPawnMoves+0x939>
  403f5a:	89 c2                	mov    %eax,%edx
  403f5c:	31 c0                	xor    %eax,%eax
  403f5e:	31 45 b0             	xor    %eax,-0x50(%ebp)
  403f61:	31 55 b4             	xor    %edx,-0x4c(%ebp)
  403f64:	8b 45 b0             	mov    -0x50(%ebp),%eax
  403f67:	8b 55 b4             	mov    -0x4c(%ebp),%edx
  403f6a:	09 d0                	or     %edx,%eax
  403f6c:	85 c0                	test   %eax,%eax
  403f6e:	0f 85 f7 fe ff ff    	jne    403e6b <_getPawnMoves+0x846>
  403f74:	e9 fd 00 00 00       	jmp    404076 <_getPawnMoves+0xa51>
  403f79:	8b 45 a8             	mov    -0x58(%ebp),%eax
  403f7c:	8b 55 ac             	mov    -0x54(%ebp),%edx
  403f7f:	89 04 24             	mov    %eax,(%esp)
  403f82:	89 54 24 04          	mov    %edx,0x4(%esp)
  403f86:	e8 0a d5 ff ff       	call   401495 <_getLSB>
  403f8b:	89 85 6c ff ff ff    	mov    %eax,-0x94(%ebp)
  403f91:	c7 04 24 30 00 00 00 	movl   $0x30,(%esp)
  403f98:	e8 7b 81 00 00       	call   40c118 <_malloc>
  403f9d:	89 85 68 ff ff ff    	mov    %eax,-0x98(%ebp)
  403fa3:	8b 85 68 ff ff ff    	mov    -0x98(%ebp),%eax
  403fa9:	8b 55 14             	mov    0x14(%ebp),%edx
  403fac:	89 10                	mov    %edx,(%eax)
  403fae:	8b 45 dc             	mov    -0x24(%ebp),%eax
  403fb1:	8b 95 6c ff ff ff    	mov    -0x94(%ebp),%edx
  403fb7:	29 c2                	sub    %eax,%edx
  403fb9:	8b 85 68 ff ff ff    	mov    -0x98(%ebp),%eax
  403fbf:	89 50 04             	mov    %edx,0x4(%eax)
  403fc2:	8b 85 68 ff ff ff    	mov    -0x98(%ebp),%eax
  403fc8:	8b 95 6c ff ff ff    	mov    -0x94(%ebp),%edx
  403fce:	89 50 08             	mov    %edx,0x8(%eax)
  403fd1:	8b 8d 68 ff ff ff    	mov    -0x98(%ebp),%ecx
  403fd7:	8b 45 d0             	mov    -0x30(%ebp),%eax
  403fda:	8b 55 d4             	mov    -0x2c(%ebp),%edx
  403fdd:	89 41 10             	mov    %eax,0x10(%ecx)
  403fe0:	89 51 14             	mov    %edx,0x14(%ecx)
  403fe3:	8b 8d 68 ff ff ff    	mov    -0x98(%ebp),%ecx
  403fe9:	8b 45 c8             	mov    -0x38(%ebp),%eax
  403fec:	8b 55 cc             	mov    -0x34(%ebp),%edx
  403fef:	89 41 18             	mov    %eax,0x18(%ecx)
  403ff2:	89 51 1c             	mov    %edx,0x1c(%ecx)
  403ff5:	8b 45 08             	mov    0x8(%ebp),%eax
  403ff8:	89 44 24 04          	mov    %eax,0x4(%esp)
  403ffc:	8b 85 6c ff ff ff    	mov    -0x94(%ebp),%eax
  404002:	89 04 24             	mov    %eax,(%esp)
  404005:	e8 f5 d4 ff ff       	call   4014ff <_getSquare>
  40400a:	8b 95 68 ff ff ff    	mov    -0x98(%ebp),%edx
  404010:	89 42 20             	mov    %eax,0x20(%edx)
  404013:	8b 15 24 10 41 00    	mov    0x411024,%edx
  404019:	8b 85 68 ff ff ff    	mov    -0x98(%ebp),%eax
  40401f:	89 50 24             	mov    %edx,0x24(%eax)
  404022:	8b 15 28 10 41 00    	mov    0x411028,%edx
  404028:	8b 85 68 ff ff ff    	mov    -0x98(%ebp),%eax
  40402e:	89 50 28             	mov    %edx,0x28(%eax)
  404031:	8b 45 10             	mov    0x10(%ebp),%eax
  404034:	8b 00                	mov    (%eax),%eax
  404036:	8d 48 01             	lea    0x1(%eax),%ecx
  404039:	8b 55 10             	mov    0x10(%ebp),%edx
  40403c:	89 0a                	mov    %ecx,(%edx)
  40403e:	8d 14 85 00 00 00 00 	lea    0x0(,%eax,4),%edx
  404045:	8b 45 0c             	mov    0xc(%ebp),%eax
  404048:	01 c2                	add    %eax,%edx
  40404a:	8b 85 68 ff ff ff    	mov    -0x98(%ebp),%eax
  404050:	89 02                	mov    %eax,(%edx)
  404052:	8b 8d 6c ff ff ff    	mov    -0x94(%ebp),%ecx
  404058:	b8 01 00 00 00       	mov    $0x1,%eax
  40405d:	ba 00 00 00 00       	mov    $0x0,%edx
  404062:	0f a5 c2             	shld   %cl,%eax,%edx
  404065:	d3 e0                	shl    %cl,%eax
  404067:	f6 c1 20             	test   $0x20,%cl
  40406a:	74 04                	je     404070 <_getPawnMoves+0xa4b>
  40406c:	89 c2                	mov    %eax,%edx
  40406e:	31 c0                	xor    %eax,%eax
  404070:	31 45 a8             	xor    %eax,-0x58(%ebp)
  404073:	31 55 ac             	xor    %edx,-0x54(%ebp)
  404076:	8b 45 a8             	mov    -0x58(%ebp),%eax
  404079:	8b 55 ac             	mov    -0x54(%ebp),%edx
  40407c:	09 d0                	or     %edx,%eax
  40407e:	85 c0                	test   %eax,%eax
  404080:	0f 85 f3 fe ff ff    	jne    403f79 <_getPawnMoves+0x954>
  404086:	e9 0c 01 00 00       	jmp    404197 <_getPawnMoves+0xb72>
  40408b:	8b 45 a0             	mov    -0x60(%ebp),%eax
  40408e:	8b 55 a4             	mov    -0x5c(%ebp),%edx
  404091:	89 04 24             	mov    %eax,(%esp)
  404094:	89 54 24 04          	mov    %edx,0x4(%esp)
  404098:	e8 f8 d3 ff ff       	call   401495 <_getLSB>
  40409d:	89 85 64 ff ff ff    	mov    %eax,-0x9c(%ebp)
  4040a3:	c7 45 e4 00 00 00 00 	movl   $0x0,-0x1c(%ebp)
  4040aa:	e9 ba 00 00 00       	jmp    404169 <_getPawnMoves+0xb44>
  4040af:	c7 04 24 30 00 00 00 	movl   $0x30,(%esp)
  4040b6:	e8 5d 80 00 00       	call   40c118 <_malloc>
  4040bb:	89 85 60 ff ff ff    	mov    %eax,-0xa0(%ebp)
  4040c1:	8b 85 60 ff ff ff    	mov    -0xa0(%ebp),%eax
  4040c7:	8b 55 14             	mov    0x14(%ebp),%edx
  4040ca:	89 10                	mov    %edx,(%eax)
  4040cc:	8b 45 e0             	mov    -0x20(%ebp),%eax
  4040cf:	8b 95 64 ff ff ff    	mov    -0x9c(%ebp),%edx
  4040d5:	29 c2                	sub    %eax,%edx
  4040d7:	8b 85 60 ff ff ff    	mov    -0xa0(%ebp),%eax
  4040dd:	89 50 04             	mov    %edx,0x4(%eax)
  4040e0:	8b 85 60 ff ff ff    	mov    -0xa0(%ebp),%eax
  4040e6:	8b 95 64 ff ff ff    	mov    -0x9c(%ebp),%edx
  4040ec:	89 50 08             	mov    %edx,0x8(%eax)
  4040ef:	8b 8d 60 ff ff ff    	mov    -0xa0(%ebp),%ecx
  4040f5:	8b 45 d0             	mov    -0x30(%ebp),%eax
  4040f8:	8b 55 d4             	mov    -0x2c(%ebp),%edx
  4040fb:	89 41 10             	mov    %eax,0x10(%ecx)
  4040fe:	89 51 14             	mov    %edx,0x14(%ecx)
  404101:	8b 8d 60 ff ff ff    	mov    -0xa0(%ebp),%ecx
  404107:	8b 45 c8             	mov    -0x38(%ebp),%eax
  40410a:	8b 55 cc             	mov    -0x34(%ebp),%edx
  40410d:	89 41 18             	mov    %eax,0x18(%ecx)
  404110:	89 51 1c             	mov    %edx,0x1c(%ecx)
  404113:	8b 15 18 d1 40 00    	mov    0x40d118,%edx
  404119:	8b 85 60 ff ff ff    	mov    -0xa0(%ebp),%eax
  40411f:	89 50 20             	mov    %edx,0x20(%eax)
  404122:	8b 15 24 10 41 00    	mov    0x411024,%edx
  404128:	8b 85 60 ff ff ff    	mov    -0xa0(%ebp),%eax
  40412e:	89 50 24             	mov    %edx,0x24(%eax)
  404131:	8b 45 e4             	mov    -0x1c(%ebp),%eax
  404134:	8b 94 85 40 ff ff ff 	mov    -0xc0(%ebp,%eax,4),%edx
  40413b:	8b 85 60 ff ff ff    	mov    -0xa0(%ebp),%eax
  404141:	89 50 28             	mov    %edx,0x28(%eax)
  404144:	8b 45 10             	mov    0x10(%ebp),%eax
  404147:	8b 00                	mov    (%eax),%eax
  404149:	8d 48 01             	lea    0x1(%eax),%ecx
  40414c:	8b 55 10             	mov    0x10(%ebp),%edx
  40414f:	89 0a                	mov    %ecx,(%edx)
  404151:	8d 14 85 00 00 00 00 	lea    0x0(,%eax,4),%edx
  404158:	8b 45 0c             	mov    0xc(%ebp),%eax
  40415b:	01 c2                	add    %eax,%edx
  40415d:	8b 85 60 ff ff ff    	mov    -0xa0(%ebp),%eax
  404163:	89 02                	mov    %eax,(%edx)
  404165:	83 45 e4 01          	addl   $0x1,-0x1c(%ebp)
  404169:	83 7d e4 03          	cmpl   $0x3,-0x1c(%ebp)
  40416d:	0f 8e 3c ff ff ff    	jle    4040af <_getPawnMoves+0xa8a>
  404173:	8b 8d 64 ff ff ff    	mov    -0x9c(%ebp),%ecx
  404179:	b8 01 00 00 00       	mov    $0x1,%eax
  40417e:	ba 00 00 00 00       	mov    $0x0,%edx
  404183:	0f a5 c2             	shld   %cl,%eax,%edx
  404186:	d3 e0                	shl    %cl,%eax
  404188:	f6 c1 20             	test   $0x20,%cl
  40418b:	74 04                	je     404191 <_getPawnMoves+0xb6c>
  40418d:	89 c2                	mov    %eax,%edx
  40418f:	31 c0                	xor    %eax,%eax
  404191:	31 45 a0             	xor    %eax,-0x60(%ebp)
  404194:	31 55 a4             	xor    %edx,-0x5c(%ebp)
  404197:	8b 45 a0             	mov    -0x60(%ebp),%eax
  40419a:	8b 55 a4             	mov    -0x5c(%ebp),%edx
  40419d:	09 d0                	or     %edx,%eax
  40419f:	85 c0                	test   %eax,%eax
  4041a1:	0f 85 e4 fe ff ff    	jne    40408b <_getPawnMoves+0xa66>
  4041a7:	e9 fd 00 00 00       	jmp    4042a9 <_getPawnMoves+0xc84>
  4041ac:	8b 45 98             	mov    -0x68(%ebp),%eax
  4041af:	8b 55 9c             	mov    -0x64(%ebp),%edx
  4041b2:	89 04 24             	mov    %eax,(%esp)
  4041b5:	89 54 24 04          	mov    %edx,0x4(%esp)
  4041b9:	e8 d7 d2 ff ff       	call   401495 <_getLSB>
  4041be:	89 85 5c ff ff ff    	mov    %eax,-0xa4(%ebp)
  4041c4:	c7 04 24 30 00 00 00 	movl   $0x30,(%esp)
  4041cb:	e8 48 7f 00 00       	call   40c118 <_malloc>
  4041d0:	89 85 58 ff ff ff    	mov    %eax,-0xa8(%ebp)
  4041d6:	8b 85 58 ff ff ff    	mov    -0xa8(%ebp),%eax
  4041dc:	8b 55 14             	mov    0x14(%ebp),%edx
  4041df:	89 10                	mov    %edx,(%eax)
  4041e1:	8b 45 d8             	mov    -0x28(%ebp),%eax
  4041e4:	8b 95 5c ff ff ff    	mov    -0xa4(%ebp),%edx
  4041ea:	29 c2                	sub    %eax,%edx
  4041ec:	8b 85 58 ff ff ff    	mov    -0xa8(%ebp),%eax
  4041f2:	89 50 04             	mov    %edx,0x4(%eax)
  4041f5:	8b 85 58 ff ff ff    	mov    -0xa8(%ebp),%eax
  4041fb:	8b 95 5c ff ff ff    	mov    -0xa4(%ebp),%edx
  404201:	89 50 08             	mov    %edx,0x8(%eax)
  404204:	8b 8d 58 ff ff ff    	mov    -0xa8(%ebp),%ecx
  40420a:	8b 45 d0             	mov    -0x30(%ebp),%eax
  40420d:	8b 55 d4             	mov    -0x2c(%ebp),%edx
  404210:	89 41 10             	mov    %eax,0x10(%ecx)
  404213:	89 51 14             	mov    %edx,0x14(%ecx)
  404216:	8b 8d 58 ff ff ff    	mov    -0xa8(%ebp),%ecx
  40421c:	8b 45 c8             	mov    -0x38(%ebp),%eax
  40421f:	8b 55 cc             	mov    -0x34(%ebp),%edx
  404222:	89 41 18             	mov    %eax,0x18(%ecx)
  404225:	89 51 1c             	mov    %edx,0x1c(%ecx)
  404228:	8b 45 08             	mov    0x8(%ebp),%eax
  40422b:	89 44 24 04          	mov    %eax,0x4(%esp)
  40422f:	8b 85 5c ff ff ff    	mov    -0xa4(%ebp),%eax
  404235:	89 04 24             	mov    %eax,(%esp)
  404238:	e8 c2 d2 ff ff       	call   4014ff <_getSquare>
  40423d:	8b 95 58 ff ff ff    	mov    -0xa8(%ebp),%edx
  404243:	89 42 20             	mov    %eax,0x20(%edx)
  404246:	8b 15 24 10 41 00    	mov    0x411024,%edx
  40424c:	8b 85 58 ff ff ff    	mov    -0xa8(%ebp),%eax
  404252:	89 50 24             	mov    %edx,0x24(%eax)
  404255:	8b 15 28 10 41 00    	mov    0x411028,%edx
  40425b:	8b 85 58 ff ff ff    	mov    -0xa8(%ebp),%eax
  404261:	89 50 28             	mov    %edx,0x28(%eax)
  404264:	8b 45 10             	mov    0x10(%ebp),%eax
  404267:	8b 00                	mov    (%eax),%eax
  404269:	8d 48 01             	lea    0x1(%eax),%ecx
  40426c:	8b 55 10             	mov    0x10(%ebp),%edx
  40426f:	89 0a                	mov    %ecx,(%edx)
  404271:	8d 14 85 00 00 00 00 	lea    0x0(,%eax,4),%edx
  404278:	8b 45 0c             	mov    0xc(%ebp),%eax
  40427b:	01 c2                	add    %eax,%edx
  40427d:	8b 85 58 ff ff ff    	mov    -0xa8(%ebp),%eax
  404283:	89 02                	mov    %eax,(%edx)
  404285:	8b 8d 5c ff ff ff    	mov    -0xa4(%ebp),%ecx
  40428b:	b8 01 00 00 00       	mov    $0x1,%eax
  404290:	ba 00 00 00 00       	mov    $0x0,%edx
  404295:	0f a5 c2             	shld   %cl,%eax,%edx
  404298:	d3 e0                	shl    %cl,%eax
  40429a:	f6 c1 20             	test   $0x20,%cl
  40429d:	74 04                	je     4042a3 <_getPawnMoves+0xc7e>
  40429f:	89 c2                	mov    %eax,%edx
  4042a1:	31 c0                	xor    %eax,%eax
  4042a3:	31 45 98             	xor    %eax,-0x68(%ebp)
  4042a6:	31 55 9c             	xor    %edx,-0x64(%ebp)
  4042a9:	8b 45 98             	mov    -0x68(%ebp),%eax
  4042ac:	8b 55 9c             	mov    -0x64(%ebp),%edx
  4042af:	09 d0                	or     %edx,%eax
  4042b1:	85 c0                	test   %eax,%eax
  4042b3:	0f 85 f3 fe ff ff    	jne    4041ac <_getPawnMoves+0xb87>
  4042b9:	e9 0c 01 00 00       	jmp    4043ca <_getPawnMoves+0xda5>
  4042be:	8b 45 90             	mov    -0x70(%ebp),%eax
  4042c1:	8b 55 94             	mov    -0x6c(%ebp),%edx
  4042c4:	89 04 24             	mov    %eax,(%esp)
  4042c7:	89 54 24 04          	mov    %edx,0x4(%esp)
  4042cb:	e8 c5 d1 ff ff       	call   401495 <_getLSB>
  4042d0:	89 85 54 ff ff ff    	mov    %eax,-0xac(%ebp)
  4042d6:	c7 45 e4 00 00 00 00 	movl   $0x0,-0x1c(%ebp)
  4042dd:	e9 ba 00 00 00       	jmp    40439c <_getPawnMoves+0xd77>
  4042e2:	c7 04 24 30 00 00 00 	movl   $0x30,(%esp)
  4042e9:	e8 2a 7e 00 00       	call   40c118 <_malloc>
  4042ee:	89 85 50 ff ff ff    	mov    %eax,-0xb0(%ebp)
  4042f4:	8b 85 50 ff ff ff    	mov    -0xb0(%ebp),%eax
  4042fa:	8b 55 14             	mov    0x14(%ebp),%edx
  4042fd:	89 10                	mov    %edx,(%eax)
  4042ff:	8b 45 e0             	mov    -0x20(%ebp),%eax
  404302:	8b 95 54 ff ff ff    	mov    -0xac(%ebp),%edx
  404308:	29 c2                	sub    %eax,%edx
  40430a:	8b 85 50 ff ff ff    	mov    -0xb0(%ebp),%eax
  404310:	89 50 04             	mov    %edx,0x4(%eax)
  404313:	8b 85 50 ff ff ff    	mov    -0xb0(%ebp),%eax
  404319:	8b 95 54 ff ff ff    	mov    -0xac(%ebp),%edx
  40431f:	89 50 08             	mov    %edx,0x8(%eax)
  404322:	8b 8d 50 ff ff ff    	mov    -0xb0(%ebp),%ecx
  404328:	8b 45 d0             	mov    -0x30(%ebp),%eax
  40432b:	8b 55 d4             	mov    -0x2c(%ebp),%edx
  40432e:	89 41 10             	mov    %eax,0x10(%ecx)
  404331:	89 51 14             	mov    %edx,0x14(%ecx)
  404334:	8b 8d 50 ff ff ff    	mov    -0xb0(%ebp),%ecx
  40433a:	8b 45 c8             	mov    -0x38(%ebp),%eax
  40433d:	8b 55 cc             	mov    -0x34(%ebp),%edx
  404340:	89 41 18             	mov    %eax,0x18(%ecx)
  404343:	89 51 1c             	mov    %edx,0x1c(%ecx)
  404346:	8b 15 18 d1 40 00    	mov    0x40d118,%edx
  40434c:	8b 85 50 ff ff ff    	mov    -0xb0(%ebp),%eax
  404352:	89 50 20             	mov    %edx,0x20(%eax)
  404355:	8b 15 24 10 41 00    	mov    0x411024,%edx
  40435b:	8b 85 50 ff ff ff    	mov    -0xb0(%ebp),%eax
  404361:	89 50 24             	mov    %edx,0x24(%eax)
  404364:	8b 45 e4             	mov    -0x1c(%ebp),%eax
  404367:	8b 94 85 40 ff ff ff 	mov    -0xc0(%ebp,%eax,4),%edx
  40436e:	8b 85 50 ff ff ff    	mov    -0xb0(%ebp),%eax
  404374:	89 50 28             	mov    %edx,0x28(%eax)
  404377:	8b 45 10             	mov    0x10(%ebp),%eax
  40437a:	8b 00                	mov    (%eax),%eax
  40437c:	8d 48 01             	lea    0x1(%eax),%ecx
  40437f:	8b 55 10             	mov    0x10(%ebp),%edx
  404382:	89 0a                	mov    %ecx,(%edx)
  404384:	8d 14 85 00 00 00 00 	lea    0x0(,%eax,4),%edx
  40438b:	8b 45 0c             	mov    0xc(%ebp),%eax
  40438e:	01 c2                	add    %eax,%edx
  404390:	8b 85 50 ff ff ff    	mov    -0xb0(%ebp),%eax
  404396:	89 02                	mov    %eax,(%edx)
  404398:	83 45 e4 01          	addl   $0x1,-0x1c(%ebp)
  40439c:	83 7d e4 03          	cmpl   $0x3,-0x1c(%ebp)
  4043a0:	0f 8e 3c ff ff ff    	jle    4042e2 <_getPawnMoves+0xcbd>
  4043a6:	8b 8d 54 ff ff ff    	mov    -0xac(%ebp),%ecx
  4043ac:	b8 01 00 00 00       	mov    $0x1,%eax
  4043b1:	ba 00 00 00 00       	mov    $0x0,%edx
  4043b6:	0f a5 c2             	shld   %cl,%eax,%edx
  4043b9:	d3 e0                	shl    %cl,%eax
  4043bb:	f6 c1 20             	test   $0x20,%cl
  4043be:	74 04                	je     4043c4 <_getPawnMoves+0xd9f>
  4043c0:	89 c2                	mov    %eax,%edx
  4043c2:	31 c0                	xor    %eax,%eax
  4043c4:	31 45 90             	xor    %eax,-0x70(%ebp)
  4043c7:	31 55 94             	xor    %edx,-0x6c(%ebp)
  4043ca:	8b 45 90             	mov    -0x70(%ebp),%eax
  4043cd:	8b 55 94             	mov    -0x6c(%ebp),%edx
  4043d0:	09 d0                	or     %edx,%eax
  4043d2:	85 c0                	test   %eax,%eax
  4043d4:	0f 85 e4 fe ff ff    	jne    4042be <_getPawnMoves+0xc99>
  4043da:	81 c4 7c 01 00 00    	add    $0x17c,%esp
  4043e0:	5b                   	pop    %ebx
  4043e1:	5e                   	pop    %esi
  4043e2:	5f                   	pop    %edi
  4043e3:	5d                   	pop    %ebp
  4043e4:	c3                   	ret    

004043e5 <_getRookMoves>:
  4043e5:	55                   	push   %ebp
  4043e6:	89 e5                	mov    %esp,%ebp
  4043e8:	57                   	push   %edi
  4043e9:	56                   	push   %esi
  4043ea:	53                   	push   %ebx
  4043eb:	83 ec 6c             	sub    $0x6c,%esp
  4043ee:	a1 20 10 41 00       	mov    0x411020,%eax
  4043f3:	39 45 14             	cmp    %eax,0x14(%ebp)
  4043f6:	75 1f                	jne    404417 <_getRookMoves+0x32>
  4043f8:	8b 45 08             	mov    0x8(%ebp),%eax
  4043fb:	8b 50 04             	mov    0x4(%eax),%edx
  4043fe:	8b 00                	mov    (%eax),%eax
  404400:	89 45 e0             	mov    %eax,-0x20(%ebp)
  404403:	89 55 e4             	mov    %edx,-0x1c(%ebp)
  404406:	8b 45 08             	mov    0x8(%ebp),%eax
  404409:	8b 50 0c             	mov    0xc(%eax),%edx
  40440c:	8b 40 08             	mov    0x8(%eax),%eax
  40440f:	89 45 d8             	mov    %eax,-0x28(%ebp)
  404412:	89 55 dc             	mov    %edx,-0x24(%ebp)
  404415:	eb 27                	jmp    40443e <_getRookMoves+0x59>
  404417:	a1 00 d1 40 00       	mov    0x40d100,%eax
  40441c:	39 45 14             	cmp    %eax,0x14(%ebp)
  40441f:	75 1d                	jne    40443e <_getRookMoves+0x59>
  404421:	8b 45 08             	mov    0x8(%ebp),%eax
  404424:	8b 50 0c             	mov    0xc(%eax),%edx
  404427:	8b 40 08             	mov    0x8(%eax),%eax
  40442a:	89 45 e0             	mov    %eax,-0x20(%ebp)
  40442d:	89 55 e4             	mov    %edx,-0x1c(%ebp)
  404430:	8b 45 08             	mov    0x8(%ebp),%eax
  404433:	8b 50 04             	mov    0x4(%eax),%edx
  404436:	8b 00                	mov    (%eax),%eax
  404438:	89 45 d8             	mov    %eax,-0x28(%ebp)
  40443b:	89 55 dc             	mov    %edx,-0x24(%ebp)
  40443e:	8b 45 08             	mov    0x8(%ebp),%eax
  404441:	8b 50 24             	mov    0x24(%eax),%edx
  404444:	8b 40 20             	mov    0x20(%eax),%eax
  404447:	89 c1                	mov    %eax,%ecx
  404449:	23 4d e0             	and    -0x20(%ebp),%ecx
  40444c:	89 4d d0             	mov    %ecx,-0x30(%ebp)
  40444f:	89 d0                	mov    %edx,%eax
  404451:	23 45 e4             	and    -0x1c(%ebp),%eax
  404454:	89 45 d4             	mov    %eax,-0x2c(%ebp)
  404457:	e9 43 02 00 00       	jmp    40469f <_getRookMoves+0x2ba>
  40445c:	8b 45 d0             	mov    -0x30(%ebp),%eax
  40445f:	8b 55 d4             	mov    -0x2c(%ebp),%edx
  404462:	89 04 24             	mov    %eax,(%esp)
  404465:	89 54 24 04          	mov    %edx,0x4(%esp)
  404469:	e8 27 d0 ff ff       	call   401495 <_getLSB>
  40446e:	89 45 c4             	mov    %eax,-0x3c(%ebp)
  404471:	8b 45 08             	mov    0x8(%ebp),%eax
  404474:	8b 08                	mov    (%eax),%ecx
  404476:	8b 58 04             	mov    0x4(%eax),%ebx
  404479:	8b 45 08             	mov    0x8(%ebp),%eax
  40447c:	8b 50 0c             	mov    0xc(%eax),%edx
  40447f:	8b 40 08             	mov    0x8(%eax),%eax
  404482:	89 cf                	mov    %ecx,%edi
  404484:	09 c7                	or     %eax,%edi
  404486:	89 7d a0             	mov    %edi,-0x60(%ebp)
  404489:	89 df                	mov    %ebx,%edi
  40448b:	09 d7                	or     %edx,%edi
  40448d:	89 7d a4             	mov    %edi,-0x5c(%ebp)
  404490:	8b 45 08             	mov    0x8(%ebp),%eax
  404493:	8b 80 8c 00 00 00    	mov    0x8c(%eax),%eax
  404499:	8b 55 c4             	mov    -0x3c(%ebp),%edx
  40449c:	c1 e2 03             	shl    $0x3,%edx
  40449f:	01 d0                	add    %edx,%eax
  4044a1:	8b 50 04             	mov    0x4(%eax),%edx
  4044a4:	8b 00                	mov    (%eax),%eax
  4044a6:	8b 4d a0             	mov    -0x60(%ebp),%ecx
  4044a9:	21 c1                	and    %eax,%ecx
  4044ab:	89 4d b8             	mov    %ecx,-0x48(%ebp)
  4044ae:	89 d0                	mov    %edx,%eax
  4044b0:	23 45 a4             	and    -0x5c(%ebp),%eax
  4044b3:	89 45 bc             	mov    %eax,-0x44(%ebp)
  4044b6:	8b 45 08             	mov    0x8(%ebp),%eax
  4044b9:	8b 80 94 00 00 00    	mov    0x94(%eax),%eax
  4044bf:	8b 55 c4             	mov    -0x3c(%ebp),%edx
  4044c2:	c1 e2 03             	shl    $0x3,%edx
  4044c5:	01 d0                	add    %edx,%eax
  4044c7:	8b 50 04             	mov    0x4(%eax),%edx
  4044ca:	8b 00                	mov    (%eax),%eax
  4044cc:	8b 4d b8             	mov    -0x48(%ebp),%ecx
  4044cf:	89 cb                	mov    %ecx,%ebx
  4044d1:	0f af da             	imul   %edx,%ebx
  4044d4:	8b 4d bc             	mov    -0x44(%ebp),%ecx
  4044d7:	0f af c8             	imul   %eax,%ecx
  4044da:	01 d9                	add    %ebx,%ecx
  4044dc:	f7 65 b8             	mull   -0x48(%ebp)
  4044df:	01 d1                	add    %edx,%ecx
  4044e1:	89 ca                	mov    %ecx,%edx
  4044e3:	8b 4d 08             	mov    0x8(%ebp),%ecx
  4044e6:	8b 99 90 00 00 00    	mov    0x90(%ecx),%ebx
  4044ec:	8b 4d c4             	mov    -0x3c(%ebp),%ecx
  4044ef:	c1 e1 02             	shl    $0x2,%ecx
  4044f2:	01 d9                	add    %ebx,%ecx
  4044f4:	8b 09                	mov    (%ecx),%ecx
  4044f6:	0f ad d0             	shrd   %cl,%edx,%eax
  4044f9:	d3 ea                	shr    %cl,%edx
  4044fb:	f6 c1 20             	test   $0x20,%cl
  4044fe:	74 04                	je     404504 <_getRookMoves+0x11f>
  404500:	89 d0                	mov    %edx,%eax
  404502:	31 d2                	xor    %edx,%edx
  404504:	89 45 b4             	mov    %eax,-0x4c(%ebp)
  404507:	8b 45 08             	mov    0x8(%ebp),%eax
  40450a:	8b 80 9c 00 00 00    	mov    0x9c(%eax),%eax
  404510:	8b 55 c4             	mov    -0x3c(%ebp),%edx
  404513:	c1 e2 02             	shl    $0x2,%edx
  404516:	01 d0                	add    %edx,%eax
  404518:	8b 00                	mov    (%eax),%eax
  40451a:	8b 55 b4             	mov    -0x4c(%ebp),%edx
  40451d:	c1 e2 03             	shl    $0x3,%edx
  404520:	01 d0                	add    %edx,%eax
  404522:	8b 50 04             	mov    0x4(%eax),%edx
  404525:	8b 00                	mov    (%eax),%eax
  404527:	8b 4d e0             	mov    -0x20(%ebp),%ecx
  40452a:	f7 d1                	not    %ecx
  40452c:	89 4d 98             	mov    %ecx,-0x68(%ebp)
  40452f:	8b 4d e4             	mov    -0x1c(%ebp),%ecx
  404532:	f7 d1                	not    %ecx
  404534:	89 4d 9c             	mov    %ecx,-0x64(%ebp)
  404537:	8b 75 98             	mov    -0x68(%ebp),%esi
  40453a:	8b 7d 9c             	mov    -0x64(%ebp),%edi
  40453d:	89 f1                	mov    %esi,%ecx
  40453f:	21 c1                	and    %eax,%ecx
  404541:	89 4d c8             	mov    %ecx,-0x38(%ebp)
  404544:	89 d0                	mov    %edx,%eax
  404546:	21 f8                	and    %edi,%eax
  404548:	89 45 cc             	mov    %eax,-0x34(%ebp)
  40454b:	e9 1e 01 00 00       	jmp    40466e <_getRookMoves+0x289>
  404550:	8b 45 c8             	mov    -0x38(%ebp),%eax
  404553:	8b 55 cc             	mov    -0x34(%ebp),%edx
  404556:	89 04 24             	mov    %eax,(%esp)
  404559:	89 54 24 04          	mov    %edx,0x4(%esp)
  40455d:	e8 33 cf ff ff       	call   401495 <_getLSB>
  404562:	89 45 b0             	mov    %eax,-0x50(%ebp)
  404565:	c7 04 24 30 00 00 00 	movl   $0x30,(%esp)
  40456c:	e8 a7 7b 00 00       	call   40c118 <_malloc>
  404571:	89 45 ac             	mov    %eax,-0x54(%ebp)
  404574:	8b 45 ac             	mov    -0x54(%ebp),%eax
  404577:	8b 55 14             	mov    0x14(%ebp),%edx
  40457a:	89 10                	mov    %edx,(%eax)
  40457c:	8b 45 ac             	mov    -0x54(%ebp),%eax
  40457f:	8b 55 c4             	mov    -0x3c(%ebp),%edx
  404582:	89 50 04             	mov    %edx,0x4(%eax)
  404585:	8b 45 ac             	mov    -0x54(%ebp),%eax
  404588:	8b 55 b0             	mov    -0x50(%ebp),%edx
  40458b:	89 50 08             	mov    %edx,0x8(%eax)
  40458e:	8b 4d ac             	mov    -0x54(%ebp),%ecx
  404591:	8b 45 e0             	mov    -0x20(%ebp),%eax
  404594:	8b 55 e4             	mov    -0x1c(%ebp),%edx
  404597:	89 41 10             	mov    %eax,0x10(%ecx)
  40459a:	89 51 14             	mov    %edx,0x14(%ecx)
  40459d:	8b 4d ac             	mov    -0x54(%ebp),%ecx
  4045a0:	8b 45 d8             	mov    -0x28(%ebp),%eax
  4045a3:	8b 55 dc             	mov    -0x24(%ebp),%edx
  4045a6:	89 41 18             	mov    %eax,0x18(%ecx)
  4045a9:	89 51 1c             	mov    %edx,0x1c(%ecx)
  4045ac:	8b 45 08             	mov    0x8(%ebp),%eax
  4045af:	89 44 24 04          	mov    %eax,0x4(%esp)
  4045b3:	8b 45 b0             	mov    -0x50(%ebp),%eax
  4045b6:	89 04 24             	mov    %eax,(%esp)
  4045b9:	e8 41 cf ff ff       	call   4014ff <_getSquare>
  4045be:	8b 55 ac             	mov    -0x54(%ebp),%edx
  4045c1:	89 42 20             	mov    %eax,0x20(%edx)
  4045c4:	8b 15 0c d1 40 00    	mov    0x40d10c,%edx
  4045ca:	8b 45 ac             	mov    -0x54(%ebp),%eax
  4045cd:	89 50 24             	mov    %edx,0x24(%eax)
  4045d0:	8b 45 08             	mov    0x8(%ebp),%eax
  4045d3:	8b 55 14             	mov    0x14(%ebp),%edx
  4045d6:	83 c2 0c             	add    $0xc,%edx
  4045d9:	8b 44 d0 0c          	mov    0xc(%eax,%edx,8),%eax
  4045dd:	85 c0                	test   %eax,%eax
  4045df:	74 1a                	je     4045fb <_getRookMoves+0x216>
  4045e1:	83 7d c4 00          	cmpl   $0x0,-0x3c(%ebp)
  4045e5:	74 06                	je     4045ed <_getRookMoves+0x208>
  4045e7:	83 7d c4 38          	cmpl   $0x38,-0x3c(%ebp)
  4045eb:	75 0e                	jne    4045fb <_getRookMoves+0x216>
  4045ed:	8b 15 e4 d7 40 00    	mov    0x40d7e4,%edx
  4045f3:	8b 45 ac             	mov    -0x54(%ebp),%eax
  4045f6:	89 50 28             	mov    %edx,0x28(%eax)
  4045f9:	eb 34                	jmp    40462f <_getRookMoves+0x24a>
  4045fb:	8b 45 08             	mov    0x8(%ebp),%eax
  4045fe:	8b 55 14             	mov    0x14(%ebp),%edx
  404601:	8b 44 d0 70          	mov    0x70(%eax,%edx,8),%eax
  404605:	85 c0                	test   %eax,%eax
  404607:	74 1a                	je     404623 <_getRookMoves+0x23e>
  404609:	83 7d c4 07          	cmpl   $0x7,-0x3c(%ebp)
  40460d:	74 06                	je     404615 <_getRookMoves+0x230>
  40460f:	83 7d c4 3f          	cmpl   $0x3f,-0x3c(%ebp)
  404613:	75 0e                	jne    404623 <_getRookMoves+0x23e>
  404615:	8b 15 e8 d7 40 00    	mov    0x40d7e8,%edx
  40461b:	8b 45 ac             	mov    -0x54(%ebp),%eax
  40461e:	89 50 28             	mov    %edx,0x28(%eax)
  404621:	eb 0c                	jmp    40462f <_getRookMoves+0x24a>
  404623:	8b 15 28 10 41 00    	mov    0x411028,%edx
  404629:	8b 45 ac             	mov    -0x54(%ebp),%eax
  40462c:	89 50 28             	mov    %edx,0x28(%eax)
  40462f:	8b 45 10             	mov    0x10(%ebp),%eax
  404632:	8b 00                	mov    (%eax),%eax
  404634:	8d 48 01             	lea    0x1(%eax),%ecx
  404637:	8b 55 10             	mov    0x10(%ebp),%edx
  40463a:	89 0a                	mov    %ecx,(%edx)
  40463c:	8d 14 85 00 00 00 00 	lea    0x0(,%eax,4),%edx
  404643:	8b 45 0c             	mov    0xc(%ebp),%eax
  404646:	01 c2                	add    %eax,%edx
  404648:	8b 45 ac             	mov    -0x54(%ebp),%eax
  40464b:	89 02                	mov    %eax,(%edx)
  40464d:	8b 4d b0             	mov    -0x50(%ebp),%ecx
  404650:	b8 01 00 00 00       	mov    $0x1,%eax
  404655:	ba 00 00 00 00       	mov    $0x0,%edx
  40465a:	0f a5 c2             	shld   %cl,%eax,%edx
  40465d:	d3 e0                	shl    %cl,%eax
  40465f:	f6 c1 20             	test   $0x20,%cl
  404662:	74 04                	je     404668 <_getRookMoves+0x283>
  404664:	89 c2                	mov    %eax,%edx
  404666:	31 c0                	xor    %eax,%eax
  404668:	31 45 c8             	xor    %eax,-0x38(%ebp)
  40466b:	31 55 cc             	xor    %edx,-0x34(%ebp)
  40466e:	8b 45 c8             	mov    -0x38(%ebp),%eax
  404671:	8b 55 cc             	mov    -0x34(%ebp),%edx
  404674:	09 d0                	or     %edx,%eax
  404676:	85 c0                	test   %eax,%eax
  404678:	0f 85 d2 fe ff ff    	jne    404550 <_getRookMoves+0x16b>
  40467e:	8b 4d c4             	mov    -0x3c(%ebp),%ecx
  404681:	b8 01 00 00 00       	mov    $0x1,%eax
  404686:	ba 00 00 00 00       	mov    $0x0,%edx
  40468b:	0f a5 c2             	shld   %cl,%eax,%edx
  40468e:	d3 e0                	shl    %cl,%eax
  404690:	f6 c1 20             	test   $0x20,%cl
  404693:	74 04                	je     404699 <_getRookMoves+0x2b4>
  404695:	89 c2                	mov    %eax,%edx
  404697:	31 c0                	xor    %eax,%eax
  404699:	31 45 d0             	xor    %eax,-0x30(%ebp)
  40469c:	31 55 d4             	xor    %edx,-0x2c(%ebp)
  40469f:	8b 45 d0             	mov    -0x30(%ebp),%eax
  4046a2:	8b 55 d4             	mov    -0x2c(%ebp),%edx
  4046a5:	09 d0                	or     %edx,%eax
  4046a7:	85 c0                	test   %eax,%eax
  4046a9:	0f 85 ad fd ff ff    	jne    40445c <_getRookMoves+0x77>
  4046af:	83 c4 6c             	add    $0x6c,%esp
  4046b2:	5b                   	pop    %ebx
  4046b3:	5e                   	pop    %esi
  4046b4:	5f                   	pop    %edi
  4046b5:	5d                   	pop    %ebp
  4046b6:	c3                   	ret    

004046b7 <_getBishopMoves>:
  4046b7:	55                   	push   %ebp
  4046b8:	89 e5                	mov    %esp,%ebp
  4046ba:	57                   	push   %edi
  4046bb:	56                   	push   %esi
  4046bc:	53                   	push   %ebx
  4046bd:	83 ec 6c             	sub    $0x6c,%esp
  4046c0:	a1 20 10 41 00       	mov    0x411020,%eax
  4046c5:	39 45 14             	cmp    %eax,0x14(%ebp)
  4046c8:	75 1f                	jne    4046e9 <_getBishopMoves+0x32>
  4046ca:	8b 45 08             	mov    0x8(%ebp),%eax
  4046cd:	8b 50 04             	mov    0x4(%eax),%edx
  4046d0:	8b 00                	mov    (%eax),%eax
  4046d2:	89 45 e0             	mov    %eax,-0x20(%ebp)
  4046d5:	89 55 e4             	mov    %edx,-0x1c(%ebp)
  4046d8:	8b 45 08             	mov    0x8(%ebp),%eax
  4046db:	8b 50 0c             	mov    0xc(%eax),%edx
  4046de:	8b 40 08             	mov    0x8(%eax),%eax
  4046e1:	89 45 d8             	mov    %eax,-0x28(%ebp)
  4046e4:	89 55 dc             	mov    %edx,-0x24(%ebp)
  4046e7:	eb 27                	jmp    404710 <_getBishopMoves+0x59>
  4046e9:	a1 00 d1 40 00       	mov    0x40d100,%eax
  4046ee:	39 45 14             	cmp    %eax,0x14(%ebp)
  4046f1:	75 1d                	jne    404710 <_getBishopMoves+0x59>
  4046f3:	8b 45 08             	mov    0x8(%ebp),%eax
  4046f6:	8b 50 0c             	mov    0xc(%eax),%edx
  4046f9:	8b 40 08             	mov    0x8(%eax),%eax
  4046fc:	89 45 e0             	mov    %eax,-0x20(%ebp)
  4046ff:	89 55 e4             	mov    %edx,-0x1c(%ebp)
  404702:	8b 45 08             	mov    0x8(%ebp),%eax
  404705:	8b 50 04             	mov    0x4(%eax),%edx
  404708:	8b 00                	mov    (%eax),%eax
  40470a:	89 45 d8             	mov    %eax,-0x28(%ebp)
  40470d:	89 55 dc             	mov    %edx,-0x24(%ebp)
  404710:	8b 45 08             	mov    0x8(%ebp),%eax
  404713:	8b 50 34             	mov    0x34(%eax),%edx
  404716:	8b 40 30             	mov    0x30(%eax),%eax
  404719:	89 c1                	mov    %eax,%ecx
  40471b:	23 4d e0             	and    -0x20(%ebp),%ecx
  40471e:	89 4d d0             	mov    %ecx,-0x30(%ebp)
  404721:	89 d0                	mov    %edx,%eax
  404723:	23 45 e4             	and    -0x1c(%ebp),%eax
  404726:	89 45 d4             	mov    %eax,-0x2c(%ebp)
  404729:	e9 f0 01 00 00       	jmp    40491e <_getBishopMoves+0x267>
  40472e:	8b 45 d0             	mov    -0x30(%ebp),%eax
  404731:	8b 55 d4             	mov    -0x2c(%ebp),%edx
  404734:	89 04 24             	mov    %eax,(%esp)
  404737:	89 54 24 04          	mov    %edx,0x4(%esp)
  40473b:	e8 55 cd ff ff       	call   401495 <_getLSB>
  404740:	89 45 c4             	mov    %eax,-0x3c(%ebp)
  404743:	8b 45 08             	mov    0x8(%ebp),%eax
  404746:	8b 08                	mov    (%eax),%ecx
  404748:	8b 58 04             	mov    0x4(%eax),%ebx
  40474b:	8b 45 08             	mov    0x8(%ebp),%eax
  40474e:	8b 50 0c             	mov    0xc(%eax),%edx
  404751:	8b 40 08             	mov    0x8(%eax),%eax
  404754:	89 cf                	mov    %ecx,%edi
  404756:	09 c7                	or     %eax,%edi
  404758:	89 7d a0             	mov    %edi,-0x60(%ebp)
  40475b:	89 df                	mov    %ebx,%edi
  40475d:	09 d7                	or     %edx,%edi
  40475f:	89 7d a4             	mov    %edi,-0x5c(%ebp)
  404762:	8b 45 08             	mov    0x8(%ebp),%eax
  404765:	8b 80 a0 00 00 00    	mov    0xa0(%eax),%eax
  40476b:	8b 55 c4             	mov    -0x3c(%ebp),%edx
  40476e:	c1 e2 03             	shl    $0x3,%edx
  404771:	01 d0                	add    %edx,%eax
  404773:	8b 50 04             	mov    0x4(%eax),%edx
  404776:	8b 00                	mov    (%eax),%eax
  404778:	8b 4d a0             	mov    -0x60(%ebp),%ecx
  40477b:	21 c1                	and    %eax,%ecx
  40477d:	89 4d b8             	mov    %ecx,-0x48(%ebp)
  404780:	89 d0                	mov    %edx,%eax
  404782:	23 45 a4             	and    -0x5c(%ebp),%eax
  404785:	89 45 bc             	mov    %eax,-0x44(%ebp)
  404788:	8b 45 08             	mov    0x8(%ebp),%eax
  40478b:	8b 80 a8 00 00 00    	mov    0xa8(%eax),%eax
  404791:	8b 55 c4             	mov    -0x3c(%ebp),%edx
  404794:	c1 e2 03             	shl    $0x3,%edx
  404797:	01 d0                	add    %edx,%eax
  404799:	8b 50 04             	mov    0x4(%eax),%edx
  40479c:	8b 00                	mov    (%eax),%eax
  40479e:	8b 4d b8             	mov    -0x48(%ebp),%ecx
  4047a1:	89 cb                	mov    %ecx,%ebx
  4047a3:	0f af da             	imul   %edx,%ebx
  4047a6:	8b 4d bc             	mov    -0x44(%ebp),%ecx
  4047a9:	0f af c8             	imul   %eax,%ecx
  4047ac:	01 d9                	add    %ebx,%ecx
  4047ae:	f7 65 b8             	mull   -0x48(%ebp)
  4047b1:	01 d1                	add    %edx,%ecx
  4047b3:	89 ca                	mov    %ecx,%edx
  4047b5:	8b 4d 08             	mov    0x8(%ebp),%ecx
  4047b8:	8b 99 a4 00 00 00    	mov    0xa4(%ecx),%ebx
  4047be:	8b 4d c4             	mov    -0x3c(%ebp),%ecx
  4047c1:	c1 e1 02             	shl    $0x2,%ecx
  4047c4:	01 d9                	add    %ebx,%ecx
  4047c6:	8b 09                	mov    (%ecx),%ecx
  4047c8:	0f ad d0             	shrd   %cl,%edx,%eax
  4047cb:	d3 ea                	shr    %cl,%edx
  4047cd:	f6 c1 20             	test   $0x20,%cl
  4047d0:	74 04                	je     4047d6 <_getBishopMoves+0x11f>
  4047d2:	89 d0                	mov    %edx,%eax
  4047d4:	31 d2                	xor    %edx,%edx
  4047d6:	89 45 b4             	mov    %eax,-0x4c(%ebp)
  4047d9:	8b 45 08             	mov    0x8(%ebp),%eax
  4047dc:	8b 80 b0 00 00 00    	mov    0xb0(%eax),%eax
  4047e2:	8b 55 c4             	mov    -0x3c(%ebp),%edx
  4047e5:	c1 e2 02             	shl    $0x2,%edx
  4047e8:	01 d0                	add    %edx,%eax
  4047ea:	8b 00                	mov    (%eax),%eax
  4047ec:	8b 55 b4             	mov    -0x4c(%ebp),%edx
  4047ef:	c1 e2 03             	shl    $0x3,%edx
  4047f2:	01 d0                	add    %edx,%eax
  4047f4:	8b 50 04             	mov    0x4(%eax),%edx
  4047f7:	8b 00                	mov    (%eax),%eax
  4047f9:	8b 4d e0             	mov    -0x20(%ebp),%ecx
  4047fc:	f7 d1                	not    %ecx
  4047fe:	89 4d 98             	mov    %ecx,-0x68(%ebp)
  404801:	8b 4d e4             	mov    -0x1c(%ebp),%ecx
  404804:	f7 d1                	not    %ecx
  404806:	89 4d 9c             	mov    %ecx,-0x64(%ebp)
  404809:	8b 75 98             	mov    -0x68(%ebp),%esi
  40480c:	8b 7d 9c             	mov    -0x64(%ebp),%edi
  40480f:	89 f1                	mov    %esi,%ecx
  404811:	21 c1                	and    %eax,%ecx
  404813:	89 4d c8             	mov    %ecx,-0x38(%ebp)
  404816:	89 d0                	mov    %edx,%eax
  404818:	21 f8                	and    %edi,%eax
  40481a:	89 45 cc             	mov    %eax,-0x34(%ebp)
  40481d:	e9 cb 00 00 00       	jmp    4048ed <_getBishopMoves+0x236>
  404822:	8b 45 c8             	mov    -0x38(%ebp),%eax
  404825:	8b 55 cc             	mov    -0x34(%ebp),%edx
  404828:	89 04 24             	mov    %eax,(%esp)
  40482b:	89 54 24 04          	mov    %edx,0x4(%esp)
  40482f:	e8 61 cc ff ff       	call   401495 <_getLSB>
  404834:	89 45 b0             	mov    %eax,-0x50(%ebp)
  404837:	c7 04 24 30 00 00 00 	movl   $0x30,(%esp)
  40483e:	e8 d5 78 00 00       	call   40c118 <_malloc>
  404843:	89 45 ac             	mov    %eax,-0x54(%ebp)
  404846:	8b 45 ac             	mov    -0x54(%ebp),%eax
  404849:	8b 55 14             	mov    0x14(%ebp),%edx
  40484c:	89 10                	mov    %edx,(%eax)
  40484e:	8b 45 ac             	mov    -0x54(%ebp),%eax
  404851:	8b 55 c4             	mov    -0x3c(%ebp),%edx
  404854:	89 50 04             	mov    %edx,0x4(%eax)
  404857:	8b 45 ac             	mov    -0x54(%ebp),%eax
  40485a:	8b 55 b0             	mov    -0x50(%ebp),%edx
  40485d:	89 50 08             	mov    %edx,0x8(%eax)
  404860:	8b 4d ac             	mov    -0x54(%ebp),%ecx
  404863:	8b 45 e0             	mov    -0x20(%ebp),%eax
  404866:	8b 55 e4             	mov    -0x1c(%ebp),%edx
  404869:	89 41 10             	mov    %eax,0x10(%ecx)
  40486c:	89 51 14             	mov    %edx,0x14(%ecx)
  40486f:	8b 4d ac             	mov    -0x54(%ebp),%ecx
  404872:	8b 45 d8             	mov    -0x28(%ebp),%eax
  404875:	8b 55 dc             	mov    -0x24(%ebp),%edx
  404878:	89 41 18             	mov    %eax,0x18(%ecx)
  40487b:	89 51 1c             	mov    %edx,0x1c(%ecx)
  40487e:	8b 45 08             	mov    0x8(%ebp),%eax
  404881:	89 44 24 04          	mov    %eax,0x4(%esp)
  404885:	8b 45 b0             	mov    -0x50(%ebp),%eax
  404888:	89 04 24             	mov    %eax,(%esp)
  40488b:	e8 6f cc ff ff       	call   4014ff <_getSquare>
  404890:	8b 55 ac             	mov    -0x54(%ebp),%edx
  404893:	89 42 20             	mov    %eax,0x20(%edx)
  404896:	8b 15 04 d1 40 00    	mov    0x40d104,%edx
  40489c:	8b 45 ac             	mov    -0x54(%ebp),%eax
  40489f:	89 50 24             	mov    %edx,0x24(%eax)
  4048a2:	8b 15 28 10 41 00    	mov    0x411028,%edx
  4048a8:	8b 45 ac             	mov    -0x54(%ebp),%eax
  4048ab:	89 50 28             	mov    %edx,0x28(%eax)
  4048ae:	8b 45 10             	mov    0x10(%ebp),%eax
  4048b1:	8b 00                	mov    (%eax),%eax
  4048b3:	8d 48 01             	lea    0x1(%eax),%ecx
  4048b6:	8b 55 10             	mov    0x10(%ebp),%edx
  4048b9:	89 0a                	mov    %ecx,(%edx)
  4048bb:	8d 14 85 00 00 00 00 	lea    0x0(,%eax,4),%edx
  4048c2:	8b 45 0c             	mov    0xc(%ebp),%eax
  4048c5:	01 c2                	add    %eax,%edx
  4048c7:	8b 45 ac             	mov    -0x54(%ebp),%eax
  4048ca:	89 02                	mov    %eax,(%edx)
  4048cc:	8b 4d b0             	mov    -0x50(%ebp),%ecx
  4048cf:	b8 01 00 00 00       	mov    $0x1,%eax
  4048d4:	ba 00 00 00 00       	mov    $0x0,%edx
  4048d9:	0f a5 c2             	shld   %cl,%eax,%edx
  4048dc:	d3 e0                	shl    %cl,%eax
  4048de:	f6 c1 20             	test   $0x20,%cl
  4048e1:	74 04                	je     4048e7 <_getBishopMoves+0x230>
  4048e3:	89 c2                	mov    %eax,%edx
  4048e5:	31 c0                	xor    %eax,%eax
  4048e7:	31 45 c8             	xor    %eax,-0x38(%ebp)
  4048ea:	31 55 cc             	xor    %edx,-0x34(%ebp)
  4048ed:	8b 45 c8             	mov    -0x38(%ebp),%eax
  4048f0:	8b 55 cc             	mov    -0x34(%ebp),%edx
  4048f3:	09 d0                	or     %edx,%eax
  4048f5:	85 c0                	test   %eax,%eax
  4048f7:	0f 85 25 ff ff ff    	jne    404822 <_getBishopMoves+0x16b>
  4048fd:	8b 4d c4             	mov    -0x3c(%ebp),%ecx
  404900:	b8 01 00 00 00       	mov    $0x1,%eax
  404905:	ba 00 00 00 00       	mov    $0x0,%edx
  40490a:	0f a5 c2             	shld   %cl,%eax,%edx
  40490d:	d3 e0                	shl    %cl,%eax
  40490f:	f6 c1 20             	test   $0x20,%cl
  404912:	74 04                	je     404918 <_getBishopMoves+0x261>
  404914:	89 c2                	mov    %eax,%edx
  404916:	31 c0                	xor    %eax,%eax
  404918:	31 45 d0             	xor    %eax,-0x30(%ebp)
  40491b:	31 55 d4             	xor    %edx,-0x2c(%ebp)
  40491e:	8b 45 d0             	mov    -0x30(%ebp),%eax
  404921:	8b 55 d4             	mov    -0x2c(%ebp),%edx
  404924:	09 d0                	or     %edx,%eax
  404926:	85 c0                	test   %eax,%eax
  404928:	0f 85 00 fe ff ff    	jne    40472e <_getBishopMoves+0x77>
  40492e:	83 c4 6c             	add    $0x6c,%esp
  404931:	5b                   	pop    %ebx
  404932:	5e                   	pop    %esi
  404933:	5f                   	pop    %edi
  404934:	5d                   	pop    %ebp
  404935:	c3                   	ret    

00404936 <_getQueenMoves>:
  404936:	55                   	push   %ebp
  404937:	89 e5                	mov    %esp,%ebp
  404939:	57                   	push   %edi
  40493a:	56                   	push   %esi
  40493b:	53                   	push   %ebx
  40493c:	81 ec 8c 00 00 00    	sub    $0x8c,%esp
  404942:	a1 20 10 41 00       	mov    0x411020,%eax
  404947:	39 45 14             	cmp    %eax,0x14(%ebp)
  40494a:	75 1f                	jne    40496b <_getQueenMoves+0x35>
  40494c:	8b 45 08             	mov    0x8(%ebp),%eax
  40494f:	8b 50 04             	mov    0x4(%eax),%edx
  404952:	8b 00                	mov    (%eax),%eax
  404954:	89 45 e0             	mov    %eax,-0x20(%ebp)
  404957:	89 55 e4             	mov    %edx,-0x1c(%ebp)
  40495a:	8b 45 08             	mov    0x8(%ebp),%eax
  40495d:	8b 50 0c             	mov    0xc(%eax),%edx
  404960:	8b 40 08             	mov    0x8(%eax),%eax
  404963:	89 45 d8             	mov    %eax,-0x28(%ebp)
  404966:	89 55 dc             	mov    %edx,-0x24(%ebp)
  404969:	eb 27                	jmp    404992 <_getQueenMoves+0x5c>
  40496b:	a1 00 d1 40 00       	mov    0x40d100,%eax
  404970:	39 45 14             	cmp    %eax,0x14(%ebp)
  404973:	75 1d                	jne    404992 <_getQueenMoves+0x5c>
  404975:	8b 45 08             	mov    0x8(%ebp),%eax
  404978:	8b 50 0c             	mov    0xc(%eax),%edx
  40497b:	8b 40 08             	mov    0x8(%eax),%eax
  40497e:	89 45 e0             	mov    %eax,-0x20(%ebp)
  404981:	89 55 e4             	mov    %edx,-0x1c(%ebp)
  404984:	8b 45 08             	mov    0x8(%ebp),%eax
  404987:	8b 50 04             	mov    0x4(%eax),%edx
  40498a:	8b 00                	mov    (%eax),%eax
  40498c:	89 45 d8             	mov    %eax,-0x28(%ebp)
  40498f:	89 55 dc             	mov    %edx,-0x24(%ebp)
  404992:	8b 45 08             	mov    0x8(%ebp),%eax
  404995:	8b 50 1c             	mov    0x1c(%eax),%edx
  404998:	8b 40 18             	mov    0x18(%eax),%eax
  40499b:	89 c1                	mov    %eax,%ecx
  40499d:	23 4d e0             	and    -0x20(%ebp),%ecx
  4049a0:	89 4d d0             	mov    %ecx,-0x30(%ebp)
  4049a3:	89 d0                	mov    %edx,%eax
  4049a5:	23 45 e4             	and    -0x1c(%ebp),%eax
  4049a8:	89 45 d4             	mov    %eax,-0x2c(%ebp)
  4049ab:	e9 dc 03 00 00       	jmp    404d8c <_getQueenMoves+0x456>
  4049b0:	8b 45 d0             	mov    -0x30(%ebp),%eax
  4049b3:	8b 55 d4             	mov    -0x2c(%ebp),%edx
  4049b6:	89 04 24             	mov    %eax,(%esp)
  4049b9:	89 54 24 04          	mov    %edx,0x4(%esp)
  4049bd:	e8 d3 ca ff ff       	call   401495 <_getLSB>
  4049c2:	89 45 c4             	mov    %eax,-0x3c(%ebp)
  4049c5:	8b 45 08             	mov    0x8(%ebp),%eax
  4049c8:	8b 08                	mov    (%eax),%ecx
  4049ca:	8b 58 04             	mov    0x4(%eax),%ebx
  4049cd:	8b 45 08             	mov    0x8(%ebp),%eax
  4049d0:	8b 50 0c             	mov    0xc(%eax),%edx
  4049d3:	8b 40 08             	mov    0x8(%eax),%eax
  4049d6:	89 cf                	mov    %ecx,%edi
  4049d8:	09 c7                	or     %eax,%edi
  4049da:	89 7d 90             	mov    %edi,-0x70(%ebp)
  4049dd:	89 df                	mov    %ebx,%edi
  4049df:	09 d7                	or     %edx,%edi
  4049e1:	89 7d 94             	mov    %edi,-0x6c(%ebp)
  4049e4:	8b 45 08             	mov    0x8(%ebp),%eax
  4049e7:	8b 90 8c 00 00 00    	mov    0x8c(%eax),%edx
  4049ed:	8b 45 c4             	mov    -0x3c(%ebp),%eax
  4049f0:	c1 e0 03             	shl    $0x3,%eax
  4049f3:	01 d0                	add    %edx,%eax
  4049f5:	8b 50 04             	mov    0x4(%eax),%edx
  4049f8:	8b 00                	mov    (%eax),%eax
  4049fa:	8b 75 90             	mov    -0x70(%ebp),%esi
  4049fd:	8b 7d 94             	mov    -0x6c(%ebp),%edi
  404a00:	89 f1                	mov    %esi,%ecx
  404a02:	21 c1                	and    %eax,%ecx
  404a04:	89 4d b8             	mov    %ecx,-0x48(%ebp)
  404a07:	89 d0                	mov    %edx,%eax
  404a09:	21 f8                	and    %edi,%eax
  404a0b:	89 45 bc             	mov    %eax,-0x44(%ebp)
  404a0e:	8b 45 08             	mov    0x8(%ebp),%eax
  404a11:	8b 90 94 00 00 00    	mov    0x94(%eax),%edx
  404a17:	8b 45 c4             	mov    -0x3c(%ebp),%eax
  404a1a:	c1 e0 03             	shl    $0x3,%eax
  404a1d:	01 d0                	add    %edx,%eax
  404a1f:	8b 50 04             	mov    0x4(%eax),%edx
  404a22:	8b 00                	mov    (%eax),%eax
  404a24:	8b 4d b8             	mov    -0x48(%ebp),%ecx
  404a27:	89 cb                	mov    %ecx,%ebx
  404a29:	0f af da             	imul   %edx,%ebx
  404a2c:	8b 4d bc             	mov    -0x44(%ebp),%ecx
  404a2f:	0f af c8             	imul   %eax,%ecx
  404a32:	01 d9                	add    %ebx,%ecx
  404a34:	f7 65 b8             	mull   -0x48(%ebp)
  404a37:	89 c3                	mov    %eax,%ebx
  404a39:	89 d6                	mov    %edx,%esi
  404a3b:	8d 04 31             	lea    (%ecx,%esi,1),%eax
  404a3e:	89 c6                	mov    %eax,%esi
  404a40:	8b 45 08             	mov    0x8(%ebp),%eax
  404a43:	8b 90 90 00 00 00    	mov    0x90(%eax),%edx
  404a49:	8b 45 c4             	mov    -0x3c(%ebp),%eax
  404a4c:	c1 e0 02             	shl    $0x2,%eax
  404a4f:	01 d0                	add    %edx,%eax
  404a51:	8b 00                	mov    (%eax),%eax
  404a53:	89 c1                	mov    %eax,%ecx
  404a55:	0f ad f3             	shrd   %cl,%esi,%ebx
  404a58:	d3 ee                	shr    %cl,%esi
  404a5a:	f6 c1 20             	test   $0x20,%cl
  404a5d:	74 04                	je     404a63 <_getQueenMoves+0x12d>
  404a5f:	89 f3                	mov    %esi,%ebx
  404a61:	31 f6                	xor    %esi,%esi
  404a63:	89 d8                	mov    %ebx,%eax
  404a65:	89 f2                	mov    %esi,%edx
  404a67:	89 45 b4             	mov    %eax,-0x4c(%ebp)
  404a6a:	8b 45 08             	mov    0x8(%ebp),%eax
  404a6d:	8b 90 9c 00 00 00    	mov    0x9c(%eax),%edx
  404a73:	8b 45 c4             	mov    -0x3c(%ebp),%eax
  404a76:	c1 e0 02             	shl    $0x2,%eax
  404a79:	01 d0                	add    %edx,%eax
  404a7b:	8b 10                	mov    (%eax),%edx
  404a7d:	8b 45 b4             	mov    -0x4c(%ebp),%eax
  404a80:	c1 e0 03             	shl    $0x3,%eax
  404a83:	01 d0                	add    %edx,%eax
  404a85:	8b 10                	mov    (%eax),%edx
  404a87:	8b 48 04             	mov    0x4(%eax),%ecx
  404a8a:	8b 45 e0             	mov    -0x20(%ebp),%eax
  404a8d:	f7 d0                	not    %eax
  404a8f:	89 45 88             	mov    %eax,-0x78(%ebp)
  404a92:	8b 45 e4             	mov    -0x1c(%ebp),%eax
  404a95:	f7 d0                	not    %eax
  404a97:	89 45 8c             	mov    %eax,-0x74(%ebp)
  404a9a:	8b 75 88             	mov    -0x78(%ebp),%esi
  404a9d:	8b 7d 8c             	mov    -0x74(%ebp),%edi
  404aa0:	89 f0                	mov    %esi,%eax
  404aa2:	21 d0                	and    %edx,%eax
  404aa4:	89 45 c8             	mov    %eax,-0x38(%ebp)
  404aa7:	89 c8                	mov    %ecx,%eax
  404aa9:	21 f8                	and    %edi,%eax
  404aab:	89 45 cc             	mov    %eax,-0x34(%ebp)
  404aae:	e9 cf 00 00 00       	jmp    404b82 <_getQueenMoves+0x24c>
  404ab3:	8b 45 c8             	mov    -0x38(%ebp),%eax
  404ab6:	8b 55 cc             	mov    -0x34(%ebp),%edx
  404ab9:	89 04 24             	mov    %eax,(%esp)
  404abc:	89 54 24 04          	mov    %edx,0x4(%esp)
  404ac0:	e8 d0 c9 ff ff       	call   401495 <_getLSB>
  404ac5:	89 45 b0             	mov    %eax,-0x50(%ebp)
  404ac8:	c7 04 24 30 00 00 00 	movl   $0x30,(%esp)
  404acf:	e8 44 76 00 00       	call   40c118 <_malloc>
  404ad4:	89 45 ac             	mov    %eax,-0x54(%ebp)
  404ad7:	8b 55 ac             	mov    -0x54(%ebp),%edx
  404ada:	8b 45 14             	mov    0x14(%ebp),%eax
  404add:	89 02                	mov    %eax,(%edx)
  404adf:	8b 55 ac             	mov    -0x54(%ebp),%edx
  404ae2:	8b 45 c4             	mov    -0x3c(%ebp),%eax
  404ae5:	89 42 04             	mov    %eax,0x4(%edx)
  404ae8:	8b 55 ac             	mov    -0x54(%ebp),%edx
  404aeb:	8b 45 b0             	mov    -0x50(%ebp),%eax
  404aee:	89 42 08             	mov    %eax,0x8(%edx)
  404af1:	8b 4d ac             	mov    -0x54(%ebp),%ecx
  404af4:	8b 45 e0             	mov    -0x20(%ebp),%eax
  404af7:	8b 55 e4             	mov    -0x1c(%ebp),%edx
  404afa:	89 41 10             	mov    %eax,0x10(%ecx)
  404afd:	89 51 14             	mov    %edx,0x14(%ecx)
  404b00:	8b 4d ac             	mov    -0x54(%ebp),%ecx
  404b03:	8b 45 d8             	mov    -0x28(%ebp),%eax
  404b06:	8b 55 dc             	mov    -0x24(%ebp),%edx
  404b09:	89 41 18             	mov    %eax,0x18(%ecx)
  404b0c:	89 51 1c             	mov    %edx,0x1c(%ecx)
  404b0f:	8b 45 08             	mov    0x8(%ebp),%eax
  404b12:	89 44 24 04          	mov    %eax,0x4(%esp)
  404b16:	8b 45 b0             	mov    -0x50(%ebp),%eax
  404b19:	89 04 24             	mov    %eax,(%esp)
  404b1c:	e8 de c9 ff ff       	call   4014ff <_getSquare>
  404b21:	89 c2                	mov    %eax,%edx
  404b23:	8b 45 ac             	mov    -0x54(%ebp),%eax
  404b26:	89 50 20             	mov    %edx,0x20(%eax)
  404b29:	8b 15 10 d1 40 00    	mov    0x40d110,%edx
  404b2f:	8b 45 ac             	mov    -0x54(%ebp),%eax
  404b32:	89 50 24             	mov    %edx,0x24(%eax)
  404b35:	8b 15 28 10 41 00    	mov    0x411028,%edx
  404b3b:	8b 45 ac             	mov    -0x54(%ebp),%eax
  404b3e:	89 50 28             	mov    %edx,0x28(%eax)
  404b41:	8b 45 10             	mov    0x10(%ebp),%eax
  404b44:	8b 08                	mov    (%eax),%ecx
  404b46:	8d 51 01             	lea    0x1(%ecx),%edx
  404b49:	8b 45 10             	mov    0x10(%ebp),%eax
  404b4c:	89 10                	mov    %edx,(%eax)
  404b4e:	89 c8                	mov    %ecx,%eax
  404b50:	8d 14 85 00 00 00 00 	lea    0x0(,%eax,4),%edx
  404b57:	8b 45 0c             	mov    0xc(%ebp),%eax
  404b5a:	01 c2                	add    %eax,%edx
  404b5c:	8b 45 ac             	mov    -0x54(%ebp),%eax
  404b5f:	89 02                	mov    %eax,(%edx)
  404b61:	8b 4d b0             	mov    -0x50(%ebp),%ecx
  404b64:	b8 01 00 00 00       	mov    $0x1,%eax
  404b69:	ba 00 00 00 00       	mov    $0x0,%edx
  404b6e:	0f a5 c2             	shld   %cl,%eax,%edx
  404b71:	d3 e0                	shl    %cl,%eax
  404b73:	f6 c1 20             	test   $0x20,%cl
  404b76:	74 04                	je     404b7c <_getQueenMoves+0x246>
  404b78:	89 c2                	mov    %eax,%edx
  404b7a:	31 c0                	xor    %eax,%eax
  404b7c:	31 45 c8             	xor    %eax,-0x38(%ebp)
  404b7f:	31 55 cc             	xor    %edx,-0x34(%ebp)
  404b82:	8b 55 c8             	mov    -0x38(%ebp),%edx
  404b85:	8b 45 cc             	mov    -0x34(%ebp),%eax
  404b88:	09 d0                	or     %edx,%eax
  404b8a:	85 c0                	test   %eax,%eax
  404b8c:	0f 85 21 ff ff ff    	jne    404ab3 <_getQueenMoves+0x17d>
  404b92:	8b 45 08             	mov    0x8(%ebp),%eax
  404b95:	8b 08                	mov    (%eax),%ecx
  404b97:	8b 58 04             	mov    0x4(%eax),%ebx
  404b9a:	8b 45 08             	mov    0x8(%ebp),%eax
  404b9d:	8b 50 0c             	mov    0xc(%eax),%edx
  404ba0:	8b 40 08             	mov    0x8(%eax),%eax
  404ba3:	89 ce                	mov    %ecx,%esi
  404ba5:	09 c6                	or     %eax,%esi
  404ba7:	89 75 80             	mov    %esi,-0x80(%ebp)
  404baa:	89 df                	mov    %ebx,%edi
  404bac:	09 d7                	or     %edx,%edi
  404bae:	89 7d 84             	mov    %edi,-0x7c(%ebp)
  404bb1:	8b 45 08             	mov    0x8(%ebp),%eax
  404bb4:	8b 90 a0 00 00 00    	mov    0xa0(%eax),%edx
  404bba:	8b 45 c4             	mov    -0x3c(%ebp),%eax
  404bbd:	c1 e0 03             	shl    $0x3,%eax
  404bc0:	01 d0                	add    %edx,%eax
  404bc2:	8b 50 04             	mov    0x4(%eax),%edx
  404bc5:	8b 00                	mov    (%eax),%eax
  404bc7:	8b 75 80             	mov    -0x80(%ebp),%esi
  404bca:	8b 7d 84             	mov    -0x7c(%ebp),%edi
  404bcd:	89 f1                	mov    %esi,%ecx
  404bcf:	21 c1                	and    %eax,%ecx
  404bd1:	89 4d b8             	mov    %ecx,-0x48(%ebp)
  404bd4:	89 d0                	mov    %edx,%eax
  404bd6:	21 f8                	and    %edi,%eax
  404bd8:	89 45 bc             	mov    %eax,-0x44(%ebp)
  404bdb:	8b 45 08             	mov    0x8(%ebp),%eax
  404bde:	8b 90 a8 00 00 00    	mov    0xa8(%eax),%edx
  404be4:	8b 45 c4             	mov    -0x3c(%ebp),%eax
  404be7:	c1 e0 03             	shl    $0x3,%eax
  404bea:	01 d0                	add    %edx,%eax
  404bec:	8b 50 04             	mov    0x4(%eax),%edx
  404bef:	8b 00                	mov    (%eax),%eax
  404bf1:	8b 4d b8             	mov    -0x48(%ebp),%ecx
  404bf4:	89 cb                	mov    %ecx,%ebx
  404bf6:	0f af da             	imul   %edx,%ebx
  404bf9:	8b 4d bc             	mov    -0x44(%ebp),%ecx
  404bfc:	0f af c8             	imul   %eax,%ecx
  404bff:	01 d9                	add    %ebx,%ecx
  404c01:	f7 65 b8             	mull   -0x48(%ebp)
  404c04:	89 c3                	mov    %eax,%ebx
  404c06:	89 d6                	mov    %edx,%esi
  404c08:	8d 04 31             	lea    (%ecx,%esi,1),%eax
  404c0b:	89 c6                	mov    %eax,%esi
  404c0d:	8b 45 08             	mov    0x8(%ebp),%eax
  404c10:	8b 90 a4 00 00 00    	mov    0xa4(%eax),%edx
  404c16:	8b 45 c4             	mov    -0x3c(%ebp),%eax
  404c19:	c1 e0 02             	shl    $0x2,%eax
  404c1c:	01 d0                	add    %edx,%eax
  404c1e:	8b 00                	mov    (%eax),%eax
  404c20:	89 c1                	mov    %eax,%ecx
  404c22:	0f ad f3             	shrd   %cl,%esi,%ebx
  404c25:	d3 ee                	shr    %cl,%esi
  404c27:	f6 c1 20             	test   $0x20,%cl
  404c2a:	74 04                	je     404c30 <_getQueenMoves+0x2fa>
  404c2c:	89 f3                	mov    %esi,%ebx
  404c2e:	31 f6                	xor    %esi,%esi
  404c30:	89 d8                	mov    %ebx,%eax
  404c32:	89 f2                	mov    %esi,%edx
  404c34:	89 45 b4             	mov    %eax,-0x4c(%ebp)
  404c37:	8b 45 08             	mov    0x8(%ebp),%eax
  404c3a:	8b 90 b0 00 00 00    	mov    0xb0(%eax),%edx
  404c40:	8b 45 c4             	mov    -0x3c(%ebp),%eax
  404c43:	c1 e0 02             	shl    $0x2,%eax
  404c46:	01 d0                	add    %edx,%eax
  404c48:	8b 10                	mov    (%eax),%edx
  404c4a:	8b 45 b4             	mov    -0x4c(%ebp),%eax
  404c4d:	c1 e0 03             	shl    $0x3,%eax
  404c50:	01 d0                	add    %edx,%eax
  404c52:	8b 10                	mov    (%eax),%edx
  404c54:	8b 48 04             	mov    0x4(%eax),%ecx
  404c57:	8b 45 e0             	mov    -0x20(%ebp),%eax
  404c5a:	f7 d0                	not    %eax
  404c5c:	89 85 78 ff ff ff    	mov    %eax,-0x88(%ebp)
  404c62:	8b 45 e4             	mov    -0x1c(%ebp),%eax
  404c65:	f7 d0                	not    %eax
  404c67:	89 85 7c ff ff ff    	mov    %eax,-0x84(%ebp)
  404c6d:	8b b5 78 ff ff ff    	mov    -0x88(%ebp),%esi
  404c73:	8b bd 7c ff ff ff    	mov    -0x84(%ebp),%edi
  404c79:	89 f0                	mov    %esi,%eax
  404c7b:	21 d0                	and    %edx,%eax
  404c7d:	89 45 c8             	mov    %eax,-0x38(%ebp)
  404c80:	89 c8                	mov    %ecx,%eax
  404c82:	21 f8                	and    %edi,%eax
  404c84:	89 45 cc             	mov    %eax,-0x34(%ebp)
  404c87:	e9 cf 00 00 00       	jmp    404d5b <_getQueenMoves+0x425>
  404c8c:	8b 45 c8             	mov    -0x38(%ebp),%eax
  404c8f:	8b 55 cc             	mov    -0x34(%ebp),%edx
  404c92:	89 04 24             	mov    %eax,(%esp)
  404c95:	89 54 24 04          	mov    %edx,0x4(%esp)
  404c99:	e8 f7 c7 ff ff       	call   401495 <_getLSB>
  404c9e:	89 45 a8             	mov    %eax,-0x58(%ebp)
  404ca1:	c7 04 24 30 00 00 00 	movl   $0x30,(%esp)
  404ca8:	e8 6b 74 00 00       	call   40c118 <_malloc>
  404cad:	89 45 a4             	mov    %eax,-0x5c(%ebp)
  404cb0:	8b 55 a4             	mov    -0x5c(%ebp),%edx
  404cb3:	8b 45 14             	mov    0x14(%ebp),%eax
  404cb6:	89 02                	mov    %eax,(%edx)
  404cb8:	8b 55 a4             	mov    -0x5c(%ebp),%edx
  404cbb:	8b 45 c4             	mov    -0x3c(%ebp),%eax
  404cbe:	89 42 04             	mov    %eax,0x4(%edx)
  404cc1:	8b 55 a4             	mov    -0x5c(%ebp),%edx
  404cc4:	8b 45 a8             	mov    -0x58(%ebp),%eax
  404cc7:	89 42 08             	mov    %eax,0x8(%edx)
  404cca:	8b 4d a4             	mov    -0x5c(%ebp),%ecx
  404ccd:	8b 45 e0             	mov    -0x20(%ebp),%eax
  404cd0:	8b 55 e4             	mov    -0x1c(%ebp),%edx
  404cd3:	89 41 10             	mov    %eax,0x10(%ecx)
  404cd6:	89 51 14             	mov    %edx,0x14(%ecx)
  404cd9:	8b 4d a4             	mov    -0x5c(%ebp),%ecx
  404cdc:	8b 45 d8             	mov    -0x28(%ebp),%eax
  404cdf:	8b 55 dc             	mov    -0x24(%ebp),%edx
  404ce2:	89 41 18             	mov    %eax,0x18(%ecx)
  404ce5:	89 51 1c             	mov    %edx,0x1c(%ecx)
  404ce8:	8b 45 08             	mov    0x8(%ebp),%eax
  404ceb:	89 44 24 04          	mov    %eax,0x4(%esp)
  404cef:	8b 45 a8             	mov    -0x58(%ebp),%eax
  404cf2:	89 04 24             	mov    %eax,(%esp)
  404cf5:	e8 05 c8 ff ff       	call   4014ff <_getSquare>
  404cfa:	89 c2                	mov    %eax,%edx
  404cfc:	8b 45 a4             	mov    -0x5c(%ebp),%eax
  404cff:	89 50 20             	mov    %edx,0x20(%eax)
  404d02:	8b 15 10 d1 40 00    	mov    0x40d110,%edx
  404d08:	8b 45 a4             	mov    -0x5c(%ebp),%eax
  404d0b:	89 50 24             	mov    %edx,0x24(%eax)
  404d0e:	8b 15 28 10 41 00    	mov    0x411028,%edx
  404d14:	8b 45 a4             	mov    -0x5c(%ebp),%eax
  404d17:	89 50 28             	mov    %edx,0x28(%eax)
  404d1a:	8b 45 10             	mov    0x10(%ebp),%eax
  404d1d:	8b 08                	mov    (%eax),%ecx
  404d1f:	8d 51 01             	lea    0x1(%ecx),%edx
  404d22:	8b 45 10             	mov    0x10(%ebp),%eax
  404d25:	89 10                	mov    %edx,(%eax)
  404d27:	89 c8                	mov    %ecx,%eax
  404d29:	8d 14 85 00 00 00 00 	lea    0x0(,%eax,4),%edx
  404d30:	8b 45 0c             	mov    0xc(%ebp),%eax
  404d33:	01 c2                	add    %eax,%edx
  404d35:	8b 45 a4             	mov    -0x5c(%ebp),%eax
  404d38:	89 02                	mov    %eax,(%edx)
  404d3a:	8b 4d a8             	mov    -0x58(%ebp),%ecx
  404d3d:	b8 01 00 00 00       	mov    $0x1,%eax
  404d42:	ba 00 00 00 00       	mov    $0x0,%edx
  404d47:	0f a5 c2             	shld   %cl,%eax,%edx
  404d4a:	d3 e0                	shl    %cl,%eax
  404d4c:	f6 c1 20             	test   $0x20,%cl
  404d4f:	74 04                	je     404d55 <_getQueenMoves+0x41f>
  404d51:	89 c2                	mov    %eax,%edx
  404d53:	31 c0                	xor    %eax,%eax
  404d55:	31 45 c8             	xor    %eax,-0x38(%ebp)
  404d58:	31 55 cc             	xor    %edx,-0x34(%ebp)
  404d5b:	8b 55 c8             	mov    -0x38(%ebp),%edx
  404d5e:	8b 45 cc             	mov    -0x34(%ebp),%eax
  404d61:	09 d0                	or     %edx,%eax
  404d63:	85 c0                	test   %eax,%eax
  404d65:	0f 85 21 ff ff ff    	jne    404c8c <_getQueenMoves+0x356>
  404d6b:	8b 4d c4             	mov    -0x3c(%ebp),%ecx
  404d6e:	b8 01 00 00 00       	mov    $0x1,%eax
  404d73:	ba 00 00 00 00       	mov    $0x0,%edx
  404d78:	0f a5 c2             	shld   %cl,%eax,%edx
  404d7b:	d3 e0                	shl    %cl,%eax
  404d7d:	f6 c1 20             	test   $0x20,%cl
  404d80:	74 04                	je     404d86 <_getQueenMoves+0x450>
  404d82:	89 c2                	mov    %eax,%edx
  404d84:	31 c0                	xor    %eax,%eax
  404d86:	31 45 d0             	xor    %eax,-0x30(%ebp)
  404d89:	31 55 d4             	xor    %edx,-0x2c(%ebp)
  404d8c:	8b 55 d0             	mov    -0x30(%ebp),%edx
  404d8f:	8b 45 d4             	mov    -0x2c(%ebp),%eax
  404d92:	09 d0                	or     %edx,%eax
  404d94:	85 c0                	test   %eax,%eax
  404d96:	0f 85 14 fc ff ff    	jne    4049b0 <_getQueenMoves+0x7a>
  404d9c:	81 c4 8c 00 00 00    	add    $0x8c,%esp
  404da2:	5b                   	pop    %ebx
  404da3:	5e                   	pop    %esi
  404da4:	5f                   	pop    %edi
  404da5:	5d                   	pop    %ebp
  404da6:	c3                   	ret    
  404da7:	90                   	nop

00404da8 <_ApplyMove>:
  404da8:	55                   	push   %ebp
  404da9:	89 e5                	mov    %esp,%ebp
  404dab:	83 ec 18             	sub    $0x18,%esp
  404dae:	8b 45 0c             	mov    0xc(%ebp),%eax
  404db1:	8b 40 28             	mov    0x28(%eax),%eax
  404db4:	8b 04 85 10 d8 40 00 	mov    0x40d810(,%eax,4),%eax
  404dbb:	8b 55 10             	mov    0x10(%ebp),%edx
  404dbe:	89 54 24 08          	mov    %edx,0x8(%esp)
  404dc2:	8b 55 0c             	mov    0xc(%ebp),%edx
  404dc5:	89 54 24 04          	mov    %edx,0x4(%esp)
  404dc9:	8b 55 08             	mov    0x8(%ebp),%edx
  404dcc:	89 14 24             	mov    %edx,(%esp)
  404dcf:	ff d0                	call   *%eax
  404dd1:	c9                   	leave  
  404dd2:	c3                   	ret    

00404dd3 <_RevertMove>:
  404dd3:	55                   	push   %ebp
  404dd4:	89 e5                	mov    %esp,%ebp
  404dd6:	83 ec 18             	sub    $0x18,%esp
  404dd9:	8b 45 0c             	mov    0xc(%ebp),%eax
  404ddc:	8b 40 28             	mov    0x28(%eax),%eax
  404ddf:	8b 04 85 24 d8 40 00 	mov    0x40d824(,%eax,4),%eax
  404de6:	8b 55 10             	mov    0x10(%ebp),%edx
  404de9:	89 54 24 08          	mov    %edx,0x8(%esp)
  404ded:	8b 55 0c             	mov    0xc(%ebp),%edx
  404df0:	89 54 24 04          	mov    %edx,0x4(%esp)
  404df4:	8b 55 08             	mov    0x8(%ebp),%edx
  404df7:	89 14 24             	mov    %edx,(%esp)
  404dfa:	ff d0                	call   *%eax
  404dfc:	c9                   	leave  
  404dfd:	c3                   	ret    

00404dfe <_ApplyNormalMove>:
  404dfe:	55                   	push   %ebp
  404dff:	89 e5                	mov    %esp,%ebp
  404e01:	57                   	push   %edi
  404e02:	56                   	push   %esi
  404e03:	53                   	push   %ebx
  404e04:	83 ec 44             	sub    $0x44,%esp
  404e07:	8b 55 08             	mov    0x8(%ebp),%edx
  404e0a:	8b 45 10             	mov    0x10(%ebp),%eax
  404e0d:	83 c0 10             	add    $0x10,%eax
  404e10:	8b 04 82             	mov    (%edx,%eax,4),%eax
  404e13:	89 45 ec             	mov    %eax,-0x14(%ebp)
  404e16:	83 7d 10 00          	cmpl   $0x0,0x10(%ebp)
  404e1a:	0f 94 c0             	sete   %al
  404e1d:	0f b6 c0             	movzbl %al,%eax
  404e20:	8b 55 08             	mov    0x8(%ebp),%edx
  404e23:	83 c0 10             	add    $0x10,%eax
  404e26:	8b 04 82             	mov    (%edx,%eax,4),%eax
  404e29:	89 45 e8             	mov    %eax,-0x18(%ebp)
  404e2c:	8b 45 ec             	mov    -0x14(%ebp),%eax
  404e2f:	8b 18                	mov    (%eax),%ebx
  404e31:	8b 70 04             	mov    0x4(%eax),%esi
  404e34:	8b 45 0c             	mov    0xc(%ebp),%eax
  404e37:	8b 48 04             	mov    0x4(%eax),%ecx
  404e3a:	b8 01 00 00 00       	mov    $0x1,%eax
  404e3f:	ba 00 00 00 00       	mov    $0x0,%edx
  404e44:	0f a5 c2             	shld   %cl,%eax,%edx
  404e47:	d3 e0                	shl    %cl,%eax
  404e49:	f6 c1 20             	test   $0x20,%cl
  404e4c:	74 04                	je     404e52 <_ApplyNormalMove+0x54>
  404e4e:	89 c2                	mov    %eax,%edx
  404e50:	31 c0                	xor    %eax,%eax
  404e52:	89 df                	mov    %ebx,%edi
  404e54:	31 c7                	xor    %eax,%edi
  404e56:	89 7d d8             	mov    %edi,-0x28(%ebp)
  404e59:	31 d6                	xor    %edx,%esi
  404e5b:	89 75 dc             	mov    %esi,-0x24(%ebp)
  404e5e:	8b 45 ec             	mov    -0x14(%ebp),%eax
  404e61:	8b 5d d8             	mov    -0x28(%ebp),%ebx
  404e64:	8b 75 dc             	mov    -0x24(%ebp),%esi
  404e67:	89 18                	mov    %ebx,(%eax)
  404e69:	89 70 04             	mov    %esi,0x4(%eax)
  404e6c:	8b 45 ec             	mov    -0x14(%ebp),%eax
  404e6f:	8b 18                	mov    (%eax),%ebx
  404e71:	8b 70 04             	mov    0x4(%eax),%esi
  404e74:	8b 45 0c             	mov    0xc(%ebp),%eax
  404e77:	8b 48 08             	mov    0x8(%eax),%ecx
  404e7a:	b8 01 00 00 00       	mov    $0x1,%eax
  404e7f:	ba 00 00 00 00       	mov    $0x0,%edx
  404e84:	0f a5 c2             	shld   %cl,%eax,%edx
  404e87:	d3 e0                	shl    %cl,%eax
  404e89:	f6 c1 20             	test   $0x20,%cl
  404e8c:	74 04                	je     404e92 <_ApplyNormalMove+0x94>
  404e8e:	89 c2                	mov    %eax,%edx
  404e90:	31 c0                	xor    %eax,%eax
  404e92:	89 df                	mov    %ebx,%edi
  404e94:	09 c7                	or     %eax,%edi
  404e96:	89 7d d0             	mov    %edi,-0x30(%ebp)
  404e99:	09 d6                	or     %edx,%esi
  404e9b:	89 75 d4             	mov    %esi,-0x2c(%ebp)
  404e9e:	8b 45 ec             	mov    -0x14(%ebp),%eax
  404ea1:	8b 5d d0             	mov    -0x30(%ebp),%ebx
  404ea4:	8b 75 d4             	mov    -0x2c(%ebp),%esi
  404ea7:	89 18                	mov    %ebx,(%eax)
  404ea9:	89 70 04             	mov    %esi,0x4(%eax)
  404eac:	8b 45 0c             	mov    0xc(%ebp),%eax
  404eaf:	8b 40 24             	mov    0x24(%eax),%eax
  404eb2:	8b 55 08             	mov    0x8(%ebp),%edx
  404eb5:	83 c0 10             	add    $0x10,%eax
  404eb8:	8b 7c 82 08          	mov    0x8(%edx,%eax,4),%edi
  404ebc:	8b 45 0c             	mov    0xc(%ebp),%eax
  404ebf:	8b 40 24             	mov    0x24(%eax),%eax
  404ec2:	8b 55 08             	mov    0x8(%ebp),%edx
  404ec5:	83 c0 10             	add    $0x10,%eax
  404ec8:	8b 44 82 08          	mov    0x8(%edx,%eax,4),%eax
  404ecc:	8b 18                	mov    (%eax),%ebx
  404ece:	8b 70 04             	mov    0x4(%eax),%esi
  404ed1:	8b 45 0c             	mov    0xc(%ebp),%eax
  404ed4:	8b 48 04             	mov    0x4(%eax),%ecx
  404ed7:	b8 01 00 00 00       	mov    $0x1,%eax
  404edc:	ba 00 00 00 00       	mov    $0x0,%edx
  404ee1:	0f a5 c2             	shld   %cl,%eax,%edx
  404ee4:	d3 e0                	shl    %cl,%eax
  404ee6:	f6 c1 20             	test   $0x20,%cl
  404ee9:	74 04                	je     404eef <_ApplyNormalMove+0xf1>
  404eeb:	89 c2                	mov    %eax,%edx
  404eed:	31 c0                	xor    %eax,%eax
  404eef:	89 d9                	mov    %ebx,%ecx
  404ef1:	31 c1                	xor    %eax,%ecx
  404ef3:	89 4d c8             	mov    %ecx,-0x38(%ebp)
  404ef6:	31 d6                	xor    %edx,%esi
  404ef8:	89 75 cc             	mov    %esi,-0x34(%ebp)
  404efb:	8b 45 c8             	mov    -0x38(%ebp),%eax
  404efe:	8b 55 cc             	mov    -0x34(%ebp),%edx
  404f01:	89 07                	mov    %eax,(%edi)
  404f03:	89 57 04             	mov    %edx,0x4(%edi)
  404f06:	8b 45 0c             	mov    0xc(%ebp),%eax
  404f09:	8b 40 24             	mov    0x24(%eax),%eax
  404f0c:	8b 55 08             	mov    0x8(%ebp),%edx
  404f0f:	83 c0 10             	add    $0x10,%eax
  404f12:	8b 7c 82 08          	mov    0x8(%edx,%eax,4),%edi
  404f16:	8b 45 0c             	mov    0xc(%ebp),%eax
  404f19:	8b 40 24             	mov    0x24(%eax),%eax
  404f1c:	8b 55 08             	mov    0x8(%ebp),%edx
  404f1f:	83 c0 10             	add    $0x10,%eax
  404f22:	8b 44 82 08          	mov    0x8(%edx,%eax,4),%eax
  404f26:	8b 18                	mov    (%eax),%ebx
  404f28:	8b 70 04             	mov    0x4(%eax),%esi
  404f2b:	8b 45 0c             	mov    0xc(%ebp),%eax
  404f2e:	8b 48 08             	mov    0x8(%eax),%ecx
  404f31:	b8 01 00 00 00       	mov    $0x1,%eax
  404f36:	ba 00 00 00 00       	mov    $0x0,%edx
  404f3b:	0f a5 c2             	shld   %cl,%eax,%edx
  404f3e:	d3 e0                	shl    %cl,%eax
  404f40:	f6 c1 20             	test   $0x20,%cl
  404f43:	74 04                	je     404f49 <_ApplyNormalMove+0x14b>
  404f45:	89 c2                	mov    %eax,%edx
  404f47:	31 c0                	xor    %eax,%eax
  404f49:	89 d9                	mov    %ebx,%ecx
  404f4b:	09 c1                	or     %eax,%ecx
  404f4d:	89 4d c0             	mov    %ecx,-0x40(%ebp)
  404f50:	09 d6                	or     %edx,%esi
  404f52:	89 75 c4             	mov    %esi,-0x3c(%ebp)
  404f55:	8b 45 c0             	mov    -0x40(%ebp),%eax
  404f58:	8b 55 c4             	mov    -0x3c(%ebp),%edx
  404f5b:	89 07                	mov    %eax,(%edi)
  404f5d:	89 57 04             	mov    %edx,0x4(%edi)
  404f60:	8b 45 0c             	mov    0xc(%ebp),%eax
  404f63:	8b 50 20             	mov    0x20(%eax),%edx
  404f66:	a1 18 d1 40 00       	mov    0x40d118,%eax
  404f6b:	39 c2                	cmp    %eax,%edx
  404f6d:	0f 84 aa 00 00 00    	je     40501d <_ApplyNormalMove+0x21f>
  404f73:	8b 45 e8             	mov    -0x18(%ebp),%eax
  404f76:	8b 18                	mov    (%eax),%ebx
  404f78:	8b 70 04             	mov    0x4(%eax),%esi
  404f7b:	8b 45 0c             	mov    0xc(%ebp),%eax
  404f7e:	8b 48 08             	mov    0x8(%eax),%ecx
  404f81:	b8 01 00 00 00       	mov    $0x1,%eax
  404f86:	ba 00 00 00 00       	mov    $0x0,%edx
  404f8b:	0f a5 c2             	shld   %cl,%eax,%edx
  404f8e:	d3 e0                	shl    %cl,%eax
  404f90:	f6 c1 20             	test   $0x20,%cl
  404f93:	74 04                	je     404f99 <_ApplyNormalMove+0x19b>
  404f95:	89 c2                	mov    %eax,%edx
  404f97:	31 c0                	xor    %eax,%eax
  404f99:	89 df                	mov    %ebx,%edi
  404f9b:	31 c7                	xor    %eax,%edi
  404f9d:	89 7d b8             	mov    %edi,-0x48(%ebp)
  404fa0:	31 d6                	xor    %edx,%esi
  404fa2:	89 75 bc             	mov    %esi,-0x44(%ebp)
  404fa5:	8b 45 e8             	mov    -0x18(%ebp),%eax
  404fa8:	8b 4d b8             	mov    -0x48(%ebp),%ecx
  404fab:	8b 5d bc             	mov    -0x44(%ebp),%ebx
  404fae:	89 08                	mov    %ecx,(%eax)
  404fb0:	89 58 04             	mov    %ebx,0x4(%eax)
  404fb3:	8b 45 0c             	mov    0xc(%ebp),%eax
  404fb6:	8b 50 20             	mov    0x20(%eax),%edx
  404fb9:	8b 45 0c             	mov    0xc(%ebp),%eax
  404fbc:	8b 40 24             	mov    0x24(%eax),%eax
  404fbf:	39 c2                	cmp    %eax,%edx
  404fc1:	74 5a                	je     40501d <_ApplyNormalMove+0x21f>
  404fc3:	8b 45 0c             	mov    0xc(%ebp),%eax
  404fc6:	8b 50 20             	mov    0x20(%eax),%edx
  404fc9:	8b 45 08             	mov    0x8(%ebp),%eax
  404fcc:	83 c2 10             	add    $0x10,%edx
  404fcf:	8b 7c 90 08          	mov    0x8(%eax,%edx,4),%edi
  404fd3:	8b 45 0c             	mov    0xc(%ebp),%eax
  404fd6:	8b 50 20             	mov    0x20(%eax),%edx
  404fd9:	8b 45 08             	mov    0x8(%ebp),%eax
  404fdc:	83 c2 10             	add    $0x10,%edx
  404fdf:	8b 44 90 08          	mov    0x8(%eax,%edx,4),%eax
  404fe3:	8b 18                	mov    (%eax),%ebx
  404fe5:	8b 70 04             	mov    0x4(%eax),%esi
  404fe8:	8b 45 0c             	mov    0xc(%ebp),%eax
  404feb:	8b 48 08             	mov    0x8(%eax),%ecx
  404fee:	b8 01 00 00 00       	mov    $0x1,%eax
  404ff3:	ba 00 00 00 00       	mov    $0x0,%edx
  404ff8:	0f a5 c2             	shld   %cl,%eax,%edx
  404ffb:	d3 e0                	shl    %cl,%eax
  404ffd:	f6 c1 20             	test   $0x20,%cl
  405000:	74 04                	je     405006 <_ApplyNormalMove+0x208>
  405002:	89 c2                	mov    %eax,%edx
  405004:	31 c0                	xor    %eax,%eax
  405006:	89 d9                	mov    %ebx,%ecx
  405008:	31 c1                	xor    %eax,%ecx
  40500a:	89 4d b0             	mov    %ecx,-0x50(%ebp)
  40500d:	31 d6                	xor    %edx,%esi
  40500f:	89 75 b4             	mov    %esi,-0x4c(%ebp)
  405012:	8b 45 b0             	mov    -0x50(%ebp),%eax
  405015:	8b 55 b4             	mov    -0x4c(%ebp),%edx
  405018:	89 07                	mov    %eax,(%edi)
  40501a:	89 57 04             	mov    %edx,0x4(%edi)
  40501d:	83 c4 44             	add    $0x44,%esp
  405020:	5b                   	pop    %ebx
  405021:	5e                   	pop    %esi
  405022:	5f                   	pop    %edi
  405023:	5d                   	pop    %ebp
  405024:	c3                   	ret    

00405025 <_RevertNormalMove>:
  405025:	55                   	push   %ebp
  405026:	89 e5                	mov    %esp,%ebp
  405028:	57                   	push   %edi
  405029:	56                   	push   %esi
  40502a:	53                   	push   %ebx
  40502b:	83 ec 44             	sub    $0x44,%esp
  40502e:	8b 55 08             	mov    0x8(%ebp),%edx
  405031:	8b 45 10             	mov    0x10(%ebp),%eax
  405034:	83 c0 10             	add    $0x10,%eax
  405037:	8b 04 82             	mov    (%edx,%eax,4),%eax
  40503a:	89 45 ec             	mov    %eax,-0x14(%ebp)
  40503d:	83 7d 10 00          	cmpl   $0x0,0x10(%ebp)
  405041:	0f 94 c0             	sete   %al
  405044:	0f b6 c0             	movzbl %al,%eax
  405047:	8b 55 08             	mov    0x8(%ebp),%edx
  40504a:	83 c0 10             	add    $0x10,%eax
  40504d:	8b 04 82             	mov    (%edx,%eax,4),%eax
  405050:	89 45 e8             	mov    %eax,-0x18(%ebp)
  405053:	8b 45 ec             	mov    -0x14(%ebp),%eax
  405056:	8b 18                	mov    (%eax),%ebx
  405058:	8b 70 04             	mov    0x4(%eax),%esi
  40505b:	8b 45 0c             	mov    0xc(%ebp),%eax
  40505e:	8b 48 08             	mov    0x8(%eax),%ecx
  405061:	b8 01 00 00 00       	mov    $0x1,%eax
  405066:	ba 00 00 00 00       	mov    $0x0,%edx
  40506b:	0f a5 c2             	shld   %cl,%eax,%edx
  40506e:	d3 e0                	shl    %cl,%eax
  405070:	f6 c1 20             	test   $0x20,%cl
  405073:	74 04                	je     405079 <_RevertNormalMove+0x54>
  405075:	89 c2                	mov    %eax,%edx
  405077:	31 c0                	xor    %eax,%eax
  405079:	89 df                	mov    %ebx,%edi
  40507b:	31 c7                	xor    %eax,%edi
  40507d:	89 7d d8             	mov    %edi,-0x28(%ebp)
  405080:	31 d6                	xor    %edx,%esi
  405082:	89 75 dc             	mov    %esi,-0x24(%ebp)
  405085:	8b 45 ec             	mov    -0x14(%ebp),%eax
  405088:	8b 5d d8             	mov    -0x28(%ebp),%ebx
  40508b:	8b 75 dc             	mov    -0x24(%ebp),%esi
  40508e:	89 18                	mov    %ebx,(%eax)
  405090:	89 70 04             	mov    %esi,0x4(%eax)
  405093:	8b 45 ec             	mov    -0x14(%ebp),%eax
  405096:	8b 18                	mov    (%eax),%ebx
  405098:	8b 70 04             	mov    0x4(%eax),%esi
  40509b:	8b 45 0c             	mov    0xc(%ebp),%eax
  40509e:	8b 48 04             	mov    0x4(%eax),%ecx
  4050a1:	b8 01 00 00 00       	mov    $0x1,%eax
  4050a6:	ba 00 00 00 00       	mov    $0x0,%edx
  4050ab:	0f a5 c2             	shld   %cl,%eax,%edx
  4050ae:	d3 e0                	shl    %cl,%eax
  4050b0:	f6 c1 20             	test   $0x20,%cl
  4050b3:	74 04                	je     4050b9 <_RevertNormalMove+0x94>
  4050b5:	89 c2                	mov    %eax,%edx
  4050b7:	31 c0                	xor    %eax,%eax
  4050b9:	89 df                	mov    %ebx,%edi
  4050bb:	09 c7                	or     %eax,%edi
  4050bd:	89 7d d0             	mov    %edi,-0x30(%ebp)
  4050c0:	09 d6                	or     %edx,%esi
  4050c2:	89 75 d4             	mov    %esi,-0x2c(%ebp)
  4050c5:	8b 45 ec             	mov    -0x14(%ebp),%eax
  4050c8:	8b 5d d0             	mov    -0x30(%ebp),%ebx
  4050cb:	8b 75 d4             	mov    -0x2c(%ebp),%esi
  4050ce:	89 18                	mov    %ebx,(%eax)
  4050d0:	89 70 04             	mov    %esi,0x4(%eax)
  4050d3:	8b 45 0c             	mov    0xc(%ebp),%eax
  4050d6:	8b 40 24             	mov    0x24(%eax),%eax
  4050d9:	8b 55 08             	mov    0x8(%ebp),%edx
  4050dc:	83 c0 10             	add    $0x10,%eax
  4050df:	8b 7c 82 08          	mov    0x8(%edx,%eax,4),%edi
  4050e3:	8b 45 0c             	mov    0xc(%ebp),%eax
  4050e6:	8b 40 24             	mov    0x24(%eax),%eax
  4050e9:	8b 55 08             	mov    0x8(%ebp),%edx
  4050ec:	83 c0 10             	add    $0x10,%eax
  4050ef:	8b 44 82 08          	mov    0x8(%edx,%eax,4),%eax
  4050f3:	8b 18                	mov    (%eax),%ebx
  4050f5:	8b 70 04             	mov    0x4(%eax),%esi
  4050f8:	8b 45 0c             	mov    0xc(%ebp),%eax
  4050fb:	8b 48 08             	mov    0x8(%eax),%ecx
  4050fe:	b8 01 00 00 00       	mov    $0x1,%eax
  405103:	ba 00 00 00 00       	mov    $0x0,%edx
  405108:	0f a5 c2             	shld   %cl,%eax,%edx
  40510b:	d3 e0                	shl    %cl,%eax
  40510d:	f6 c1 20             	test   $0x20,%cl
  405110:	74 04                	je     405116 <_RevertNormalMove+0xf1>
  405112:	89 c2                	mov    %eax,%edx
  405114:	31 c0                	xor    %eax,%eax
  405116:	89 d9                	mov    %ebx,%ecx
  405118:	31 c1                	xor    %eax,%ecx
  40511a:	89 4d c8             	mov    %ecx,-0x38(%ebp)
  40511d:	31 d6                	xor    %edx,%esi
  40511f:	89 75 cc             	mov    %esi,-0x34(%ebp)
  405122:	8b 45 c8             	mov    -0x38(%ebp),%eax
  405125:	8b 55 cc             	mov    -0x34(%ebp),%edx
  405128:	89 07                	mov    %eax,(%edi)
  40512a:	89 57 04             	mov    %edx,0x4(%edi)
  40512d:	8b 45 0c             	mov    0xc(%ebp),%eax
  405130:	8b 40 24             	mov    0x24(%eax),%eax
  405133:	8b 55 08             	mov    0x8(%ebp),%edx
  405136:	83 c0 10             	add    $0x10,%eax
  405139:	8b 7c 82 08          	mov    0x8(%edx,%eax,4),%edi
  40513d:	8b 45 0c             	mov    0xc(%ebp),%eax
  405140:	8b 40 24             	mov    0x24(%eax),%eax
  405143:	8b 55 08             	mov    0x8(%ebp),%edx
  405146:	83 c0 10             	add    $0x10,%eax
  405149:	8b 44 82 08          	mov    0x8(%edx,%eax,4),%eax
  40514d:	8b 18                	mov    (%eax),%ebx
  40514f:	8b 70 04             	mov    0x4(%eax),%esi
  405152:	8b 45 0c             	mov    0xc(%ebp),%eax
  405155:	8b 48 04             	mov    0x4(%eax),%ecx
  405158:	b8 01 00 00 00       	mov    $0x1,%eax
  40515d:	ba 00 00 00 00       	mov    $0x0,%edx
  405162:	0f a5 c2             	shld   %cl,%eax,%edx
  405165:	d3 e0                	shl    %cl,%eax
  405167:	f6 c1 20             	test   $0x20,%cl
  40516a:	74 04                	je     405170 <_RevertNormalMove+0x14b>
  40516c:	89 c2                	mov    %eax,%edx
  40516e:	31 c0                	xor    %eax,%eax
  405170:	89 d9                	mov    %ebx,%ecx
  405172:	09 c1                	or     %eax,%ecx
  405174:	89 4d c0             	mov    %ecx,-0x40(%ebp)
  405177:	09 d6                	or     %edx,%esi
  405179:	89 75 c4             	mov    %esi,-0x3c(%ebp)
  40517c:	8b 45 c0             	mov    -0x40(%ebp),%eax
  40517f:	8b 55 c4             	mov    -0x3c(%ebp),%edx
  405182:	89 07                	mov    %eax,(%edi)
  405184:	89 57 04             	mov    %edx,0x4(%edi)
  405187:	8b 45 0c             	mov    0xc(%ebp),%eax
  40518a:	8b 50 20             	mov    0x20(%eax),%edx
  40518d:	a1 18 d1 40 00       	mov    0x40d118,%eax
  405192:	39 c2                	cmp    %eax,%edx
  405194:	0f 84 aa 00 00 00    	je     405244 <_RevertNormalMove+0x21f>
  40519a:	8b 45 e8             	mov    -0x18(%ebp),%eax
  40519d:	8b 18                	mov    (%eax),%ebx
  40519f:	8b 70 04             	mov    0x4(%eax),%esi
  4051a2:	8b 45 0c             	mov    0xc(%ebp),%eax
  4051a5:	8b 48 08             	mov    0x8(%eax),%ecx
  4051a8:	b8 01 00 00 00       	mov    $0x1,%eax
  4051ad:	ba 00 00 00 00       	mov    $0x0,%edx
  4051b2:	0f a5 c2             	shld   %cl,%eax,%edx
  4051b5:	d3 e0                	shl    %cl,%eax
  4051b7:	f6 c1 20             	test   $0x20,%cl
  4051ba:	74 04                	je     4051c0 <_RevertNormalMove+0x19b>
  4051bc:	89 c2                	mov    %eax,%edx
  4051be:	31 c0                	xor    %eax,%eax
  4051c0:	89 df                	mov    %ebx,%edi
  4051c2:	09 c7                	or     %eax,%edi
  4051c4:	89 7d b8             	mov    %edi,-0x48(%ebp)
  4051c7:	09 d6                	or     %edx,%esi
  4051c9:	89 75 bc             	mov    %esi,-0x44(%ebp)
  4051cc:	8b 45 e8             	mov    -0x18(%ebp),%eax
  4051cf:	8b 4d b8             	mov    -0x48(%ebp),%ecx
  4051d2:	8b 5d bc             	mov    -0x44(%ebp),%ebx
  4051d5:	89 08                	mov    %ecx,(%eax)
  4051d7:	89 58 04             	mov    %ebx,0x4(%eax)
  4051da:	8b 45 0c             	mov    0xc(%ebp),%eax
  4051dd:	8b 50 20             	mov    0x20(%eax),%edx
  4051e0:	8b 45 0c             	mov    0xc(%ebp),%eax
  4051e3:	8b 40 24             	mov    0x24(%eax),%eax
  4051e6:	39 c2                	cmp    %eax,%edx
  4051e8:	74 5a                	je     405244 <_RevertNormalMove+0x21f>
  4051ea:	8b 45 0c             	mov    0xc(%ebp),%eax
  4051ed:	8b 50 20             	mov    0x20(%eax),%edx
  4051f0:	8b 45 08             	mov    0x8(%ebp),%eax
  4051f3:	83 c2 10             	add    $0x10,%edx
  4051f6:	8b 7c 90 08          	mov    0x8(%eax,%edx,4),%edi
  4051fa:	8b 45 0c             	mov    0xc(%ebp),%eax
  4051fd:	8b 50 20             	mov    0x20(%eax),%edx
  405200:	8b 45 08             	mov    0x8(%ebp),%eax
  405203:	83 c2 10             	add    $0x10,%edx
  405206:	8b 44 90 08          	mov    0x8(%eax,%edx,4),%eax
  40520a:	8b 18                	mov    (%eax),%ebx
  40520c:	8b 70 04             	mov    0x4(%eax),%esi
  40520f:	8b 45 0c             	mov    0xc(%ebp),%eax
  405212:	8b 48 08             	mov    0x8(%eax),%ecx
  405215:	b8 01 00 00 00       	mov    $0x1,%eax
  40521a:	ba 00 00 00 00       	mov    $0x0,%edx
  40521f:	0f a5 c2             	shld   %cl,%eax,%edx
  405222:	d3 e0                	shl    %cl,%eax
  405224:	f6 c1 20             	test   $0x20,%cl
  405227:	74 04                	je     40522d <_RevertNormalMove+0x208>
  405229:	89 c2                	mov    %eax,%edx
  40522b:	31 c0                	xor    %eax,%eax
  40522d:	89 d9                	mov    %ebx,%ecx
  40522f:	09 c1                	or     %eax,%ecx
  405231:	89 4d b0             	mov    %ecx,-0x50(%ebp)
  405234:	09 d6                	or     %edx,%esi
  405236:	89 75 b4             	mov    %esi,-0x4c(%ebp)
  405239:	8b 45 b0             	mov    -0x50(%ebp),%eax
  40523c:	8b 55 b4             	mov    -0x4c(%ebp),%edx
  40523f:	89 07                	mov    %eax,(%edi)
  405241:	89 57 04             	mov    %edx,0x4(%edi)
  405244:	83 c4 44             	add    $0x44,%esp
  405247:	5b                   	pop    %ebx
  405248:	5e                   	pop    %esi
  405249:	5f                   	pop    %edi
  40524a:	5d                   	pop    %ebp
  40524b:	c3                   	ret    

0040524c <_ApplyPawnDoublePushMove>:
  40524c:	55                   	push   %ebp
  40524d:	89 e5                	mov    %esp,%ebp
  40524f:	57                   	push   %edi
  405250:	56                   	push   %esi
  405251:	53                   	push   %ebx
  405252:	83 ec 34             	sub    $0x34,%esp
  405255:	8b 55 08             	mov    0x8(%ebp),%edx
  405258:	8b 45 10             	mov    0x10(%ebp),%eax
  40525b:	83 c0 10             	add    $0x10,%eax
  40525e:	8b 04 82             	mov    (%edx,%eax,4),%eax
  405261:	89 45 ec             	mov    %eax,-0x14(%ebp)
  405264:	8b 45 ec             	mov    -0x14(%ebp),%eax
  405267:	8b 18                	mov    (%eax),%ebx
  405269:	8b 70 04             	mov    0x4(%eax),%esi
  40526c:	8b 45 0c             	mov    0xc(%ebp),%eax
  40526f:	8b 48 04             	mov    0x4(%eax),%ecx
  405272:	b8 01 00 00 00       	mov    $0x1,%eax
  405277:	ba 00 00 00 00       	mov    $0x0,%edx
  40527c:	0f a5 c2             	shld   %cl,%eax,%edx
  40527f:	d3 e0                	shl    %cl,%eax
  405281:	f6 c1 20             	test   $0x20,%cl
  405284:	74 04                	je     40528a <_ApplyPawnDoublePushMove+0x3e>
  405286:	89 c2                	mov    %eax,%edx
  405288:	31 c0                	xor    %eax,%eax
  40528a:	89 df                	mov    %ebx,%edi
  40528c:	31 c7                	xor    %eax,%edi
  40528e:	89 7d d8             	mov    %edi,-0x28(%ebp)
  405291:	31 d6                	xor    %edx,%esi
  405293:	89 75 dc             	mov    %esi,-0x24(%ebp)
  405296:	8b 45 ec             	mov    -0x14(%ebp),%eax
  405299:	8b 55 d8             	mov    -0x28(%ebp),%edx
  40529c:	8b 4d dc             	mov    -0x24(%ebp),%ecx
  40529f:	89 10                	mov    %edx,(%eax)
  4052a1:	89 48 04             	mov    %ecx,0x4(%eax)
  4052a4:	8b 45 ec             	mov    -0x14(%ebp),%eax
  4052a7:	8b 18                	mov    (%eax),%ebx
  4052a9:	8b 70 04             	mov    0x4(%eax),%esi
  4052ac:	8b 45 0c             	mov    0xc(%ebp),%eax
  4052af:	8b 48 08             	mov    0x8(%eax),%ecx
  4052b2:	b8 01 00 00 00       	mov    $0x1,%eax
  4052b7:	ba 00 00 00 00       	mov    $0x0,%edx
  4052bc:	0f a5 c2             	shld   %cl,%eax,%edx
  4052bf:	d3 e0                	shl    %cl,%eax
  4052c1:	f6 c1 20             	test   $0x20,%cl
  4052c4:	74 04                	je     4052ca <_ApplyPawnDoublePushMove+0x7e>
  4052c6:	89 c2                	mov    %eax,%edx
  4052c8:	31 c0                	xor    %eax,%eax
  4052ca:	89 df                	mov    %ebx,%edi
  4052cc:	09 c7                	or     %eax,%edi
  4052ce:	89 7d d0             	mov    %edi,-0x30(%ebp)
  4052d1:	09 d6                	or     %edx,%esi
  4052d3:	89 75 d4             	mov    %esi,-0x2c(%ebp)
  4052d6:	8b 45 ec             	mov    -0x14(%ebp),%eax
  4052d9:	8b 55 d0             	mov    -0x30(%ebp),%edx
  4052dc:	8b 4d d4             	mov    -0x2c(%ebp),%ecx
  4052df:	89 10                	mov    %edx,(%eax)
  4052e1:	89 48 04             	mov    %ecx,0x4(%eax)
  4052e4:	8b 45 08             	mov    0x8(%ebp),%eax
  4052e7:	8b 58 38             	mov    0x38(%eax),%ebx
  4052ea:	8b 70 3c             	mov    0x3c(%eax),%esi
  4052ed:	8b 45 0c             	mov    0xc(%ebp),%eax
  4052f0:	8b 48 04             	mov    0x4(%eax),%ecx
  4052f3:	b8 01 00 00 00       	mov    $0x1,%eax
  4052f8:	ba 00 00 00 00       	mov    $0x0,%edx
  4052fd:	0f a5 c2             	shld   %cl,%eax,%edx
  405300:	d3 e0                	shl    %cl,%eax
  405302:	f6 c1 20             	test   $0x20,%cl
  405305:	74 04                	je     40530b <_ApplyPawnDoublePushMove+0xbf>
  405307:	89 c2                	mov    %eax,%edx
  405309:	31 c0                	xor    %eax,%eax
  40530b:	89 df                	mov    %ebx,%edi
  40530d:	31 c7                	xor    %eax,%edi
  40530f:	89 7d c8             	mov    %edi,-0x38(%ebp)
  405312:	31 d6                	xor    %edx,%esi
  405314:	89 75 cc             	mov    %esi,-0x34(%ebp)
  405317:	8b 45 08             	mov    0x8(%ebp),%eax
  40531a:	8b 55 c8             	mov    -0x38(%ebp),%edx
  40531d:	8b 4d cc             	mov    -0x34(%ebp),%ecx
  405320:	89 50 38             	mov    %edx,0x38(%eax)
  405323:	89 48 3c             	mov    %ecx,0x3c(%eax)
  405326:	8b 45 08             	mov    0x8(%ebp),%eax
  405329:	8b 58 38             	mov    0x38(%eax),%ebx
  40532c:	8b 70 3c             	mov    0x3c(%eax),%esi
  40532f:	8b 45 0c             	mov    0xc(%ebp),%eax
  405332:	8b 48 08             	mov    0x8(%eax),%ecx
  405335:	b8 01 00 00 00       	mov    $0x1,%eax
  40533a:	ba 00 00 00 00       	mov    $0x0,%edx
  40533f:	0f a5 c2             	shld   %cl,%eax,%edx
  405342:	d3 e0                	shl    %cl,%eax
  405344:	f6 c1 20             	test   $0x20,%cl
  405347:	74 04                	je     40534d <_ApplyPawnDoublePushMove+0x101>
  405349:	89 c2                	mov    %eax,%edx
  40534b:	31 c0                	xor    %eax,%eax
  40534d:	89 d9                	mov    %ebx,%ecx
  40534f:	09 c1                	or     %eax,%ecx
  405351:	89 4d c0             	mov    %ecx,-0x40(%ebp)
  405354:	09 d6                	or     %edx,%esi
  405356:	89 75 c4             	mov    %esi,-0x3c(%ebp)
  405359:	8b 45 08             	mov    0x8(%ebp),%eax
  40535c:	8b 55 c0             	mov    -0x40(%ebp),%edx
  40535f:	8b 4d c4             	mov    -0x3c(%ebp),%ecx
  405362:	89 50 38             	mov    %edx,0x38(%eax)
  405365:	89 48 3c             	mov    %ecx,0x3c(%eax)
  405368:	83 c4 34             	add    $0x34,%esp
  40536b:	5b                   	pop    %ebx
  40536c:	5e                   	pop    %esi
  40536d:	5f                   	pop    %edi
  40536e:	5d                   	pop    %ebp
  40536f:	c3                   	ret    

00405370 <_RevertPawnDoublePushMove>:
  405370:	55                   	push   %ebp
  405371:	89 e5                	mov    %esp,%ebp
  405373:	57                   	push   %edi
  405374:	56                   	push   %esi
  405375:	53                   	push   %ebx
  405376:	83 ec 34             	sub    $0x34,%esp
  405379:	8b 55 08             	mov    0x8(%ebp),%edx
  40537c:	8b 45 10             	mov    0x10(%ebp),%eax
  40537f:	83 c0 10             	add    $0x10,%eax
  405382:	8b 04 82             	mov    (%edx,%eax,4),%eax
  405385:	89 45 ec             	mov    %eax,-0x14(%ebp)
  405388:	8b 45 ec             	mov    -0x14(%ebp),%eax
  40538b:	8b 18                	mov    (%eax),%ebx
  40538d:	8b 70 04             	mov    0x4(%eax),%esi
  405390:	8b 45 0c             	mov    0xc(%ebp),%eax
  405393:	8b 48 08             	mov    0x8(%eax),%ecx
  405396:	b8 01 00 00 00       	mov    $0x1,%eax
  40539b:	ba 00 00 00 00       	mov    $0x0,%edx
  4053a0:	0f a5 c2             	shld   %cl,%eax,%edx
  4053a3:	d3 e0                	shl    %cl,%eax
  4053a5:	f6 c1 20             	test   $0x20,%cl
  4053a8:	74 04                	je     4053ae <_RevertPawnDoublePushMove+0x3e>
  4053aa:	89 c2                	mov    %eax,%edx
  4053ac:	31 c0                	xor    %eax,%eax
  4053ae:	89 df                	mov    %ebx,%edi
  4053b0:	31 c7                	xor    %eax,%edi
  4053b2:	89 7d d8             	mov    %edi,-0x28(%ebp)
  4053b5:	31 d6                	xor    %edx,%esi
  4053b7:	89 75 dc             	mov    %esi,-0x24(%ebp)
  4053ba:	8b 45 ec             	mov    -0x14(%ebp),%eax
  4053bd:	8b 55 d8             	mov    -0x28(%ebp),%edx
  4053c0:	8b 4d dc             	mov    -0x24(%ebp),%ecx
  4053c3:	89 10                	mov    %edx,(%eax)
  4053c5:	89 48 04             	mov    %ecx,0x4(%eax)
  4053c8:	8b 45 ec             	mov    -0x14(%ebp),%eax
  4053cb:	8b 18                	mov    (%eax),%ebx
  4053cd:	8b 70 04             	mov    0x4(%eax),%esi
  4053d0:	8b 45 0c             	mov    0xc(%ebp),%eax
  4053d3:	8b 48 04             	mov    0x4(%eax),%ecx
  4053d6:	b8 01 00 00 00       	mov    $0x1,%eax
  4053db:	ba 00 00 00 00       	mov    $0x0,%edx
  4053e0:	0f a5 c2             	shld   %cl,%eax,%edx
  4053e3:	d3 e0                	shl    %cl,%eax
  4053e5:	f6 c1 20             	test   $0x20,%cl
  4053e8:	74 04                	je     4053ee <_RevertPawnDoublePushMove+0x7e>
  4053ea:	89 c2                	mov    %eax,%edx
  4053ec:	31 c0                	xor    %eax,%eax
  4053ee:	89 df                	mov    %ebx,%edi
  4053f0:	09 c7                	or     %eax,%edi
  4053f2:	89 7d d0             	mov    %edi,-0x30(%ebp)
  4053f5:	09 d6                	or     %edx,%esi
  4053f7:	89 75 d4             	mov    %esi,-0x2c(%ebp)
  4053fa:	8b 45 ec             	mov    -0x14(%ebp),%eax
  4053fd:	8b 55 d0             	mov    -0x30(%ebp),%edx
  405400:	8b 4d d4             	mov    -0x2c(%ebp),%ecx
  405403:	89 10                	mov    %edx,(%eax)
  405405:	89 48 04             	mov    %ecx,0x4(%eax)
  405408:	8b 45 08             	mov    0x8(%ebp),%eax
  40540b:	8b 58 38             	mov    0x38(%eax),%ebx
  40540e:	8b 70 3c             	mov    0x3c(%eax),%esi
  405411:	8b 45 0c             	mov    0xc(%ebp),%eax
  405414:	8b 48 08             	mov    0x8(%eax),%ecx
  405417:	b8 01 00 00 00       	mov    $0x1,%eax
  40541c:	ba 00 00 00 00       	mov    $0x0,%edx
  405421:	0f a5 c2             	shld   %cl,%eax,%edx
  405424:	d3 e0                	shl    %cl,%eax
  405426:	f6 c1 20             	test   $0x20,%cl
  405429:	74 04                	je     40542f <_RevertPawnDoublePushMove+0xbf>
  40542b:	89 c2                	mov    %eax,%edx
  40542d:	31 c0                	xor    %eax,%eax
  40542f:	89 df                	mov    %ebx,%edi
  405431:	31 c7                	xor    %eax,%edi
  405433:	89 7d c8             	mov    %edi,-0x38(%ebp)
  405436:	31 d6                	xor    %edx,%esi
  405438:	89 75 cc             	mov    %esi,-0x34(%ebp)
  40543b:	8b 45 08             	mov    0x8(%ebp),%eax
  40543e:	8b 55 c8             	mov    -0x38(%ebp),%edx
  405441:	8b 4d cc             	mov    -0x34(%ebp),%ecx
  405444:	89 50 38             	mov    %edx,0x38(%eax)
  405447:	89 48 3c             	mov    %ecx,0x3c(%eax)
  40544a:	8b 45 08             	mov    0x8(%ebp),%eax
  40544d:	8b 58 38             	mov    0x38(%eax),%ebx
  405450:	8b 70 3c             	mov    0x3c(%eax),%esi
  405453:	8b 45 0c             	mov    0xc(%ebp),%eax
  405456:	8b 48 04             	mov    0x4(%eax),%ecx
  405459:	b8 01 00 00 00       	mov    $0x1,%eax
  40545e:	ba 00 00 00 00       	mov    $0x0,%edx
  405463:	0f a5 c2             	shld   %cl,%eax,%edx
  405466:	d3 e0                	shl    %cl,%eax
  405468:	f6 c1 20             	test   $0x20,%cl
  40546b:	74 04                	je     405471 <_RevertPawnDoublePushMove+0x101>
  40546d:	89 c2                	mov    %eax,%edx
  40546f:	31 c0                	xor    %eax,%eax
  405471:	89 d9                	mov    %ebx,%ecx
  405473:	09 c1                	or     %eax,%ecx
  405475:	89 4d c0             	mov    %ecx,-0x40(%ebp)
  405478:	09 d6                	or     %edx,%esi
  40547a:	89 75 c4             	mov    %esi,-0x3c(%ebp)
  40547d:	8b 45 08             	mov    0x8(%ebp),%eax
  405480:	8b 55 c0             	mov    -0x40(%ebp),%edx
  405483:	8b 4d c4             	mov    -0x3c(%ebp),%ecx
  405486:	89 50 38             	mov    %edx,0x38(%eax)
  405489:	89 48 3c             	mov    %ecx,0x3c(%eax)
  40548c:	83 c4 34             	add    $0x34,%esp
  40548f:	5b                   	pop    %ebx
  405490:	5e                   	pop    %esi
  405491:	5f                   	pop    %edi
  405492:	5d                   	pop    %ebp
  405493:	c3                   	ret    

00405494 <_ApplyBreaksLeftCastleMove>:
  405494:	55                   	push   %ebp
  405495:	89 e5                	mov    %esp,%ebp
  405497:	83 ec 10             	sub    $0x10,%esp
  40549a:	8b 45 10             	mov    0x10(%ebp),%eax
  40549d:	89 44 24 08          	mov    %eax,0x8(%esp)
  4054a1:	8b 45 0c             	mov    0xc(%ebp),%eax
  4054a4:	89 44 24 04          	mov    %eax,0x4(%esp)
  4054a8:	8b 45 08             	mov    0x8(%ebp),%eax
  4054ab:	89 04 24             	mov    %eax,(%esp)
  4054ae:	e8 4b f9 ff ff       	call   404dfe <_ApplyNormalMove>
  4054b3:	8b 45 08             	mov    0x8(%ebp),%eax
  4054b6:	8b 55 10             	mov    0x10(%ebp),%edx
  4054b9:	83 c2 0c             	add    $0xc,%edx
  4054bc:	c7 44 d0 0c 00 00 00 	movl   $0x0,0xc(%eax,%edx,8)
  4054c3:	00 
  4054c4:	c9                   	leave  
  4054c5:	c3                   	ret    

004054c6 <_RevertBreaksLeftCastleMove>:
  4054c6:	55                   	push   %ebp
  4054c7:	89 e5                	mov    %esp,%ebp
  4054c9:	83 ec 10             	sub    $0x10,%esp
  4054cc:	8b 45 10             	mov    0x10(%ebp),%eax
  4054cf:	89 44 24 08          	mov    %eax,0x8(%esp)
  4054d3:	8b 45 0c             	mov    0xc(%ebp),%eax
  4054d6:	89 44 24 04          	mov    %eax,0x4(%esp)
  4054da:	8b 45 08             	mov    0x8(%ebp),%eax
  4054dd:	89 04 24             	mov    %eax,(%esp)
  4054e0:	e8 40 fb ff ff       	call   405025 <_RevertNormalMove>
  4054e5:	8b 45 08             	mov    0x8(%ebp),%eax
  4054e8:	8b 55 10             	mov    0x10(%ebp),%edx
  4054eb:	83 c2 0c             	add    $0xc,%edx
  4054ee:	c7 44 d0 0c 01 00 00 	movl   $0x1,0xc(%eax,%edx,8)
  4054f5:	00 
  4054f6:	c9                   	leave  
  4054f7:	c3                   	ret    

004054f8 <_ApplyBreaksRightCastleMove>:
  4054f8:	55                   	push   %ebp
  4054f9:	89 e5                	mov    %esp,%ebp
  4054fb:	83 ec 10             	sub    $0x10,%esp
  4054fe:	8b 45 10             	mov    0x10(%ebp),%eax
  405501:	89 44 24 08          	mov    %eax,0x8(%esp)
  405505:	8b 45 0c             	mov    0xc(%ebp),%eax
  405508:	89 44 24 04          	mov    %eax,0x4(%esp)
  40550c:	8b 45 08             	mov    0x8(%ebp),%eax
  40550f:	89 04 24             	mov    %eax,(%esp)
  405512:	e8 e7 f8 ff ff       	call   404dfe <_ApplyNormalMove>
  405517:	8b 45 08             	mov    0x8(%ebp),%eax
  40551a:	8b 55 10             	mov    0x10(%ebp),%edx
  40551d:	c7 44 d0 70 00 00 00 	movl   $0x0,0x70(%eax,%edx,8)
  405524:	00 
  405525:	c9                   	leave  
  405526:	c3                   	ret    

00405527 <_RevertBreaksRightCastleMove>:
  405527:	55                   	push   %ebp
  405528:	89 e5                	mov    %esp,%ebp
  40552a:	83 ec 10             	sub    $0x10,%esp
  40552d:	8b 45 10             	mov    0x10(%ebp),%eax
  405530:	89 44 24 08          	mov    %eax,0x8(%esp)
  405534:	8b 45 0c             	mov    0xc(%ebp),%eax
  405537:	89 44 24 04          	mov    %eax,0x4(%esp)
  40553b:	8b 45 08             	mov    0x8(%ebp),%eax
  40553e:	89 04 24             	mov    %eax,(%esp)
  405541:	e8 df fa ff ff       	call   405025 <_RevertNormalMove>
  405546:	8b 45 08             	mov    0x8(%ebp),%eax
  405549:	8b 55 10             	mov    0x10(%ebp),%edx
  40554c:	c7 44 d0 70 01 00 00 	movl   $0x1,0x70(%eax,%edx,8)
  405553:	00 
  405554:	c9                   	leave  
  405555:	c3                   	ret    

00405556 <_ApplyBreaksBothCastlesMove>:
  405556:	55                   	push   %ebp
  405557:	89 e5                	mov    %esp,%ebp
  405559:	83 ec 10             	sub    $0x10,%esp
  40555c:	8b 45 10             	mov    0x10(%ebp),%eax
  40555f:	89 44 24 08          	mov    %eax,0x8(%esp)
  405563:	8b 45 0c             	mov    0xc(%ebp),%eax
  405566:	89 44 24 04          	mov    %eax,0x4(%esp)
  40556a:	8b 45 08             	mov    0x8(%ebp),%eax
  40556d:	89 04 24             	mov    %eax,(%esp)
  405570:	e8 89 f8 ff ff       	call   404dfe <_ApplyNormalMove>
  405575:	8b 45 08             	mov    0x8(%ebp),%eax
  405578:	8b 55 10             	mov    0x10(%ebp),%edx
  40557b:	83 c2 0c             	add    $0xc,%edx
  40557e:	c7 44 d0 0c 00 00 00 	movl   $0x0,0xc(%eax,%edx,8)
  405585:	00 
  405586:	8b 45 08             	mov    0x8(%ebp),%eax
  405589:	8b 55 10             	mov    0x10(%ebp),%edx
  40558c:	c7 44 d0 70 00 00 00 	movl   $0x0,0x70(%eax,%edx,8)
  405593:	00 
  405594:	c9                   	leave  
  405595:	c3                   	ret    

00405596 <_RevertBreaksBothCastlesMove>:
  405596:	55                   	push   %ebp
  405597:	89 e5                	mov    %esp,%ebp
  405599:	83 ec 10             	sub    $0x10,%esp
  40559c:	8b 45 10             	mov    0x10(%ebp),%eax
  40559f:	89 44 24 08          	mov    %eax,0x8(%esp)
  4055a3:	8b 45 0c             	mov    0xc(%ebp),%eax
  4055a6:	89 44 24 04          	mov    %eax,0x4(%esp)
  4055aa:	8b 45 08             	mov    0x8(%ebp),%eax
  4055ad:	89 04 24             	mov    %eax,(%esp)
  4055b0:	e8 70 fa ff ff       	call   405025 <_RevertNormalMove>
  4055b5:	8b 45 08             	mov    0x8(%ebp),%eax
  4055b8:	8b 55 10             	mov    0x10(%ebp),%edx
  4055bb:	83 c2 0c             	add    $0xc,%edx
  4055be:	c7 44 d0 0c 01 00 00 	movl   $0x1,0xc(%eax,%edx,8)
  4055c5:	00 
  4055c6:	8b 45 08             	mov    0x8(%ebp),%eax
  4055c9:	8b 55 10             	mov    0x10(%ebp),%edx
  4055cc:	c7 44 d0 70 01 00 00 	movl   $0x1,0x70(%eax,%edx,8)
  4055d3:	00 
  4055d4:	c9                   	leave  
  4055d5:	c3                   	ret    
  4055d6:	90                   	nop
  4055d7:	90                   	nop
  4055d8:	66 90                	xchg   %ax,%ax
  4055da:	66 90                	xchg   %ax,%ax
  4055dc:	66 90                	xchg   %ax,%ax
  4055de:	66 90                	xchg   %ax,%ax

004055e0 <___dyn_tls_dtor@12>:
  4055e0:	83 ec 1c             	sub    $0x1c,%esp
  4055e3:	8b 44 24 24          	mov    0x24(%esp),%eax
  4055e7:	85 c0                	test   %eax,%eax
  4055e9:	74 15                	je     405600 <___dyn_tls_dtor@12+0x20>
  4055eb:	83 f8 03             	cmp    $0x3,%eax
  4055ee:	74 10                	je     405600 <___dyn_tls_dtor@12+0x20>
  4055f0:	b8 01 00 00 00       	mov    $0x1,%eax
  4055f5:	83 c4 1c             	add    $0x1c,%esp
  4055f8:	c2 0c 00             	ret    $0xc
  4055fb:	90                   	nop
  4055fc:	8d 74 26 00          	lea    0x0(%esi,%eiz,1),%esi
  405600:	8b 54 24 28          	mov    0x28(%esp),%edx
  405604:	89 44 24 04          	mov    %eax,0x4(%esp)
  405608:	8b 44 24 20          	mov    0x20(%esp),%eax
  40560c:	89 54 24 08          	mov    %edx,0x8(%esp)
  405610:	89 04 24             	mov    %eax,(%esp)
  405613:	e8 18 0a 00 00       	call   406030 <___mingw_TLScallback>
  405618:	b8 01 00 00 00       	mov    $0x1,%eax
  40561d:	83 c4 1c             	add    $0x1c,%esp
  405620:	c2 0c 00             	ret    $0xc
  405623:	8d b6 00 00 00 00    	lea    0x0(%esi),%esi
  405629:	8d bc 27 00 00 00 00 	lea    0x0(%edi,%eiz,1),%edi

00405630 <___dyn_tls_init@12>:
  405630:	56                   	push   %esi
  405631:	53                   	push   %ebx
  405632:	83 ec 14             	sub    $0x14,%esp
  405635:	83 3d 4c 10 41 00 02 	cmpl   $0x2,0x41104c
  40563c:	8b 44 24 24          	mov    0x24(%esp),%eax
  405640:	74 0a                	je     40564c <___dyn_tls_init@12+0x1c>
  405642:	c7 05 4c 10 41 00 02 	movl   $0x2,0x41104c
  405649:	00 00 00 
  40564c:	83 f8 02             	cmp    $0x2,%eax
  40564f:	74 12                	je     405663 <___dyn_tls_init@12+0x33>
  405651:	83 f8 01             	cmp    $0x1,%eax
  405654:	74 42                	je     405698 <___dyn_tls_init@12+0x68>
  405656:	83 c4 14             	add    $0x14,%esp
  405659:	b8 01 00 00 00       	mov    $0x1,%eax
  40565e:	5b                   	pop    %ebx
  40565f:	5e                   	pop    %esi
  405660:	c2 0c 00             	ret    $0xc
  405663:	be 14 30 41 00       	mov    $0x413014,%esi
  405668:	81 ee 14 30 41 00    	sub    $0x413014,%esi
  40566e:	c1 fe 02             	sar    $0x2,%esi
  405671:	85 f6                	test   %esi,%esi
  405673:	7e e1                	jle    405656 <___dyn_tls_init@12+0x26>
  405675:	31 db                	xor    %ebx,%ebx
  405677:	8b 04 9d 14 30 41 00 	mov    0x413014(,%ebx,4),%eax
  40567e:	85 c0                	test   %eax,%eax
  405680:	74 02                	je     405684 <___dyn_tls_init@12+0x54>
  405682:	ff d0                	call   *%eax
  405684:	83 c3 01             	add    $0x1,%ebx
  405687:	39 f3                	cmp    %esi,%ebx
  405689:	75 ec                	jne    405677 <___dyn_tls_init@12+0x47>
  40568b:	83 c4 14             	add    $0x14,%esp
  40568e:	b8 01 00 00 00       	mov    $0x1,%eax
  405693:	5b                   	pop    %ebx
  405694:	5e                   	pop    %esi
  405695:	c2 0c 00             	ret    $0xc
  405698:	8b 44 24 28          	mov    0x28(%esp),%eax
  40569c:	c7 44 24 04 01 00 00 	movl   $0x1,0x4(%esp)
  4056a3:	00 
  4056a4:	89 44 24 08          	mov    %eax,0x8(%esp)
  4056a8:	8b 44 24 20          	mov    0x20(%esp),%eax
  4056ac:	89 04 24             	mov    %eax,(%esp)
  4056af:	e8 7c 09 00 00       	call   406030 <___mingw_TLScallback>
  4056b4:	eb a0                	jmp    405656 <___dyn_tls_init@12+0x26>
  4056b6:	8d 76 00             	lea    0x0(%esi),%esi
  4056b9:	8d bc 27 00 00 00 00 	lea    0x0(%edi,%eiz,1),%edi

004056c0 <___tlregdtor>:
  4056c0:	31 c0                	xor    %eax,%eax
  4056c2:	c3                   	ret    
  4056c3:	90                   	nop
  4056c4:	90                   	nop
  4056c5:	90                   	nop
  4056c6:	90                   	nop
  4056c7:	90                   	nop
  4056c8:	90                   	nop
  4056c9:	90                   	nop
  4056ca:	90                   	nop
  4056cb:	90                   	nop
  4056cc:	90                   	nop
  4056cd:	90                   	nop
  4056ce:	90                   	nop
  4056cf:	90                   	nop

004056d0 <__fpreset>:
  4056d0:	db e3                	fninit 
  4056d2:	c3                   	ret    
  4056d3:	90                   	nop
  4056d4:	90                   	nop
  4056d5:	90                   	nop
  4056d6:	90                   	nop
  4056d7:	90                   	nop
  4056d8:	90                   	nop
  4056d9:	90                   	nop
  4056da:	90                   	nop
  4056db:	90                   	nop
  4056dc:	90                   	nop
  4056dd:	90                   	nop
  4056de:	90                   	nop
  4056df:	90                   	nop

004056e0 <___cpu_features_init>:
  4056e0:	9c                   	pushf  
  4056e1:	9c                   	pushf  
  4056e2:	58                   	pop    %eax
  4056e3:	89 c2                	mov    %eax,%edx
  4056e5:	35 00 00 20 00       	xor    $0x200000,%eax
  4056ea:	50                   	push   %eax
  4056eb:	9d                   	popf   
  4056ec:	9c                   	pushf  
  4056ed:	58                   	pop    %eax
  4056ee:	9d                   	popf   
  4056ef:	31 d0                	xor    %edx,%eax
  4056f1:	a9 00 00 20 00       	test   $0x200000,%eax
  4056f6:	0f 84 a5 00 00 00    	je     4057a1 <___cpu_features_init+0xc1>
  4056fc:	53                   	push   %ebx
  4056fd:	31 c0                	xor    %eax,%eax
  4056ff:	0f a2                	cpuid  
  405701:	85 c0                	test   %eax,%eax
  405703:	0f 84 97 00 00 00    	je     4057a0 <___cpu_features_init+0xc0>
  405709:	b8 01 00 00 00       	mov    $0x1,%eax
  40570e:	0f a2                	cpuid  
  405710:	f6 c6 01             	test   $0x1,%dh
  405713:	74 07                	je     40571c <___cpu_features_init+0x3c>
  405715:	83 0d 40 10 41 00 01 	orl    $0x1,0x411040
  40571c:	f6 c6 80             	test   $0x80,%dh
  40571f:	74 07                	je     405728 <___cpu_features_init+0x48>
  405721:	83 0d 40 10 41 00 02 	orl    $0x2,0x411040
  405728:	f7 c2 00 00 80 00    	test   $0x800000,%edx
  40572e:	74 07                	je     405737 <___cpu_features_init+0x57>
  405730:	83 0d 40 10 41 00 04 	orl    $0x4,0x411040
  405737:	f7 c2 00 00 00 01    	test   $0x1000000,%edx
  40573d:	74 07                	je     405746 <___cpu_features_init+0x66>
  40573f:	83 0d 40 10 41 00 08 	orl    $0x8,0x411040
  405746:	f7 c2 00 00 00 02    	test   $0x2000000,%edx
  40574c:	74 07                	je     405755 <___cpu_features_init+0x75>
  40574e:	83 0d 40 10 41 00 10 	orl    $0x10,0x411040
  405755:	81 e2 00 00 00 04    	and    $0x4000000,%edx
  40575b:	74 07                	je     405764 <___cpu_features_init+0x84>
  40575d:	83 0d 40 10 41 00 20 	orl    $0x20,0x411040
  405764:	f6 c1 01             	test   $0x1,%cl
  405767:	74 07                	je     405770 <___cpu_features_init+0x90>
  405769:	83 0d 40 10 41 00 40 	orl    $0x40,0x411040
  405770:	80 e5 20             	and    $0x20,%ch
  405773:	75 2e                	jne    4057a3 <___cpu_features_init+0xc3>
  405775:	b8 00 00 00 80       	mov    $0x80000000,%eax
  40577a:	0f a2                	cpuid  
  40577c:	3d 00 00 00 80       	cmp    $0x80000000,%eax
  405781:	76 1d                	jbe    4057a0 <___cpu_features_init+0xc0>
  405783:	b8 01 00 00 80       	mov    $0x80000001,%eax
  405788:	0f a2                	cpuid  
  40578a:	85 d2                	test   %edx,%edx
  40578c:	78 22                	js     4057b0 <___cpu_features_init+0xd0>
  40578e:	81 e2 00 00 00 40    	and    $0x40000000,%edx
  405794:	74 0a                	je     4057a0 <___cpu_features_init+0xc0>
  405796:	81 0d 40 10 41 00 00 	orl    $0x200,0x411040
  40579d:	02 00 00 
  4057a0:	5b                   	pop    %ebx
  4057a1:	f3 c3                	repz ret 
  4057a3:	81 0d 40 10 41 00 80 	orl    $0x80,0x411040
  4057aa:	00 00 00 
  4057ad:	eb c6                	jmp    405775 <___cpu_features_init+0x95>
  4057af:	90                   	nop
  4057b0:	81 0d 40 10 41 00 00 	orl    $0x100,0x411040
  4057b7:	01 00 00 
  4057ba:	eb d2                	jmp    40578e <___cpu_features_init+0xae>
  4057bc:	90                   	nop
  4057bd:	90                   	nop
  4057be:	90                   	nop
  4057bf:	90                   	nop

004057c0 <__setargv>:
  4057c0:	55                   	push   %ebp
  4057c1:	89 e5                	mov    %esp,%ebp
  4057c3:	57                   	push   %edi
  4057c4:	56                   	push   %esi
  4057c5:	53                   	push   %ebx
  4057c6:	83 ec 4c             	sub    $0x4c,%esp
  4057c9:	f6 05 3c d8 40 00 02 	testb  $0x2,0x40d83c
  4057d0:	0f 84 ba 02 00 00    	je     405a90 <__setargv+0x2d0>
  4057d6:	e8 1d 6a 00 00       	call   40c1f8 <_GetCommandLineA@0>
  4057db:	89 65 c0             	mov    %esp,-0x40(%ebp)
  4057de:	89 04 24             	mov    %eax,(%esp)
  4057e1:	89 c6                	mov    %eax,%esi
  4057e3:	e8 48 69 00 00       	call   40c130 <_strlen>
  4057e8:	8d 44 00 11          	lea    0x11(%eax,%eax,1),%eax
  4057ec:	83 e0 f0             	and    $0xfffffff0,%eax
  4057ef:	e8 dc 08 00 00       	call   4060d0 <___chkstk_ms>
  4057f4:	29 c4                	sub    %eax,%esp
  4057f6:	8d 44 24 10          	lea    0x10(%esp),%eax
  4057fa:	89 c2                	mov    %eax,%edx
  4057fc:	89 45 c4             	mov    %eax,-0x3c(%ebp)
  4057ff:	a1 3c d8 40 00       	mov    0x40d83c,%eax
  405804:	c7 45 e4 00 00 00 00 	movl   $0x0,-0x1c(%ebp)
  40580b:	c7 45 d0 00 00 00 00 	movl   $0x0,-0x30(%ebp)
  405812:	c7 45 cc 00 00 00 00 	movl   $0x0,-0x34(%ebp)
  405819:	83 e0 40             	and    $0x40,%eax
  40581c:	83 f8 01             	cmp    $0x1,%eax
  40581f:	19 c0                	sbb    %eax,%eax
  405821:	89 45 c8             	mov    %eax,-0x38(%ebp)
  405824:	31 c0                	xor    %eax,%eax
  405826:	81 65 c8 00 c0 ff ff 	andl   $0xffffc000,-0x38(%ebp)
  40582d:	81 45 c8 10 40 00 00 	addl   $0x4010,-0x38(%ebp)
  405834:	89 55 d4             	mov    %edx,-0x2c(%ebp)
  405837:	83 c6 01             	add    $0x1,%esi
  40583a:	0f b6 5e ff          	movzbl -0x1(%esi),%ebx
  40583e:	0f be cb             	movsbl %bl,%ecx
  405841:	85 c9                	test   %ecx,%ecx
  405843:	74 7b                	je     4058c0 <__setargv+0x100>
  405845:	80 fb 3f             	cmp    $0x3f,%bl
  405848:	0f 84 13 01 00 00    	je     405961 <__setargv+0x1a1>
  40584e:	0f 8f ec 00 00 00    	jg     405940 <__setargv+0x180>
  405854:	80 fb 27             	cmp    $0x27,%bl
  405857:	0f 84 e3 01 00 00    	je     405a40 <__setargv+0x280>
  40585d:	80 fb 2a             	cmp    $0x2a,%bl
  405860:	0f 84 fb 00 00 00    	je     405961 <__setargv+0x1a1>
  405866:	80 fb 22             	cmp    $0x22,%bl
  405869:	0f 85 36 01 00 00    	jne    4059a5 <__setargv+0x1e5>
  40586f:	89 c3                	mov    %eax,%ebx
  405871:	d1 fb                	sar    %ebx
  405873:	0f 84 3e 02 00 00    	je     405ab7 <__setargv+0x2f7>
  405879:	8b 55 d4             	mov    -0x2c(%ebp),%edx
  40587c:	01 d3                	add    %edx,%ebx
  40587e:	66 90                	xchg   %ax,%ax
  405880:	83 c2 01             	add    $0x1,%edx
  405883:	39 da                	cmp    %ebx,%edx
  405885:	c6 42 ff 5c          	movb   $0x5c,-0x1(%edx)
  405889:	75 f5                	jne    405880 <__setargv+0xc0>
  40588b:	a8 01                	test   $0x1,%al
  40588d:	0f 85 93 00 00 00    	jne    405926 <__setargv+0x166>
  405893:	83 7d d0 27          	cmpl   $0x27,-0x30(%ebp)
  405897:	0f 84 89 00 00 00    	je     405926 <__setargv+0x166>
  40589d:	83 c6 01             	add    $0x1,%esi
  4058a0:	31 c0                	xor    %eax,%eax
  4058a2:	89 5d d4             	mov    %ebx,-0x2c(%ebp)
  4058a5:	0f b6 5e ff          	movzbl -0x1(%esi),%ebx
  4058a9:	31 4d d0             	xor    %ecx,-0x30(%ebp)
  4058ac:	c7 45 cc 01 00 00 00 	movl   $0x1,-0x34(%ebp)
  4058b3:	0f be cb             	movsbl %bl,%ecx
  4058b6:	85 c9                	test   %ecx,%ecx
  4058b8:	75 8b                	jne    405845 <__setargv+0x85>
  4058ba:	8d b6 00 00 00 00    	lea    0x0(%esi),%esi
  4058c0:	85 c0                	test   %eax,%eax
  4058c2:	8b 55 d4             	mov    -0x2c(%ebp),%edx
  4058c5:	0f 84 f4 01 00 00    	je     405abf <__setargv+0x2ff>
  4058cb:	01 d0                	add    %edx,%eax
  4058cd:	8d 76 00             	lea    0x0(%esi),%esi
  4058d0:	83 c2 01             	add    $0x1,%edx
  4058d3:	39 c2                	cmp    %eax,%edx
  4058d5:	c6 42 ff 5c          	movb   $0x5c,-0x1(%edx)
  4058d9:	75 f5                	jne    4058d0 <__setargv+0x110>
  4058db:	8b 55 cc             	mov    -0x34(%ebp),%edx
  4058de:	85 d2                	test   %edx,%edx
  4058e0:	75 05                	jne    4058e7 <__setargv+0x127>
  4058e2:	39 45 c4             	cmp    %eax,-0x3c(%ebp)
  4058e5:	73 24                	jae    40590b <__setargv+0x14b>
  4058e7:	c6 00 00             	movb   $0x0,(%eax)
  4058ea:	8d 45 d8             	lea    -0x28(%ebp),%eax
  4058ed:	89 44 24 0c          	mov    %eax,0xc(%esp)
  4058f1:	c7 44 24 08 00 00 00 	movl   $0x0,0x8(%esp)
  4058f8:	00 
  4058f9:	8b 45 c8             	mov    -0x38(%ebp),%eax
  4058fc:	89 44 24 04          	mov    %eax,0x4(%esp)
  405900:	8b 45 c4             	mov    -0x3c(%ebp),%eax
  405903:	89 04 24             	mov    %eax,(%esp)
  405906:	e8 f5 13 00 00       	call   406d00 <___mingw_glob>
  40590b:	8b 45 dc             	mov    -0x24(%ebp),%eax
  40590e:	a3 04 10 41 00       	mov    %eax,0x411004
  405913:	8b 45 e0             	mov    -0x20(%ebp),%eax
  405916:	a3 00 10 41 00       	mov    %eax,0x411000
  40591b:	8b 65 c0             	mov    -0x40(%ebp),%esp
  40591e:	8d 65 f4             	lea    -0xc(%ebp),%esp
  405921:	5b                   	pop    %ebx
  405922:	5e                   	pop    %esi
  405923:	5f                   	pop    %edi
  405924:	5d                   	pop    %ebp
  405925:	c3                   	ret    
  405926:	8d 43 01             	lea    0x1(%ebx),%eax
  405929:	89 45 d4             	mov    %eax,-0x2c(%ebp)
  40592c:	31 c0                	xor    %eax,%eax
  40592e:	c6 03 22             	movb   $0x22,(%ebx)
  405931:	c7 45 cc 01 00 00 00 	movl   $0x1,-0x34(%ebp)
  405938:	e9 fa fe ff ff       	jmp    405837 <__setargv+0x77>
  40593d:	8d 76 00             	lea    0x0(%esi),%esi
  405940:	80 fb 5c             	cmp    $0x5c,%bl
  405943:	0f 84 3f 01 00 00    	je     405a88 <__setargv+0x2c8>
  405949:	80 fb 7f             	cmp    $0x7f,%bl
  40594c:	74 13                	je     405961 <__setargv+0x1a1>
  40594e:	80 fb 5b             	cmp    $0x5b,%bl
  405951:	75 52                	jne    4059a5 <__setargv+0x1e5>
  405953:	f6 05 3c d8 40 00 20 	testb  $0x20,0x40d83c
  40595a:	bf 01 00 00 00       	mov    $0x1,%edi
  40595f:	74 0a                	je     40596b <__setargv+0x1ab>
  405961:	8b 55 d0             	mov    -0x30(%ebp),%edx
  405964:	85 d2                	test   %edx,%edx
  405966:	0f 95 c2             	setne  %dl
  405969:	89 d7                	mov    %edx,%edi
  40596b:	85 c0                	test   %eax,%eax
  40596d:	0f 84 34 01 00 00    	je     405aa7 <__setargv+0x2e7>
  405973:	8b 55 d4             	mov    -0x2c(%ebp),%edx
  405976:	01 d0                	add    %edx,%eax
  405978:	83 c2 01             	add    $0x1,%edx
  40597b:	39 c2                	cmp    %eax,%edx
  40597d:	c6 42 ff 5c          	movb   $0x5c,-0x1(%edx)
  405981:	75 f5                	jne    405978 <__setargv+0x1b8>
  405983:	89 fa                	mov    %edi,%edx
  405985:	84 d2                	test   %dl,%dl
  405987:	0f 85 a3 00 00 00    	jne    405a30 <__setargv+0x270>
  40598d:	83 f9 7f             	cmp    $0x7f,%ecx
  405990:	0f 84 9a 00 00 00    	je     405a30 <__setargv+0x270>
  405996:	8d 48 01             	lea    0x1(%eax),%ecx
  405999:	88 18                	mov    %bl,(%eax)
  40599b:	31 c0                	xor    %eax,%eax
  40599d:	89 4d d4             	mov    %ecx,-0x2c(%ebp)
  4059a0:	e9 92 fe ff ff       	jmp    405837 <__setargv+0x77>
  4059a5:	8b 7d d4             	mov    -0x2c(%ebp),%edi
  4059a8:	8b 55 d4             	mov    -0x2c(%ebp),%edx
  4059ab:	01 c7                	add    %eax,%edi
  4059ad:	85 c0                	test   %eax,%eax
  4059af:	0f 84 fa 00 00 00    	je     405aaf <__setargv+0x2ef>
  4059b5:	83 c2 01             	add    $0x1,%edx
  4059b8:	39 fa                	cmp    %edi,%edx
  4059ba:	c6 42 ff 5c          	movb   $0x5c,-0x1(%edx)
  4059be:	75 f5                	jne    4059b5 <__setargv+0x1f5>
  4059c0:	8b 45 d0             	mov    -0x30(%ebp),%eax
  4059c3:	85 c0                	test   %eax,%eax
  4059c5:	75 59                	jne    405a20 <__setargv+0x260>
  4059c7:	89 0c 24             	mov    %ecx,(%esp)
  4059ca:	e8 69 67 00 00       	call   40c138 <_isspace>
  4059cf:	85 c0                	test   %eax,%eax
  4059d1:	74 4d                	je     405a20 <__setargv+0x260>
  4059d3:	8b 4d cc             	mov    -0x34(%ebp),%ecx
  4059d6:	85 c9                	test   %ecx,%ecx
  4059d8:	75 09                	jne    4059e3 <__setargv+0x223>
  4059da:	39 7d c4             	cmp    %edi,-0x3c(%ebp)
  4059dd:	0f 83 ba 00 00 00    	jae    405a9d <__setargv+0x2dd>
  4059e3:	8d 45 d8             	lea    -0x28(%ebp),%eax
  4059e6:	c6 07 00             	movb   $0x0,(%edi)
  4059e9:	89 44 24 0c          	mov    %eax,0xc(%esp)
  4059ed:	c7 44 24 08 00 00 00 	movl   $0x0,0x8(%esp)
  4059f4:	00 
  4059f5:	8b 45 c8             	mov    -0x38(%ebp),%eax
  4059f8:	89 44 24 04          	mov    %eax,0x4(%esp)
  4059fc:	8b 7d c4             	mov    -0x3c(%ebp),%edi
  4059ff:	89 3c 24             	mov    %edi,(%esp)
  405a02:	e8 f9 12 00 00       	call   406d00 <___mingw_glob>
  405a07:	31 c0                	xor    %eax,%eax
  405a09:	83 4d c8 01          	orl    $0x1,-0x38(%ebp)
  405a0d:	89 7d d4             	mov    %edi,-0x2c(%ebp)
  405a10:	c7 45 cc 00 00 00 00 	movl   $0x0,-0x34(%ebp)
  405a17:	e9 1b fe ff ff       	jmp    405837 <__setargv+0x77>
  405a1c:	8d 74 26 00          	lea    0x0(%esi,%eiz,1),%esi
  405a20:	8d 47 01             	lea    0x1(%edi),%eax
  405a23:	89 45 d4             	mov    %eax,-0x2c(%ebp)
  405a26:	31 c0                	xor    %eax,%eax
  405a28:	88 1f                	mov    %bl,(%edi)
  405a2a:	e9 08 fe ff ff       	jmp    405837 <__setargv+0x77>
  405a2f:	90                   	nop
  405a30:	c6 00 7f             	movb   $0x7f,(%eax)
  405a33:	83 c0 01             	add    $0x1,%eax
  405a36:	e9 5b ff ff ff       	jmp    405996 <__setargv+0x1d6>
  405a3b:	90                   	nop
  405a3c:	8d 74 26 00          	lea    0x0(%esi,%eiz,1),%esi
  405a40:	f6 05 3c d8 40 00 10 	testb  $0x10,0x40d83c
  405a47:	0f 84 58 ff ff ff    	je     4059a5 <__setargv+0x1e5>
  405a4d:	89 c3                	mov    %eax,%ebx
  405a4f:	d1 fb                	sar    %ebx
  405a51:	74 73                	je     405ac6 <__setargv+0x306>
  405a53:	8b 55 d4             	mov    -0x2c(%ebp),%edx
  405a56:	01 d3                	add    %edx,%ebx
  405a58:	83 c2 01             	add    $0x1,%edx
  405a5b:	39 da                	cmp    %ebx,%edx
  405a5d:	c6 42 ff 5c          	movb   $0x5c,-0x1(%edx)
  405a61:	75 f5                	jne    405a58 <__setargv+0x298>
  405a63:	a8 01                	test   $0x1,%al
  405a65:	75 0a                	jne    405a71 <__setargv+0x2b1>
  405a67:	83 7d d0 22          	cmpl   $0x22,-0x30(%ebp)
  405a6b:	0f 85 2c fe ff ff    	jne    40589d <__setargv+0xdd>
  405a71:	8d 43 01             	lea    0x1(%ebx),%eax
  405a74:	89 45 d4             	mov    %eax,-0x2c(%ebp)
  405a77:	31 c0                	xor    %eax,%eax
  405a79:	c6 03 27             	movb   $0x27,(%ebx)
  405a7c:	c7 45 cc 01 00 00 00 	movl   $0x1,-0x34(%ebp)
  405a83:	e9 af fd ff ff       	jmp    405837 <__setargv+0x77>
  405a88:	83 c0 01             	add    $0x1,%eax
  405a8b:	e9 a7 fd ff ff       	jmp    405837 <__setargv+0x77>
  405a90:	e8 cb b7 ff ff       	call   401260 <__mingw32_init_mainargs>
  405a95:	8d 65 f4             	lea    -0xc(%ebp),%esp
  405a98:	5b                   	pop    %ebx
  405a99:	5e                   	pop    %esi
  405a9a:	5f                   	pop    %edi
  405a9b:	5d                   	pop    %ebp
  405a9c:	c3                   	ret    
  405a9d:	89 7d d4             	mov    %edi,-0x2c(%ebp)
  405aa0:	31 c0                	xor    %eax,%eax
  405aa2:	e9 90 fd ff ff       	jmp    405837 <__setargv+0x77>
  405aa7:	8b 45 d4             	mov    -0x2c(%ebp),%eax
  405aaa:	e9 d4 fe ff ff       	jmp    405983 <__setargv+0x1c3>
  405aaf:	8b 7d d4             	mov    -0x2c(%ebp),%edi
  405ab2:	e9 09 ff ff ff       	jmp    4059c0 <__setargv+0x200>
  405ab7:	8b 5d d4             	mov    -0x2c(%ebp),%ebx
  405aba:	e9 cc fd ff ff       	jmp    40588b <__setargv+0xcb>
  405abf:	89 d0                	mov    %edx,%eax
  405ac1:	e9 15 fe ff ff       	jmp    4058db <__setargv+0x11b>
  405ac6:	8b 5d d4             	mov    -0x2c(%ebp),%ebx
  405ac9:	eb 98                	jmp    405a63 <__setargv+0x2a3>
  405acb:	90                   	nop
  405acc:	90                   	nop
  405acd:	90                   	nop
  405ace:	90                   	nop
  405acf:	90                   	nop

00405ad0 <___report_error>:
  405ad0:	56                   	push   %esi
  405ad1:	53                   	push   %ebx
  405ad2:	83 ec 14             	sub    $0x14,%esp
  405ad5:	a1 d4 21 41 00       	mov    0x4121d4,%eax
  405ada:	c7 44 24 08 17 00 00 	movl   $0x17,0x8(%esp)
  405ae1:	00 
  405ae2:	8d 74 24 24          	lea    0x24(%esp),%esi
  405ae6:	c7 44 24 04 01 00 00 	movl   $0x1,0x4(%esp)
  405aed:	00 
  405aee:	c7 04 24 80 e0 40 00 	movl   $0x40e080,(%esp)
  405af5:	8d 58 40             	lea    0x40(%eax),%ebx
  405af8:	89 5c 24 0c          	mov    %ebx,0xc(%esp)
  405afc:	e8 3f 66 00 00       	call   40c140 <_fwrite>
  405b01:	8b 44 24 20          	mov    0x20(%esp),%eax
  405b05:	89 74 24 08          	mov    %esi,0x8(%esp)
  405b09:	89 1c 24             	mov    %ebx,(%esp)
  405b0c:	89 44 24 04          	mov    %eax,0x4(%esp)
  405b10:	e8 33 66 00 00       	call   40c148 <_vfprintf>
  405b15:	e8 36 66 00 00       	call   40c150 <_abort>
  405b1a:	8d b6 00 00 00 00    	lea    0x0(%esi),%esi

00405b20 <___write_memory.part.0>:
  405b20:	55                   	push   %ebp
  405b21:	89 e5                	mov    %esp,%ebp
  405b23:	57                   	push   %edi
  405b24:	89 cf                	mov    %ecx,%edi
  405b26:	56                   	push   %esi
  405b27:	89 d6                	mov    %edx,%esi
  405b29:	53                   	push   %ebx
  405b2a:	89 c3                	mov    %eax,%ebx
  405b2c:	83 ec 4c             	sub    $0x4c,%esp
  405b2f:	8d 45 cc             	lea    -0x34(%ebp),%eax
  405b32:	c7 44 24 08 1c 00 00 	movl   $0x1c,0x8(%esp)
  405b39:	00 
  405b3a:	89 44 24 04          	mov    %eax,0x4(%esp)
  405b3e:	89 1c 24             	mov    %ebx,(%esp)
  405b41:	e8 ba 66 00 00       	call   40c200 <_VirtualQuery@12>
  405b46:	83 ec 0c             	sub    $0xc,%esp
  405b49:	85 c0                	test   %eax,%eax
  405b4b:	0f 84 9a 00 00 00    	je     405beb <___write_memory.part.0+0xcb>
  405b51:	8b 45 e0             	mov    -0x20(%ebp),%eax
  405b54:	83 f8 04             	cmp    $0x4,%eax
  405b57:	75 18                	jne    405b71 <___write_memory.part.0+0x51>
  405b59:	89 7c 24 08          	mov    %edi,0x8(%esp)
  405b5d:	89 74 24 04          	mov    %esi,0x4(%esp)
  405b61:	89 1c 24             	mov    %ebx,(%esp)
  405b64:	e8 ef 65 00 00       	call   40c158 <_memcpy>
  405b69:	8d 65 f4             	lea    -0xc(%ebp),%esp
  405b6c:	5b                   	pop    %ebx
  405b6d:	5e                   	pop    %esi
  405b6e:	5f                   	pop    %edi
  405b6f:	5d                   	pop    %ebp
  405b70:	c3                   	ret    
  405b71:	83 f8 40             	cmp    $0x40,%eax
  405b74:	74 e3                	je     405b59 <___write_memory.part.0+0x39>
  405b76:	8b 45 d8             	mov    -0x28(%ebp),%eax
  405b79:	8d 55 c8             	lea    -0x38(%ebp),%edx
  405b7c:	89 54 24 0c          	mov    %edx,0xc(%esp)
  405b80:	c7 44 24 08 40 00 00 	movl   $0x40,0x8(%esp)
  405b87:	00 
  405b88:	89 55 c4             	mov    %edx,-0x3c(%ebp)
  405b8b:	89 44 24 04          	mov    %eax,0x4(%esp)
  405b8f:	8b 45 cc             	mov    -0x34(%ebp),%eax
  405b92:	89 04 24             	mov    %eax,(%esp)
  405b95:	e8 6e 66 00 00       	call   40c208 <_VirtualProtect@16>
  405b9a:	8b 4d e0             	mov    -0x20(%ebp),%ecx
  405b9d:	89 4d c0             	mov    %ecx,-0x40(%ebp)
  405ba0:	83 ec 10             	sub    $0x10,%esp
  405ba3:	89 7c 24 08          	mov    %edi,0x8(%esp)
  405ba7:	89 74 24 04          	mov    %esi,0x4(%esp)
  405bab:	89 1c 24             	mov    %ebx,(%esp)
  405bae:	e8 a5 65 00 00       	call   40c158 <_memcpy>
  405bb3:	8b 4d c0             	mov    -0x40(%ebp),%ecx
  405bb6:	83 f9 04             	cmp    $0x4,%ecx
  405bb9:	74 ae                	je     405b69 <___write_memory.part.0+0x49>
  405bbb:	83 f9 40             	cmp    $0x40,%ecx
  405bbe:	74 a9                	je     405b69 <___write_memory.part.0+0x49>
  405bc0:	8b 45 c8             	mov    -0x38(%ebp),%eax
  405bc3:	8b 55 c4             	mov    -0x3c(%ebp),%edx
  405bc6:	89 44 24 08          	mov    %eax,0x8(%esp)
  405bca:	8b 45 d8             	mov    -0x28(%ebp),%eax
  405bcd:	89 54 24 0c          	mov    %edx,0xc(%esp)
  405bd1:	89 44 24 04          	mov    %eax,0x4(%esp)
  405bd5:	8b 45 cc             	mov    -0x34(%ebp),%eax
  405bd8:	89 04 24             	mov    %eax,(%esp)
  405bdb:	e8 28 66 00 00       	call   40c208 <_VirtualProtect@16>
  405be0:	83 ec 10             	sub    $0x10,%esp
  405be3:	8d 65 f4             	lea    -0xc(%ebp),%esp
  405be6:	5b                   	pop    %ebx
  405be7:	5e                   	pop    %esi
  405be8:	5f                   	pop    %edi
  405be9:	5d                   	pop    %ebp
  405bea:	c3                   	ret    
  405beb:	89 5c 24 08          	mov    %ebx,0x8(%esp)
  405bef:	c7 44 24 04 1c 00 00 	movl   $0x1c,0x4(%esp)
  405bf6:	00 
  405bf7:	c7 04 24 98 e0 40 00 	movl   $0x40e098,(%esp)
  405bfe:	e8 cd fe ff ff       	call   405ad0 <___report_error>
  405c03:	8d b6 00 00 00 00    	lea    0x0(%esi),%esi
  405c09:	8d bc 27 00 00 00 00 	lea    0x0(%edi,%eiz,1),%edi

00405c10 <__pei386_runtime_relocator>:
  405c10:	a1 44 10 41 00       	mov    0x411044,%eax
  405c15:	85 c0                	test   %eax,%eax
  405c17:	74 07                	je     405c20 <__pei386_runtime_relocator+0x10>
  405c19:	c3                   	ret    
  405c1a:	8d b6 00 00 00 00    	lea    0x0(%esi),%esi
  405c20:	b8 7c e7 40 00       	mov    $0x40e77c,%eax
  405c25:	2d 7c e7 40 00       	sub    $0x40e77c,%eax
  405c2a:	83 f8 07             	cmp    $0x7,%eax
  405c2d:	c7 05 44 10 41 00 01 	movl   $0x1,0x411044
  405c34:	00 00 00 
  405c37:	7e e0                	jle    405c19 <__pei386_runtime_relocator+0x9>
  405c39:	57                   	push   %edi
  405c3a:	56                   	push   %esi
  405c3b:	53                   	push   %ebx
  405c3c:	83 ec 20             	sub    $0x20,%esp
  405c3f:	83 f8 0b             	cmp    $0xb,%eax
  405c42:	0f 8e de 00 00 00    	jle    405d26 <__pei386_runtime_relocator+0x116>
  405c48:	8b 35 7c e7 40 00    	mov    0x40e77c,%esi
  405c4e:	85 f6                	test   %esi,%esi
  405c50:	0f 85 8a 00 00 00    	jne    405ce0 <__pei386_runtime_relocator+0xd0>
  405c56:	8b 1d 80 e7 40 00    	mov    0x40e780,%ebx
  405c5c:	85 db                	test   %ebx,%ebx
  405c5e:	0f 85 7c 00 00 00    	jne    405ce0 <__pei386_runtime_relocator+0xd0>
  405c64:	8b 0d 84 e7 40 00    	mov    0x40e784,%ecx
  405c6a:	bb 88 e7 40 00       	mov    $0x40e788,%ebx
  405c6f:	85 c9                	test   %ecx,%ecx
  405c71:	0f 84 b4 00 00 00    	je     405d2b <__pei386_runtime_relocator+0x11b>
  405c77:	bb 7c e7 40 00       	mov    $0x40e77c,%ebx
  405c7c:	8b 43 08             	mov    0x8(%ebx),%eax
  405c7f:	83 f8 01             	cmp    $0x1,%eax
  405c82:	0f 85 49 01 00 00    	jne    405dd1 <__pei386_runtime_relocator+0x1c1>
  405c88:	83 c3 0c             	add    $0xc,%ebx
  405c8b:	81 fb 7c e7 40 00    	cmp    $0x40e77c,%ebx
  405c91:	0f 83 88 00 00 00    	jae    405d1f <__pei386_runtime_relocator+0x10f>
  405c97:	0f b6 53 08          	movzbl 0x8(%ebx),%edx
  405c9b:	8b 73 04             	mov    0x4(%ebx),%esi
  405c9e:	8b 0b                	mov    (%ebx),%ecx
  405ca0:	83 fa 10             	cmp    $0x10,%edx
  405ca3:	8d 86 00 00 40 00    	lea    0x400000(%esi),%eax
  405ca9:	8b b9 00 00 40 00    	mov    0x400000(%ecx),%edi
  405caf:	0f 84 8b 00 00 00    	je     405d40 <__pei386_runtime_relocator+0x130>
  405cb5:	83 fa 20             	cmp    $0x20,%edx
  405cb8:	0f 84 f2 00 00 00    	je     405db0 <__pei386_runtime_relocator+0x1a0>
  405cbe:	83 fa 08             	cmp    $0x8,%edx
  405cc1:	0f 84 af 00 00 00    	je     405d76 <__pei386_runtime_relocator+0x166>
  405cc7:	89 54 24 04          	mov    %edx,0x4(%esp)
  405ccb:	c7 04 24 00 e1 40 00 	movl   $0x40e100,(%esp)
  405cd2:	c7 44 24 1c 00 00 00 	movl   $0x0,0x1c(%esp)
  405cd9:	00 
  405cda:	e8 f1 fd ff ff       	call   405ad0 <___report_error>
  405cdf:	90                   	nop
  405ce0:	bb 7c e7 40 00       	mov    $0x40e77c,%ebx
  405ce5:	81 fb 7c e7 40 00    	cmp    $0x40e77c,%ebx
  405ceb:	73 32                	jae    405d1f <__pei386_runtime_relocator+0x10f>
  405ced:	8d 76 00             	lea    0x0(%esi),%esi
  405cf0:	8b 53 04             	mov    0x4(%ebx),%edx
  405cf3:	b9 04 00 00 00       	mov    $0x4,%ecx
  405cf8:	83 c3 08             	add    $0x8,%ebx
  405cfb:	8d 82 00 00 40 00    	lea    0x400000(%edx),%eax
  405d01:	8b 92 00 00 40 00    	mov    0x400000(%edx),%edx
  405d07:	03 53 f8             	add    -0x8(%ebx),%edx
  405d0a:	89 54 24 1c          	mov    %edx,0x1c(%esp)
  405d0e:	8d 54 24 1c          	lea    0x1c(%esp),%edx
  405d12:	e8 09 fe ff ff       	call   405b20 <___write_memory.part.0>
  405d17:	81 fb 7c e7 40 00    	cmp    $0x40e77c,%ebx
  405d1d:	72 d1                	jb     405cf0 <__pei386_runtime_relocator+0xe0>
  405d1f:	83 c4 20             	add    $0x20,%esp
  405d22:	5b                   	pop    %ebx
  405d23:	5e                   	pop    %esi
  405d24:	5f                   	pop    %edi
  405d25:	c3                   	ret    
  405d26:	bb 7c e7 40 00       	mov    $0x40e77c,%ebx
  405d2b:	8b 13                	mov    (%ebx),%edx
  405d2d:	85 d2                	test   %edx,%edx
  405d2f:	75 b4                	jne    405ce5 <__pei386_runtime_relocator+0xd5>
  405d31:	8b 43 04             	mov    0x4(%ebx),%eax
  405d34:	85 c0                	test   %eax,%eax
  405d36:	0f 84 40 ff ff ff    	je     405c7c <__pei386_runtime_relocator+0x6c>
  405d3c:	eb a7                	jmp    405ce5 <__pei386_runtime_relocator+0xd5>
  405d3e:	66 90                	xchg   %ax,%ax
  405d40:	0f b7 b6 00 00 40 00 	movzwl 0x400000(%esi),%esi
  405d47:	66 85 f6             	test   %si,%si
  405d4a:	0f b7 d6             	movzwl %si,%edx
  405d4d:	79 06                	jns    405d55 <__pei386_runtime_relocator+0x145>
  405d4f:	81 ca 00 00 ff ff    	or     $0xffff0000,%edx
  405d55:	29 ca                	sub    %ecx,%edx
  405d57:	b9 02 00 00 00       	mov    $0x2,%ecx
  405d5c:	81 ea 00 00 40 00    	sub    $0x400000,%edx
  405d62:	01 fa                	add    %edi,%edx
  405d64:	89 54 24 1c          	mov    %edx,0x1c(%esp)
  405d68:	8d 54 24 1c          	lea    0x1c(%esp),%edx
  405d6c:	e8 af fd ff ff       	call   405b20 <___write_memory.part.0>
  405d71:	e9 12 ff ff ff       	jmp    405c88 <__pei386_runtime_relocator+0x78>
  405d76:	0f b6 10             	movzbl (%eax),%edx
  405d79:	84 d2                	test   %dl,%dl
  405d7b:	0f b6 f2             	movzbl %dl,%esi
  405d7e:	79 06                	jns    405d86 <__pei386_runtime_relocator+0x176>
  405d80:	81 ce 00 ff ff ff    	or     $0xffffff00,%esi
  405d86:	81 ee 00 00 40 00    	sub    $0x400000,%esi
  405d8c:	89 f2                	mov    %esi,%edx
  405d8e:	29 ca                	sub    %ecx,%edx
  405d90:	b9 01 00 00 00       	mov    $0x1,%ecx
  405d95:	01 fa                	add    %edi,%edx
  405d97:	89 54 24 1c          	mov    %edx,0x1c(%esp)
  405d9b:	8d 54 24 1c          	lea    0x1c(%esp),%edx
  405d9f:	e8 7c fd ff ff       	call   405b20 <___write_memory.part.0>
  405da4:	e9 df fe ff ff       	jmp    405c88 <__pei386_runtime_relocator+0x78>
  405da9:	8d b4 26 00 00 00 00 	lea    0x0(%esi,%eiz,1),%esi
  405db0:	81 c1 00 00 40 00    	add    $0x400000,%ecx
  405db6:	29 cf                	sub    %ecx,%edi
  405db8:	b9 04 00 00 00       	mov    $0x4,%ecx
  405dbd:	03 38                	add    (%eax),%edi
  405dbf:	8d 54 24 1c          	lea    0x1c(%esp),%edx
  405dc3:	89 7c 24 1c          	mov    %edi,0x1c(%esp)
  405dc7:	e8 54 fd ff ff       	call   405b20 <___write_memory.part.0>
  405dcc:	e9 b7 fe ff ff       	jmp    405c88 <__pei386_runtime_relocator+0x78>
  405dd1:	89 44 24 04          	mov    %eax,0x4(%esp)
  405dd5:	c7 04 24 cc e0 40 00 	movl   $0x40e0cc,(%esp)
  405ddc:	e8 ef fc ff ff       	call   405ad0 <___report_error>
  405de1:	90                   	nop
  405de2:	90                   	nop
  405de3:	90                   	nop
  405de4:	90                   	nop
  405de5:	90                   	nop
  405de6:	90                   	nop
  405de7:	90                   	nop
  405de8:	90                   	nop
  405de9:	90                   	nop
  405dea:	90                   	nop
  405deb:	90                   	nop
  405dec:	90                   	nop
  405ded:	90                   	nop
  405dee:	90                   	nop
  405def:	90                   	nop

00405df0 <___do_global_dtors>:
  405df0:	a1 40 d8 40 00       	mov    0x40d840,%eax
  405df5:	8b 00                	mov    (%eax),%eax
  405df7:	85 c0                	test   %eax,%eax
  405df9:	74 1f                	je     405e1a <___do_global_dtors+0x2a>
  405dfb:	83 ec 0c             	sub    $0xc,%esp
  405dfe:	66 90                	xchg   %ax,%ax
  405e00:	ff d0                	call   *%eax
  405e02:	a1 40 d8 40 00       	mov    0x40d840,%eax
  405e07:	8d 50 04             	lea    0x4(%eax),%edx
  405e0a:	8b 40 04             	mov    0x4(%eax),%eax
  405e0d:	89 15 40 d8 40 00    	mov    %edx,0x40d840
  405e13:	85 c0                	test   %eax,%eax
  405e15:	75 e9                	jne    405e00 <___do_global_dtors+0x10>
  405e17:	83 c4 0c             	add    $0xc,%esp
  405e1a:	f3 c3                	repz ret 
  405e1c:	8d 74 26 00          	lea    0x0(%esi,%eiz,1),%esi

00405e20 <___do_global_ctors>:
  405e20:	53                   	push   %ebx
  405e21:	83 ec 18             	sub    $0x18,%esp
  405e24:	8b 1d 10 c5 40 00    	mov    0x40c510,%ebx
  405e2a:	83 fb ff             	cmp    $0xffffffff,%ebx
  405e2d:	74 24                	je     405e53 <___do_global_ctors+0x33>
  405e2f:	85 db                	test   %ebx,%ebx
  405e31:	74 0f                	je     405e42 <___do_global_ctors+0x22>
  405e33:	ff 14 9d 10 c5 40 00 	call   *0x40c510(,%ebx,4)
  405e3a:	83 eb 01             	sub    $0x1,%ebx
  405e3d:	8d 76 00             	lea    0x0(%esi),%esi
  405e40:	75 f1                	jne    405e33 <___do_global_ctors+0x13>
  405e42:	c7 04 24 f0 5d 40 00 	movl   $0x405df0,(%esp)
  405e49:	e8 92 b4 ff ff       	call   4012e0 <_atexit>
  405e4e:	83 c4 18             	add    $0x18,%esp
  405e51:	5b                   	pop    %ebx
  405e52:	c3                   	ret    
  405e53:	31 db                	xor    %ebx,%ebx
  405e55:	eb 02                	jmp    405e59 <___do_global_ctors+0x39>
  405e57:	89 c3                	mov    %eax,%ebx
  405e59:	8d 43 01             	lea    0x1(%ebx),%eax
  405e5c:	8b 14 85 10 c5 40 00 	mov    0x40c510(,%eax,4),%edx
  405e63:	85 d2                	test   %edx,%edx
  405e65:	75 f0                	jne    405e57 <___do_global_ctors+0x37>
  405e67:	eb c6                	jmp    405e2f <___do_global_ctors+0xf>
  405e69:	8d b4 26 00 00 00 00 	lea    0x0(%esi,%eiz,1),%esi

00405e70 <___main>:
  405e70:	8b 0d 48 10 41 00    	mov    0x411048,%ecx
  405e76:	85 c9                	test   %ecx,%ecx
  405e78:	74 06                	je     405e80 <___main+0x10>
  405e7a:	f3 c3                	repz ret 
  405e7c:	8d 74 26 00          	lea    0x0(%esi,%eiz,1),%esi
  405e80:	c7 05 48 10 41 00 01 	movl   $0x1,0x411048
  405e87:	00 00 00 
  405e8a:	eb 94                	jmp    405e20 <___do_global_ctors>
  405e8c:	90                   	nop
  405e8d:	90                   	nop
  405e8e:	90                   	nop
  405e8f:	90                   	nop

00405e90 <___mingwthr_run_key_dtors.part.0>:
  405e90:	55                   	push   %ebp
  405e91:	89 e5                	mov    %esp,%ebp
  405e93:	56                   	push   %esi
  405e94:	53                   	push   %ebx
  405e95:	83 ec 10             	sub    $0x10,%esp
  405e98:	c7 04 24 58 10 41 00 	movl   $0x411058,(%esp)
  405e9f:	e8 6c 63 00 00       	call   40c210 <_EnterCriticalSection@4>
  405ea4:	8b 1d 50 10 41 00    	mov    0x411050,%ebx
  405eaa:	83 ec 04             	sub    $0x4,%esp
  405ead:	85 db                	test   %ebx,%ebx
  405eaf:	74 2b                	je     405edc <___mingwthr_run_key_dtors.part.0+0x4c>
  405eb1:	8b 03                	mov    (%ebx),%eax
  405eb3:	89 04 24             	mov    %eax,(%esp)
  405eb6:	e8 5d 63 00 00       	call   40c218 <_TlsGetValue@4>
  405ebb:	83 ec 04             	sub    $0x4,%esp
  405ebe:	89 c6                	mov    %eax,%esi
  405ec0:	e8 5b 63 00 00       	call   40c220 <_GetLastError@0>
  405ec5:	85 c0                	test   %eax,%eax
  405ec7:	75 0c                	jne    405ed5 <___mingwthr_run_key_dtors.part.0+0x45>
  405ec9:	85 f6                	test   %esi,%esi
  405ecb:	74 08                	je     405ed5 <___mingwthr_run_key_dtors.part.0+0x45>
  405ecd:	8b 43 04             	mov    0x4(%ebx),%eax
  405ed0:	89 34 24             	mov    %esi,(%esp)
  405ed3:	ff d0                	call   *%eax
  405ed5:	8b 5b 08             	mov    0x8(%ebx),%ebx
  405ed8:	85 db                	test   %ebx,%ebx
  405eda:	75 d5                	jne    405eb1 <___mingwthr_run_key_dtors.part.0+0x21>
  405edc:	c7 04 24 58 10 41 00 	movl   $0x411058,(%esp)
  405ee3:	e8 40 63 00 00       	call   40c228 <_LeaveCriticalSection@4>
  405ee8:	83 ec 04             	sub    $0x4,%esp
  405eeb:	8d 65 f8             	lea    -0x8(%ebp),%esp
  405eee:	5b                   	pop    %ebx
  405eef:	5e                   	pop    %esi
  405ef0:	5d                   	pop    %ebp
  405ef1:	c3                   	ret    
  405ef2:	8d b4 26 00 00 00 00 	lea    0x0(%esi,%eiz,1),%esi
  405ef9:	8d bc 27 00 00 00 00 	lea    0x0(%edi,%eiz,1),%edi

00405f00 <____w64_mingwthr_add_key_dtor>:
  405f00:	55                   	push   %ebp
  405f01:	89 e5                	mov    %esp,%ebp
  405f03:	56                   	push   %esi
  405f04:	31 f6                	xor    %esi,%esi
  405f06:	53                   	push   %ebx
  405f07:	83 ec 10             	sub    $0x10,%esp
  405f0a:	a1 54 10 41 00       	mov    0x411054,%eax
  405f0f:	85 c0                	test   %eax,%eax
  405f11:	75 0d                	jne    405f20 <____w64_mingwthr_add_key_dtor+0x20>
  405f13:	8d 65 f8             	lea    -0x8(%ebp),%esp
  405f16:	89 f0                	mov    %esi,%eax
  405f18:	5b                   	pop    %ebx
  405f19:	5e                   	pop    %esi
  405f1a:	5d                   	pop    %ebp
  405f1b:	c3                   	ret    
  405f1c:	8d 74 26 00          	lea    0x0(%esi,%eiz,1),%esi
  405f20:	c7 44 24 04 0c 00 00 	movl   $0xc,0x4(%esp)
  405f27:	00 
  405f28:	c7 04 24 01 00 00 00 	movl   $0x1,(%esp)
  405f2f:	e8 ec 61 00 00       	call   40c120 <_calloc>
  405f34:	85 c0                	test   %eax,%eax
  405f36:	89 c3                	mov    %eax,%ebx
  405f38:	74 40                	je     405f7a <____w64_mingwthr_add_key_dtor+0x7a>
  405f3a:	8b 45 08             	mov    0x8(%ebp),%eax
  405f3d:	c7 04 24 58 10 41 00 	movl   $0x411058,(%esp)
  405f44:	89 03                	mov    %eax,(%ebx)
  405f46:	8b 45 0c             	mov    0xc(%ebp),%eax
  405f49:	89 43 04             	mov    %eax,0x4(%ebx)
  405f4c:	e8 bf 62 00 00       	call   40c210 <_EnterCriticalSection@4>
  405f51:	a1 50 10 41 00       	mov    0x411050,%eax
  405f56:	89 1d 50 10 41 00    	mov    %ebx,0x411050
  405f5c:	89 43 08             	mov    %eax,0x8(%ebx)
  405f5f:	83 ec 04             	sub    $0x4,%esp
  405f62:	c7 04 24 58 10 41 00 	movl   $0x411058,(%esp)
  405f69:	e8 ba 62 00 00       	call   40c228 <_LeaveCriticalSection@4>
  405f6e:	89 f0                	mov    %esi,%eax
  405f70:	83 ec 04             	sub    $0x4,%esp
  405f73:	8d 65 f8             	lea    -0x8(%ebp),%esp
  405f76:	5b                   	pop    %ebx
  405f77:	5e                   	pop    %esi
  405f78:	5d                   	pop    %ebp
  405f79:	c3                   	ret    
  405f7a:	be ff ff ff ff       	mov    $0xffffffff,%esi
  405f7f:	eb 92                	jmp    405f13 <____w64_mingwthr_add_key_dtor+0x13>
  405f81:	eb 0d                	jmp    405f90 <____w64_mingwthr_remove_key_dtor>
  405f83:	90                   	nop
  405f84:	90                   	nop
  405f85:	90                   	nop
  405f86:	90                   	nop
  405f87:	90                   	nop
  405f88:	90                   	nop
  405f89:	90                   	nop
  405f8a:	90                   	nop
  405f8b:	90                   	nop
  405f8c:	90                   	nop
  405f8d:	90                   	nop
  405f8e:	90                   	nop
  405f8f:	90                   	nop

00405f90 <____w64_mingwthr_remove_key_dtor>:
  405f90:	55                   	push   %ebp
  405f91:	89 e5                	mov    %esp,%ebp
  405f93:	53                   	push   %ebx
  405f94:	83 ec 14             	sub    $0x14,%esp
  405f97:	a1 54 10 41 00       	mov    0x411054,%eax
  405f9c:	8b 5d 08             	mov    0x8(%ebp),%ebx
  405f9f:	85 c0                	test   %eax,%eax
  405fa1:	75 0d                	jne    405fb0 <____w64_mingwthr_remove_key_dtor+0x20>
  405fa3:	31 c0                	xor    %eax,%eax
  405fa5:	8b 5d fc             	mov    -0x4(%ebp),%ebx
  405fa8:	c9                   	leave  
  405fa9:	c3                   	ret    
  405faa:	8d b6 00 00 00 00    	lea    0x0(%esi),%esi
  405fb0:	c7 04 24 58 10 41 00 	movl   $0x411058,(%esp)
  405fb7:	e8 54 62 00 00       	call   40c210 <_EnterCriticalSection@4>
  405fbc:	8b 15 50 10 41 00    	mov    0x411050,%edx
  405fc2:	83 ec 04             	sub    $0x4,%esp
  405fc5:	85 d2                	test   %edx,%edx
  405fc7:	74 17                	je     405fe0 <____w64_mingwthr_remove_key_dtor+0x50>
  405fc9:	8b 02                	mov    (%edx),%eax
  405fcb:	39 d8                	cmp    %ebx,%eax
  405fcd:	75 0a                	jne    405fd9 <____w64_mingwthr_remove_key_dtor+0x49>
  405fcf:	eb 44                	jmp    406015 <____w64_mingwthr_remove_key_dtor+0x85>
  405fd1:	8b 08                	mov    (%eax),%ecx
  405fd3:	39 d9                	cmp    %ebx,%ecx
  405fd5:	74 1f                	je     405ff6 <____w64_mingwthr_remove_key_dtor+0x66>
  405fd7:	89 c2                	mov    %eax,%edx
  405fd9:	8b 42 08             	mov    0x8(%edx),%eax
  405fdc:	85 c0                	test   %eax,%eax
  405fde:	75 f1                	jne    405fd1 <____w64_mingwthr_remove_key_dtor+0x41>
  405fe0:	c7 04 24 58 10 41 00 	movl   $0x411058,(%esp)
  405fe7:	e8 3c 62 00 00       	call   40c228 <_LeaveCriticalSection@4>
  405fec:	83 ec 04             	sub    $0x4,%esp
  405fef:	31 c0                	xor    %eax,%eax
  405ff1:	8b 5d fc             	mov    -0x4(%ebp),%ebx
  405ff4:	c9                   	leave  
  405ff5:	c3                   	ret    
  405ff6:	8b 48 08             	mov    0x8(%eax),%ecx
  405ff9:	89 4a 08             	mov    %ecx,0x8(%edx)
  405ffc:	89 04 24             	mov    %eax,(%esp)
  405fff:	e8 5c 61 00 00       	call   40c160 <_free>
  406004:	c7 04 24 58 10 41 00 	movl   $0x411058,(%esp)
  40600b:	e8 18 62 00 00       	call   40c228 <_LeaveCriticalSection@4>
  406010:	83 ec 04             	sub    $0x4,%esp
  406013:	eb da                	jmp    405fef <____w64_mingwthr_remove_key_dtor+0x5f>
  406015:	8b 42 08             	mov    0x8(%edx),%eax
  406018:	a3 50 10 41 00       	mov    %eax,0x411050
  40601d:	89 d0                	mov    %edx,%eax
  40601f:	eb db                	jmp    405ffc <____w64_mingwthr_remove_key_dtor+0x6c>
  406021:	eb 0d                	jmp    406030 <___mingw_TLScallback>
  406023:	90                   	nop
  406024:	90                   	nop
  406025:	90                   	nop
  406026:	90                   	nop
  406027:	90                   	nop
  406028:	90                   	nop
  406029:	90                   	nop
  40602a:	90                   	nop
  40602b:	90                   	nop
  40602c:	90                   	nop
  40602d:	90                   	nop
  40602e:	90                   	nop
  40602f:	90                   	nop

00406030 <___mingw_TLScallback>:
  406030:	55                   	push   %ebp
  406031:	89 e5                	mov    %esp,%ebp
  406033:	83 ec 18             	sub    $0x18,%esp
  406036:	8b 45 0c             	mov    0xc(%ebp),%eax
  406039:	83 f8 01             	cmp    $0x1,%eax
  40603c:	74 45                	je     406083 <___mingw_TLScallback+0x53>
  40603e:	72 15                	jb     406055 <___mingw_TLScallback+0x25>
  406040:	83 f8 03             	cmp    $0x3,%eax
  406043:	75 09                	jne    40604e <___mingw_TLScallback+0x1e>
  406045:	a1 54 10 41 00       	mov    0x411054,%eax
  40604a:	85 c0                	test   %eax,%eax
  40604c:	75 63                	jne    4060b1 <___mingw_TLScallback+0x81>
  40604e:	b8 01 00 00 00       	mov    $0x1,%eax
  406053:	c9                   	leave  
  406054:	c3                   	ret    
  406055:	a1 54 10 41 00       	mov    0x411054,%eax
  40605a:	85 c0                	test   %eax,%eax
  40605c:	75 5a                	jne    4060b8 <___mingw_TLScallback+0x88>
  40605e:	a1 54 10 41 00       	mov    0x411054,%eax
  406063:	83 f8 01             	cmp    $0x1,%eax
  406066:	75 e6                	jne    40604e <___mingw_TLScallback+0x1e>
  406068:	c7 04 24 58 10 41 00 	movl   $0x411058,(%esp)
  40606f:	c7 05 54 10 41 00 00 	movl   $0x0,0x411054
  406076:	00 00 00 
  406079:	e8 b2 61 00 00       	call   40c230 <_DeleteCriticalSection@4>
  40607e:	83 ec 04             	sub    $0x4,%esp
  406081:	eb cb                	jmp    40604e <___mingw_TLScallback+0x1e>
  406083:	a1 54 10 41 00       	mov    0x411054,%eax
  406088:	85 c0                	test   %eax,%eax
  40608a:	74 14                	je     4060a0 <___mingw_TLScallback+0x70>
  40608c:	c7 05 54 10 41 00 01 	movl   $0x1,0x411054
  406093:	00 00 00 
  406096:	b8 01 00 00 00       	mov    $0x1,%eax
  40609b:	c9                   	leave  
  40609c:	c3                   	ret    
  40609d:	8d 76 00             	lea    0x0(%esi),%esi
  4060a0:	c7 04 24 58 10 41 00 	movl   $0x411058,(%esp)
  4060a7:	e8 8c 61 00 00       	call   40c238 <_InitializeCriticalSection@4>
  4060ac:	83 ec 04             	sub    $0x4,%esp
  4060af:	eb db                	jmp    40608c <___mingw_TLScallback+0x5c>
  4060b1:	e8 da fd ff ff       	call   405e90 <___mingwthr_run_key_dtors.part.0>
  4060b6:	eb 96                	jmp    40604e <___mingw_TLScallback+0x1e>
  4060b8:	90                   	nop
  4060b9:	8d b4 26 00 00 00 00 	lea    0x0(%esi,%eiz,1),%esi
  4060c0:	e8 cb fd ff ff       	call   405e90 <___mingwthr_run_key_dtors.part.0>
  4060c5:	eb 97                	jmp    40605e <___mingw_TLScallback+0x2e>
  4060c7:	90                   	nop
  4060c8:	90                   	nop
  4060c9:	90                   	nop
  4060ca:	90                   	nop
  4060cb:	90                   	nop
  4060cc:	90                   	nop
  4060cd:	90                   	nop
  4060ce:	90                   	nop
  4060cf:	90                   	nop

004060d0 <___chkstk_ms>:
  4060d0:	51                   	push   %ecx
  4060d1:	50                   	push   %eax
  4060d2:	3d 00 10 00 00       	cmp    $0x1000,%eax
  4060d7:	8d 4c 24 0c          	lea    0xc(%esp),%ecx
  4060db:	72 15                	jb     4060f2 <___chkstk_ms+0x22>
  4060dd:	81 e9 00 10 00 00    	sub    $0x1000,%ecx
  4060e3:	83 09 00             	orl    $0x0,(%ecx)
  4060e6:	2d 00 10 00 00       	sub    $0x1000,%eax
  4060eb:	3d 00 10 00 00       	cmp    $0x1000,%eax
  4060f0:	77 eb                	ja     4060dd <___chkstk_ms+0xd>
  4060f2:	29 c1                	sub    %eax,%ecx
  4060f4:	83 09 00             	orl    $0x0,(%ecx)
  4060f7:	58                   	pop    %eax
  4060f8:	59                   	pop    %ecx
  4060f9:	c3                   	ret    
  4060fa:	90                   	nop
  4060fb:	90                   	nop

004060fc <.text>:
  4060fc:	66 90                	xchg   %ax,%ax
  4060fe:	66 90                	xchg   %ax,%ax

00406100 <_is_glob_pattern>:
  406100:	57                   	push   %edi
  406101:	85 c0                	test   %eax,%eax
  406103:	56                   	push   %esi
  406104:	53                   	push   %ebx
  406105:	89 c3                	mov    %eax,%ebx
  406107:	74 44                	je     40614d <_is_glob_pattern+0x4d>
  406109:	0f be 0b             	movsbl (%ebx),%ecx
  40610c:	89 d6                	mov    %edx,%esi
  40610e:	31 c0                	xor    %eax,%eax
  406110:	83 e6 20             	and    $0x20,%esi
  406113:	8d 53 01             	lea    0x1(%ebx),%edx
  406116:	85 c9                	test   %ecx,%ecx
  406118:	74 33                	je     40614d <_is_glob_pattern+0x4d>
  40611a:	8d b6 00 00 00 00    	lea    0x0(%esi),%esi
  406120:	85 f6                	test   %esi,%esi
  406122:	89 f7                	mov    %esi,%edi
  406124:	75 05                	jne    40612b <_is_glob_pattern+0x2b>
  406126:	83 f9 7f             	cmp    $0x7f,%ecx
  406129:	74 45                	je     406170 <_is_glob_pattern+0x70>
  40612b:	85 c0                	test   %eax,%eax
  40612d:	75 26                	jne    406155 <_is_glob_pattern+0x55>
  40612f:	83 f9 3f             	cmp    $0x3f,%ecx
  406132:	74 51                	je     406185 <_is_glob_pattern+0x85>
  406134:	83 f9 2a             	cmp    $0x2a,%ecx
  406137:	74 4c                	je     406185 <_is_glob_pattern+0x85>
  406139:	31 c0                	xor    %eax,%eax
  40613b:	83 f9 5b             	cmp    $0x5b,%ecx
  40613e:	0f 94 c0             	sete   %al
  406141:	89 d3                	mov    %edx,%ebx
  406143:	0f be 0b             	movsbl (%ebx),%ecx
  406146:	8d 53 01             	lea    0x1(%ebx),%edx
  406149:	85 c9                	test   %ecx,%ecx
  40614b:	75 d3                	jne    406120 <_is_glob_pattern+0x20>
  40614d:	31 ff                	xor    %edi,%edi
  40614f:	89 f8                	mov    %edi,%eax
  406151:	5b                   	pop    %ebx
  406152:	5e                   	pop    %esi
  406153:	5f                   	pop    %edi
  406154:	c3                   	ret    
  406155:	83 f9 5d             	cmp    $0x5d,%ecx
  406158:	74 26                	je     406180 <_is_glob_pattern+0x80>
  40615a:	83 f9 21             	cmp    $0x21,%ecx
  40615d:	89 d3                	mov    %edx,%ebx
  40615f:	0f 95 c1             	setne  %cl
  406162:	0f b6 c9             	movzbl %cl,%ecx
  406165:	01 c8                	add    %ecx,%eax
  406167:	eb da                	jmp    406143 <_is_glob_pattern+0x43>
  406169:	8d b4 26 00 00 00 00 	lea    0x0(%esi,%eiz,1),%esi
  406170:	80 7b 01 00          	cmpb   $0x0,0x1(%ebx)
  406174:	8d 53 02             	lea    0x2(%ebx),%edx
  406177:	75 b2                	jne    40612b <_is_glob_pattern+0x2b>
  406179:	eb d4                	jmp    40614f <_is_glob_pattern+0x4f>
  40617b:	90                   	nop
  40617c:	8d 74 26 00          	lea    0x0(%esi,%eiz,1),%esi
  406180:	83 f8 01             	cmp    $0x1,%eax
  406183:	7e d5                	jle    40615a <_is_glob_pattern+0x5a>
  406185:	bf 01 00 00 00       	mov    $0x1,%edi
  40618a:	89 f8                	mov    %edi,%eax
  40618c:	5b                   	pop    %ebx
  40618d:	5e                   	pop    %esi
  40618e:	5f                   	pop    %edi
  40618f:	c3                   	ret    

00406190 <_glob_in_set>:
  406190:	55                   	push   %ebp
  406191:	57                   	push   %edi
  406192:	56                   	push   %esi
  406193:	53                   	push   %ebx
  406194:	83 ec 04             	sub    $0x4,%esp
  406197:	0f b6 18             	movzbl (%eax),%ebx
  40619a:	89 0c 24             	mov    %ecx,(%esp)
  40619d:	0f be fb             	movsbl %bl,%edi
  4061a0:	83 ff 5d             	cmp    $0x5d,%edi
  4061a3:	0f 84 d7 00 00 00    	je     406280 <_glob_in_set+0xf0>
  4061a9:	83 ff 2d             	cmp    $0x2d,%edi
  4061ac:	89 d9                	mov    %ebx,%ecx
  4061ae:	75 2e                	jne    4061de <_glob_in_set+0x4e>
  4061b0:	e9 cb 00 00 00       	jmp    406280 <_glob_in_set+0xf0>
  4061b5:	85 db                	test   %ebx,%ebx
  4061b7:	0f 84 b3 00 00 00    	je     406270 <_glob_in_set+0xe0>
  4061bd:	83 fb 5c             	cmp    $0x5c,%ebx
  4061c0:	0f 84 aa 00 00 00    	je     406270 <_glob_in_set+0xe0>
  4061c6:	83 fb 2f             	cmp    $0x2f,%ebx
  4061c9:	0f 84 a1 00 00 00    	je     406270 <_glob_in_set+0xe0>
  4061cf:	89 df                	mov    %ebx,%edi
  4061d1:	0f b6 0e             	movzbl (%esi),%ecx
  4061d4:	89 f0                	mov    %esi,%eax
  4061d6:	39 d7                	cmp    %edx,%edi
  4061d8:	0f 84 ca 00 00 00    	je     4062a8 <_glob_in_set+0x118>
  4061de:	0f be d9             	movsbl %cl,%ebx
  4061e1:	83 fb 5d             	cmp    $0x5d,%ebx
  4061e4:	8d 70 01             	lea    0x1(%eax),%esi
  4061e7:	0f 84 83 00 00 00    	je     406270 <_glob_in_set+0xe0>
  4061ed:	83 fb 2d             	cmp    $0x2d,%ebx
  4061f0:	75 c3                	jne    4061b5 <_glob_in_set+0x25>
  4061f2:	0f b6 58 01          	movzbl 0x1(%eax),%ebx
  4061f6:	80 fb 5d             	cmp    $0x5d,%bl
  4061f9:	0f 84 95 00 00 00    	je     406294 <_glob_in_set+0x104>
  4061ff:	0f be eb             	movsbl %bl,%ebp
  406202:	85 ed                	test   %ebp,%ebp
  406204:	89 eb                	mov    %ebp,%ebx
  406206:	74 68                	je     406270 <_glob_in_set+0xe0>
  406208:	39 ef                	cmp    %ebp,%edi
  40620a:	8d 70 02             	lea    0x2(%eax),%esi
  40620d:	0f 8d 85 01 00 00    	jge    406398 <_glob_in_set+0x208>
  406213:	39 d7                	cmp    %edx,%edi
  406215:	8d 47 01             	lea    0x1(%edi),%eax
  406218:	75 14                	jne    40622e <_glob_in_set+0x9e>
  40621a:	e9 c1 00 00 00       	jmp    4062e0 <_glob_in_set+0x150>
  40621f:	90                   	nop
  406220:	83 c0 01             	add    $0x1,%eax
  406223:	8d 78 ff             	lea    -0x1(%eax),%edi
  406226:	39 fa                	cmp    %edi,%edx
  406228:	0f 84 b2 00 00 00    	je     4062e0 <_glob_in_set+0x150>
  40622e:	39 c5                	cmp    %eax,%ebp
  406230:	7f ee                	jg     406220 <_glob_in_set+0x90>
  406232:	39 c5                	cmp    %eax,%ebp
  406234:	7d 87                	jge    4061bd <_glob_in_set+0x2d>
  406236:	39 c2                	cmp    %eax,%edx
  406238:	74 15                	je     40624f <_glob_in_set+0xbf>
  40623a:	83 c5 01             	add    $0x1,%ebp
  40623d:	8d 76 00             	lea    0x0(%esi),%esi
  406240:	39 e8                	cmp    %ebp,%eax
  406242:	0f 84 75 ff ff ff    	je     4061bd <_glob_in_set+0x2d>
  406248:	83 e8 01             	sub    $0x1,%eax
  40624b:	39 c2                	cmp    %eax,%edx
  40624d:	75 f1                	jne    406240 <_glob_in_set+0xb0>
  40624f:	8b 0c 24             	mov    (%esp),%ecx
  406252:	83 e1 20             	and    $0x20,%ecx
  406255:	0f b6 06             	movzbl (%esi),%eax
  406258:	3c 5d                	cmp    $0x5d,%al
  40625a:	0f 84 a3 00 00 00    	je     406303 <_glob_in_set+0x173>
  406260:	3c 7f                	cmp    $0x7f,%al
  406262:	0f 84 bd 00 00 00    	je     406325 <_glob_in_set+0x195>
  406268:	83 c6 01             	add    $0x1,%esi
  40626b:	84 c0                	test   %al,%al
  40626d:	75 e6                	jne    406255 <_glob_in_set+0xc5>
  40626f:	90                   	nop
  406270:	83 c4 04             	add    $0x4,%esp
  406273:	31 c0                	xor    %eax,%eax
  406275:	5b                   	pop    %ebx
  406276:	5e                   	pop    %esi
  406277:	5f                   	pop    %edi
  406278:	5d                   	pop    %ebp
  406279:	c3                   	ret    
  40627a:	8d b6 00 00 00 00    	lea    0x0(%esi),%esi
  406280:	39 d7                	cmp    %edx,%edi
  406282:	0f 84 b8 00 00 00    	je     406340 <_glob_in_set+0x1b0>
  406288:	0f b6 48 01          	movzbl 0x1(%eax),%ecx
  40628c:	83 c0 01             	add    $0x1,%eax
  40628f:	e9 4a ff ff ff       	jmp    4061de <_glob_in_set+0x4e>
  406294:	bf 2d 00 00 00       	mov    $0x2d,%edi
  406299:	89 f0                	mov    %esi,%eax
  40629b:	39 d7                	cmp    %edx,%edi
  40629d:	b9 5d 00 00 00       	mov    $0x5d,%ecx
  4062a2:	0f 85 36 ff ff ff    	jne    4061de <_glob_in_set+0x4e>
  4062a8:	8b 14 24             	mov    (%esp),%edx
  4062ab:	83 e2 20             	and    $0x20,%edx
  4062ae:	eb 0a                	jmp    4062ba <_glob_in_set+0x12a>
  4062b0:	83 c0 01             	add    $0x1,%eax
  4062b3:	84 c9                	test   %cl,%cl
  4062b5:	74 b9                	je     406270 <_glob_in_set+0xe0>
  4062b7:	0f b6 08             	movzbl (%eax),%ecx
  4062ba:	80 f9 5d             	cmp    $0x5d,%cl
  4062bd:	0f 84 c2 00 00 00    	je     406385 <_glob_in_set+0x1f5>
  4062c3:	80 f9 7f             	cmp    $0x7f,%cl
  4062c6:	75 e8                	jne    4062b0 <_glob_in_set+0x120>
  4062c8:	85 d2                	test   %edx,%edx
  4062ca:	0f 85 c0 00 00 00    	jne    406390 <_glob_in_set+0x200>
  4062d0:	0f b6 48 01          	movzbl 0x1(%eax),%ecx
  4062d4:	83 c0 01             	add    $0x1,%eax
  4062d7:	eb d7                	jmp    4062b0 <_glob_in_set+0x120>
  4062d9:	8d b4 26 00 00 00 00 	lea    0x0(%esi,%eiz,1),%esi
  4062e0:	8b 0c 24             	mov    (%esp),%ecx
  4062e3:	83 e1 20             	and    $0x20,%ecx
  4062e6:	0f b6 06             	movzbl (%esi),%eax
  4062e9:	3c 5d                	cmp    $0x5d,%al
  4062eb:	74 16                	je     406303 <_glob_in_set+0x173>
  4062ed:	3c 7f                	cmp    $0x7f,%al
  4062ef:	74 1f                	je     406310 <_glob_in_set+0x180>
  4062f1:	83 c6 01             	add    $0x1,%esi
  4062f4:	84 c0                	test   %al,%al
  4062f6:	0f 84 74 ff ff ff    	je     406270 <_glob_in_set+0xe0>
  4062fc:	0f b6 06             	movzbl (%esi),%eax
  4062ff:	3c 5d                	cmp    $0x5d,%al
  406301:	75 ea                	jne    4062ed <_glob_in_set+0x15d>
  406303:	83 c4 04             	add    $0x4,%esp
  406306:	5b                   	pop    %ebx
  406307:	8d 46 01             	lea    0x1(%esi),%eax
  40630a:	5e                   	pop    %esi
  40630b:	5f                   	pop    %edi
  40630c:	5d                   	pop    %ebp
  40630d:	c3                   	ret    
  40630e:	66 90                	xchg   %ax,%ax
  406310:	85 c9                	test   %ecx,%ecx
  406312:	75 0c                	jne    406320 <_glob_in_set+0x190>
  406314:	0f b6 46 01          	movzbl 0x1(%esi),%eax
  406318:	83 c6 01             	add    $0x1,%esi
  40631b:	eb d4                	jmp    4062f1 <_glob_in_set+0x161>
  40631d:	8d 76 00             	lea    0x0(%esi),%esi
  406320:	83 c6 01             	add    $0x1,%esi
  406323:	eb c1                	jmp    4062e6 <_glob_in_set+0x156>
  406325:	85 c9                	test   %ecx,%ecx
  406327:	75 0c                	jne    406335 <_glob_in_set+0x1a5>
  406329:	0f b6 46 01          	movzbl 0x1(%esi),%eax
  40632d:	83 c6 01             	add    $0x1,%esi
  406330:	e9 33 ff ff ff       	jmp    406268 <_glob_in_set+0xd8>
  406335:	83 c6 01             	add    $0x1,%esi
  406338:	e9 18 ff ff ff       	jmp    406255 <_glob_in_set+0xc5>
  40633d:	8d 76 00             	lea    0x0(%esi),%esi
  406340:	8b 0c 24             	mov    (%esp),%ecx
  406343:	83 c0 01             	add    $0x1,%eax
  406346:	83 e1 20             	and    $0x20,%ecx
  406349:	8d b4 26 00 00 00 00 	lea    0x0(%esi,%eiz,1),%esi
  406350:	0f b6 10             	movzbl (%eax),%edx
  406353:	80 fa 5d             	cmp    $0x5d,%dl
  406356:	74 2d                	je     406385 <_glob_in_set+0x1f5>
  406358:	80 fa 7f             	cmp    $0x7f,%dl
  40635b:	74 13                	je     406370 <_glob_in_set+0x1e0>
  40635d:	83 c0 01             	add    $0x1,%eax
  406360:	84 d2                	test   %dl,%dl
  406362:	75 ec                	jne    406350 <_glob_in_set+0x1c0>
  406364:	e9 07 ff ff ff       	jmp    406270 <_glob_in_set+0xe0>
  406369:	8d b4 26 00 00 00 00 	lea    0x0(%esi,%eiz,1),%esi
  406370:	85 c9                	test   %ecx,%ecx
  406372:	75 0c                	jne    406380 <_glob_in_set+0x1f0>
  406374:	0f b6 50 01          	movzbl 0x1(%eax),%edx
  406378:	83 c0 01             	add    $0x1,%eax
  40637b:	eb e0                	jmp    40635d <_glob_in_set+0x1cd>
  40637d:	8d 76 00             	lea    0x0(%esi),%esi
  406380:	83 c0 01             	add    $0x1,%eax
  406383:	eb cb                	jmp    406350 <_glob_in_set+0x1c0>
  406385:	83 c4 04             	add    $0x4,%esp
  406388:	83 c0 01             	add    $0x1,%eax
  40638b:	5b                   	pop    %ebx
  40638c:	5e                   	pop    %esi
  40638d:	5f                   	pop    %edi
  40638e:	5d                   	pop    %ebp
  40638f:	c3                   	ret    
  406390:	83 c0 01             	add    $0x1,%eax
  406393:	e9 1f ff ff ff       	jmp    4062b7 <_glob_in_set+0x127>
  406398:	89 f8                	mov    %edi,%eax
  40639a:	e9 93 fe ff ff       	jmp    406232 <_glob_in_set+0xa2>
  40639f:	90                   	nop

004063a0 <_glob_initialise>:
  4063a0:	55                   	push   %ebp
  4063a1:	57                   	push   %edi
  4063a2:	56                   	push   %esi
  4063a3:	89 c6                	mov    %eax,%esi
  4063a5:	53                   	push   %ebx
  4063a6:	83 ec 1c             	sub    $0x1c,%esp
  4063a9:	85 c0                	test   %eax,%eax
  4063ab:	74 47                	je     4063f4 <_glob_initialise+0x54>
  4063ad:	8b 40 0c             	mov    0xc(%eax),%eax
  4063b0:	8d 78 01             	lea    0x1(%eax),%edi
  4063b3:	8d 2c bd 00 00 00 00 	lea    0x0(,%edi,4),%ebp
  4063ba:	89 2c 24             	mov    %ebp,(%esp)
  4063bd:	e8 56 5d 00 00       	call   40c118 <_malloc>
  4063c2:	89 c3                	mov    %eax,%ebx
  4063c4:	85 db                	test   %ebx,%ebx
  4063c6:	89 46 08             	mov    %eax,0x8(%esi)
  4063c9:	b8 03 00 00 00       	mov    $0x3,%eax
  4063ce:	74 26                	je     4063f6 <_glob_initialise+0x56>
  4063d0:	85 ff                	test   %edi,%edi
  4063d2:	89 fa                	mov    %edi,%edx
  4063d4:	c7 46 04 00 00 00 00 	movl   $0x0,0x4(%esi)
  4063db:	7e 17                	jle    4063f4 <_glob_initialise+0x54>
  4063dd:	8d 4d fc             	lea    -0x4(%ebp),%ecx
  4063e0:	eb 03                	jmp    4063e5 <_glob_initialise+0x45>
  4063e2:	8b 5e 08             	mov    0x8(%esi),%ebx
  4063e5:	c7 04 0b 00 00 00 00 	movl   $0x0,(%ebx,%ecx,1)
  4063ec:	83 e9 04             	sub    $0x4,%ecx
  4063ef:	83 ea 01             	sub    $0x1,%edx
  4063f2:	75 ee                	jne    4063e2 <_glob_initialise+0x42>
  4063f4:	31 c0                	xor    %eax,%eax
  4063f6:	83 c4 1c             	add    $0x1c,%esp
  4063f9:	5b                   	pop    %ebx
  4063fa:	5e                   	pop    %esi
  4063fb:	5f                   	pop    %edi
  4063fc:	5d                   	pop    %ebp
  4063fd:	c3                   	ret    
  4063fe:	66 90                	xchg   %ax,%ax

00406400 <_glob_strcmp>:
  406400:	55                   	push   %ebp
  406401:	57                   	push   %edi
  406402:	89 c7                	mov    %eax,%edi
  406404:	56                   	push   %esi
  406405:	53                   	push   %ebx
  406406:	83 ec 2c             	sub    $0x2c,%esp
  406409:	80 3a 2e             	cmpb   $0x2e,(%edx)
  40640c:	89 4c 24 10          	mov    %ecx,0x10(%esp)
  406410:	0f 84 5a 01 00 00    	je     406570 <_glob_strcmp+0x170>
  406416:	0f b6 08             	movzbl (%eax),%ecx
  406419:	8b 74 24 10          	mov    0x10(%esp),%esi
  40641d:	8d 6a 01             	lea    0x1(%edx),%ebp
  406420:	89 f0                	mov    %esi,%eax
  406422:	83 e0 20             	and    $0x20,%eax
  406425:	89 44 24 14          	mov    %eax,0x14(%esp)
  406429:	89 f0                	mov    %esi,%eax
  40642b:	25 00 40 00 00       	and    $0x4000,%eax
  406430:	89 44 24 18          	mov    %eax,0x18(%esp)
  406434:	0f be d1             	movsbl %cl,%edx
  406437:	85 d2                	test   %edx,%edx
  406439:	8d 75 ff             	lea    -0x1(%ebp),%esi
  40643c:	8d 47 01             	lea    0x1(%edi),%eax
  40643f:	0f 84 70 01 00 00    	je     4065b5 <_glob_strcmp+0x1b5>
  406445:	80 f9 3f             	cmp    $0x3f,%cl
  406448:	0f 84 e4 00 00 00    	je     406532 <_glob_strcmp+0x132>
  40644e:	80 f9 5b             	cmp    $0x5b,%cl
  406451:	0f 84 ab 00 00 00    	je     406502 <_glob_strcmp+0x102>
  406457:	80 f9 2a             	cmp    $0x2a,%cl
  40645a:	74 5c                	je     4064b8 <_glob_strcmp+0xb8>
  40645c:	8b 4c 24 14          	mov    0x14(%esp),%ecx
  406460:	85 c9                	test   %ecx,%ecx
  406462:	0f 84 d8 00 00 00    	je     406540 <_glob_strcmp+0x140>
  406468:	89 c7                	mov    %eax,%edi
  40646a:	0f be 5d ff          	movsbl -0x1(%ebp),%ebx
  40646e:	84 db                	test   %bl,%bl
  406470:	0f 84 92 01 00 00    	je     406608 <_glob_strcmp+0x208>
  406476:	8b 44 24 18          	mov    0x18(%esp),%eax
  40647a:	85 c0                	test   %eax,%eax
  40647c:	0f 85 de 00 00 00    	jne    406560 <_glob_strcmp+0x160>
  406482:	89 14 24             	mov    %edx,(%esp)
  406485:	89 54 24 1c          	mov    %edx,0x1c(%esp)
  406489:	e8 da 5c 00 00       	call   40c168 <_tolower>
  40648e:	89 1c 24             	mov    %ebx,(%esp)
  406491:	89 c6                	mov    %eax,%esi
  406493:	e8 d0 5c 00 00       	call   40c168 <_tolower>
  406498:	8b 54 24 1c          	mov    0x1c(%esp),%edx
  40649c:	29 c6                	sub    %eax,%esi
  40649e:	85 f6                	test   %esi,%esi
  4064a0:	0f 84 81 00 00 00    	je     406527 <_glob_strcmp+0x127>
  4064a6:	89 d0                	mov    %edx,%eax
  4064a8:	29 d8                	sub    %ebx,%eax
  4064aa:	8d b6 00 00 00 00    	lea    0x0(%esi),%esi
  4064b0:	83 c4 2c             	add    $0x2c,%esp
  4064b3:	5b                   	pop    %ebx
  4064b4:	5e                   	pop    %esi
  4064b5:	5f                   	pop    %edi
  4064b6:	5d                   	pop    %ebp
  4064b7:	c3                   	ret    
  4064b8:	0f b6 57 01          	movzbl 0x1(%edi),%edx
  4064bc:	89 c3                	mov    %eax,%ebx
  4064be:	80 fa 2a             	cmp    $0x2a,%dl
  4064c1:	75 0b                	jne    4064ce <_glob_strcmp+0xce>
  4064c3:	83 c3 01             	add    $0x1,%ebx
  4064c6:	0f b6 13             	movzbl (%ebx),%edx
  4064c9:	80 fa 2a             	cmp    $0x2a,%dl
  4064cc:	74 f5                	je     4064c3 <_glob_strcmp+0xc3>
  4064ce:	31 c0                	xor    %eax,%eax
  4064d0:	84 d2                	test   %dl,%dl
  4064d2:	74 dc                	je     4064b0 <_glob_strcmp+0xb0>
  4064d4:	8b 7c 24 10          	mov    0x10(%esp),%edi
  4064d8:	81 cf 00 00 01 00    	or     $0x10000,%edi
  4064de:	eb 09                	jmp    4064e9 <_glob_strcmp+0xe9>
  4064e0:	83 c6 01             	add    $0x1,%esi
  4064e3:	80 7e ff 00          	cmpb   $0x0,-0x1(%esi)
  4064e7:	74 c7                	je     4064b0 <_glob_strcmp+0xb0>
  4064e9:	89 f9                	mov    %edi,%ecx
  4064eb:	89 f2                	mov    %esi,%edx
  4064ed:	89 d8                	mov    %ebx,%eax
  4064ef:	e8 0c ff ff ff       	call   406400 <_glob_strcmp>
  4064f4:	85 c0                	test   %eax,%eax
  4064f6:	75 e8                	jne    4064e0 <_glob_strcmp+0xe0>
  4064f8:	83 c4 2c             	add    $0x2c,%esp
  4064fb:	31 c0                	xor    %eax,%eax
  4064fd:	5b                   	pop    %ebx
  4064fe:	5e                   	pop    %esi
  4064ff:	5f                   	pop    %edi
  406500:	5d                   	pop    %ebp
  406501:	c3                   	ret    
  406502:	0f be 55 ff          	movsbl -0x1(%ebp),%edx
  406506:	85 d2                	test   %edx,%edx
  406508:	0f 84 0b 01 00 00    	je     406619 <_glob_strcmp+0x219>
  40650e:	80 7f 01 21          	cmpb   $0x21,0x1(%edi)
  406512:	74 7c                	je     406590 <_glob_strcmp+0x190>
  406514:	8b 4c 24 10          	mov    0x10(%esp),%ecx
  406518:	e8 73 fc ff ff       	call   406190 <_glob_in_set>
  40651d:	85 c0                	test   %eax,%eax
  40651f:	89 c7                	mov    %eax,%edi
  406521:	0f 84 d7 00 00 00    	je     4065fe <_glob_strcmp+0x1fe>
  406527:	0f b6 0f             	movzbl (%edi),%ecx
  40652a:	83 c5 01             	add    $0x1,%ebp
  40652d:	e9 02 ff ff ff       	jmp    406434 <_glob_strcmp+0x34>
  406532:	80 7d ff 00          	cmpb   $0x0,-0x1(%ebp)
  406536:	0f 84 d3 00 00 00    	je     40660f <_glob_strcmp+0x20f>
  40653c:	89 c7                	mov    %eax,%edi
  40653e:	eb e7                	jmp    406527 <_glob_strcmp+0x127>
  406540:	83 fa 7f             	cmp    $0x7f,%edx
  406543:	0f 85 1f ff ff ff    	jne    406468 <_glob_strcmp+0x68>
  406549:	0f be 57 01          	movsbl 0x1(%edi),%edx
  40654d:	83 c7 02             	add    $0x2,%edi
  406550:	85 d2                	test   %edx,%edx
  406552:	0f 85 12 ff ff ff    	jne    40646a <_glob_strcmp+0x6a>
  406558:	e9 0b ff ff ff       	jmp    406468 <_glob_strcmp+0x68>
  40655d:	8d 76 00             	lea    0x0(%esi),%esi
  406560:	89 d6                	mov    %edx,%esi
  406562:	29 de                	sub    %ebx,%esi
  406564:	e9 35 ff ff ff       	jmp    40649e <_glob_strcmp+0x9e>
  406569:	8d b4 26 00 00 00 00 	lea    0x0(%esi,%eiz,1),%esi
  406570:	0f be 00             	movsbl (%eax),%eax
  406573:	3c 2e                	cmp    $0x2e,%al
  406575:	74 32                	je     4065a9 <_glob_strcmp+0x1a9>
  406577:	89 c1                	mov    %eax,%ecx
  406579:	83 e8 2e             	sub    $0x2e,%eax
  40657c:	f7 44 24 10 00 00 01 	testl  $0x10000,0x10(%esp)
  406583:	00 
  406584:	0f 85 8f fe ff ff    	jne    406419 <_glob_strcmp+0x19>
  40658a:	e9 21 ff ff ff       	jmp    4064b0 <_glob_strcmp+0xb0>
  40658f:	90                   	nop
  406590:	8b 4c 24 10          	mov    0x10(%esp),%ecx
  406594:	8d 5f 02             	lea    0x2(%edi),%ebx
  406597:	89 d8                	mov    %ebx,%eax
  406599:	e8 f2 fb ff ff       	call   406190 <_glob_in_set>
  40659e:	85 c0                	test   %eax,%eax
  4065a0:	74 1d                	je     4065bf <_glob_strcmp+0x1bf>
  4065a2:	89 df                	mov    %ebx,%edi
  4065a4:	e9 7e ff ff ff       	jmp    406527 <_glob_strcmp+0x127>
  4065a9:	b9 2e 00 00 00       	mov    $0x2e,%ecx
  4065ae:	66 90                	xchg   %ax,%ax
  4065b0:	e9 64 fe ff ff       	jmp    406419 <_glob_strcmp+0x19>
  4065b5:	0f be 06             	movsbl (%esi),%eax
  4065b8:	f7 d8                	neg    %eax
  4065ba:	e9 f1 fe ff ff       	jmp    4064b0 <_glob_strcmp+0xb0>
  4065bf:	0f b6 47 02          	movzbl 0x2(%edi),%eax
  4065c3:	8b 54 24 14          	mov    0x14(%esp),%edx
  4065c7:	3c 5d                	cmp    $0x5d,%al
  4065c9:	75 0f                	jne    4065da <_glob_strcmp+0x1da>
  4065cb:	eb 56                	jmp    406623 <_glob_strcmp+0x223>
  4065cd:	8d 76 00             	lea    0x0(%esi),%esi
  4065d0:	83 c3 01             	add    $0x1,%ebx
  4065d3:	84 c0                	test   %al,%al
  4065d5:	74 27                	je     4065fe <_glob_strcmp+0x1fe>
  4065d7:	0f b6 03             	movzbl (%ebx),%eax
  4065da:	3c 5d                	cmp    $0x5d,%al
  4065dc:	74 16                	je     4065f4 <_glob_strcmp+0x1f4>
  4065de:	3c 7f                	cmp    $0x7f,%al
  4065e0:	75 ee                	jne    4065d0 <_glob_strcmp+0x1d0>
  4065e2:	85 d2                	test   %edx,%edx
  4065e4:	75 09                	jne    4065ef <_glob_strcmp+0x1ef>
  4065e6:	0f b6 43 01          	movzbl 0x1(%ebx),%eax
  4065ea:	83 c3 01             	add    $0x1,%ebx
  4065ed:	eb e1                	jmp    4065d0 <_glob_strcmp+0x1d0>
  4065ef:	83 c3 01             	add    $0x1,%ebx
  4065f2:	eb e3                	jmp    4065d7 <_glob_strcmp+0x1d7>
  4065f4:	83 c3 01             	add    $0x1,%ebx
  4065f7:	89 df                	mov    %ebx,%edi
  4065f9:	e9 29 ff ff ff       	jmp    406527 <_glob_strcmp+0x127>
  4065fe:	b8 5d 00 00 00       	mov    $0x5d,%eax
  406603:	e9 a8 fe ff ff       	jmp    4064b0 <_glob_strcmp+0xb0>
  406608:	31 db                	xor    %ebx,%ebx
  40660a:	e9 97 fe ff ff       	jmp    4064a6 <_glob_strcmp+0xa6>
  40660f:	b8 3f 00 00 00       	mov    $0x3f,%eax
  406614:	e9 97 fe ff ff       	jmp    4064b0 <_glob_strcmp+0xb0>
  406619:	b8 5b 00 00 00       	mov    $0x5b,%eax
  40661e:	e9 8d fe ff ff       	jmp    4064b0 <_glob_strcmp+0xb0>
  406623:	8d 5f 03             	lea    0x3(%edi),%ebx
  406626:	0f b6 47 03          	movzbl 0x3(%edi),%eax
  40662a:	8b 54 24 14          	mov    0x14(%esp),%edx
  40662e:	eb aa                	jmp    4065da <_glob_strcmp+0x1da>

00406630 <_glob_registry.part.1>:
  406630:	57                   	push   %edi
  406631:	89 c7                	mov    %eax,%edi
  406633:	56                   	push   %esi
  406634:	53                   	push   %ebx
  406635:	83 ec 10             	sub    $0x10,%esp
  406638:	8b 40 04             	mov    0x4(%eax),%eax
  40663b:	8b 4f 0c             	mov    0xc(%edi),%ecx
  40663e:	85 c0                	test   %eax,%eax
  406640:	8d 70 ff             	lea    -0x1(%eax),%esi
  406643:	8d 1c 8d 00 00 00 00 	lea    0x0(,%ecx,4),%ebx
  40664a:	7e 1d                	jle    406669 <_glob_registry.part.1+0x39>
  40664c:	8d 74 26 00          	lea    0x0(%esi,%eiz,1),%esi
  406650:	8b 57 08             	mov    0x8(%edi),%edx
  406653:	83 ee 01             	sub    $0x1,%esi
  406656:	8b 14 1a             	mov    (%edx,%ebx,1),%edx
  406659:	83 c3 04             	add    $0x4,%ebx
  40665c:	89 14 24             	mov    %edx,(%esp)
  40665f:	e8 fc 5a 00 00       	call   40c160 <_free>
  406664:	83 fe ff             	cmp    $0xffffffff,%esi
  406667:	75 e7                	jne    406650 <_glob_registry.part.1+0x20>
  406669:	8b 47 08             	mov    0x8(%edi),%eax
  40666c:	89 04 24             	mov    %eax,(%esp)
  40666f:	e8 ec 5a 00 00       	call   40c160 <_free>
  406674:	83 c4 10             	add    $0x10,%esp
  406677:	31 c0                	xor    %eax,%eax
  406679:	5b                   	pop    %ebx
  40667a:	5e                   	pop    %esi
  40667b:	5f                   	pop    %edi
  40667c:	c3                   	ret    
  40667d:	8d 76 00             	lea    0x0(%esi),%esi

00406680 <_glob_store_entry.part.2>:
  406680:	57                   	push   %edi
  406681:	56                   	push   %esi
  406682:	89 c6                	mov    %eax,%esi
  406684:	53                   	push   %ebx
  406685:	89 d3                	mov    %edx,%ebx
  406687:	83 ec 10             	sub    $0x10,%esp
  40668a:	8b 52 04             	mov    0x4(%edx),%edx
  40668d:	03 53 0c             	add    0xc(%ebx),%edx
  406690:	8d 04 95 08 00 00 00 	lea    0x8(,%edx,4),%eax
  406697:	89 44 24 04          	mov    %eax,0x4(%esp)
  40669b:	8b 43 08             	mov    0x8(%ebx),%eax
  40669e:	89 04 24             	mov    %eax,(%esp)
  4066a1:	e8 ca 5a 00 00       	call   40c170 <_realloc>
  4066a6:	85 c0                	test   %eax,%eax
  4066a8:	89 c2                	mov    %eax,%edx
  4066aa:	74 29                	je     4066d5 <_glob_store_entry.part.2+0x55>
  4066ac:	8b 7b 04             	mov    0x4(%ebx),%edi
  4066af:	89 43 08             	mov    %eax,0x8(%ebx)
  4066b2:	8b 43 0c             	mov    0xc(%ebx),%eax
  4066b5:	8d 4f 01             	lea    0x1(%edi),%ecx
  4066b8:	01 c7                	add    %eax,%edi
  4066ba:	01 c8                	add    %ecx,%eax
  4066bc:	89 4b 04             	mov    %ecx,0x4(%ebx)
  4066bf:	89 34 ba             	mov    %esi,(%edx,%edi,4)
  4066c2:	8b 53 08             	mov    0x8(%ebx),%edx
  4066c5:	c7 04 82 00 00 00 00 	movl   $0x0,(%edx,%eax,4)
  4066cc:	83 c4 10             	add    $0x10,%esp
  4066cf:	31 c0                	xor    %eax,%eax
  4066d1:	5b                   	pop    %ebx
  4066d2:	5e                   	pop    %esi
  4066d3:	5f                   	pop    %edi
  4066d4:	c3                   	ret    
  4066d5:	83 c4 10             	add    $0x10,%esp
  4066d8:	b8 01 00 00 00       	mov    $0x1,%eax
  4066dd:	5b                   	pop    %ebx
  4066de:	5e                   	pop    %esi
  4066df:	5f                   	pop    %edi
  4066e0:	c3                   	ret    
  4066e1:	eb 0d                	jmp    4066f0 <_glob_store_entry>
  4066e3:	90                   	nop
  4066e4:	90                   	nop
  4066e5:	90                   	nop
  4066e6:	90                   	nop
  4066e7:	90                   	nop
  4066e8:	90                   	nop
  4066e9:	90                   	nop
  4066ea:	90                   	nop
  4066eb:	90                   	nop
  4066ec:	90                   	nop
  4066ed:	90                   	nop
  4066ee:	90                   	nop
  4066ef:	90                   	nop

004066f0 <_glob_store_entry>:
  4066f0:	85 c0                	test   %eax,%eax
  4066f2:	75 0c                	jne    406700 <_glob_store_entry+0x10>
  4066f4:	b8 01 00 00 00       	mov    $0x1,%eax
  4066f9:	c3                   	ret    
  4066fa:	8d b6 00 00 00 00    	lea    0x0(%esi),%esi
  406700:	85 d2                	test   %edx,%edx
  406702:	74 f0                	je     4066f4 <_glob_store_entry+0x4>
  406704:	e9 77 ff ff ff       	jmp    406680 <_glob_store_entry.part.2>
  406709:	8d b4 26 00 00 00 00 	lea    0x0(%esi,%eiz,1),%esi

00406710 <_glob_store_collated_entries>:
  406710:	56                   	push   %esi
  406711:	89 d6                	mov    %edx,%esi
  406713:	53                   	push   %ebx
  406714:	89 c3                	mov    %eax,%ebx
  406716:	83 ec 14             	sub    $0x14,%esp
  406719:	8b 00                	mov    (%eax),%eax
  40671b:	85 c0                	test   %eax,%eax
  40671d:	74 05                	je     406724 <_glob_store_collated_entries+0x14>
  40671f:	e8 ec ff ff ff       	call   406710 <_glob_store_collated_entries>
  406724:	8b 43 08             	mov    0x8(%ebx),%eax
  406727:	89 f2                	mov    %esi,%edx
  406729:	e8 c2 ff ff ff       	call   4066f0 <_glob_store_entry>
  40672e:	8b 43 04             	mov    0x4(%ebx),%eax
  406731:	85 c0                	test   %eax,%eax
  406733:	74 07                	je     40673c <_glob_store_collated_entries+0x2c>
  406735:	89 f2                	mov    %esi,%edx
  406737:	e8 d4 ff ff ff       	call   406710 <_glob_store_collated_entries>
  40673c:	89 1c 24             	mov    %ebx,(%esp)
  40673f:	e8 1c 5a 00 00       	call   40c160 <_free>
  406744:	83 c4 14             	add    $0x14,%esp
  406747:	5b                   	pop    %ebx
  406748:	5e                   	pop    %esi
  406749:	c3                   	ret    
  40674a:	8d b6 00 00 00 00    	lea    0x0(%esi),%esi

00406750 <_glob_match>:
  406750:	55                   	push   %ebp
  406751:	89 e5                	mov    %esp,%ebp
  406753:	57                   	push   %edi
  406754:	56                   	push   %esi
  406755:	53                   	push   %ebx
  406756:	89 c3                	mov    %eax,%ebx
  406758:	83 ec 6c             	sub    $0x6c,%esp
  40675b:	89 55 cc             	mov    %edx,-0x34(%ebp)
  40675e:	89 4d a4             	mov    %ecx,-0x5c(%ebp)
  406761:	89 04 24             	mov    %eax,(%esp)
  406764:	e8 c7 59 00 00       	call   40c130 <_strlen>
  406769:	8d 50 01             	lea    0x1(%eax),%edx
  40676c:	83 c0 10             	add    $0x10,%eax
  40676f:	83 e0 f0             	and    $0xfffffff0,%eax
  406772:	e8 59 f9 ff ff       	call   4060d0 <___chkstk_ms>
  406777:	29 c4                	sub    %eax,%esp
  406779:	8d 44 24 0c          	lea    0xc(%esp),%eax
  40677d:	89 54 24 08          	mov    %edx,0x8(%esp)
  406781:	89 5c 24 04          	mov    %ebx,0x4(%esp)
  406785:	89 04 24             	mov    %eax,(%esp)
  406788:	e8 cb 59 00 00       	call   40c158 <_memcpy>
  40678d:	89 04 24             	mov    %eax,(%esp)
  406790:	e8 4b 06 00 00       	call   406de0 <___mingw_dirname>
  406795:	c7 45 e4 00 00 00 00 	movl   $0x0,-0x1c(%ebp)
  40679c:	89 45 b8             	mov    %eax,-0x48(%ebp)
  40679f:	8d 45 d8             	lea    -0x28(%ebp),%eax
  4067a2:	e8 f9 fb ff ff       	call   4063a0 <_glob_initialise>
  4067a7:	85 c0                	test   %eax,%eax
  4067a9:	74 08                	je     4067b3 <_glob_match+0x63>
  4067ab:	8d 65 f4             	lea    -0xc(%ebp),%esp
  4067ae:	5b                   	pop    %ebx
  4067af:	5e                   	pop    %esi
  4067b0:	5f                   	pop    %edi
  4067b1:	5d                   	pop    %ebp
  4067b2:	c3                   	ret    
  4067b3:	8b 55 cc             	mov    -0x34(%ebp),%edx
  4067b6:	8b 45 b8             	mov    -0x48(%ebp),%eax
  4067b9:	e8 42 f9 ff ff       	call   406100 <_is_glob_pattern>
  4067be:	85 c0                	test   %eax,%eax
  4067c0:	0f 84 5a 02 00 00    	je     406a20 <_glob_match+0x2d0>
  4067c6:	8b 55 cc             	mov    -0x34(%ebp),%edx
  4067c9:	8d 45 d8             	lea    -0x28(%ebp),%eax
  4067cc:	89 04 24             	mov    %eax,(%esp)
  4067cf:	8b 4d a4             	mov    -0x5c(%ebp),%ecx
  4067d2:	8b 45 b8             	mov    -0x48(%ebp),%eax
  4067d5:	80 ce 80             	or     $0x80,%dh
  4067d8:	e8 73 ff ff ff       	call   406750 <_glob_match>
  4067dd:	85 c0                	test   %eax,%eax
  4067df:	75 ca                	jne    4067ab <_glob_match+0x5b>
  4067e1:	0f b6 43 01          	movzbl 0x1(%ebx),%eax
  4067e5:	3c 5c                	cmp    $0x5c,%al
  4067e7:	0f 84 5b 03 00 00    	je     406b48 <_glob_match+0x3f8>
  4067ed:	3c 2f                	cmp    $0x2f,%al
  4067ef:	0f 84 53 03 00 00    	je     406b48 <_glob_match+0x3f8>
  4067f5:	8b 75 b8             	mov    -0x48(%ebp),%esi
  4067f8:	bf 2c e1 40 00       	mov    $0x40e12c,%edi
  4067fd:	b9 02 00 00 00       	mov    $0x2,%ecx
  406802:	f3 a6                	repz cmpsb %es:(%edi),%ds:(%esi)
  406804:	0f 85 3e 03 00 00    	jne    406b48 <_glob_match+0x3f8>
  40680a:	c6 45 a3 5c          	movb   $0x5c,-0x5d(%ebp)
  40680e:	f6 45 cc 10          	testb  $0x10,-0x34(%ebp)
  406812:	89 5d c0             	mov    %ebx,-0x40(%ebp)
  406815:	c7 45 b8 00 00 00 00 	movl   $0x0,-0x48(%ebp)
  40681c:	0f 85 33 04 00 00    	jne    406c55 <_glob_match+0x505>
  406822:	8b 45 e0             	mov    -0x20(%ebp),%eax
  406825:	89 45 c8             	mov    %eax,-0x38(%ebp)
  406828:	8b 00                	mov    (%eax),%eax
  40682a:	85 c0                	test   %eax,%eax
  40682c:	0f 84 71 04 00 00    	je     406ca3 <_glob_match+0x553>
  406832:	8b 4d cc             	mov    -0x34(%ebp),%ecx
  406835:	c7 45 c4 02 00 00 00 	movl   $0x2,-0x3c(%ebp)
  40683c:	89 cf                	mov    %ecx,%edi
  40683e:	83 e7 04             	and    $0x4,%edi
  406841:	89 7d 98             	mov    %edi,-0x68(%ebp)
  406844:	89 cf                	mov    %ecx,%edi
  406846:	81 e7 00 80 00 00    	and    $0x8000,%edi
  40684c:	89 7d d0             	mov    %edi,-0x30(%ebp)
  40684f:	90                   	nop
  406850:	83 7d c4 01          	cmpl   $0x1,-0x3c(%ebp)
  406854:	0f 84 58 02 00 00    	je     406ab2 <_glob_match+0x362>
  40685a:	89 04 24             	mov    %eax,(%esp)
  40685d:	e8 ee 0a 00 00       	call   407350 <___mingw_opendir>
  406862:	85 c0                	test   %eax,%eax
  406864:	89 45 d4             	mov    %eax,-0x2c(%ebp)
  406867:	0f 84 76 03 00 00    	je     406be3 <_glob_match+0x493>
  40686d:	8b 45 b8             	mov    -0x48(%ebp),%eax
  406870:	85 c0                	test   %eax,%eax
  406872:	0f 84 bd 03 00 00    	je     406c35 <_glob_match+0x4e5>
  406878:	8b 45 c8             	mov    -0x38(%ebp),%eax
  40687b:	8b 00                	mov    (%eax),%eax
  40687d:	89 04 24             	mov    %eax,(%esp)
  406880:	e8 ab 58 00 00       	call   40c130 <_strlen>
  406885:	89 45 b4             	mov    %eax,-0x4c(%ebp)
  406888:	8b 45 cc             	mov    -0x34(%ebp),%eax
  40688b:	c7 45 bc 00 00 00 00 	movl   $0x0,-0x44(%ebp)
  406892:	83 e0 40             	and    $0x40,%eax
  406895:	89 45 a8             	mov    %eax,-0x58(%ebp)
  406898:	8b 45 d4             	mov    -0x2c(%ebp),%eax
  40689b:	89 04 24             	mov    %eax,(%esp)
  40689e:	e8 4d 0c 00 00       	call   4074f0 <___mingw_readdir>
  4068a3:	85 c0                	test   %eax,%eax
  4068a5:	89 c6                	mov    %eax,%esi
  4068a7:	0f 84 e8 01 00 00    	je     406a95 <_glob_match+0x345>
  4068ad:	8b 45 d0             	mov    -0x30(%ebp),%eax
  4068b0:	85 c0                	test   %eax,%eax
  4068b2:	74 06                	je     4068ba <_glob_match+0x16a>
  4068b4:	83 7e 08 10          	cmpl   $0x10,0x8(%esi)
  4068b8:	75 de                	jne    406898 <_glob_match+0x148>
  4068ba:	8b 4d cc             	mov    -0x34(%ebp),%ecx
  4068bd:	8d 5e 0c             	lea    0xc(%esi),%ebx
  4068c0:	8b 45 c0             	mov    -0x40(%ebp),%eax
  4068c3:	89 da                	mov    %ebx,%edx
  4068c5:	e8 36 fb ff ff       	call   406400 <_glob_strcmp>
  4068ca:	85 c0                	test   %eax,%eax
  4068cc:	75 ca                	jne    406898 <_glob_match+0x148>
  4068ce:	0f b7 56 06          	movzwl 0x6(%esi),%edx
  4068d2:	8b 4d b4             	mov    -0x4c(%ebp),%ecx
  4068d5:	89 65 b0             	mov    %esp,-0x50(%ebp)
  4068d8:	8d 44 11 11          	lea    0x11(%ecx,%edx,1),%eax
  4068dc:	83 e0 f0             	and    $0xfffffff0,%eax
  4068df:	e8 ec f7 ff ff       	call   4060d0 <___chkstk_ms>
  4068e4:	29 c4                	sub    %eax,%esp
  4068e6:	31 c0                	xor    %eax,%eax
  4068e8:	8d 7c 24 0c          	lea    0xc(%esp),%edi
  4068ec:	85 c9                	test   %ecx,%ecx
  4068ee:	89 7d ac             	mov    %edi,-0x54(%ebp)
  4068f1:	0f 85 ed 01 00 00    	jne    406ae4 <_glob_match+0x394>
  4068f7:	83 c2 01             	add    $0x1,%edx
  4068fa:	01 f8                	add    %edi,%eax
  4068fc:	89 54 24 08          	mov    %edx,0x8(%esp)
  406900:	89 5c 24 04          	mov    %ebx,0x4(%esp)
  406904:	89 e3                	mov    %esp,%ebx
  406906:	89 04 24             	mov    %eax,(%esp)
  406909:	e8 4a 58 00 00       	call   40c158 <_memcpy>
  40690e:	89 3c 24             	mov    %edi,(%esp)
  406911:	e8 1a 58 00 00       	call   40c130 <_strlen>
  406916:	83 c0 10             	add    $0x10,%eax
  406919:	83 e0 f0             	and    $0xfffffff0,%eax
  40691c:	e8 af f7 ff ff       	call   4060d0 <___chkstk_ms>
  406921:	8b 75 ac             	mov    -0x54(%ebp),%esi
  406924:	29 c4                	sub    %eax,%esp
  406926:	8d 4c 24 0c          	lea    0xc(%esp),%ecx
  40692a:	89 ca                	mov    %ecx,%edx
  40692c:	eb 0f                	jmp    40693d <_glob_match+0x1ed>
  40692e:	66 90                	xchg   %ax,%ax
  406930:	83 c2 01             	add    $0x1,%edx
  406933:	83 c6 01             	add    $0x1,%esi
  406936:	84 c0                	test   %al,%al
  406938:	88 42 ff             	mov    %al,-0x1(%edx)
  40693b:	74 1b                	je     406958 <_glob_match+0x208>
  40693d:	0f b6 06             	movzbl (%esi),%eax
  406940:	3c 7f                	cmp    $0x7f,%al
  406942:	75 ec                	jne    406930 <_glob_match+0x1e0>
  406944:	0f b6 46 01          	movzbl 0x1(%esi),%eax
  406948:	83 c6 01             	add    $0x1,%esi
  40694b:	83 c2 01             	add    $0x1,%edx
  40694e:	83 c6 01             	add    $0x1,%esi
  406951:	84 c0                	test   %al,%al
  406953:	88 42 ff             	mov    %al,-0x1(%edx)
  406956:	75 e5                	jne    40693d <_glob_match+0x1ed>
  406958:	89 0c 24             	mov    %ecx,(%esp)
  40695b:	e8 80 5b 00 00       	call   40c4e0 <_strdup>
  406960:	89 dc                	mov    %ebx,%esp
  406962:	85 c0                	test   %eax,%eax
  406964:	89 c6                	mov    %eax,%esi
  406966:	0f 84 c6 01 00 00    	je     406b32 <_glob_match+0x3e2>
  40696c:	31 c0                	xor    %eax,%eax
  40696e:	83 7d c4 02          	cmpl   $0x2,-0x3c(%ebp)
  406972:	0f 94 c0             	sete   %al
  406975:	83 e8 01             	sub    $0x1,%eax
  406978:	21 45 c4             	and    %eax,-0x3c(%ebp)
  40697b:	8b 45 a8             	mov    -0x58(%ebp),%eax
  40697e:	85 c0                	test   %eax,%eax
  406980:	0f 85 9d 01 00 00    	jne    406b23 <_glob_match+0x3d3>
  406986:	8b 5d bc             	mov    -0x44(%ebp),%ebx
  406989:	85 db                	test   %ebx,%ebx
  40698b:	0f 84 bb 02 00 00    	je     406c4c <_glob_match+0x4fc>
  406991:	8b 7d cc             	mov    -0x34(%ebp),%edi
  406994:	81 e7 00 40 00 00    	and    $0x4000,%edi
  40699a:	eb 18                	jmp    4069b4 <_glob_match+0x264>
  40699c:	8d 74 26 00          	lea    0x0(%esi,%eiz,1),%esi
  4069a0:	e8 d3 57 00 00       	call   40c178 <_strcoll>
  4069a5:	8b 0b                	mov    (%ebx),%ecx
  4069a7:	8b 53 04             	mov    0x4(%ebx),%edx
  4069aa:	85 c0                	test   %eax,%eax
  4069ac:	7e 22                	jle    4069d0 <_glob_match+0x280>
  4069ae:	85 d2                	test   %edx,%edx
  4069b0:	74 24                	je     4069d6 <_glob_match+0x286>
  4069b2:	89 d3                	mov    %edx,%ebx
  4069b4:	8b 43 08             	mov    0x8(%ebx),%eax
  4069b7:	85 ff                	test   %edi,%edi
  4069b9:	89 34 24             	mov    %esi,(%esp)
  4069bc:	89 44 24 04          	mov    %eax,0x4(%esp)
  4069c0:	75 de                	jne    4069a0 <_glob_match+0x250>
  4069c2:	e8 21 5b 00 00       	call   40c4e8 <_stricoll>
  4069c7:	8b 0b                	mov    (%ebx),%ecx
  4069c9:	8b 53 04             	mov    0x4(%ebx),%edx
  4069cc:	85 c0                	test   %eax,%eax
  4069ce:	7f de                	jg     4069ae <_glob_match+0x25e>
  4069d0:	89 ca                	mov    %ecx,%edx
  4069d2:	85 d2                	test   %edx,%edx
  4069d4:	75 dc                	jne    4069b2 <_glob_match+0x262>
  4069d6:	89 c1                	mov    %eax,%ecx
  4069d8:	89 4d ac             	mov    %ecx,-0x54(%ebp)
  4069db:	c7 04 24 0c 00 00 00 	movl   $0xc,(%esp)
  4069e2:	e8 31 57 00 00       	call   40c118 <_malloc>
  4069e7:	85 c0                	test   %eax,%eax
  4069e9:	74 22                	je     406a0d <_glob_match+0x2bd>
  4069eb:	85 db                	test   %ebx,%ebx
  4069ed:	89 70 08             	mov    %esi,0x8(%eax)
  4069f0:	c7 40 04 00 00 00 00 	movl   $0x0,0x4(%eax)
  4069f7:	c7 00 00 00 00 00    	movl   $0x0,(%eax)
  4069fd:	74 0e                	je     406a0d <_glob_match+0x2bd>
  4069ff:	8b 4d ac             	mov    -0x54(%ebp),%ecx
  406a02:	85 c9                	test   %ecx,%ecx
  406a04:	0f 8e 16 02 00 00    	jle    406c20 <_glob_match+0x4d0>
  406a0a:	89 43 04             	mov    %eax,0x4(%ebx)
  406a0d:	8b 7d bc             	mov    -0x44(%ebp),%edi
  406a10:	85 ff                	test   %edi,%edi
  406a12:	0f 84 15 02 00 00    	je     406c2d <_glob_match+0x4dd>
  406a18:	8b 65 b0             	mov    -0x50(%ebp),%esp
  406a1b:	e9 78 fe ff ff       	jmp    406898 <_glob_match+0x148>
  406a20:	8b 45 b8             	mov    -0x48(%ebp),%eax
  406a23:	89 e6                	mov    %esp,%esi
  406a25:	89 04 24             	mov    %eax,(%esp)
  406a28:	e8 03 57 00 00       	call   40c130 <_strlen>
  406a2d:	83 c0 10             	add    $0x10,%eax
  406a30:	83 e0 f0             	and    $0xfffffff0,%eax
  406a33:	e8 98 f6 ff ff       	call   4060d0 <___chkstk_ms>
  406a38:	8b 55 b8             	mov    -0x48(%ebp),%edx
  406a3b:	29 c4                	sub    %eax,%esp
  406a3d:	8d 7c 24 0c          	lea    0xc(%esp),%edi
  406a41:	89 f9                	mov    %edi,%ecx
  406a43:	eb 0d                	jmp    406a52 <_glob_match+0x302>
  406a45:	83 c1 01             	add    $0x1,%ecx
  406a48:	83 c2 01             	add    $0x1,%edx
  406a4b:	84 c0                	test   %al,%al
  406a4d:	88 41 ff             	mov    %al,-0x1(%ecx)
  406a50:	74 1b                	je     406a6d <_glob_match+0x31d>
  406a52:	0f b6 02             	movzbl (%edx),%eax
  406a55:	3c 7f                	cmp    $0x7f,%al
  406a57:	75 ec                	jne    406a45 <_glob_match+0x2f5>
  406a59:	0f b6 42 01          	movzbl 0x1(%edx),%eax
  406a5d:	83 c2 01             	add    $0x1,%edx
  406a60:	83 c1 01             	add    $0x1,%ecx
  406a63:	83 c2 01             	add    $0x1,%edx
  406a66:	84 c0                	test   %al,%al
  406a68:	88 41 ff             	mov    %al,-0x1(%ecx)
  406a6b:	75 e5                	jne    406a52 <_glob_match+0x302>
  406a6d:	89 3c 24             	mov    %edi,(%esp)
  406a70:	e8 6b 5a 00 00       	call   40c4e0 <_strdup>
  406a75:	89 f4                	mov    %esi,%esp
  406a77:	89 c1                	mov    %eax,%ecx
  406a79:	b8 01 00 00 00       	mov    $0x1,%eax
  406a7e:	85 c9                	test   %ecx,%ecx
  406a80:	0f 84 25 fd ff ff    	je     4067ab <_glob_match+0x5b>
  406a86:	8d 55 d8             	lea    -0x28(%ebp),%edx
  406a89:	89 c8                	mov    %ecx,%eax
  406a8b:	e8 f0 fb ff ff       	call   406680 <_glob_store_entry.part.2>
  406a90:	e9 48 fd ff ff       	jmp    4067dd <_glob_match+0x8d>
  406a95:	8b 45 d4             	mov    -0x2c(%ebp),%eax
  406a98:	89 04 24             	mov    %eax,(%esp)
  406a9b:	e8 a0 0a 00 00       	call   407540 <___mingw_closedir>
  406aa0:	8b 75 bc             	mov    -0x44(%ebp),%esi
  406aa3:	85 f6                	test   %esi,%esi
  406aa5:	74 0b                	je     406ab2 <_glob_match+0x362>
  406aa7:	8b 55 08             	mov    0x8(%ebp),%edx
  406aaa:	8b 45 bc             	mov    -0x44(%ebp),%eax
  406aad:	e8 5e fc ff ff       	call   406710 <_glob_store_collated_entries>
  406ab2:	83 45 c8 04          	addl   $0x4,-0x38(%ebp)
  406ab6:	8b 7d c8             	mov    -0x38(%ebp),%edi
  406ab9:	8b 47 fc             	mov    -0x4(%edi),%eax
  406abc:	89 04 24             	mov    %eax,(%esp)
  406abf:	e8 9c 56 00 00       	call   40c160 <_free>
  406ac4:	8b 07                	mov    (%edi),%eax
  406ac6:	85 c0                	test   %eax,%eax
  406ac8:	0f 85 82 fd ff ff    	jne    406850 <_glob_match+0x100>
  406ace:	8b 45 e0             	mov    -0x20(%ebp),%eax
  406ad1:	89 04 24             	mov    %eax,(%esp)
  406ad4:	e8 87 56 00 00       	call   40c160 <_free>
  406ad9:	8b 45 c4             	mov    -0x3c(%ebp),%eax
  406adc:	8d 65 f4             	lea    -0xc(%ebp),%esp
  406adf:	5b                   	pop    %ebx
  406ae0:	5e                   	pop    %esi
  406ae1:	5f                   	pop    %edi
  406ae2:	5d                   	pop    %ebp
  406ae3:	c3                   	ret    
  406ae4:	8b 45 c8             	mov    -0x38(%ebp),%eax
  406ae7:	8b 75 b4             	mov    -0x4c(%ebp),%esi
  406aea:	89 55 9c             	mov    %edx,-0x64(%ebp)
  406aed:	8b 00                	mov    (%eax),%eax
  406aef:	89 74 24 08          	mov    %esi,0x8(%esp)
  406af3:	89 3c 24             	mov    %edi,(%esp)
  406af6:	89 44 24 04          	mov    %eax,0x4(%esp)
  406afa:	e8 59 56 00 00       	call   40c158 <_memcpy>
  406aff:	0f b6 44 34 0b       	movzbl 0xb(%esp,%esi,1),%eax
  406b04:	8b 55 9c             	mov    -0x64(%ebp),%edx
  406b07:	3c 5c                	cmp    $0x5c,%al
  406b09:	74 35                	je     406b40 <_glob_match+0x3f0>
  406b0b:	3c 2f                	cmp    $0x2f,%al
  406b0d:	74 31                	je     406b40 <_glob_match+0x3f0>
  406b0f:	8b 75 b4             	mov    -0x4c(%ebp),%esi
  406b12:	0f b6 4d a3          	movzbl -0x5d(%ebp),%ecx
  406b16:	89 f0                	mov    %esi,%eax
  406b18:	83 c0 01             	add    $0x1,%eax
  406b1b:	88 0c 37             	mov    %cl,(%edi,%esi,1)
  406b1e:	e9 d4 fd ff ff       	jmp    4068f7 <_glob_match+0x1a7>
  406b23:	8b 55 08             	mov    0x8(%ebp),%edx
  406b26:	89 f0                	mov    %esi,%eax
  406b28:	e8 c3 fb ff ff       	call   4066f0 <_glob_store_entry>
  406b2d:	e9 e6 fe ff ff       	jmp    406a18 <_glob_match+0x2c8>
  406b32:	c7 45 c4 03 00 00 00 	movl   $0x3,-0x3c(%ebp)
  406b39:	e9 da fe ff ff       	jmp    406a18 <_glob_match+0x2c8>
  406b3e:	66 90                	xchg   %ax,%ax
  406b40:	8b 45 b4             	mov    -0x4c(%ebp),%eax
  406b43:	e9 af fd ff ff       	jmp    4068f7 <_glob_match+0x1a7>
  406b48:	8b 45 b8             	mov    -0x48(%ebp),%eax
  406b4b:	89 04 24             	mov    %eax,(%esp)
  406b4e:	e8 dd 55 00 00       	call   40c130 <_strlen>
  406b53:	01 d8                	add    %ebx,%eax
  406b55:	39 c3                	cmp    %eax,%ebx
  406b57:	0f 83 94 01 00 00    	jae    406cf1 <_glob_match+0x5a1>
  406b5d:	0f b6 10             	movzbl (%eax),%edx
  406b60:	80 fa 2f             	cmp    $0x2f,%dl
  406b63:	0f 84 7d 01 00 00    	je     406ce6 <_glob_match+0x596>
  406b69:	80 fa 5c             	cmp    $0x5c,%dl
  406b6c:	75 1d                	jne    406b8b <_glob_match+0x43b>
  406b6e:	66 90                	xchg   %ax,%ax
  406b70:	e9 71 01 00 00       	jmp    406ce6 <_glob_match+0x596>
  406b75:	0f b6 40 ff          	movzbl -0x1(%eax),%eax
  406b79:	3c 5c                	cmp    $0x5c,%al
  406b7b:	0f 84 c0 00 00 00    	je     406c41 <_glob_match+0x4f1>
  406b81:	3c 2f                	cmp    $0x2f,%al
  406b83:	0f 84 b8 00 00 00    	je     406c41 <_glob_match+0x4f1>
  406b89:	89 d0                	mov    %edx,%eax
  406b8b:	8d 50 ff             	lea    -0x1(%eax),%edx
  406b8e:	39 da                	cmp    %ebx,%edx
  406b90:	75 e3                	jne    406b75 <_glob_match+0x425>
  406b92:	0f b6 40 ff          	movzbl -0x1(%eax),%eax
  406b96:	89 55 c0             	mov    %edx,-0x40(%ebp)
  406b99:	88 45 a3             	mov    %al,-0x5d(%ebp)
  406b9c:	80 7d a3 5c          	cmpb   $0x5c,-0x5d(%ebp)
  406ba0:	0f 85 0c 01 00 00    	jne    406cb2 <_glob_match+0x562>
  406ba6:	8b 45 c0             	mov    -0x40(%ebp),%eax
  406ba9:	0f b6 4d a3          	movzbl -0x5d(%ebp),%ecx
  406bad:	83 c0 01             	add    $0x1,%eax
  406bb0:	0f b6 10             	movzbl (%eax),%edx
  406bb3:	80 fa 5c             	cmp    $0x5c,%dl
  406bb6:	75 0d                	jne    406bc5 <_glob_match+0x475>
  406bb8:	83 c0 01             	add    $0x1,%eax
  406bbb:	89 d1                	mov    %edx,%ecx
  406bbd:	0f b6 10             	movzbl (%eax),%edx
  406bc0:	80 fa 5c             	cmp    $0x5c,%dl
  406bc3:	74 f3                	je     406bb8 <_glob_match+0x468>
  406bc5:	80 fa 2f             	cmp    $0x2f,%dl
  406bc8:	74 ee                	je     406bb8 <_glob_match+0x468>
  406bca:	89 45 c0             	mov    %eax,-0x40(%ebp)
  406bcd:	88 4d a3             	mov    %cl,-0x5d(%ebp)
  406bd0:	8b 45 b8             	mov    -0x48(%ebp),%eax
  406bd3:	85 c0                	test   %eax,%eax
  406bd5:	0f 85 47 fc ff ff    	jne    406822 <_glob_match+0xd2>
  406bdb:	8b 5d c0             	mov    -0x40(%ebp),%ebx
  406bde:	e9 2b fc ff ff       	jmp    40680e <_glob_match+0xbe>
  406be3:	8b 5d 98             	mov    -0x68(%ebp),%ebx
  406be6:	85 db                	test   %ebx,%ebx
  406be8:	75 28                	jne    406c12 <_glob_match+0x4c2>
  406bea:	8b 7d a4             	mov    -0x5c(%ebp),%edi
  406bed:	85 ff                	test   %edi,%edi
  406bef:	0f 84 bd fe ff ff    	je     406ab2 <_glob_match+0x362>
  406bf5:	e8 86 55 00 00       	call   40c180 <__errno>
  406bfa:	8b 00                	mov    (%eax),%eax
  406bfc:	89 44 24 04          	mov    %eax,0x4(%esp)
  406c00:	8b 45 c8             	mov    -0x38(%ebp),%eax
  406c03:	8b 00                	mov    (%eax),%eax
  406c05:	89 04 24             	mov    %eax,(%esp)
  406c08:	ff d7                	call   *%edi
  406c0a:	85 c0                	test   %eax,%eax
  406c0c:	0f 84 a0 fe ff ff    	je     406ab2 <_glob_match+0x362>
  406c12:	c7 45 c4 01 00 00 00 	movl   $0x1,-0x3c(%ebp)
  406c19:	e9 94 fe ff ff       	jmp    406ab2 <_glob_match+0x362>
  406c1e:	66 90                	xchg   %ax,%ax
  406c20:	8b 7d bc             	mov    -0x44(%ebp),%edi
  406c23:	89 03                	mov    %eax,(%ebx)
  406c25:	85 ff                	test   %edi,%edi
  406c27:	0f 85 eb fd ff ff    	jne    406a18 <_glob_match+0x2c8>
  406c2d:	89 45 bc             	mov    %eax,-0x44(%ebp)
  406c30:	e9 e3 fd ff ff       	jmp    406a18 <_glob_match+0x2c8>
  406c35:	c7 45 b4 00 00 00 00 	movl   $0x0,-0x4c(%ebp)
  406c3c:	e9 47 fc ff ff       	jmp    406888 <_glob_match+0x138>
  406c41:	89 55 c0             	mov    %edx,-0x40(%ebp)
  406c44:	88 45 a3             	mov    %al,-0x5d(%ebp)
  406c47:	e9 50 ff ff ff       	jmp    406b9c <_glob_match+0x44c>
  406c4c:	31 db                	xor    %ebx,%ebx
  406c4e:	31 c9                	xor    %ecx,%ecx
  406c50:	e9 83 fd ff ff       	jmp    4069d8 <_glob_match+0x288>
  406c55:	8b 55 cc             	mov    -0x34(%ebp),%edx
  406c58:	89 d8                	mov    %ebx,%eax
  406c5a:	e8 a1 f4 ff ff       	call   406100 <_is_glob_pattern>
  406c5f:	85 c0                	test   %eax,%eax
  406c61:	0f 85 bb fb ff ff    	jne    406822 <_glob_match+0xd2>
  406c67:	89 1c 24             	mov    %ebx,(%esp)
  406c6a:	89 e6                	mov    %esp,%esi
  406c6c:	e8 bf 54 00 00       	call   40c130 <_strlen>
  406c71:	83 c0 10             	add    $0x10,%eax
  406c74:	83 e0 f0             	and    $0xfffffff0,%eax
  406c77:	e8 54 f4 ff ff       	call   4060d0 <___chkstk_ms>
  406c7c:	29 c4                	sub    %eax,%esp
  406c7e:	8d 4c 24 0c          	lea    0xc(%esp),%ecx
  406c82:	89 ca                	mov    %ecx,%edx
  406c84:	eb 0d                	jmp    406c93 <_glob_match+0x543>
  406c86:	83 c2 01             	add    $0x1,%edx
  406c89:	83 c3 01             	add    $0x1,%ebx
  406c8c:	84 c0                	test   %al,%al
  406c8e:	88 42 ff             	mov    %al,-0x1(%edx)
  406c91:	74 32                	je     406cc5 <_glob_match+0x575>
  406c93:	0f b6 03             	movzbl (%ebx),%eax
  406c96:	3c 7f                	cmp    $0x7f,%al
  406c98:	75 ec                	jne    406c86 <_glob_match+0x536>
  406c9a:	0f b6 43 01          	movzbl 0x1(%ebx),%eax
  406c9e:	83 c3 01             	add    $0x1,%ebx
  406ca1:	eb e3                	jmp    406c86 <_glob_match+0x536>
  406ca3:	8b 45 c8             	mov    -0x38(%ebp),%eax
  406ca6:	c7 45 c4 02 00 00 00 	movl   $0x2,-0x3c(%ebp)
  406cad:	e9 1f fe ff ff       	jmp    406ad1 <_glob_match+0x381>
  406cb2:	80 7d a3 2f          	cmpb   $0x2f,-0x5d(%ebp)
  406cb6:	0f 84 ea fe ff ff    	je     406ba6 <_glob_match+0x456>
  406cbc:	c6 45 a3 5c          	movb   $0x5c,-0x5d(%ebp)
  406cc0:	e9 0b ff ff ff       	jmp    406bd0 <_glob_match+0x480>
  406cc5:	89 0c 24             	mov    %ecx,(%esp)
  406cc8:	e8 13 58 00 00       	call   40c4e0 <_strdup>
  406ccd:	8b 55 08             	mov    0x8(%ebp),%edx
  406cd0:	89 f4                	mov    %esi,%esp
  406cd2:	e8 19 fa ff ff       	call   4066f0 <_glob_store_entry>
  406cd7:	8b 45 e0             	mov    -0x20(%ebp),%eax
  406cda:	c7 45 c4 00 00 00 00 	movl   $0x0,-0x3c(%ebp)
  406ce1:	e9 eb fd ff ff       	jmp    406ad1 <_glob_match+0x381>
  406ce6:	88 55 a3             	mov    %dl,-0x5d(%ebp)
  406ce9:	89 45 c0             	mov    %eax,-0x40(%ebp)
  406cec:	e9 ab fe ff ff       	jmp    406b9c <_glob_match+0x44c>
  406cf1:	0f b6 08             	movzbl (%eax),%ecx
  406cf4:	89 45 c0             	mov    %eax,-0x40(%ebp)
  406cf7:	88 4d a3             	mov    %cl,-0x5d(%ebp)
  406cfa:	e9 9d fe ff ff       	jmp    406b9c <_glob_match+0x44c>
  406cff:	90                   	nop

00406d00 <___mingw_glob>:
  406d00:	55                   	push   %ebp
  406d01:	89 e5                	mov    %esp,%ebp
  406d03:	57                   	push   %edi
  406d04:	56                   	push   %esi
  406d05:	53                   	push   %ebx
  406d06:	83 ec 1c             	sub    $0x1c,%esp
  406d09:	8b 75 14             	mov    0x14(%ebp),%esi
  406d0c:	8b 5d 08             	mov    0x8(%ebp),%ebx
  406d0f:	81 3e 2e e1 40 00    	cmpl   $0x40e12e,(%esi)
  406d15:	74 0d                	je     406d24 <___mingw_glob+0x24>
  406d17:	89 f0                	mov    %esi,%eax
  406d19:	e8 82 f6 ff ff       	call   4063a0 <_glob_initialise>
  406d1e:	c7 06 2e e1 40 00    	movl   $0x40e12e,(%esi)
  406d24:	89 34 24             	mov    %esi,(%esp)
  406d27:	8b 4d 10             	mov    0x10(%ebp),%ecx
  406d2a:	89 d8                	mov    %ebx,%eax
  406d2c:	8b 55 0c             	mov    0xc(%ebp),%edx
  406d2f:	e8 1c fa ff ff       	call   406750 <_glob_match>
  406d34:	83 f8 02             	cmp    $0x2,%eax
  406d37:	89 c7                	mov    %eax,%edi
  406d39:	74 0a                	je     406d45 <___mingw_glob+0x45>
  406d3b:	8d 65 f4             	lea    -0xc(%ebp),%esp
  406d3e:	89 f8                	mov    %edi,%eax
  406d40:	5b                   	pop    %ebx
  406d41:	5e                   	pop    %esi
  406d42:	5f                   	pop    %edi
  406d43:	5d                   	pop    %ebp
  406d44:	c3                   	ret    
  406d45:	f6 45 0c 10          	testb  $0x10,0xc(%ebp)
  406d49:	74 f0                	je     406d3b <___mingw_glob+0x3b>
  406d4b:	89 65 e4             	mov    %esp,-0x1c(%ebp)
  406d4e:	89 1c 24             	mov    %ebx,(%esp)
  406d51:	e8 da 53 00 00       	call   40c130 <_strlen>
  406d56:	83 c0 10             	add    $0x10,%eax
  406d59:	83 e0 f0             	and    $0xfffffff0,%eax
  406d5c:	e8 6f f3 ff ff       	call   4060d0 <___chkstk_ms>
  406d61:	29 c4                	sub    %eax,%esp
  406d63:	8d 4c 24 04          	lea    0x4(%esp),%ecx
  406d67:	89 ca                	mov    %ecx,%edx
  406d69:	eb 12                	jmp    406d7d <___mingw_glob+0x7d>
  406d6b:	90                   	nop
  406d6c:	8d 74 26 00          	lea    0x0(%esi,%eiz,1),%esi
  406d70:	83 c2 01             	add    $0x1,%edx
  406d73:	83 c3 01             	add    $0x1,%ebx
  406d76:	84 c0                	test   %al,%al
  406d78:	88 42 ff             	mov    %al,-0x1(%edx)
  406d7b:	74 1b                	je     406d98 <___mingw_glob+0x98>
  406d7d:	0f b6 03             	movzbl (%ebx),%eax
  406d80:	3c 7f                	cmp    $0x7f,%al
  406d82:	75 ec                	jne    406d70 <___mingw_glob+0x70>
  406d84:	0f b6 43 01          	movzbl 0x1(%ebx),%eax
  406d88:	83 c3 01             	add    $0x1,%ebx
  406d8b:	83 c2 01             	add    $0x1,%edx
  406d8e:	83 c3 01             	add    $0x1,%ebx
  406d91:	84 c0                	test   %al,%al
  406d93:	88 42 ff             	mov    %al,-0x1(%edx)
  406d96:	75 e5                	jne    406d7d <___mingw_glob+0x7d>
  406d98:	89 0c 24             	mov    %ecx,(%esp)
  406d9b:	e8 40 57 00 00       	call   40c4e0 <_strdup>
  406da0:	8b 65 e4             	mov    -0x1c(%ebp),%esp
  406da3:	89 f2                	mov    %esi,%edx
  406da5:	e8 46 f9 ff ff       	call   4066f0 <_glob_store_entry>
  406daa:	8d 65 f4             	lea    -0xc(%ebp),%esp
  406dad:	89 f8                	mov    %edi,%eax
  406daf:	5b                   	pop    %ebx
  406db0:	5e                   	pop    %esi
  406db1:	5f                   	pop    %edi
  406db2:	5d                   	pop    %ebp
  406db3:	c3                   	ret    
  406db4:	8d b6 00 00 00 00    	lea    0x0(%esi),%esi
  406dba:	8d bf 00 00 00 00    	lea    0x0(%edi),%edi

00406dc0 <___mingw_globfree>:
  406dc0:	8b 44 24 04          	mov    0x4(%esp),%eax
  406dc4:	81 38 2e e1 40 00    	cmpl   $0x40e12e,(%eax)
  406dca:	74 04                	je     406dd0 <___mingw_globfree+0x10>
  406dcc:	f3 c3                	repz ret 
  406dce:	66 90                	xchg   %ax,%ax
  406dd0:	e9 5b f8 ff ff       	jmp    406630 <_glob_registry.part.1>
  406dd5:	90                   	nop
  406dd6:	90                   	nop
  406dd7:	90                   	nop
  406dd8:	90                   	nop
  406dd9:	90                   	nop
  406dda:	90                   	nop
  406ddb:	90                   	nop
  406ddc:	90                   	nop
  406ddd:	90                   	nop
  406dde:	90                   	nop
  406ddf:	90                   	nop

00406de0 <___mingw_dirname>:
  406de0:	55                   	push   %ebp
  406de1:	89 e5                	mov    %esp,%ebp
  406de3:	57                   	push   %edi
  406de4:	56                   	push   %esi
  406de5:	53                   	push   %ebx
  406de6:	83 ec 3c             	sub    $0x3c,%esp
  406de9:	8b 75 08             	mov    0x8(%ebp),%esi
  406dec:	c7 44 24 04 00 00 00 	movl   $0x0,0x4(%esp)
  406df3:	00 
  406df4:	c7 04 24 02 00 00 00 	movl   $0x2,(%esp)
  406dfb:	e8 88 53 00 00       	call   40c188 <_setlocale>
  406e00:	85 c0                	test   %eax,%eax
  406e02:	89 c3                	mov    %eax,%ebx
  406e04:	74 0a                	je     406e10 <___mingw_dirname+0x30>
  406e06:	89 04 24             	mov    %eax,(%esp)
  406e09:	e8 d2 56 00 00       	call   40c4e0 <_strdup>
  406e0e:	89 c3                	mov    %eax,%ebx
  406e10:	c7 44 24 04 40 e1 40 	movl   $0x40e140,0x4(%esp)
  406e17:	00 
  406e18:	c7 04 24 02 00 00 00 	movl   $0x2,(%esp)
  406e1f:	e8 64 53 00 00       	call   40c188 <_setlocale>
  406e24:	85 f6                	test   %esi,%esi
  406e26:	74 05                	je     406e2d <___mingw_dirname+0x4d>
  406e28:	80 3e 00             	cmpb   $0x0,(%esi)
  406e2b:	75 73                	jne    406ea0 <___mingw_dirname+0xc0>
  406e2d:	c7 44 24 08 00 00 00 	movl   $0x0,0x8(%esp)
  406e34:	00 
  406e35:	c7 44 24 04 42 e1 40 	movl   $0x40e142,0x4(%esp)
  406e3c:	00 
  406e3d:	c7 04 24 00 00 00 00 	movl   $0x0,(%esp)
  406e44:	e8 47 53 00 00       	call   40c190 <_wcstombs>
  406e49:	8d 70 01             	lea    0x1(%eax),%esi
  406e4c:	89 74 24 04          	mov    %esi,0x4(%esp)
  406e50:	a1 74 10 41 00       	mov    0x411074,%eax
  406e55:	89 04 24             	mov    %eax,(%esp)
  406e58:	e8 13 53 00 00       	call   40c170 <_realloc>
  406e5d:	a3 74 10 41 00       	mov    %eax,0x411074
  406e62:	89 74 24 08          	mov    %esi,0x8(%esp)
  406e66:	c7 44 24 04 42 e1 40 	movl   $0x40e142,0x4(%esp)
  406e6d:	00 
  406e6e:	89 04 24             	mov    %eax,(%esp)
  406e71:	e8 1a 53 00 00       	call   40c190 <_wcstombs>
  406e76:	89 5c 24 04          	mov    %ebx,0x4(%esp)
  406e7a:	c7 04 24 02 00 00 00 	movl   $0x2,(%esp)
  406e81:	e8 02 53 00 00       	call   40c188 <_setlocale>
  406e86:	89 1c 24             	mov    %ebx,(%esp)
  406e89:	e8 d2 52 00 00       	call   40c160 <_free>
  406e8e:	a1 74 10 41 00       	mov    0x411074,%eax
  406e93:	8d 65 f4             	lea    -0xc(%ebp),%esp
  406e96:	5b                   	pop    %ebx
  406e97:	5e                   	pop    %esi
  406e98:	5f                   	pop    %edi
  406e99:	5d                   	pop    %ebp
  406e9a:	c3                   	ret    
  406e9b:	90                   	nop
  406e9c:	8d 74 26 00          	lea    0x0(%esi,%eiz,1),%esi
  406ea0:	89 65 d4             	mov    %esp,-0x2c(%ebp)
  406ea3:	c7 44 24 08 00 00 00 	movl   $0x0,0x8(%esp)
  406eaa:	00 
  406eab:	89 74 24 04          	mov    %esi,0x4(%esp)
  406eaf:	c7 04 24 00 00 00 00 	movl   $0x0,(%esp)
  406eb6:	e8 dd 52 00 00       	call   40c198 <_mbstowcs>
  406ebb:	89 c2                	mov    %eax,%edx
  406ebd:	8d 44 00 12          	lea    0x12(%eax,%eax,1),%eax
  406ec1:	83 e0 f0             	and    $0xfffffff0,%eax
  406ec4:	e8 07 f2 ff ff       	call   4060d0 <___chkstk_ms>
  406ec9:	29 c4                	sub    %eax,%esp
  406ecb:	8d 44 24 0d          	lea    0xd(%esp),%eax
  406ecf:	89 45 e4             	mov    %eax,-0x1c(%ebp)
  406ed2:	d1 6d e4             	shrl   -0x1c(%ebp)
  406ed5:	8b 45 e4             	mov    -0x1c(%ebp),%eax
  406ed8:	01 c0                	add    %eax,%eax
  406eda:	89 45 e0             	mov    %eax,-0x20(%ebp)
  406edd:	89 c7                	mov    %eax,%edi
  406edf:	89 54 24 08          	mov    %edx,0x8(%esp)
  406ee3:	89 74 24 04          	mov    %esi,0x4(%esp)
  406ee7:	89 04 24             	mov    %eax,(%esp)
  406eea:	e8 a9 52 00 00       	call   40c198 <_mbstowcs>
  406eef:	31 c9                	xor    %ecx,%ecx
  406ef1:	66 89 0c 47          	mov    %cx,(%edi,%eax,2)
  406ef5:	83 f8 01             	cmp    $0x1,%eax
  406ef8:	89 45 d0             	mov    %eax,-0x30(%ebp)
  406efb:	8b 45 e4             	mov    -0x1c(%ebp),%eax
  406efe:	0f b7 04 00          	movzwl (%eax,%eax,1),%eax
  406f02:	66 89 45 da          	mov    %ax,-0x26(%ebp)
  406f06:	0f 86 f2 00 00 00    	jbe    406ffe <___mingw_dirname+0x21e>
  406f0c:	66 83 f8 5c          	cmp    $0x5c,%ax
  406f10:	74 0a                	je     406f1c <___mingw_dirname+0x13c>
  406f12:	66 83 f8 2f          	cmp    $0x2f,%ax
  406f16:	0f 85 0a 01 00 00    	jne    407026 <___mingw_dirname+0x246>
  406f1c:	8b 7d e0             	mov    -0x20(%ebp),%edi
  406f1f:	89 7d dc             	mov    %edi,-0x24(%ebp)
  406f22:	8b 7d e4             	mov    -0x1c(%ebp),%edi
  406f25:	66 3b 44 3f 02       	cmp    0x2(%edi,%edi,1),%ax
  406f2a:	0f 84 4f 02 00 00    	je     40717f <___mingw_dirname+0x39f>
  406f30:	0f b7 45 da          	movzwl -0x26(%ebp),%eax
  406f34:	66 85 c0             	test   %ax,%ax
  406f37:	0f 84 fa 01 00 00    	je     407137 <___mingw_dirname+0x357>
  406f3d:	8b 55 dc             	mov    -0x24(%ebp),%edx
  406f40:	89 d7                	mov    %edx,%edi
  406f42:	eb 14                	jmp    406f58 <___mingw_dirname+0x178>
  406f44:	66 83 f8 2f          	cmp    $0x2f,%ax
  406f48:	74 20                	je     406f6a <___mingw_dirname+0x18a>
  406f4a:	0f b7 42 02          	movzwl 0x2(%edx),%eax
  406f4e:	8d 4a 02             	lea    0x2(%edx),%ecx
  406f51:	66 85 c0             	test   %ax,%ax
  406f54:	74 36                	je     406f8c <___mingw_dirname+0x1ac>
  406f56:	89 ca                	mov    %ecx,%edx
  406f58:	66 83 f8 5c          	cmp    $0x5c,%ax
  406f5c:	75 e6                	jne    406f44 <___mingw_dirname+0x164>
  406f5e:	0f b7 02             	movzwl (%edx),%eax
  406f61:	66 83 f8 5c          	cmp    $0x5c,%ax
  406f65:	75 0c                	jne    406f73 <___mingw_dirname+0x193>
  406f67:	83 c2 02             	add    $0x2,%edx
  406f6a:	0f b7 02             	movzwl (%edx),%eax
  406f6d:	66 83 f8 5c          	cmp    $0x5c,%ax
  406f71:	74 f4                	je     406f67 <___mingw_dirname+0x187>
  406f73:	66 83 f8 2f          	cmp    $0x2f,%ax
  406f77:	74 ee                	je     406f67 <___mingw_dirname+0x187>
  406f79:	66 85 c0             	test   %ax,%ax
  406f7c:	74 0e                	je     406f8c <___mingw_dirname+0x1ac>
  406f7e:	0f b7 42 02          	movzwl 0x2(%edx),%eax
  406f82:	89 d7                	mov    %edx,%edi
  406f84:	8d 4a 02             	lea    0x2(%edx),%ecx
  406f87:	66 85 c0             	test   %ax,%ax
  406f8a:	75 ca                	jne    406f56 <___mingw_dirname+0x176>
  406f8c:	8b 4d dc             	mov    -0x24(%ebp),%ecx
  406f8f:	39 f9                	cmp    %edi,%ecx
  406f91:	72 7e                	jb     407011 <___mingw_dirname+0x231>
  406f93:	66 83 7d da 5c       	cmpw   $0x5c,-0x26(%ebp)
  406f98:	74 0b                	je     406fa5 <___mingw_dirname+0x1c5>
  406f9a:	66 83 7d da 2f       	cmpw   $0x2f,-0x26(%ebp)
  406f9f:	0f 85 ba 01 00 00    	jne    40715f <___mingw_dirname+0x37f>
  406fa5:	8b 45 dc             	mov    -0x24(%ebp),%eax
  406fa8:	83 c0 02             	add    $0x2,%eax
  406fab:	31 d2                	xor    %edx,%edx
  406fad:	66 89 10             	mov    %dx,(%eax)
  406fb0:	c7 44 24 08 00 00 00 	movl   $0x0,0x8(%esp)
  406fb7:	00 
  406fb8:	8b 45 e0             	mov    -0x20(%ebp),%eax
  406fbb:	c7 04 24 00 00 00 00 	movl   $0x0,(%esp)
  406fc2:	89 44 24 04          	mov    %eax,0x4(%esp)
  406fc6:	e8 c5 51 00 00       	call   40c190 <_wcstombs>
  406fcb:	8d 78 01             	lea    0x1(%eax),%edi
  406fce:	89 7c 24 04          	mov    %edi,0x4(%esp)
  406fd2:	a1 74 10 41 00       	mov    0x411074,%eax
  406fd7:	89 04 24             	mov    %eax,(%esp)
  406fda:	e8 91 51 00 00       	call   40c170 <_realloc>
  406fdf:	a3 74 10 41 00       	mov    %eax,0x411074
  406fe4:	89 c6                	mov    %eax,%esi
  406fe6:	89 7c 24 08          	mov    %edi,0x8(%esp)
  406fea:	8b 45 e0             	mov    -0x20(%ebp),%eax
  406fed:	89 34 24             	mov    %esi,(%esp)
  406ff0:	89 44 24 04          	mov    %eax,0x4(%esp)
  406ff4:	e8 97 51 00 00       	call   40c190 <_wcstombs>
  406ff9:	e9 e9 00 00 00       	jmp    4070e7 <___mingw_dirname+0x307>
  406ffe:	8b 45 e0             	mov    -0x20(%ebp),%eax
  407001:	89 45 dc             	mov    %eax,-0x24(%ebp)
  407004:	e9 27 ff ff ff       	jmp    406f30 <___mingw_dirname+0x150>
  407009:	66 83 fa 2f          	cmp    $0x2f,%dx
  40700d:	75 46                	jne    407055 <___mingw_dirname+0x275>
  40700f:	89 c7                	mov    %eax,%edi
  407011:	8d 47 fe             	lea    -0x2(%edi),%eax
  407014:	39 c1                	cmp    %eax,%ecx
  407016:	73 3d                	jae    407055 <___mingw_dirname+0x275>
  407018:	0f b7 57 fe          	movzwl -0x2(%edi),%edx
  40701c:	66 83 fa 5c          	cmp    $0x5c,%dx
  407020:	75 e7                	jne    407009 <___mingw_dirname+0x229>
  407022:	89 c7                	mov    %eax,%edi
  407024:	eb eb                	jmp    407011 <___mingw_dirname+0x231>
  407026:	8b 45 e0             	mov    -0x20(%ebp),%eax
  407029:	89 45 dc             	mov    %eax,-0x24(%ebp)
  40702c:	8b 45 e4             	mov    -0x1c(%ebp),%eax
  40702f:	66 83 7c 00 02 3a    	cmpw   $0x3a,0x2(%eax,%eax,1)
  407035:	0f 85 f5 fe ff ff    	jne    406f30 <___mingw_dirname+0x150>
  40703b:	8b 45 e0             	mov    -0x20(%ebp),%eax
  40703e:	83 c0 04             	add    $0x4,%eax
  407041:	89 45 dc             	mov    %eax,-0x24(%ebp)
  407044:	8b 45 e4             	mov    -0x1c(%ebp),%eax
  407047:	0f b7 44 00 04       	movzwl 0x4(%eax,%eax,1),%eax
  40704c:	66 89 45 da          	mov    %ax,-0x26(%ebp)
  407050:	e9 db fe ff ff       	jmp    406f30 <___mingw_dirname+0x150>
  407055:	39 45 dc             	cmp    %eax,-0x24(%ebp)
  407058:	0f 84 37 01 00 00    	je     407195 <___mingw_dirname+0x3b5>
  40705e:	31 d2                	xor    %edx,%edx
  407060:	66 89 50 02          	mov    %dx,0x2(%eax)
  407064:	8b 45 e4             	mov    -0x1c(%ebp),%eax
  407067:	0f b7 14 00          	movzwl (%eax,%eax,1),%edx
  40706b:	8b 45 e0             	mov    -0x20(%ebp),%eax
  40706e:	66 83 fa 5c          	cmp    $0x5c,%dx
  407072:	0f 85 c7 00 00 00    	jne    40713f <___mingw_dirname+0x35f>
  407078:	83 c0 02             	add    $0x2,%eax
  40707b:	0f b7 08             	movzwl (%eax),%ecx
  40707e:	66 83 f9 5c          	cmp    $0x5c,%cx
  407082:	74 f4                	je     407078 <___mingw_dirname+0x298>
  407084:	66 83 f9 2f          	cmp    $0x2f,%cx
  407088:	74 ee                	je     407078 <___mingw_dirname+0x298>
  40708a:	89 c1                	mov    %eax,%ecx
  40708c:	2b 4d e0             	sub    -0x20(%ebp),%ecx
  40708f:	83 f9 05             	cmp    $0x5,%ecx
  407092:	0f 8e b1 00 00 00    	jle    407149 <___mingw_dirname+0x369>
  407098:	8b 45 e0             	mov    -0x20(%ebp),%eax
  40709b:	89 c1                	mov    %eax,%ecx
  40709d:	66 85 d2             	test   %dx,%dx
  4070a0:	74 21                	je     4070c3 <___mingw_dirname+0x2e3>
  4070a2:	83 c1 02             	add    $0x2,%ecx
  4070a5:	66 83 fa 2f          	cmp    $0x2f,%dx
  4070a9:	66 89 51 fe          	mov    %dx,-0x2(%ecx)
  4070ad:	74 63                	je     407112 <___mingw_dirname+0x332>
  4070af:	66 83 38 5c          	cmpw   $0x5c,(%eax)
  4070b3:	8d 78 02             	lea    0x2(%eax),%edi
  4070b6:	74 58                	je     407110 <___mingw_dirname+0x330>
  4070b8:	0f b7 50 02          	movzwl 0x2(%eax),%edx
  4070bc:	89 f8                	mov    %edi,%eax
  4070be:	66 85 d2             	test   %dx,%dx
  4070c1:	75 df                	jne    4070a2 <___mingw_dirname+0x2c2>
  4070c3:	8b 45 d0             	mov    -0x30(%ebp),%eax
  4070c6:	31 ff                	xor    %edi,%edi
  4070c8:	66 89 39             	mov    %di,(%ecx)
  4070cb:	89 44 24 08          	mov    %eax,0x8(%esp)
  4070cf:	8b 45 e0             	mov    -0x20(%ebp),%eax
  4070d2:	89 34 24             	mov    %esi,(%esp)
  4070d5:	89 44 24 04          	mov    %eax,0x4(%esp)
  4070d9:	e8 b2 50 00 00       	call   40c190 <_wcstombs>
  4070de:	83 f8 ff             	cmp    $0xffffffff,%eax
  4070e1:	74 04                	je     4070e7 <___mingw_dirname+0x307>
  4070e3:	c6 04 06 00          	movb   $0x0,(%esi,%eax,1)
  4070e7:	89 5c 24 04          	mov    %ebx,0x4(%esp)
  4070eb:	c7 04 24 02 00 00 00 	movl   $0x2,(%esp)
  4070f2:	e8 91 50 00 00       	call   40c188 <_setlocale>
  4070f7:	89 1c 24             	mov    %ebx,(%esp)
  4070fa:	e8 61 50 00 00       	call   40c160 <_free>
  4070ff:	8b 65 d4             	mov    -0x2c(%ebp),%esp
  407102:	8d 65 f4             	lea    -0xc(%ebp),%esp
  407105:	5b                   	pop    %ebx
  407106:	89 f0                	mov    %esi,%eax
  407108:	5e                   	pop    %esi
  407109:	5f                   	pop    %edi
  40710a:	5d                   	pop    %ebp
  40710b:	c3                   	ret    
  40710c:	8d 74 26 00          	lea    0x0(%esi,%eiz,1),%esi
  407110:	89 f8                	mov    %edi,%eax
  407112:	0f b7 10             	movzwl (%eax),%edx
  407115:	66 83 fa 2f          	cmp    $0x2f,%dx
  407119:	75 59                	jne    407174 <___mingw_dirname+0x394>
  40711b:	90                   	nop
  40711c:	8d 74 26 00          	lea    0x0(%esi,%eiz,1),%esi
  407120:	83 c0 02             	add    $0x2,%eax
  407123:	0f b7 10             	movzwl (%eax),%edx
  407126:	66 83 fa 5c          	cmp    $0x5c,%dx
  40712a:	74 f4                	je     407120 <___mingw_dirname+0x340>
  40712c:	66 83 fa 2f          	cmp    $0x2f,%dx
  407130:	74 ee                	je     407120 <___mingw_dirname+0x340>
  407132:	e9 66 ff ff ff       	jmp    40709d <___mingw_dirname+0x2bd>
  407137:	8b 65 d4             	mov    -0x2c(%ebp),%esp
  40713a:	e9 ee fc ff ff       	jmp    406e2d <___mingw_dirname+0x4d>
  40713f:	66 83 fa 2f          	cmp    $0x2f,%dx
  407143:	0f 84 2f ff ff ff    	je     407078 <___mingw_dirname+0x298>
  407149:	8b 7d e4             	mov    -0x1c(%ebp),%edi
  40714c:	66 39 54 3f 02       	cmp    %dx,0x2(%edi,%edi,1)
  407151:	0f 85 41 ff ff ff    	jne    407098 <___mingw_dirname+0x2b8>
  407157:	0f b7 10             	movzwl (%eax),%edx
  40715a:	e9 3c ff ff ff       	jmp    40709b <___mingw_dirname+0x2bb>
  40715f:	8b 7d dc             	mov    -0x24(%ebp),%edi
  407162:	b9 2e 00 00 00       	mov    $0x2e,%ecx
  407167:	89 f8                	mov    %edi,%eax
  407169:	83 c0 02             	add    $0x2,%eax
  40716c:	66 89 0f             	mov    %cx,(%edi)
  40716f:	e9 37 fe ff ff       	jmp    406fab <___mingw_dirname+0x1cb>
  407174:	66 83 fa 5c          	cmp    $0x5c,%dx
  407178:	74 a6                	je     407120 <___mingw_dirname+0x340>
  40717a:	e9 1e ff ff ff       	jmp    40709d <___mingw_dirname+0x2bd>
  40717f:	66 83 7c 3f 04 00    	cmpw   $0x0,0x4(%edi,%edi,1)
  407185:	0f 85 a5 fd ff ff    	jne    406f30 <___mingw_dirname+0x150>
  40718b:	90                   	nop
  40718c:	8d 74 26 00          	lea    0x0(%esi,%eiz,1),%esi
  407190:	e9 52 ff ff ff       	jmp    4070e7 <___mingw_dirname+0x307>
  407195:	66 83 7d da 5c       	cmpw   $0x5c,-0x26(%ebp)
  40719a:	74 0e                	je     4071aa <___mingw_dirname+0x3ca>
  40719c:	66 83 7d da 2f       	cmpw   $0x2f,-0x26(%ebp)
  4071a1:	8b 45 dc             	mov    -0x24(%ebp),%eax
  4071a4:	0f 85 b4 fe ff ff    	jne    40705e <___mingw_dirname+0x27e>
  4071aa:	8b 45 dc             	mov    -0x24(%ebp),%eax
  4071ad:	0f b7 4d da          	movzwl -0x26(%ebp),%ecx
  4071b1:	66 39 48 02          	cmp    %cx,0x2(%eax)
  4071b5:	0f 85 a3 fe ff ff    	jne    40705e <___mingw_dirname+0x27e>
  4071bb:	0f b7 50 04          	movzwl 0x4(%eax),%edx
  4071bf:	66 83 fa 2f          	cmp    $0x2f,%dx
  4071c3:	0f 84 95 fe ff ff    	je     40705e <___mingw_dirname+0x27e>
  4071c9:	66 83 fa 5c          	cmp    $0x5c,%dx
  4071cd:	89 f8                	mov    %edi,%eax
  4071cf:	0f 85 89 fe ff ff    	jne    40705e <___mingw_dirname+0x27e>
  4071d5:	8b 45 dc             	mov    -0x24(%ebp),%eax
  4071d8:	e9 81 fe ff ff       	jmp    40705e <___mingw_dirname+0x27e>
  4071dd:	90                   	nop
  4071de:	90                   	nop
  4071df:	90                   	nop

004071e0 <_dirent_findnext>:
  4071e0:	55                   	push   %ebp
  4071e1:	89 e5                	mov    %esp,%ebp
  4071e3:	56                   	push   %esi
  4071e4:	89 d6                	mov    %edx,%esi
  4071e6:	53                   	push   %ebx
  4071e7:	81 ec 50 01 00 00    	sub    $0x150,%esp
  4071ed:	8d 95 b8 fe ff ff    	lea    -0x148(%ebp),%edx
  4071f3:	89 54 24 04          	mov    %edx,0x4(%esp)
  4071f7:	89 04 24             	mov    %eax,(%esp)
  4071fa:	e8 41 50 00 00       	call   40c240 <_FindNextFileA@8>
  4071ff:	83 ec 08             	sub    $0x8,%esp
  407202:	85 c0                	test   %eax,%eax
  407204:	89 c3                	mov    %eax,%ebx
  407206:	75 20                	jne    407228 <_dirent_findnext+0x48>
  407208:	e8 13 50 00 00       	call   40c220 <_GetLastError@0>
  40720d:	31 db                	xor    %ebx,%ebx
  40720f:	83 f8 12             	cmp    $0x12,%eax
  407212:	74 0b                	je     40721f <_dirent_findnext+0x3f>
  407214:	e8 67 4f 00 00       	call   40c180 <__errno>
  407219:	c7 00 02 00 00 00    	movl   $0x2,(%eax)
  40721f:	8d 65 f8             	lea    -0x8(%ebp),%esp
  407222:	89 d8                	mov    %ebx,%eax
  407224:	5b                   	pop    %ebx
  407225:	5e                   	pop    %esi
  407226:	5d                   	pop    %ebp
  407227:	c3                   	ret    
  407228:	8d 85 e4 fe ff ff    	lea    -0x11c(%ebp),%eax
  40722e:	89 44 24 0c          	mov    %eax,0xc(%esp)
  407232:	8d 46 0c             	lea    0xc(%esi),%eax
  407235:	c7 44 24 08 48 e1 40 	movl   $0x40e148,0x8(%esp)
  40723c:	00 
  40723d:	c7 44 24 04 04 01 00 	movl   $0x104,0x4(%esp)
  407244:	00 
  407245:	89 04 24             	mov    %eax,(%esp)
  407248:	e8 43 04 00 00       	call   407690 <___mingw_snprintf>
  40724d:	66 89 46 06          	mov    %ax,0x6(%esi)
  407251:	8b 85 b8 fe ff ff    	mov    -0x148(%ebp),%eax
  407257:	24 58                	and    $0x58,%al
  407259:	83 f8 10             	cmp    $0x10,%eax
  40725c:	76 12                	jbe    407270 <_dirent_findnext+0x90>
  40725e:	c7 46 08 18 00 00 00 	movl   $0x18,0x8(%esi)
  407265:	8d 65 f8             	lea    -0x8(%ebp),%esp
  407268:	89 d8                	mov    %ebx,%eax
  40726a:	5b                   	pop    %ebx
  40726b:	5e                   	pop    %esi
  40726c:	5d                   	pop    %ebp
  40726d:	c3                   	ret    
  40726e:	66 90                	xchg   %ax,%ax
  407270:	89 46 08             	mov    %eax,0x8(%esi)
  407273:	8d 65 f8             	lea    -0x8(%ebp),%esp
  407276:	89 d8                	mov    %ebx,%eax
  407278:	5b                   	pop    %ebx
  407279:	5e                   	pop    %esi
  40727a:	5d                   	pop    %ebp
  40727b:	c3                   	ret    
  40727c:	8d 74 26 00          	lea    0x0(%esi,%eiz,1),%esi

00407280 <_dirent_findfirst>:
  407280:	55                   	push   %ebp
  407281:	89 e5                	mov    %esp,%ebp
  407283:	56                   	push   %esi
  407284:	53                   	push   %ebx
  407285:	89 d3                	mov    %edx,%ebx
  407287:	81 ec 50 01 00 00    	sub    $0x150,%esp
  40728d:	8d 95 b8 fe ff ff    	lea    -0x148(%ebp),%edx
  407293:	89 54 24 04          	mov    %edx,0x4(%esp)
  407297:	89 04 24             	mov    %eax,(%esp)
  40729a:	e8 a9 4f 00 00       	call   40c248 <_FindFirstFileA@8>
  40729f:	83 ec 08             	sub    $0x8,%esp
  4072a2:	83 f8 ff             	cmp    $0xffffffff,%eax
  4072a5:	89 c6                	mov    %eax,%esi
  4072a7:	74 4a                	je     4072f3 <_dirent_findfirst+0x73>
  4072a9:	8d 85 e4 fe ff ff    	lea    -0x11c(%ebp),%eax
  4072af:	89 44 24 0c          	mov    %eax,0xc(%esp)
  4072b3:	8d 43 0c             	lea    0xc(%ebx),%eax
  4072b6:	c7 44 24 08 48 e1 40 	movl   $0x40e148,0x8(%esp)
  4072bd:	00 
  4072be:	c7 44 24 04 04 01 00 	movl   $0x104,0x4(%esp)
  4072c5:	00 
  4072c6:	89 04 24             	mov    %eax,(%esp)
  4072c9:	e8 c2 03 00 00       	call   407690 <___mingw_snprintf>
  4072ce:	8b 8d b8 fe ff ff    	mov    -0x148(%ebp),%ecx
  4072d4:	80 e1 58             	and    $0x58,%cl
  4072d7:	83 f9 10             	cmp    $0x10,%ecx
  4072da:	66 89 43 06          	mov    %ax,0x6(%ebx)
  4072de:	89 4b 08             	mov    %ecx,0x8(%ebx)
  4072e1:	76 07                	jbe    4072ea <_dirent_findfirst+0x6a>
  4072e3:	c7 43 08 18 00 00 00 	movl   $0x18,0x8(%ebx)
  4072ea:	8d 65 f8             	lea    -0x8(%ebp),%esp
  4072ed:	89 f0                	mov    %esi,%eax
  4072ef:	5b                   	pop    %ebx
  4072f0:	5e                   	pop    %esi
  4072f1:	5d                   	pop    %ebp
  4072f2:	c3                   	ret    
  4072f3:	e8 88 4e 00 00       	call   40c180 <__errno>
  4072f8:	89 c3                	mov    %eax,%ebx
  4072fa:	e8 21 4f 00 00       	call   40c220 <_GetLastError@0>
  4072ff:	83 f8 03             	cmp    $0x3,%eax
  407302:	89 03                	mov    %eax,(%ebx)
  407304:	74 2a                	je     407330 <_dirent_findfirst+0xb0>
  407306:	e8 75 4e 00 00       	call   40c180 <__errno>
  40730b:	81 38 0b 01 00 00    	cmpl   $0x10b,(%eax)
  407311:	74 2d                	je     407340 <_dirent_findfirst+0xc0>
  407313:	e8 68 4e 00 00       	call   40c180 <__errno>
  407318:	83 38 02             	cmpl   $0x2,(%eax)
  40731b:	74 cd                	je     4072ea <_dirent_findfirst+0x6a>
  40731d:	8d 76 00             	lea    0x0(%esi),%esi
  407320:	e8 5b 4e 00 00       	call   40c180 <__errno>
  407325:	c7 00 16 00 00 00    	movl   $0x16,(%eax)
  40732b:	eb bd                	jmp    4072ea <_dirent_findfirst+0x6a>
  40732d:	8d 76 00             	lea    0x0(%esi),%esi
  407330:	e8 4b 4e 00 00       	call   40c180 <__errno>
  407335:	c7 00 02 00 00 00    	movl   $0x2,(%eax)
  40733b:	eb ad                	jmp    4072ea <_dirent_findfirst+0x6a>
  40733d:	8d 76 00             	lea    0x0(%esi),%esi
  407340:	e8 3b 4e 00 00       	call   40c180 <__errno>
  407345:	c7 00 14 00 00 00    	movl   $0x14,(%eax)
  40734b:	eb 9d                	jmp    4072ea <_dirent_findfirst+0x6a>
  40734d:	8d 76 00             	lea    0x0(%esi),%esi

00407350 <___mingw_opendir>:
  407350:	55                   	push   %ebp
  407351:	57                   	push   %edi
  407352:	56                   	push   %esi
  407353:	53                   	push   %ebx
  407354:	81 ec 2c 01 00 00    	sub    $0x12c,%esp
  40735a:	8b 84 24 40 01 00 00 	mov    0x140(%esp),%eax
  407361:	85 c0                	test   %eax,%eax
  407363:	0f 84 67 01 00 00    	je     4074d0 <___mingw_opendir+0x180>
  407369:	80 38 00             	cmpb   $0x0,(%eax)
  40736c:	0f 84 40 01 00 00    	je     4074b2 <___mingw_opendir+0x162>
  407372:	8d 7c 24 1c          	lea    0x1c(%esp),%edi
  407376:	c7 44 24 08 04 01 00 	movl   $0x104,0x8(%esp)
  40737d:	00 
  40737e:	89 fb                	mov    %edi,%ebx
  407380:	89 44 24 04          	mov    %eax,0x4(%esp)
  407384:	89 3c 24             	mov    %edi,(%esp)
  407387:	e8 14 4e 00 00       	call   40c1a0 <__fullpath>
  40738c:	80 7c 24 1c 00       	cmpb   $0x0,0x1c(%esp)
  407391:	74 5d                	je     4073f0 <___mingw_opendir+0xa0>
  407393:	8b 13                	mov    (%ebx),%edx
  407395:	83 c3 04             	add    $0x4,%ebx
  407398:	8d 82 ff fe fe fe    	lea    -0x1010101(%edx),%eax
  40739e:	f7 d2                	not    %edx
  4073a0:	21 d0                	and    %edx,%eax
  4073a2:	25 80 80 80 80       	and    $0x80808080,%eax
  4073a7:	74 ea                	je     407393 <___mingw_opendir+0x43>
  4073a9:	a9 80 80 00 00       	test   $0x8080,%eax
  4073ae:	0f 84 df 00 00 00    	je     407493 <___mingw_opendir+0x143>
  4073b4:	00 c0                	add    %al,%al
  4073b6:	83 db 03             	sbb    $0x3,%ebx
  4073b9:	29 fb                	sub    %edi,%ebx
  4073bb:	0f b6 44 1c 1b       	movzbl 0x1b(%esp,%ebx,1),%eax
  4073c0:	3c 5c                	cmp    $0x5c,%al
  4073c2:	74 50                	je     407414 <___mingw_opendir+0xc4>
  4073c4:	3c 2f                	cmp    $0x2f,%al
  4073c6:	74 4c                	je     407414 <___mingw_opendir+0xc4>
  4073c8:	b9 5c 00 00 00       	mov    $0x5c,%ecx
  4073cd:	66 89 0c 1f          	mov    %cx,(%edi,%ebx,1)
  4073d1:	89 fb                	mov    %edi,%ebx
  4073d3:	8b 13                	mov    (%ebx),%edx
  4073d5:	83 c3 04             	add    $0x4,%ebx
  4073d8:	8d 82 ff fe fe fe    	lea    -0x1010101(%edx),%eax
  4073de:	f7 d2                	not    %edx
  4073e0:	21 d0                	and    %edx,%eax
  4073e2:	25 80 80 80 80       	and    $0x80808080,%eax
  4073e7:	74 ea                	je     4073d3 <___mingw_opendir+0x83>
  4073e9:	eb 1b                	jmp    407406 <___mingw_opendir+0xb6>
  4073eb:	90                   	nop
  4073ec:	8d 74 26 00          	lea    0x0(%esi,%eiz,1),%esi
  4073f0:	8b 13                	mov    (%ebx),%edx
  4073f2:	83 c3 04             	add    $0x4,%ebx
  4073f5:	8d 82 ff fe fe fe    	lea    -0x1010101(%edx),%eax
  4073fb:	f7 d2                	not    %edx
  4073fd:	21 d0                	and    %edx,%eax
  4073ff:	25 80 80 80 80       	and    $0x80808080,%eax
  407404:	74 ea                	je     4073f0 <___mingw_opendir+0xa0>
  407406:	a9 80 80 00 00       	test   $0x8080,%eax
  40740b:	74 7b                	je     407488 <___mingw_opendir+0x138>
  40740d:	00 c0                	add    %al,%al
  40740f:	83 db 03             	sbb    $0x3,%ebx
  407412:	29 fb                	sub    %edi,%ebx
  407414:	ba 2a 00 00 00       	mov    $0x2a,%edx
  407419:	8d 83 1d 01 00 00    	lea    0x11d(%ebx),%eax
  40741f:	66 89 14 1f          	mov    %dx,(%edi,%ebx,1)
  407423:	89 04 24             	mov    %eax,(%esp)
  407426:	e8 ed 4c 00 00       	call   40c118 <_malloc>
  40742b:	85 c0                	test   %eax,%eax
  40742d:	89 c6                	mov    %eax,%esi
  40742f:	0f 84 8c 00 00 00    	je     4074c1 <___mingw_opendir+0x171>
  407435:	8d a8 18 01 00 00    	lea    0x118(%eax),%ebp
  40743b:	83 c3 02             	add    $0x2,%ebx
  40743e:	89 5c 24 08          	mov    %ebx,0x8(%esp)
  407442:	89 7c 24 04          	mov    %edi,0x4(%esp)
  407446:	89 2c 24             	mov    %ebp,(%esp)
  407449:	e8 0a 4d 00 00       	call   40c158 <_memcpy>
  40744e:	89 f2                	mov    %esi,%edx
  407450:	89 e8                	mov    %ebp,%eax
  407452:	e8 29 fe ff ff       	call   407280 <_dirent_findfirst>
  407457:	83 f8 ff             	cmp    $0xffffffff,%eax
  40745a:	89 86 10 01 00 00    	mov    %eax,0x110(%esi)
  407460:	74 7d                	je     4074df <___mingw_opendir+0x18f>
  407462:	b8 10 01 00 00       	mov    $0x110,%eax
  407467:	66 89 46 04          	mov    %ax,0x4(%esi)
  40746b:	89 f0                	mov    %esi,%eax
  40746d:	c7 86 14 01 00 00 00 	movl   $0x0,0x114(%esi)
  407474:	00 00 00 
  407477:	c7 06 00 00 00 00    	movl   $0x0,(%esi)
  40747d:	81 c4 2c 01 00 00    	add    $0x12c,%esp
  407483:	5b                   	pop    %ebx
  407484:	5e                   	pop    %esi
  407485:	5f                   	pop    %edi
  407486:	5d                   	pop    %ebp
  407487:	c3                   	ret    
  407488:	c1 e8 10             	shr    $0x10,%eax
  40748b:	83 c3 02             	add    $0x2,%ebx
  40748e:	e9 7a ff ff ff       	jmp    40740d <___mingw_opendir+0xbd>
  407493:	c1 e8 10             	shr    $0x10,%eax
  407496:	83 c3 02             	add    $0x2,%ebx
  407499:	00 c0                	add    %al,%al
  40749b:	83 db 03             	sbb    $0x3,%ebx
  40749e:	29 fb                	sub    %edi,%ebx
  4074a0:	0f b6 44 1c 1b       	movzbl 0x1b(%esp,%ebx,1),%eax
  4074a5:	3c 5c                	cmp    $0x5c,%al
  4074a7:	0f 84 67 ff ff ff    	je     407414 <___mingw_opendir+0xc4>
  4074ad:	e9 12 ff ff ff       	jmp    4073c4 <___mingw_opendir+0x74>
  4074b2:	e8 c9 4c 00 00       	call   40c180 <__errno>
  4074b7:	c7 00 02 00 00 00    	movl   $0x2,(%eax)
  4074bd:	31 c0                	xor    %eax,%eax
  4074bf:	eb bc                	jmp    40747d <___mingw_opendir+0x12d>
  4074c1:	e8 ba 4c 00 00       	call   40c180 <__errno>
  4074c6:	c7 00 0c 00 00 00    	movl   $0xc,(%eax)
  4074cc:	31 c0                	xor    %eax,%eax
  4074ce:	eb ad                	jmp    40747d <___mingw_opendir+0x12d>
  4074d0:	e8 ab 4c 00 00       	call   40c180 <__errno>
  4074d5:	c7 00 16 00 00 00    	movl   $0x16,(%eax)
  4074db:	31 c0                	xor    %eax,%eax
  4074dd:	eb 9e                	jmp    40747d <___mingw_opendir+0x12d>
  4074df:	89 34 24             	mov    %esi,(%esp)
  4074e2:	e8 79 4c 00 00       	call   40c160 <_free>
  4074e7:	31 c0                	xor    %eax,%eax
  4074e9:	eb 92                	jmp    40747d <___mingw_opendir+0x12d>
  4074eb:	90                   	nop
  4074ec:	8d 74 26 00          	lea    0x0(%esi,%eiz,1),%esi

004074f0 <___mingw_readdir>:
  4074f0:	53                   	push   %ebx
  4074f1:	83 ec 08             	sub    $0x8,%esp
  4074f4:	8b 5c 24 10          	mov    0x10(%esp),%ebx
  4074f8:	85 db                	test   %ebx,%ebx
  4074fa:	74 2b                	je     407527 <___mingw_readdir+0x37>
  4074fc:	8b 83 14 01 00 00    	mov    0x114(%ebx),%eax
  407502:	8d 50 01             	lea    0x1(%eax),%edx
  407505:	85 c0                	test   %eax,%eax
  407507:	89 93 14 01 00 00    	mov    %edx,0x114(%ebx)
  40750d:	7e 11                	jle    407520 <___mingw_readdir+0x30>
  40750f:	8b 83 10 01 00 00    	mov    0x110(%ebx),%eax
  407515:	89 da                	mov    %ebx,%edx
  407517:	e8 c4 fc ff ff       	call   4071e0 <_dirent_findnext>
  40751c:	85 c0                	test   %eax,%eax
  40751e:	74 02                	je     407522 <___mingw_readdir+0x32>
  407520:	89 d8                	mov    %ebx,%eax
  407522:	83 c4 08             	add    $0x8,%esp
  407525:	5b                   	pop    %ebx
  407526:	c3                   	ret    
  407527:	e8 54 4c 00 00       	call   40c180 <__errno>
  40752c:	c7 00 09 00 00 00    	movl   $0x9,(%eax)
  407532:	31 c0                	xor    %eax,%eax
  407534:	eb ec                	jmp    407522 <___mingw_readdir+0x32>
  407536:	8d 76 00             	lea    0x0(%esi),%esi
  407539:	8d bc 27 00 00 00 00 	lea    0x0(%edi,%eiz,1),%edi

00407540 <___mingw_closedir>:
  407540:	55                   	push   %ebp
  407541:	89 e5                	mov    %esp,%ebp
  407543:	53                   	push   %ebx
  407544:	83 ec 14             	sub    $0x14,%esp
  407547:	8b 5d 08             	mov    0x8(%ebp),%ebx
  40754a:	85 db                	test   %ebx,%ebx
  40754c:	74 24                	je     407572 <___mingw_closedir+0x32>
  40754e:	8b 83 10 01 00 00    	mov    0x110(%ebx),%eax
  407554:	89 04 24             	mov    %eax,(%esp)
  407557:	e8 f4 4c 00 00       	call   40c250 <_FindClose@4>
  40755c:	83 ec 04             	sub    $0x4,%esp
  40755f:	85 c0                	test   %eax,%eax
  407561:	74 0f                	je     407572 <___mingw_closedir+0x32>
  407563:	89 1c 24             	mov    %ebx,(%esp)
  407566:	e8 f5 4b 00 00       	call   40c160 <_free>
  40756b:	31 c0                	xor    %eax,%eax
  40756d:	8b 5d fc             	mov    -0x4(%ebp),%ebx
  407570:	c9                   	leave  
  407571:	c3                   	ret    
  407572:	e8 09 4c 00 00       	call   40c180 <__errno>
  407577:	c7 00 09 00 00 00    	movl   $0x9,(%eax)
  40757d:	b8 ff ff ff ff       	mov    $0xffffffff,%eax
  407582:	eb e9                	jmp    40756d <___mingw_closedir+0x2d>
  407584:	8d b6 00 00 00 00    	lea    0x0(%esi),%esi
  40758a:	8d bf 00 00 00 00    	lea    0x0(%edi),%edi

00407590 <___mingw_rewinddir>:
  407590:	55                   	push   %ebp
  407591:	89 e5                	mov    %esp,%ebp
  407593:	53                   	push   %ebx
  407594:	83 ec 14             	sub    $0x14,%esp
  407597:	8b 5d 08             	mov    0x8(%ebp),%ebx
  40759a:	85 db                	test   %ebx,%ebx
  40759c:	74 15                	je     4075b3 <___mingw_rewinddir+0x23>
  40759e:	8b 83 10 01 00 00    	mov    0x110(%ebx),%eax
  4075a4:	89 04 24             	mov    %eax,(%esp)
  4075a7:	e8 a4 4c 00 00       	call   40c250 <_FindClose@4>
  4075ac:	83 ec 04             	sub    $0x4,%esp
  4075af:	85 c0                	test   %eax,%eax
  4075b1:	75 10                	jne    4075c3 <___mingw_rewinddir+0x33>
  4075b3:	e8 c8 4b 00 00       	call   40c180 <__errno>
  4075b8:	c7 00 09 00 00 00    	movl   $0x9,(%eax)
  4075be:	8b 5d fc             	mov    -0x4(%ebp),%ebx
  4075c1:	c9                   	leave  
  4075c2:	c3                   	ret    
  4075c3:	8d 83 18 01 00 00    	lea    0x118(%ebx),%eax
  4075c9:	89 da                	mov    %ebx,%edx
  4075cb:	e8 b0 fc ff ff       	call   407280 <_dirent_findfirst>
  4075d0:	83 f8 ff             	cmp    $0xffffffff,%eax
  4075d3:	89 83 10 01 00 00    	mov    %eax,0x110(%ebx)
  4075d9:	74 e3                	je     4075be <___mingw_rewinddir+0x2e>
  4075db:	c7 83 14 01 00 00 00 	movl   $0x0,0x114(%ebx)
  4075e2:	00 00 00 
  4075e5:	8b 5d fc             	mov    -0x4(%ebp),%ebx
  4075e8:	c9                   	leave  
  4075e9:	c3                   	ret    
  4075ea:	8d b6 00 00 00 00    	lea    0x0(%esi),%esi

004075f0 <___mingw_telldir>:
  4075f0:	83 ec 0c             	sub    $0xc,%esp
  4075f3:	8b 44 24 10          	mov    0x10(%esp),%eax
  4075f7:	85 c0                	test   %eax,%eax
  4075f9:	74 0a                	je     407605 <___mingw_telldir+0x15>
  4075fb:	8b 80 14 01 00 00    	mov    0x114(%eax),%eax
  407601:	83 c4 0c             	add    $0xc,%esp
  407604:	c3                   	ret    
  407605:	e8 76 4b 00 00       	call   40c180 <__errno>
  40760a:	c7 00 09 00 00 00    	movl   $0x9,(%eax)
  407610:	b8 ff ff ff ff       	mov    $0xffffffff,%eax
  407615:	eb ea                	jmp    407601 <___mingw_telldir+0x11>
  407617:	89 f6                	mov    %esi,%esi
  407619:	8d bc 27 00 00 00 00 	lea    0x0(%edi,%eiz,1),%edi

00407620 <___mingw_seekdir>:
  407620:	56                   	push   %esi
  407621:	53                   	push   %ebx
  407622:	83 ec 14             	sub    $0x14,%esp
  407625:	8b 74 24 24          	mov    0x24(%esp),%esi
  407629:	8b 5c 24 20          	mov    0x20(%esp),%ebx
  40762d:	85 f6                	test   %esi,%esi
  40762f:	78 41                	js     407672 <___mingw_seekdir+0x52>
  407631:	89 1c 24             	mov    %ebx,(%esp)
  407634:	e8 57 ff ff ff       	call   407590 <___mingw_rewinddir>
  407639:	85 f6                	test   %esi,%esi
  40763b:	74 2f                	je     40766c <___mingw_seekdir+0x4c>
  40763d:	83 bb 10 01 00 00 ff 	cmpl   $0xffffffff,0x110(%ebx)
  407644:	75 13                	jne    407659 <___mingw_seekdir+0x39>
  407646:	eb 24                	jmp    40766c <___mingw_seekdir+0x4c>
  407648:	8b 83 10 01 00 00    	mov    0x110(%ebx),%eax
  40764e:	89 da                	mov    %ebx,%edx
  407650:	e8 8b fb ff ff       	call   4071e0 <_dirent_findnext>
  407655:	85 c0                	test   %eax,%eax
  407657:	74 13                	je     40766c <___mingw_seekdir+0x4c>
  407659:	8b 83 14 01 00 00    	mov    0x114(%ebx),%eax
  40765f:	83 c0 01             	add    $0x1,%eax
  407662:	39 c6                	cmp    %eax,%esi
  407664:	89 83 14 01 00 00    	mov    %eax,0x114(%ebx)
  40766a:	7f dc                	jg     407648 <___mingw_seekdir+0x28>
  40766c:	83 c4 14             	add    $0x14,%esp
  40766f:	5b                   	pop    %ebx
  407670:	5e                   	pop    %esi
  407671:	c3                   	ret    
  407672:	e8 09 4b 00 00       	call   40c180 <__errno>
  407677:	c7 00 16 00 00 00    	movl   $0x16,(%eax)
  40767d:	83 c4 14             	add    $0x14,%esp
  407680:	5b                   	pop    %ebx
  407681:	5e                   	pop    %esi
  407682:	c3                   	ret    
  407683:	90                   	nop
  407684:	90                   	nop
  407685:	90                   	nop
  407686:	90                   	nop
  407687:	90                   	nop
  407688:	90                   	nop
  407689:	90                   	nop
  40768a:	90                   	nop
  40768b:	90                   	nop
  40768c:	90                   	nop
  40768d:	90                   	nop
  40768e:	90                   	nop
  40768f:	90                   	nop

00407690 <___mingw_snprintf>:
  407690:	83 ec 1c             	sub    $0x1c,%esp
  407693:	8d 44 24 2c          	lea    0x2c(%esp),%eax
  407697:	89 44 24 0c          	mov    %eax,0xc(%esp)
  40769b:	8b 44 24 28          	mov    0x28(%esp),%eax
  40769f:	89 44 24 08          	mov    %eax,0x8(%esp)
  4076a3:	8b 44 24 24          	mov    0x24(%esp),%eax
  4076a7:	89 44 24 04          	mov    %eax,0x4(%esp)
  4076ab:	8b 44 24 20          	mov    0x20(%esp),%eax
  4076af:	89 04 24             	mov    %eax,(%esp)
  4076b2:	e8 09 00 00 00       	call   4076c0 <___mingw_vsnprintf>
  4076b7:	83 c4 1c             	add    $0x1c,%esp
  4076ba:	c3                   	ret    
  4076bb:	90                   	nop
  4076bc:	90                   	nop
  4076bd:	90                   	nop
  4076be:	90                   	nop
  4076bf:	90                   	nop

004076c0 <___mingw_vsnprintf>:
  4076c0:	56                   	push   %esi
  4076c1:	53                   	push   %ebx
  4076c2:	83 ec 24             	sub    $0x24,%esp
  4076c5:	8b 44 24 34          	mov    0x34(%esp),%eax
  4076c9:	8b 5c 24 30          	mov    0x30(%esp),%ebx
  4076cd:	8b 54 24 38          	mov    0x38(%esp),%edx
  4076d1:	8b 4c 24 3c          	mov    0x3c(%esp),%ecx
  4076d5:	85 c0                	test   %eax,%eax
  4076d7:	74 37                	je     407710 <___mingw_vsnprintf+0x50>
  4076d9:	8d 70 ff             	lea    -0x1(%eax),%esi
  4076dc:	89 54 24 0c          	mov    %edx,0xc(%esp)
  4076e0:	89 4c 24 10          	mov    %ecx,0x10(%esp)
  4076e4:	89 74 24 08          	mov    %esi,0x8(%esp)
  4076e8:	89 5c 24 04          	mov    %ebx,0x4(%esp)
  4076ec:	c7 04 24 00 00 00 00 	movl   $0x0,(%esp)
  4076f3:	e8 e8 15 00 00       	call   408ce0 <___mingw_pformat>
  4076f8:	39 f0                	cmp    %esi,%eax
  4076fa:	89 c2                	mov    %eax,%edx
  4076fc:	77 0a                	ja     407708 <___mingw_vsnprintf+0x48>
  4076fe:	c6 04 13 00          	movb   $0x0,(%ebx,%edx,1)
  407702:	83 c4 24             	add    $0x24,%esp
  407705:	5b                   	pop    %ebx
  407706:	5e                   	pop    %esi
  407707:	c3                   	ret    
  407708:	89 f2                	mov    %esi,%edx
  40770a:	eb f2                	jmp    4076fe <___mingw_vsnprintf+0x3e>
  40770c:	8d 74 26 00          	lea    0x0(%esi,%eiz,1),%esi
  407710:	89 5c 24 04          	mov    %ebx,0x4(%esp)
  407714:	89 4c 24 10          	mov    %ecx,0x10(%esp)
  407718:	89 54 24 0c          	mov    %edx,0xc(%esp)
  40771c:	c7 44 24 08 00 00 00 	movl   $0x0,0x8(%esp)
  407723:	00 
  407724:	c7 04 24 00 00 00 00 	movl   $0x0,(%esp)
  40772b:	e8 b0 15 00 00       	call   408ce0 <___mingw_pformat>
  407730:	83 c4 24             	add    $0x24,%esp
  407733:	5b                   	pop    %ebx
  407734:	5e                   	pop    %esi
  407735:	c3                   	ret    
  407736:	90                   	nop
  407737:	90                   	nop
  407738:	90                   	nop
  407739:	90                   	nop
  40773a:	90                   	nop
  40773b:	90                   	nop
  40773c:	90                   	nop
  40773d:	90                   	nop
  40773e:	90                   	nop
  40773f:	90                   	nop

00407740 <___pformat_cvt>:
  407740:	53                   	push   %ebx
  407741:	89 c1                	mov    %eax,%ecx
  407743:	83 ec 48             	sub    $0x48,%esp
  407746:	8b 44 24 50          	mov    0x50(%esp),%eax
  40774a:	89 44 24 20          	mov    %eax,0x20(%esp)
  40774e:	8b 44 24 54          	mov    0x54(%esp),%eax
  407752:	89 44 24 24          	mov    %eax,0x24(%esp)
  407756:	8b 44 24 58          	mov    0x58(%esp),%eax
  40775a:	89 44 24 28          	mov    %eax,0x28(%esp)
  40775e:	8b 44 24 5c          	mov    0x5c(%esp),%eax
  407762:	db 6c 24 20          	fldt   0x20(%esp)
  407766:	89 44 24 2c          	mov    %eax,0x2c(%esp)
  40776a:	d9 e5                	fxam   
  40776c:	9b df e0             	fstsw  %ax
  40776f:	dd d8                	fstp   %st(0)
  407771:	f6 c4 01             	test   $0x1,%ah
  407774:	74 1a                	je     407790 <___pformat_cvt+0x50>
  407776:	f6 c4 04             	test   $0x4,%ah
  407779:	0f 84 91 00 00 00    	je     407810 <___pformat_cvt+0xd0>
  40777f:	c7 44 24 38 03 00 00 	movl   $0x3,0x38(%esp)
  407786:	00 
  407787:	0f b7 54 24 28       	movzwl 0x28(%esp),%edx
  40778c:	31 c0                	xor    %eax,%eax
  40778e:	eb 14                	jmp    4077a4 <___pformat_cvt+0x64>
  407790:	f6 c4 04             	test   $0x4,%ah
  407793:	75 5c                	jne    4077f1 <___pformat_cvt+0xb1>
  407795:	0f b7 54 24 28       	movzwl 0x28(%esp),%edx
  40779a:	31 c0                	xor    %eax,%eax
  40779c:	c7 44 24 38 00 00 00 	movl   $0x0,0x38(%esp)
  4077a3:	00 
  4077a4:	81 e2 00 80 00 00    	and    $0x8000,%edx
  4077aa:	8b 5c 24 68          	mov    0x68(%esp),%ebx
  4077ae:	89 13                	mov    %edx,(%ebx)
  4077b0:	8d 54 24 3c          	lea    0x3c(%esp),%edx
  4077b4:	89 54 24 1c          	mov    %edx,0x1c(%esp)
  4077b8:	8b 54 24 64          	mov    0x64(%esp),%edx
  4077bc:	89 4c 24 10          	mov    %ecx,0x10(%esp)
  4077c0:	89 44 24 04          	mov    %eax,0x4(%esp)
  4077c4:	c7 04 24 44 d8 40 00 	movl   $0x40d844,(%esp)
  4077cb:	89 54 24 18          	mov    %edx,0x18(%esp)
  4077cf:	8b 54 24 60          	mov    0x60(%esp),%edx
  4077d3:	89 54 24 14          	mov    %edx,0x14(%esp)
  4077d7:	8d 54 24 38          	lea    0x38(%esp),%edx
  4077db:	89 54 24 0c          	mov    %edx,0xc(%esp)
  4077df:	8d 54 24 20          	lea    0x20(%esp),%edx
  4077e3:	89 54 24 08          	mov    %edx,0x8(%esp)
  4077e7:	e8 64 1e 00 00       	call   409650 <___gdtoa>
  4077ec:	83 c4 48             	add    $0x48,%esp
  4077ef:	5b                   	pop    %ebx
  4077f0:	c3                   	ret    
  4077f1:	f6 c4 40             	test   $0x40,%ah
  4077f4:	74 2a                	je     407820 <___pformat_cvt+0xe0>
  4077f6:	c7 44 24 38 02 00 00 	movl   $0x2,0x38(%esp)
  4077fd:	00 
  4077fe:	0f b7 54 24 28       	movzwl 0x28(%esp),%edx
  407803:	b8 c3 bf ff ff       	mov    $0xffffbfc3,%eax
  407808:	eb 9a                	jmp    4077a4 <___pformat_cvt+0x64>
  40780a:	8d b6 00 00 00 00    	lea    0x0(%esi),%esi
  407810:	c7 44 24 38 04 00 00 	movl   $0x4,0x38(%esp)
  407817:	00 
  407818:	31 c0                	xor    %eax,%eax
  40781a:	31 d2                	xor    %edx,%edx
  40781c:	eb 8c                	jmp    4077aa <___pformat_cvt+0x6a>
  40781e:	66 90                	xchg   %ax,%ax
  407820:	0f b7 54 24 28       	movzwl 0x28(%esp),%edx
  407825:	c7 44 24 38 01 00 00 	movl   $0x1,0x38(%esp)
  40782c:	00 
  40782d:	89 d0                	mov    %edx,%eax
  40782f:	25 ff 7f 00 00       	and    $0x7fff,%eax
  407834:	2d 3e 40 00 00       	sub    $0x403e,%eax
  407839:	e9 66 ff ff ff       	jmp    4077a4 <___pformat_cvt+0x64>
  40783e:	66 90                	xchg   %ax,%ax

00407840 <___pformat_putc>:
  407840:	53                   	push   %ebx
  407841:	83 ec 18             	sub    $0x18,%esp
  407844:	8b 4a 04             	mov    0x4(%edx),%ecx
  407847:	f6 c5 20             	test   $0x20,%ch
  40784a:	75 08                	jne    407854 <___pformat_putc+0x14>
  40784c:	8b 5a 18             	mov    0x18(%edx),%ebx
  40784f:	39 5a 1c             	cmp    %ebx,0x1c(%edx)
  407852:	7e 10                	jle    407864 <___pformat_putc+0x24>
  407854:	80 e5 10             	and    $0x10,%ch
  407857:	75 17                	jne    407870 <___pformat_putc+0x30>
  407859:	8b 1a                	mov    (%edx),%ebx
  40785b:	8b 4a 18             	mov    0x18(%edx),%ecx
  40785e:	88 04 0b             	mov    %al,(%ebx,%ecx,1)
  407861:	8b 5a 18             	mov    0x18(%edx),%ebx
  407864:	83 c3 01             	add    $0x1,%ebx
  407867:	89 5a 18             	mov    %ebx,0x18(%edx)
  40786a:	83 c4 18             	add    $0x18,%esp
  40786d:	5b                   	pop    %ebx
  40786e:	c3                   	ret    
  40786f:	90                   	nop
  407870:	8b 0a                	mov    (%edx),%ecx
  407872:	89 04 24             	mov    %eax,(%esp)
  407875:	89 54 24 0c          	mov    %edx,0xc(%esp)
  407879:	89 4c 24 04          	mov    %ecx,0x4(%esp)
  40787d:	e8 26 49 00 00       	call   40c1a8 <_fputc>
  407882:	8b 54 24 0c          	mov    0xc(%esp),%edx
  407886:	8b 5a 18             	mov    0x18(%edx),%ebx
  407889:	83 c3 01             	add    $0x1,%ebx
  40788c:	89 5a 18             	mov    %ebx,0x18(%edx)
  40788f:	83 c4 18             	add    $0x18,%esp
  407892:	5b                   	pop    %ebx
  407893:	c3                   	ret    
  407894:	8d b6 00 00 00 00    	lea    0x0(%esi),%esi
  40789a:	8d bf 00 00 00 00    	lea    0x0(%edi),%edi

004078a0 <___pformat_wputchars>:
  4078a0:	55                   	push   %ebp
  4078a1:	57                   	push   %edi
  4078a2:	56                   	push   %esi
  4078a3:	89 d6                	mov    %edx,%esi
  4078a5:	53                   	push   %ebx
  4078a6:	89 cb                	mov    %ecx,%ebx
  4078a8:	83 ec 4c             	sub    $0x4c,%esp
  4078ab:	89 44 24 18          	mov    %eax,0x18(%esp)
  4078af:	8d 6c 24 30          	lea    0x30(%esp),%ebp
  4078b3:	8d 44 24 2c          	lea    0x2c(%esp),%eax
  4078b7:	89 44 24 08          	mov    %eax,0x8(%esp)
  4078bb:	c7 44 24 04 00 00 00 	movl   $0x0,0x4(%esp)
  4078c2:	00 
  4078c3:	89 2c 24             	mov    %ebp,(%esp)
  4078c6:	e8 b5 32 00 00       	call   40ab80 <_wcrtomb>
  4078cb:	8b 43 0c             	mov    0xc(%ebx),%eax
  4078ce:	85 c0                	test   %eax,%eax
  4078d0:	78 08                	js     4078da <___pformat_wputchars+0x3a>
  4078d2:	39 c6                	cmp    %eax,%esi
  4078d4:	0f 8f c7 00 00 00    	jg     4079a1 <___pformat_wputchars+0x101>
  4078da:	8b 43 08             	mov    0x8(%ebx),%eax
  4078dd:	39 c6                	cmp    %eax,%esi
  4078df:	0f 8d 8c 00 00 00    	jge    407971 <___pformat_wputchars+0xd1>
  4078e5:	29 f0                	sub    %esi,%eax
  4078e7:	85 c0                	test   %eax,%eax
  4078e9:	89 43 08             	mov    %eax,0x8(%ebx)
  4078ec:	7e 0a                	jle    4078f8 <___pformat_wputchars+0x58>
  4078ee:	f6 43 05 04          	testb  $0x4,0x5(%ebx)
  4078f2:	0f 84 85 00 00 00    	je     40797d <___pformat_wputchars+0xdd>
  4078f8:	89 74 24 1c          	mov    %esi,0x1c(%esp)
  4078fc:	8d 74 26 00          	lea    0x0(%esi,%eiz,1),%esi
  407900:	8b 44 24 1c          	mov    0x1c(%esp),%eax
  407904:	85 c0                	test   %eax,%eax
  407906:	7e 54                	jle    40795c <___pformat_wputchars+0xbc>
  407908:	83 44 24 18 02       	addl   $0x2,0x18(%esp)
  40790d:	8d 44 24 2c          	lea    0x2c(%esp),%eax
  407911:	89 44 24 08          	mov    %eax,0x8(%esp)
  407915:	8b 44 24 18          	mov    0x18(%esp),%eax
  407919:	0f b7 40 fe          	movzwl -0x2(%eax),%eax
  40791d:	89 2c 24             	mov    %ebp,(%esp)
  407920:	89 44 24 04          	mov    %eax,0x4(%esp)
  407924:	e8 57 32 00 00       	call   40ab80 <_wcrtomb>
  407929:	85 c0                	test   %eax,%eax
  40792b:	7e 2f                	jle    40795c <___pformat_wputchars+0xbc>
  40792d:	8d 74 05 00          	lea    0x0(%ebp,%eax,1),%esi
  407931:	89 ef                	mov    %ebp,%edi
  407933:	83 c7 01             	add    $0x1,%edi
  407936:	0f be 47 ff          	movsbl -0x1(%edi),%eax
  40793a:	89 da                	mov    %ebx,%edx
  40793c:	e8 ff fe ff ff       	call   407840 <___pformat_putc>
  407941:	39 f7                	cmp    %esi,%edi
  407943:	75 ee                	jne    407933 <___pformat_wputchars+0x93>
  407945:	83 6c 24 1c 01       	subl   $0x1,0x1c(%esp)
  40794a:	eb b4                	jmp    407900 <___pformat_wputchars+0x60>
  40794c:	8d 74 26 00          	lea    0x0(%esi,%eiz,1),%esi
  407950:	89 da                	mov    %ebx,%edx
  407952:	b8 20 00 00 00       	mov    $0x20,%eax
  407957:	e8 e4 fe ff ff       	call   407840 <___pformat_putc>
  40795c:	8b 43 08             	mov    0x8(%ebx),%eax
  40795f:	8d 50 ff             	lea    -0x1(%eax),%edx
  407962:	85 c0                	test   %eax,%eax
  407964:	89 53 08             	mov    %edx,0x8(%ebx)
  407967:	7f e7                	jg     407950 <___pformat_wputchars+0xb0>
  407969:	83 c4 4c             	add    $0x4c,%esp
  40796c:	5b                   	pop    %ebx
  40796d:	5e                   	pop    %esi
  40796e:	5f                   	pop    %edi
  40796f:	5d                   	pop    %ebp
  407970:	c3                   	ret    
  407971:	c7 43 08 ff ff ff ff 	movl   $0xffffffff,0x8(%ebx)
  407978:	e9 7b ff ff ff       	jmp    4078f8 <___pformat_wputchars+0x58>
  40797d:	83 e8 01             	sub    $0x1,%eax
  407980:	89 43 08             	mov    %eax,0x8(%ebx)
  407983:	89 da                	mov    %ebx,%edx
  407985:	b8 20 00 00 00       	mov    $0x20,%eax
  40798a:	e8 b1 fe ff ff       	call   407840 <___pformat_putc>
  40798f:	8b 43 08             	mov    0x8(%ebx),%eax
  407992:	8d 50 ff             	lea    -0x1(%eax),%edx
  407995:	85 c0                	test   %eax,%eax
  407997:	89 53 08             	mov    %edx,0x8(%ebx)
  40799a:	75 e7                	jne    407983 <___pformat_wputchars+0xe3>
  40799c:	e9 57 ff ff ff       	jmp    4078f8 <___pformat_wputchars+0x58>
  4079a1:	89 c6                	mov    %eax,%esi
  4079a3:	e9 32 ff ff ff       	jmp    4078da <___pformat_wputchars+0x3a>
  4079a8:	90                   	nop
  4079a9:	8d b4 26 00 00 00 00 	lea    0x0(%esi,%eiz,1),%esi

004079b0 <___pformat_putchars>:
  4079b0:	57                   	push   %edi
  4079b1:	89 c7                	mov    %eax,%edi
  4079b3:	8b 41 0c             	mov    0xc(%ecx),%eax
  4079b6:	56                   	push   %esi
  4079b7:	89 d6                	mov    %edx,%esi
  4079b9:	53                   	push   %ebx
  4079ba:	89 cb                	mov    %ecx,%ebx
  4079bc:	85 c0                	test   %eax,%eax
  4079be:	78 08                	js     4079c8 <___pformat_putchars+0x18>
  4079c0:	39 c2                	cmp    %eax,%edx
  4079c2:	0f 8f 88 00 00 00    	jg     407a50 <___pformat_putchars+0xa0>
  4079c8:	8b 43 08             	mov    0x8(%ebx),%eax
  4079cb:	39 c6                	cmp    %eax,%esi
  4079cd:	7d 71                	jge    407a40 <___pformat_putchars+0x90>
  4079cf:	29 f0                	sub    %esi,%eax
  4079d1:	85 c0                	test   %eax,%eax
  4079d3:	89 43 08             	mov    %eax,0x8(%ebx)
  4079d6:	7e 25                	jle    4079fd <___pformat_putchars+0x4d>
  4079d8:	f6 43 05 04          	testb  $0x4,0x5(%ebx)
  4079dc:	75 1f                	jne    4079fd <___pformat_putchars+0x4d>
  4079de:	83 e8 01             	sub    $0x1,%eax
  4079e1:	89 43 08             	mov    %eax,0x8(%ebx)
  4079e4:	89 da                	mov    %ebx,%edx
  4079e6:	b8 20 00 00 00       	mov    $0x20,%eax
  4079eb:	e8 50 fe ff ff       	call   407840 <___pformat_putc>
  4079f0:	8b 43 08             	mov    0x8(%ebx),%eax
  4079f3:	8d 50 ff             	lea    -0x1(%eax),%edx
  4079f6:	85 c0                	test   %eax,%eax
  4079f8:	89 53 08             	mov    %edx,0x8(%ebx)
  4079fb:	75 e7                	jne    4079e4 <___pformat_putchars+0x34>
  4079fd:	85 f6                	test   %esi,%esi
  4079ff:	74 2c                	je     407a2d <___pformat_putchars+0x7d>
  407a01:	83 c7 01             	add    $0x1,%edi
  407a04:	0f be 47 ff          	movsbl -0x1(%edi),%eax
  407a08:	89 da                	mov    %ebx,%edx
  407a0a:	e8 31 fe ff ff       	call   407840 <___pformat_putc>
  407a0f:	83 ee 01             	sub    $0x1,%esi
  407a12:	75 ed                	jne    407a01 <___pformat_putchars+0x51>
  407a14:	8b 43 08             	mov    0x8(%ebx),%eax
  407a17:	8d 50 ff             	lea    -0x1(%eax),%edx
  407a1a:	85 c0                	test   %eax,%eax
  407a1c:	89 53 08             	mov    %edx,0x8(%ebx)
  407a1f:	7e 19                	jle    407a3a <___pformat_putchars+0x8a>
  407a21:	89 da                	mov    %ebx,%edx
  407a23:	b8 20 00 00 00       	mov    $0x20,%eax
  407a28:	e8 13 fe ff ff       	call   407840 <___pformat_putc>
  407a2d:	8b 43 08             	mov    0x8(%ebx),%eax
  407a30:	8d 50 ff             	lea    -0x1(%eax),%edx
  407a33:	85 c0                	test   %eax,%eax
  407a35:	89 53 08             	mov    %edx,0x8(%ebx)
  407a38:	7f e7                	jg     407a21 <___pformat_putchars+0x71>
  407a3a:	5b                   	pop    %ebx
  407a3b:	5e                   	pop    %esi
  407a3c:	5f                   	pop    %edi
  407a3d:	c3                   	ret    
  407a3e:	66 90                	xchg   %ax,%ax
  407a40:	c7 43 08 ff ff ff ff 	movl   $0xffffffff,0x8(%ebx)
  407a47:	eb b4                	jmp    4079fd <___pformat_putchars+0x4d>
  407a49:	8d b4 26 00 00 00 00 	lea    0x0(%esi,%eiz,1),%esi
  407a50:	89 c6                	mov    %eax,%esi
  407a52:	e9 71 ff ff ff       	jmp    4079c8 <___pformat_putchars+0x18>
  407a57:	89 f6                	mov    %esi,%esi
  407a59:	8d bc 27 00 00 00 00 	lea    0x0(%edi,%eiz,1),%edi

00407a60 <___pformat_emit_inf_or_nan>:
  407a60:	55                   	push   %ebp
  407a61:	57                   	push   %edi
  407a62:	56                   	push   %esi
  407a63:	53                   	push   %ebx
  407a64:	83 ec 1c             	sub    $0x1c,%esp
  407a67:	85 c0                	test   %eax,%eax
  407a69:	c7 41 0c ff ff ff ff 	movl   $0xffffffff,0xc(%ecx)
  407a70:	74 3e                	je     407ab0 <___pformat_emit_inf_or_nan+0x50>
  407a72:	8b 69 04             	mov    0x4(%ecx),%ebp
  407a75:	8d 7c 24 0d          	lea    0xd(%esp),%edi
  407a79:	c6 44 24 0c 2d       	movb   $0x2d,0xc(%esp)
  407a7e:	8d 44 24 0c          	lea    0xc(%esp),%eax
  407a82:	83 e5 20             	and    $0x20,%ebp
  407a85:	31 f6                	xor    %esi,%esi
  407a87:	0f b6 1c 32          	movzbl (%edx,%esi,1),%ebx
  407a8b:	83 e3 df             	and    $0xffffffdf,%ebx
  407a8e:	09 eb                	or     %ebp,%ebx
  407a90:	88 1c 37             	mov    %bl,(%edi,%esi,1)
  407a93:	83 c6 01             	add    $0x1,%esi
  407a96:	83 fe 03             	cmp    $0x3,%esi
  407a99:	75 ec                	jne    407a87 <___pformat_emit_inf_or_nan+0x27>
  407a9b:	8d 57 03             	lea    0x3(%edi),%edx
  407a9e:	29 c2                	sub    %eax,%edx
  407aa0:	e8 0b ff ff ff       	call   4079b0 <___pformat_putchars>
  407aa5:	83 c4 1c             	add    $0x1c,%esp
  407aa8:	5b                   	pop    %ebx
  407aa9:	5e                   	pop    %esi
  407aaa:	5f                   	pop    %edi
  407aab:	5d                   	pop    %ebp
  407aac:	c3                   	ret    
  407aad:	8d 76 00             	lea    0x0(%esi),%esi
  407ab0:	8b 69 04             	mov    0x4(%ecx),%ebp
  407ab3:	f7 c5 00 01 00 00    	test   $0x100,%ebp
  407ab9:	74 15                	je     407ad0 <___pformat_emit_inf_or_nan+0x70>
  407abb:	c6 44 24 0c 2b       	movb   $0x2b,0xc(%esp)
  407ac0:	8d 7c 24 0d          	lea    0xd(%esp),%edi
  407ac4:	8d 44 24 0c          	lea    0xc(%esp),%eax
  407ac8:	eb b8                	jmp    407a82 <___pformat_emit_inf_or_nan+0x22>
  407aca:	8d b6 00 00 00 00    	lea    0x0(%esi),%esi
  407ad0:	f7 c5 40 00 00 00    	test   $0x40,%ebp
  407ad6:	74 0f                	je     407ae7 <___pformat_emit_inf_or_nan+0x87>
  407ad8:	c6 44 24 0c 20       	movb   $0x20,0xc(%esp)
  407add:	8d 7c 24 0d          	lea    0xd(%esp),%edi
  407ae1:	8d 44 24 0c          	lea    0xc(%esp),%eax
  407ae5:	eb 9b                	jmp    407a82 <___pformat_emit_inf_or_nan+0x22>
  407ae7:	8d 44 24 0c          	lea    0xc(%esp),%eax
  407aeb:	89 c7                	mov    %eax,%edi
  407aed:	eb 93                	jmp    407a82 <___pformat_emit_inf_or_nan+0x22>
  407aef:	90                   	nop

00407af0 <___pformat_int>:
  407af0:	55                   	push   %ebp
  407af1:	89 e5                	mov    %esp,%ebp
  407af3:	57                   	push   %edi
  407af4:	89 d7                	mov    %edx,%edi
  407af6:	56                   	push   %esi
  407af7:	89 c6                	mov    %eax,%esi
  407af9:	53                   	push   %ebx
  407afa:	89 cb                	mov    %ecx,%ebx
  407afc:	83 ec 2c             	sub    $0x2c,%esp
  407aff:	89 55 dc             	mov    %edx,-0x24(%ebp)
  407b02:	8b 51 0c             	mov    0xc(%ecx),%edx
  407b05:	89 45 d8             	mov    %eax,-0x28(%ebp)
  407b08:	8b 49 08             	mov    0x8(%ecx),%ecx
  407b0b:	89 d0                	mov    %edx,%eax
  407b0d:	c1 f8 1f             	sar    $0x1f,%eax
  407b10:	f7 d0                	not    %eax
  407b12:	21 d0                	and    %edx,%eax
  407b14:	83 c0 17             	add    $0x17,%eax
  407b17:	39 c8                	cmp    %ecx,%eax
  407b19:	7d 02                	jge    407b1d <___pformat_int+0x2d>
  407b1b:	89 c8                	mov    %ecx,%eax
  407b1d:	83 c0 0f             	add    $0xf,%eax
  407b20:	83 e0 f0             	and    $0xfffffff0,%eax
  407b23:	e8 a8 e5 ff ff       	call   4060d0 <___chkstk_ms>
  407b28:	29 c4                	sub    %eax,%esp
  407b2a:	8d 44 24 10          	lea    0x10(%esp),%eax
  407b2e:	89 45 e4             	mov    %eax,-0x1c(%ebp)
  407b31:	8b 43 04             	mov    0x4(%ebx),%eax
  407b34:	a8 80                	test   $0x80,%al
  407b36:	74 0d                	je     407b45 <___pformat_int+0x55>
  407b38:	85 ff                	test   %edi,%edi
  407b3a:	0f 88 b0 01 00 00    	js     407cf0 <___pformat_int+0x200>
  407b40:	24 7f                	and    $0x7f,%al
  407b42:	89 43 04             	mov    %eax,0x4(%ebx)
  407b45:	8b 4d dc             	mov    -0x24(%ebp),%ecx
  407b48:	8b 7d d8             	mov    -0x28(%ebp),%edi
  407b4b:	8b 75 e4             	mov    -0x1c(%ebp),%esi
  407b4e:	89 c8                	mov    %ecx,%eax
  407b50:	09 f8                	or     %edi,%eax
  407b52:	74 5d                	je     407bb1 <___pformat_int+0xc1>
  407b54:	89 5d d8             	mov    %ebx,-0x28(%ebp)
  407b57:	89 cb                	mov    %ecx,%ebx
  407b59:	8d b4 26 00 00 00 00 	lea    0x0(%esi,%eiz,1),%esi
  407b60:	89 3c 24             	mov    %edi,(%esp)
  407b63:	83 c6 01             	add    $0x1,%esi
  407b66:	89 5c 24 04          	mov    %ebx,0x4(%esp)
  407b6a:	c7 44 24 08 0a 00 00 	movl   $0xa,0x8(%esp)
  407b71:	00 
  407b72:	c7 44 24 0c 00 00 00 	movl   $0x0,0xc(%esp)
  407b79:	00 
  407b7a:	e8 01 47 00 00       	call   40c280 <___umoddi3>
  407b7f:	83 c0 30             	add    $0x30,%eax
  407b82:	88 46 ff             	mov    %al,-0x1(%esi)
  407b85:	89 3c 24             	mov    %edi,(%esp)
  407b88:	89 5c 24 04          	mov    %ebx,0x4(%esp)
  407b8c:	c7 44 24 08 0a 00 00 	movl   $0xa,0x8(%esp)
  407b93:	00 
  407b94:	c7 44 24 0c 00 00 00 	movl   $0x0,0xc(%esp)
  407b9b:	00 
  407b9c:	e8 2f 48 00 00       	call   40c3d0 <___udivdi3>
  407ba1:	89 c7                	mov    %eax,%edi
  407ba3:	89 d0                	mov    %edx,%eax
  407ba5:	09 f8                	or     %edi,%eax
  407ba7:	89 d3                	mov    %edx,%ebx
  407ba9:	75 b5                	jne    407b60 <___pformat_int+0x70>
  407bab:	8b 5d d8             	mov    -0x28(%ebp),%ebx
  407bae:	8b 53 0c             	mov    0xc(%ebx),%edx
  407bb1:	85 d2                	test   %edx,%edx
  407bb3:	89 f7                	mov    %esi,%edi
  407bb5:	7e 19                	jle    407bd0 <___pformat_int+0xe0>
  407bb7:	8b 45 e4             	mov    -0x1c(%ebp),%eax
  407bba:	29 f0                	sub    %esi,%eax
  407bbc:	01 c2                	add    %eax,%edx
  407bbe:	85 d2                	test   %edx,%edx
  407bc0:	7e 0e                	jle    407bd0 <___pformat_int+0xe0>
  407bc2:	8d 3c 16             	lea    (%esi,%edx,1),%edi
  407bc5:	83 c6 01             	add    $0x1,%esi
  407bc8:	39 fe                	cmp    %edi,%esi
  407bca:	c6 46 ff 30          	movb   $0x30,-0x1(%esi)
  407bce:	75 f5                	jne    407bc5 <___pformat_int+0xd5>
  407bd0:	3b 7d e4             	cmp    -0x1c(%ebp),%edi
  407bd3:	0f 84 29 01 00 00    	je     407d02 <___pformat_int+0x212>
  407bd9:	8b 43 08             	mov    0x8(%ebx),%eax
  407bdc:	85 c0                	test   %eax,%eax
  407bde:	7e 59                	jle    407c39 <___pformat_int+0x149>
  407be0:	8b 55 e4             	mov    -0x1c(%ebp),%edx
  407be3:	29 fa                	sub    %edi,%edx
  407be5:	01 c2                	add    %eax,%edx
  407be7:	8b 43 04             	mov    0x4(%ebx),%eax
  407bea:	85 d2                	test   %edx,%edx
  407bec:	89 53 08             	mov    %edx,0x8(%ebx)
  407bef:	7e 4b                	jle    407c3c <___pformat_int+0x14c>
  407bf1:	a9 c0 01 00 00       	test   $0x1c0,%eax
  407bf6:	74 06                	je     407bfe <___pformat_int+0x10e>
  407bf8:	83 ea 01             	sub    $0x1,%edx
  407bfb:	89 53 08             	mov    %edx,0x8(%ebx)
  407bfe:	8b 53 0c             	mov    0xc(%ebx),%edx
  407c01:	85 d2                	test   %edx,%edx
  407c03:	0f 88 a7 00 00 00    	js     407cb0 <___pformat_int+0x1c0>
  407c09:	f6 c4 04             	test   $0x4,%ah
  407c0c:	75 2e                	jne    407c3c <___pformat_int+0x14c>
  407c0e:	8b 53 08             	mov    0x8(%ebx),%edx
  407c11:	8d 4a ff             	lea    -0x1(%edx),%ecx
  407c14:	85 d2                	test   %edx,%edx
  407c16:	89 4b 08             	mov    %ecx,0x8(%ebx)
  407c19:	7e 21                	jle    407c3c <___pformat_int+0x14c>
  407c1b:	90                   	nop
  407c1c:	8d 74 26 00          	lea    0x0(%esi,%eiz,1),%esi
  407c20:	89 da                	mov    %ebx,%edx
  407c22:	b8 20 00 00 00       	mov    $0x20,%eax
  407c27:	e8 14 fc ff ff       	call   407840 <___pformat_putc>
  407c2c:	8b 43 08             	mov    0x8(%ebx),%eax
  407c2f:	8d 50 ff             	lea    -0x1(%eax),%edx
  407c32:	85 c0                	test   %eax,%eax
  407c34:	89 53 08             	mov    %edx,0x8(%ebx)
  407c37:	7f e7                	jg     407c20 <___pformat_int+0x130>
  407c39:	8b 43 04             	mov    0x4(%ebx),%eax
  407c3c:	a8 80                	test   $0x80,%al
  407c3e:	74 51                	je     407c91 <___pformat_int+0x1a1>
  407c40:	8d 77 01             	lea    0x1(%edi),%esi
  407c43:	c6 07 2d             	movb   $0x2d,(%edi)
  407c46:	39 75 e4             	cmp    %esi,-0x1c(%ebp)
  407c49:	8b 7d e4             	mov    -0x1c(%ebp),%edi
  407c4c:	73 2e                	jae    407c7c <___pformat_int+0x18c>
  407c4e:	66 90                	xchg   %ax,%ax
  407c50:	83 ee 01             	sub    $0x1,%esi
  407c53:	0f be 06             	movsbl (%esi),%eax
  407c56:	89 da                	mov    %ebx,%edx
  407c58:	e8 e3 fb ff ff       	call   407840 <___pformat_putc>
  407c5d:	39 fe                	cmp    %edi,%esi
  407c5f:	75 ef                	jne    407c50 <___pformat_int+0x160>
  407c61:	8b 43 08             	mov    0x8(%ebx),%eax
  407c64:	8d 50 ff             	lea    -0x1(%eax),%edx
  407c67:	85 c0                	test   %eax,%eax
  407c69:	89 53 08             	mov    %edx,0x8(%ebx)
  407c6c:	7e 1b                	jle    407c89 <___pformat_int+0x199>
  407c6e:	66 90                	xchg   %ax,%ax
  407c70:	89 da                	mov    %ebx,%edx
  407c72:	b8 20 00 00 00       	mov    $0x20,%eax
  407c77:	e8 c4 fb ff ff       	call   407840 <___pformat_putc>
  407c7c:	8b 43 08             	mov    0x8(%ebx),%eax
  407c7f:	8d 50 ff             	lea    -0x1(%eax),%edx
  407c82:	85 c0                	test   %eax,%eax
  407c84:	89 53 08             	mov    %edx,0x8(%ebx)
  407c87:	7f e7                	jg     407c70 <___pformat_int+0x180>
  407c89:	8d 65 f4             	lea    -0xc(%ebp),%esp
  407c8c:	5b                   	pop    %ebx
  407c8d:	5e                   	pop    %esi
  407c8e:	5f                   	pop    %edi
  407c8f:	5d                   	pop    %ebp
  407c90:	c3                   	ret    
  407c91:	f6 c4 01             	test   $0x1,%ah
  407c94:	74 0a                	je     407ca0 <___pformat_int+0x1b0>
  407c96:	8d 77 01             	lea    0x1(%edi),%esi
  407c99:	c6 07 2b             	movb   $0x2b,(%edi)
  407c9c:	eb a8                	jmp    407c46 <___pformat_int+0x156>
  407c9e:	66 90                	xchg   %ax,%ax
  407ca0:	a8 40                	test   $0x40,%al
  407ca2:	89 fe                	mov    %edi,%esi
  407ca4:	74 a0                	je     407c46 <___pformat_int+0x156>
  407ca6:	83 c6 01             	add    $0x1,%esi
  407ca9:	c6 07 20             	movb   $0x20,(%edi)
  407cac:	eb 98                	jmp    407c46 <___pformat_int+0x156>
  407cae:	66 90                	xchg   %ax,%ax
  407cb0:	89 c2                	mov    %eax,%edx
  407cb2:	81 e2 00 06 00 00    	and    $0x600,%edx
  407cb8:	81 fa 00 02 00 00    	cmp    $0x200,%edx
  407cbe:	0f 85 45 ff ff ff    	jne    407c09 <___pformat_int+0x119>
  407cc4:	8b 53 08             	mov    0x8(%ebx),%edx
  407cc7:	8d 4a ff             	lea    -0x1(%edx),%ecx
  407cca:	85 d2                	test   %edx,%edx
  407ccc:	89 4b 08             	mov    %ecx,0x8(%ebx)
  407ccf:	0f 8e 67 ff ff ff    	jle    407c3c <___pformat_int+0x14c>
  407cd5:	83 c7 01             	add    $0x1,%edi
  407cd8:	c6 47 ff 30          	movb   $0x30,-0x1(%edi)
  407cdc:	8b 43 08             	mov    0x8(%ebx),%eax
  407cdf:	8d 50 ff             	lea    -0x1(%eax),%edx
  407ce2:	85 c0                	test   %eax,%eax
  407ce4:	89 53 08             	mov    %edx,0x8(%ebx)
  407ce7:	7f ec                	jg     407cd5 <___pformat_int+0x1e5>
  407ce9:	e9 4b ff ff ff       	jmp    407c39 <___pformat_int+0x149>
  407cee:	66 90                	xchg   %ax,%ax
  407cf0:	f7 de                	neg    %esi
  407cf2:	83 d7 00             	adc    $0x0,%edi
  407cf5:	f7 df                	neg    %edi
  407cf7:	89 75 d8             	mov    %esi,-0x28(%ebp)
  407cfa:	89 7d dc             	mov    %edi,-0x24(%ebp)
  407cfd:	e9 43 fe ff ff       	jmp    407b45 <___pformat_int+0x55>
  407d02:	8b 4b 0c             	mov    0xc(%ebx),%ecx
  407d05:	85 c9                	test   %ecx,%ecx
  407d07:	0f 84 cc fe ff ff    	je     407bd9 <___pformat_int+0xe9>
  407d0d:	c6 07 30             	movb   $0x30,(%edi)
  407d10:	83 c7 01             	add    $0x1,%edi
  407d13:	e9 c1 fe ff ff       	jmp    407bd9 <___pformat_int+0xe9>
  407d18:	90                   	nop
  407d19:	8d b4 26 00 00 00 00 	lea    0x0(%esi,%eiz,1),%esi

00407d20 <___pformat_xint>:
  407d20:	55                   	push   %ebp
  407d21:	89 e5                	mov    %esp,%ebp
  407d23:	57                   	push   %edi
  407d24:	89 cf                	mov    %ecx,%edi
  407d26:	56                   	push   %esi
  407d27:	89 d6                	mov    %edx,%esi
  407d29:	53                   	push   %ebx
  407d2a:	83 ec 2c             	sub    $0x2c,%esp
  407d2d:	89 55 dc             	mov    %edx,-0x24(%ebp)
  407d30:	31 d2                	xor    %edx,%edx
  407d32:	83 f8 6f             	cmp    $0x6f,%eax
  407d35:	0f 94 c2             	sete   %dl
  407d38:	83 ea 01             	sub    $0x1,%edx
  407d3b:	83 e2 fa             	and    $0xfffffffa,%edx
  407d3e:	89 4d d4             	mov    %ecx,-0x2c(%ebp)
  407d41:	31 c9                	xor    %ecx,%ecx
  407d43:	83 f8 6f             	cmp    $0x6f,%eax
  407d46:	0f 95 c1             	setne  %cl
  407d49:	89 45 d8             	mov    %eax,-0x28(%ebp)
  407d4c:	89 c8                	mov    %ecx,%eax
  407d4e:	89 45 e4             	mov    %eax,-0x1c(%ebp)
  407d51:	8b 45 08             	mov    0x8(%ebp),%eax
  407d54:	8d 1c cd 07 00 00 00 	lea    0x7(,%ecx,8),%ebx
  407d5b:	89 5d d0             	mov    %ebx,-0x30(%ebp)
  407d5e:	8b 4d 08             	mov    0x8(%ebp),%ecx
  407d61:	83 45 e4 03          	addl   $0x3,-0x1c(%ebp)
  407d65:	8b 58 0c             	mov    0xc(%eax),%ebx
  407d68:	8b 49 08             	mov    0x8(%ecx),%ecx
  407d6b:	89 d8                	mov    %ebx,%eax
  407d6d:	c1 f8 1f             	sar    $0x1f,%eax
  407d70:	f7 d0                	not    %eax
  407d72:	21 d8                	and    %ebx,%eax
  407d74:	8d 44 02 18          	lea    0x18(%edx,%eax,1),%eax
  407d78:	39 c8                	cmp    %ecx,%eax
  407d7a:	7d 02                	jge    407d7e <___pformat_xint+0x5e>
  407d7c:	89 c8                	mov    %ecx,%eax
  407d7e:	83 c0 0f             	add    $0xf,%eax
  407d81:	83 e0 f0             	and    $0xfffffff0,%eax
  407d84:	e8 47 e3 ff ff       	call   4060d0 <___chkstk_ms>
  407d89:	29 c4                	sub    %eax,%esp
  407d8b:	8b 45 d4             	mov    -0x2c(%ebp),%eax
  407d8e:	0b 45 dc             	or     -0x24(%ebp),%eax
  407d91:	89 65 e0             	mov    %esp,-0x20(%ebp)
  407d94:	0f 84 4a 02 00 00    	je     407fe4 <___pformat_xint+0x2c4>
  407d9a:	0f b6 4d d8          	movzbl -0x28(%ebp),%ecx
  407d9e:	89 e0                	mov    %esp,%eax
  407da0:	0f b6 5d d0          	movzbl -0x30(%ebp),%ebx
  407da4:	83 e1 20             	and    $0x20,%ecx
  407da7:	88 4d dc             	mov    %cl,-0x24(%ebp)
  407daa:	eb 1f                	jmp    407dcb <___pformat_xint+0xab>
  407dac:	8d 74 26 00          	lea    0x0(%esi,%eiz,1),%esi
  407db0:	88 48 ff             	mov    %cl,-0x1(%eax)
  407db3:	0f b6 4d e4          	movzbl -0x1c(%ebp),%ecx
  407db7:	0f ad fe             	shrd   %cl,%edi,%esi
  407dba:	d3 ef                	shr    %cl,%edi
  407dbc:	f6 c1 20             	test   $0x20,%cl
  407dbf:	74 04                	je     407dc5 <___pformat_xint+0xa5>
  407dc1:	89 fe                	mov    %edi,%esi
  407dc3:	31 ff                	xor    %edi,%edi
  407dc5:	89 f9                	mov    %edi,%ecx
  407dc7:	09 f1                	or     %esi,%ecx
  407dc9:	74 1a                	je     407de5 <___pformat_xint+0xc5>
  407dcb:	89 f2                	mov    %esi,%edx
  407dcd:	83 c0 01             	add    $0x1,%eax
  407dd0:	21 da                	and    %ebx,%edx
  407dd2:	8d 4a 30             	lea    0x30(%edx),%ecx
  407dd5:	80 f9 39             	cmp    $0x39,%cl
  407dd8:	7e d6                	jle    407db0 <___pformat_xint+0x90>
  407dda:	83 c2 37             	add    $0x37,%edx
  407ddd:	0a 55 dc             	or     -0x24(%ebp),%dl
  407de0:	88 50 ff             	mov    %dl,-0x1(%eax)
  407de3:	eb ce                	jmp    407db3 <___pformat_xint+0x93>
  407de5:	39 45 e0             	cmp    %eax,-0x20(%ebp)
  407de8:	0f 84 f0 01 00 00    	je     407fde <___pformat_xint+0x2be>
  407dee:	8b 7d 08             	mov    0x8(%ebp),%edi
  407df1:	8b 5f 0c             	mov    0xc(%edi),%ebx
  407df4:	85 db                	test   %ebx,%ebx
  407df6:	0f 8e a5 01 00 00    	jle    407fa1 <___pformat_xint+0x281>
  407dfc:	8b 4d e0             	mov    -0x20(%ebp),%ecx
  407dff:	29 c1                	sub    %eax,%ecx
  407e01:	01 cb                	add    %ecx,%ebx
  407e03:	85 db                	test   %ebx,%ebx
  407e05:	0f 8e 96 01 00 00    	jle    407fa1 <___pformat_xint+0x281>
  407e0b:	8d 3c 18             	lea    (%eax,%ebx,1),%edi
  407e0e:	66 90                	xchg   %ax,%ax
  407e10:	83 c0 01             	add    $0x1,%eax
  407e13:	39 f8                	cmp    %edi,%eax
  407e15:	c6 40 ff 30          	movb   $0x30,-0x1(%eax)
  407e19:	75 f5                	jne    407e10 <___pformat_xint+0xf0>
  407e1b:	3b 7d e0             	cmp    -0x20(%ebp),%edi
  407e1e:	0f 84 a1 01 00 00    	je     407fc5 <___pformat_xint+0x2a5>
  407e24:	8b 45 08             	mov    0x8(%ebp),%eax
  407e27:	8b 70 08             	mov    0x8(%eax),%esi
  407e2a:	89 f8                	mov    %edi,%eax
  407e2c:	2b 45 e0             	sub    -0x20(%ebp),%eax
  407e2f:	39 c6                	cmp    %eax,%esi
  407e31:	0f 8e a9 00 00 00    	jle    407ee0 <___pformat_xint+0x1c0>
  407e37:	29 c6                	sub    %eax,%esi
  407e39:	8b 45 08             	mov    0x8(%ebp),%eax
  407e3c:	85 f6                	test   %esi,%esi
  407e3e:	89 70 08             	mov    %esi,0x8(%eax)
  407e41:	7e 21                	jle    407e64 <___pformat_xint+0x144>
  407e43:	83 7d d8 6f          	cmpl   $0x6f,-0x28(%ebp)
  407e47:	74 0d                	je     407e56 <___pformat_xint+0x136>
  407e49:	8b 45 08             	mov    0x8(%ebp),%eax
  407e4c:	f6 40 05 08          	testb  $0x8,0x5(%eax)
  407e50:	0f 85 00 01 00 00    	jne    407f56 <___pformat_xint+0x236>
  407e56:	8b 45 08             	mov    0x8(%ebp),%eax
  407e59:	8b 58 0c             	mov    0xc(%eax),%ebx
  407e5c:	85 db                	test   %ebx,%ebx
  407e5e:	0f 88 09 01 00 00    	js     407f6d <___pformat_xint+0x24d>
  407e64:	8d 46 ff             	lea    -0x1(%esi),%eax
  407e67:	89 45 e4             	mov    %eax,-0x1c(%ebp)
  407e6a:	8b 45 e4             	mov    -0x1c(%ebp),%eax
  407e6d:	83 7d d8 6f          	cmpl   $0x6f,-0x28(%ebp)
  407e71:	89 c3                	mov    %eax,%ebx
  407e73:	74 0d                	je     407e82 <___pformat_xint+0x162>
  407e75:	8b 45 08             	mov    0x8(%ebp),%eax
  407e78:	f6 40 05 08          	testb  $0x8,0x5(%eax)
  407e7c:	0f 85 be 00 00 00    	jne    407f40 <___pformat_xint+0x220>
  407e82:	85 f6                	test   %esi,%esi
  407e84:	7e 09                	jle    407e8f <___pformat_xint+0x16f>
  407e86:	8b 45 08             	mov    0x8(%ebp),%eax
  407e89:	f6 40 05 04          	testb  $0x4,0x5(%eax)
  407e8d:	74 71                	je     407f00 <___pformat_xint+0x1e0>
  407e8f:	3b 7d e0             	cmp    -0x20(%ebp),%edi
  407e92:	76 25                	jbe    407eb9 <___pformat_xint+0x199>
  407e94:	89 75 e4             	mov    %esi,-0x1c(%ebp)
  407e97:	8b 75 e0             	mov    -0x20(%ebp),%esi
  407e9a:	89 5d e0             	mov    %ebx,-0x20(%ebp)
  407e9d:	89 fb                	mov    %edi,%ebx
  407e9f:	8b 7d 08             	mov    0x8(%ebp),%edi
  407ea2:	83 eb 01             	sub    $0x1,%ebx
  407ea5:	0f be 03             	movsbl (%ebx),%eax
  407ea8:	89 fa                	mov    %edi,%edx
  407eaa:	e8 91 f9 ff ff       	call   407840 <___pformat_putc>
  407eaf:	39 f3                	cmp    %esi,%ebx
  407eb1:	75 ef                	jne    407ea2 <___pformat_xint+0x182>
  407eb3:	8b 75 e4             	mov    -0x1c(%ebp),%esi
  407eb6:	8b 5d e0             	mov    -0x20(%ebp),%ebx
  407eb9:	85 f6                	test   %esi,%esi
  407ebb:	7e 19                	jle    407ed6 <___pformat_xint+0x1b6>
  407ebd:	8b 75 08             	mov    0x8(%ebp),%esi
  407ec0:	b8 20 00 00 00       	mov    $0x20,%eax
  407ec5:	83 eb 01             	sub    $0x1,%ebx
  407ec8:	89 f2                	mov    %esi,%edx
  407eca:	e8 71 f9 ff ff       	call   407840 <___pformat_putc>
  407ecf:	8d 43 01             	lea    0x1(%ebx),%eax
  407ed2:	85 c0                	test   %eax,%eax
  407ed4:	7f ea                	jg     407ec0 <___pformat_xint+0x1a0>
  407ed6:	8d 65 f4             	lea    -0xc(%ebp),%esp
  407ed9:	5b                   	pop    %ebx
  407eda:	5e                   	pop    %esi
  407edb:	5f                   	pop    %edi
  407edc:	5d                   	pop    %ebp
  407edd:	c3                   	ret    
  407ede:	66 90                	xchg   %ax,%ax
  407ee0:	8b 45 08             	mov    0x8(%ebp),%eax
  407ee3:	be ff ff ff ff       	mov    $0xffffffff,%esi
  407ee8:	c7 45 e4 fe ff ff ff 	movl   $0xfffffffe,-0x1c(%ebp)
  407eef:	c7 40 08 ff ff ff ff 	movl   $0xffffffff,0x8(%eax)
  407ef6:	e9 6f ff ff ff       	jmp    407e6a <___pformat_xint+0x14a>
  407efb:	90                   	nop
  407efc:	8d 74 26 00          	lea    0x0(%esi,%eiz,1),%esi
  407f00:	8b 5d e4             	mov    -0x1c(%ebp),%ebx
  407f03:	89 c6                	mov    %eax,%esi
  407f05:	b8 20 00 00 00       	mov    $0x20,%eax
  407f0a:	83 eb 01             	sub    $0x1,%ebx
  407f0d:	89 f2                	mov    %esi,%edx
  407f0f:	e8 2c f9 ff ff       	call   407840 <___pformat_putc>
  407f14:	8d 43 01             	lea    0x1(%ebx),%eax
  407f17:	85 c0                	test   %eax,%eax
  407f19:	7f ea                	jg     407f05 <___pformat_xint+0x1e5>
  407f1b:	8b 4d e4             	mov    -0x1c(%ebp),%ecx
  407f1e:	89 c8                	mov    %ecx,%eax
  407f20:	c1 f8 1f             	sar    $0x1f,%eax
  407f23:	f7 d0                	not    %eax
  407f25:	8d 71 ff             	lea    -0x1(%ecx),%esi
  407f28:	21 c8                	and    %ecx,%eax
  407f2a:	29 c6                	sub    %eax,%esi
  407f2c:	8d 5e ff             	lea    -0x1(%esi),%ebx
  407f2f:	e9 5b ff ff ff       	jmp    407e8f <___pformat_xint+0x16f>
  407f34:	83 ee 03             	sub    $0x3,%esi
  407f37:	89 75 e4             	mov    %esi,-0x1c(%ebp)
  407f3a:	89 c6                	mov    %eax,%esi
  407f3c:	8d 74 26 00          	lea    0x0(%esi,%eiz,1),%esi
  407f40:	0f b6 45 d8          	movzbl -0x28(%ebp),%eax
  407f44:	83 c7 02             	add    $0x2,%edi
  407f47:	c6 47 ff 30          	movb   $0x30,-0x1(%edi)
  407f4b:	8b 5d e4             	mov    -0x1c(%ebp),%ebx
  407f4e:	88 47 fe             	mov    %al,-0x2(%edi)
  407f51:	e9 2c ff ff ff       	jmp    407e82 <___pformat_xint+0x162>
  407f56:	8d 46 fe             	lea    -0x2(%esi),%eax
  407f59:	85 c0                	test   %eax,%eax
  407f5b:	7e d7                	jle    407f34 <___pformat_xint+0x214>
  407f5d:	89 c6                	mov    %eax,%esi
  407f5f:	8b 45 08             	mov    0x8(%ebp),%eax
  407f62:	8b 58 0c             	mov    0xc(%eax),%ebx
  407f65:	85 db                	test   %ebx,%ebx
  407f67:	0f 89 f7 fe ff ff    	jns    407e64 <___pformat_xint+0x144>
  407f6d:	8b 45 08             	mov    0x8(%ebp),%eax
  407f70:	8b 40 04             	mov    0x4(%eax),%eax
  407f73:	25 00 06 00 00       	and    $0x600,%eax
  407f78:	3d 00 02 00 00       	cmp    $0x200,%eax
  407f7d:	0f 85 e1 fe ff ff    	jne    407e64 <___pformat_xint+0x144>
  407f83:	01 fe                	add    %edi,%esi
  407f85:	83 c7 01             	add    $0x1,%edi
  407f88:	39 f7                	cmp    %esi,%edi
  407f8a:	c6 47 ff 30          	movb   $0x30,-0x1(%edi)
  407f8e:	75 f5                	jne    407f85 <___pformat_xint+0x265>
  407f90:	c7 45 e4 fe ff ff ff 	movl   $0xfffffffe,-0x1c(%ebp)
  407f97:	be ff ff ff ff       	mov    $0xffffffff,%esi
  407f9c:	e9 c9 fe ff ff       	jmp    407e6a <___pformat_xint+0x14a>
  407fa1:	83 7d d8 6f          	cmpl   $0x6f,-0x28(%ebp)
  407fa5:	89 c7                	mov    %eax,%edi
  407fa7:	0f 85 6e fe ff ff    	jne    407e1b <___pformat_xint+0xfb>
  407fad:	8b 75 08             	mov    0x8(%ebp),%esi
  407fb0:	f6 46 05 08          	testb  $0x8,0x5(%esi)
  407fb4:	0f 84 61 fe ff ff    	je     407e1b <___pformat_xint+0xfb>
  407fba:	83 c7 01             	add    $0x1,%edi
  407fbd:	c6 00 30             	movb   $0x30,(%eax)
  407fc0:	e9 56 fe ff ff       	jmp    407e1b <___pformat_xint+0xfb>
  407fc5:	8b 45 08             	mov    0x8(%ebp),%eax
  407fc8:	8b 70 0c             	mov    0xc(%eax),%esi
  407fcb:	85 f6                	test   %esi,%esi
  407fcd:	0f 84 51 fe ff ff    	je     407e24 <___pformat_xint+0x104>
  407fd3:	c6 07 30             	movb   $0x30,(%edi)
  407fd6:	83 c7 01             	add    $0x1,%edi
  407fd9:	e9 46 fe ff ff       	jmp    407e24 <___pformat_xint+0x104>
  407fde:	8b 45 08             	mov    0x8(%ebp),%eax
  407fe1:	8b 58 0c             	mov    0xc(%eax),%ebx
  407fe4:	8b 45 08             	mov    0x8(%ebp),%eax
  407fe7:	81 60 04 ff f7 ff ff 	andl   $0xfffff7ff,0x4(%eax)
  407fee:	8b 45 e0             	mov    -0x20(%ebp),%eax
  407ff1:	e9 fe fd ff ff       	jmp    407df4 <___pformat_xint+0xd4>
  407ff6:	8d 76 00             	lea    0x0(%esi),%esi
  407ff9:	8d bc 27 00 00 00 00 	lea    0x0(%edi,%eiz,1),%edi

00408000 <___pformat_emit_float>:
  408000:	55                   	push   %ebp
  408001:	89 e5                	mov    %esp,%ebp
  408003:	57                   	push   %edi
  408004:	56                   	push   %esi
  408005:	89 d6                	mov    %edx,%esi
  408007:	53                   	push   %ebx
  408008:	89 cb                	mov    %ecx,%ebx
  40800a:	83 ec 3c             	sub    $0x3c,%esp
  40800d:	8b 7d 08             	mov    0x8(%ebp),%edi
  408010:	85 c9                	test   %ecx,%ecx
  408012:	89 45 d4             	mov    %eax,-0x2c(%ebp)
  408015:	8b 47 08             	mov    0x8(%edi),%eax
  408018:	0f 8e 7a 02 00 00    	jle    408298 <___pformat_emit_float+0x298>
  40801e:	39 c1                	cmp    %eax,%ecx
  408020:	0f 8d 3a 01 00 00    	jge    408160 <___pformat_emit_float+0x160>
  408026:	29 c8                	sub    %ecx,%eax
  408028:	89 47 08             	mov    %eax,0x8(%edi)
  40802b:	85 c0                	test   %eax,%eax
  40802d:	0f 88 2d 01 00 00    	js     408160 <___pformat_emit_float+0x160>
  408033:	8b 57 0c             	mov    0xc(%edi),%edx
  408036:	39 c2                	cmp    %eax,%edx
  408038:	0f 8d 22 01 00 00    	jge    408160 <___pformat_emit_float+0x160>
  40803e:	29 d0                	sub    %edx,%eax
  408040:	85 c0                	test   %eax,%eax
  408042:	89 47 08             	mov    %eax,0x8(%edi)
  408045:	0f 8e 1c 01 00 00    	jle    408167 <___pformat_emit_float+0x167>
  40804b:	85 d2                	test   %edx,%edx
  40804d:	0f 8e ad 02 00 00    	jle    408300 <___pformat_emit_float+0x300>
  408053:	83 e8 01             	sub    $0x1,%eax
  408056:	85 c0                	test   %eax,%eax
  408058:	89 47 08             	mov    %eax,0x8(%edi)
  40805b:	0f 84 06 01 00 00    	je     408167 <___pformat_emit_float+0x167>
  408061:	8b 55 d4             	mov    -0x2c(%ebp),%edx
  408064:	85 d2                	test   %edx,%edx
  408066:	0f 85 ba 01 00 00    	jne    408226 <___pformat_emit_float+0x226>
  40806c:	8b 57 04             	mov    0x4(%edi),%edx
  40806f:	f7 c2 c0 01 00 00    	test   $0x1c0,%edx
  408075:	0f 85 ab 01 00 00    	jne    408226 <___pformat_emit_float+0x226>
  40807b:	80 e6 06             	and    $0x6,%dh
  40807e:	0f 85 e3 00 00 00    	jne    408167 <___pformat_emit_float+0x167>
  408084:	eb 0c                	jmp    408092 <___pformat_emit_float+0x92>
  408086:	89 fa                	mov    %edi,%edx
  408088:	b8 20 00 00 00       	mov    $0x20,%eax
  40808d:	e8 ae f7 ff ff       	call   407840 <___pformat_putc>
  408092:	8b 47 08             	mov    0x8(%edi),%eax
  408095:	8d 50 ff             	lea    -0x1(%eax),%edx
  408098:	85 c0                	test   %eax,%eax
  40809a:	89 57 08             	mov    %edx,0x8(%edi)
  40809d:	7f e7                	jg     408086 <___pformat_emit_float+0x86>
  40809f:	8b 45 d4             	mov    -0x2c(%ebp),%eax
  4080a2:	85 c0                	test   %eax,%eax
  4080a4:	0f 84 c8 00 00 00    	je     408172 <___pformat_emit_float+0x172>
  4080aa:	89 fa                	mov    %edi,%edx
  4080ac:	b8 2d 00 00 00       	mov    $0x2d,%eax
  4080b1:	e8 8a f7 ff ff       	call   407840 <___pformat_putc>
  4080b6:	8b 57 08             	mov    0x8(%edi),%edx
  4080b9:	85 d2                	test   %edx,%edx
  4080bb:	7e 13                	jle    4080d0 <___pformat_emit_float+0xd0>
  4080bd:	8b 47 04             	mov    0x4(%edi),%eax
  4080c0:	25 00 06 00 00       	and    $0x600,%eax
  4080c5:	3d 00 02 00 00       	cmp    $0x200,%eax
  4080ca:	0f 84 f1 01 00 00    	je     4082c1 <___pformat_emit_float+0x2c1>
  4080d0:	85 db                	test   %ebx,%ebx
  4080d2:	0f 8e 10 02 00 00    	jle    4082e8 <___pformat_emit_float+0x2e8>
  4080d8:	0f b6 16             	movzbl (%esi),%edx
  4080db:	b8 30 00 00 00       	mov    $0x30,%eax
  4080e0:	84 d2                	test   %dl,%dl
  4080e2:	74 06                	je     4080ea <___pformat_emit_float+0xea>
  4080e4:	83 c6 01             	add    $0x1,%esi
  4080e7:	0f be c2             	movsbl %dl,%eax
  4080ea:	89 fa                	mov    %edi,%edx
  4080ec:	e8 4f f7 ff ff       	call   407840 <___pformat_putc>
  4080f1:	83 eb 01             	sub    $0x1,%ebx
  4080f4:	75 e2                	jne    4080d8 <___pformat_emit_float+0xd8>
  4080f6:	8b 47 0c             	mov    0xc(%edi),%eax
  4080f9:	85 c0                	test   %eax,%eax
  4080fb:	0f 8e 3f 01 00 00    	jle    408240 <___pformat_emit_float+0x240>
  408101:	83 7f 10 fd          	cmpl   $0xfffffffd,0x10(%edi)
  408105:	0f 84 49 01 00 00    	je     408254 <___pformat_emit_float+0x254>
  40810b:	0f b7 57 14          	movzwl 0x14(%edi),%edx
  40810f:	66 85 d2             	test   %dx,%dx
  408112:	0f 85 7f 00 00 00    	jne    408197 <___pformat_emit_float+0x197>
  408118:	b8 2e 00 00 00       	mov    $0x2e,%eax
  40811d:	89 fa                	mov    %edi,%edx
  40811f:	e8 1c f7 ff ff       	call   407840 <___pformat_putc>
  408124:	8b 47 0c             	mov    0xc(%edi),%eax
  408127:	85 db                	test   %ebx,%ebx
  408129:	74 21                	je     40814c <___pformat_emit_float+0x14c>
  40812b:	e9 d8 00 00 00       	jmp    408208 <___pformat_emit_float+0x208>
  408130:	0f b6 16             	movzbl (%esi),%edx
  408133:	b8 30 00 00 00       	mov    $0x30,%eax
  408138:	84 d2                	test   %dl,%dl
  40813a:	74 06                	je     408142 <___pformat_emit_float+0x142>
  40813c:	83 c6 01             	add    $0x1,%esi
  40813f:	0f be c2             	movsbl %dl,%eax
  408142:	89 fa                	mov    %edi,%edx
  408144:	e8 f7 f6 ff ff       	call   407840 <___pformat_putc>
  408149:	8b 47 0c             	mov    0xc(%edi),%eax
  40814c:	8d 50 ff             	lea    -0x1(%eax),%edx
  40814f:	85 c0                	test   %eax,%eax
  408151:	89 57 0c             	mov    %edx,0xc(%edi)
  408154:	7f da                	jg     408130 <___pformat_emit_float+0x130>
  408156:	8d 65 f4             	lea    -0xc(%ebp),%esp
  408159:	5b                   	pop    %ebx
  40815a:	5e                   	pop    %esi
  40815b:	5f                   	pop    %edi
  40815c:	5d                   	pop    %ebp
  40815d:	c3                   	ret    
  40815e:	66 90                	xchg   %ax,%ax
  408160:	c7 47 08 ff ff ff ff 	movl   $0xffffffff,0x8(%edi)
  408167:	8b 45 d4             	mov    -0x2c(%ebp),%eax
  40816a:	85 c0                	test   %eax,%eax
  40816c:	0f 85 38 ff ff ff    	jne    4080aa <___pformat_emit_float+0xaa>
  408172:	8b 47 04             	mov    0x4(%edi),%eax
  408175:	f6 c4 01             	test   $0x1,%ah
  408178:	0f 85 32 01 00 00    	jne    4082b0 <___pformat_emit_float+0x2b0>
  40817e:	a8 40                	test   $0x40,%al
  408180:	0f 84 30 ff ff ff    	je     4080b6 <___pformat_emit_float+0xb6>
  408186:	89 fa                	mov    %edi,%edx
  408188:	b8 20 00 00 00       	mov    $0x20,%eax
  40818d:	e8 ae f6 ff ff       	call   407840 <___pformat_putc>
  408192:	e9 1f ff ff ff       	jmp    4080b6 <___pformat_emit_float+0xb6>
  408197:	8b 47 10             	mov    0x10(%edi),%eax
  40819a:	89 65 d4             	mov    %esp,-0x2c(%ebp)
  40819d:	83 c0 0f             	add    $0xf,%eax
  4081a0:	83 e0 f0             	and    $0xfffffff0,%eax
  4081a3:	e8 28 df ff ff       	call   4060d0 <___chkstk_ms>
  4081a8:	29 c4                	sub    %eax,%esp
  4081aa:	8d 4c 24 10          	lea    0x10(%esp),%ecx
  4081ae:	8d 45 e4             	lea    -0x1c(%ebp),%eax
  4081b1:	c7 45 e4 00 00 00 00 	movl   $0x0,-0x1c(%ebp)
  4081b8:	89 44 24 08          	mov    %eax,0x8(%esp)
  4081bc:	89 54 24 04          	mov    %edx,0x4(%esp)
  4081c0:	89 0c 24             	mov    %ecx,(%esp)
  4081c3:	89 4d d0             	mov    %ecx,-0x30(%ebp)
  4081c6:	e8 b5 29 00 00       	call   40ab80 <_wcrtomb>
  4081cb:	85 c0                	test   %eax,%eax
  4081cd:	0f 8e 42 01 00 00    	jle    408315 <___pformat_emit_float+0x315>
  4081d3:	8b 4d d0             	mov    -0x30(%ebp),%ecx
  4081d6:	89 5d cc             	mov    %ebx,-0x34(%ebp)
  4081d9:	89 75 d0             	mov    %esi,-0x30(%ebp)
  4081dc:	01 c8                	add    %ecx,%eax
  4081de:	89 cb                	mov    %ecx,%ebx
  4081e0:	89 c6                	mov    %eax,%esi
  4081e2:	83 c3 01             	add    $0x1,%ebx
  4081e5:	0f be 43 ff          	movsbl -0x1(%ebx),%eax
  4081e9:	89 fa                	mov    %edi,%edx
  4081eb:	e8 50 f6 ff ff       	call   407840 <___pformat_putc>
  4081f0:	39 f3                	cmp    %esi,%ebx
  4081f2:	75 ee                	jne    4081e2 <___pformat_emit_float+0x1e2>
  4081f4:	8b 75 d0             	mov    -0x30(%ebp),%esi
  4081f7:	8b 5d cc             	mov    -0x34(%ebp),%ebx
  4081fa:	85 db                	test   %ebx,%ebx
  4081fc:	8b 65 d4             	mov    -0x2c(%ebp),%esp
  4081ff:	8b 47 0c             	mov    0xc(%edi),%eax
  408202:	0f 84 44 ff ff ff    	je     40814c <___pformat_emit_float+0x14c>
  408208:	01 d8                	add    %ebx,%eax
  40820a:	89 47 0c             	mov    %eax,0xc(%edi)
  40820d:	8d 76 00             	lea    0x0(%esi),%esi
  408210:	89 fa                	mov    %edi,%edx
  408212:	b8 30 00 00 00       	mov    $0x30,%eax
  408217:	e8 24 f6 ff ff       	call   407840 <___pformat_putc>
  40821c:	83 c3 01             	add    $0x1,%ebx
  40821f:	78 ef                	js     408210 <___pformat_emit_float+0x210>
  408221:	e9 23 ff ff ff       	jmp    408149 <___pformat_emit_float+0x149>
  408226:	83 e8 01             	sub    $0x1,%eax
  408229:	85 c0                	test   %eax,%eax
  40822b:	89 47 08             	mov    %eax,0x8(%edi)
  40822e:	0f 84 33 ff ff ff    	je     408167 <___pformat_emit_float+0x167>
  408234:	8b 57 04             	mov    0x4(%edi),%edx
  408237:	e9 3f fe ff ff       	jmp    40807b <___pformat_emit_float+0x7b>
  40823c:	8d 74 26 00          	lea    0x0(%esi,%eiz,1),%esi
  408240:	f6 47 05 08          	testb  $0x8,0x5(%edi)
  408244:	0f 84 dd fe ff ff    	je     408127 <___pformat_emit_float+0x127>
  40824a:	83 7f 10 fd          	cmpl   $0xfffffffd,0x10(%edi)
  40824e:	0f 85 b7 fe ff ff    	jne    40810b <___pformat_emit_float+0x10b>
  408254:	c7 45 e4 00 00 00 00 	movl   $0x0,-0x1c(%ebp)
  40825b:	e8 50 3f 00 00       	call   40c1b0 <_localeconv>
  408260:	8d 55 e4             	lea    -0x1c(%ebp),%edx
  408263:	89 54 24 0c          	mov    %edx,0xc(%esp)
  408267:	c7 44 24 08 10 00 00 	movl   $0x10,0x8(%esp)
  40826e:	00 
  40826f:	8b 00                	mov    (%eax),%eax
  408271:	89 44 24 04          	mov    %eax,0x4(%esp)
  408275:	8d 45 e2             	lea    -0x1e(%ebp),%eax
  408278:	89 04 24             	mov    %eax,(%esp)
  40827b:	e8 50 2c 00 00       	call   40aed0 <_mbrtowc>
  408280:	85 c0                	test   %eax,%eax
  408282:	0f 8e 9e 00 00 00    	jle    408326 <___pformat_emit_float+0x326>
  408288:	0f b7 55 e2          	movzwl -0x1e(%ebp),%edx
  40828c:	66 89 57 14          	mov    %dx,0x14(%edi)
  408290:	89 47 10             	mov    %eax,0x10(%edi)
  408293:	e9 77 fe ff ff       	jmp    40810f <___pformat_emit_float+0x10f>
  408298:	85 c0                	test   %eax,%eax
  40829a:	0f 8e 8b fd ff ff    	jle    40802b <___pformat_emit_float+0x2b>
  4082a0:	83 e8 01             	sub    $0x1,%eax
  4082a3:	89 47 08             	mov    %eax,0x8(%edi)
  4082a6:	e9 88 fd ff ff       	jmp    408033 <___pformat_emit_float+0x33>
  4082ab:	90                   	nop
  4082ac:	8d 74 26 00          	lea    0x0(%esi,%eiz,1),%esi
  4082b0:	89 fa                	mov    %edi,%edx
  4082b2:	b8 2b 00 00 00       	mov    $0x2b,%eax
  4082b7:	e8 84 f5 ff ff       	call   407840 <___pformat_putc>
  4082bc:	e9 f5 fd ff ff       	jmp    4080b6 <___pformat_emit_float+0xb6>
  4082c1:	83 ea 01             	sub    $0x1,%edx
  4082c4:	89 57 08             	mov    %edx,0x8(%edi)
  4082c7:	89 fa                	mov    %edi,%edx
  4082c9:	b8 30 00 00 00       	mov    $0x30,%eax
  4082ce:	e8 6d f5 ff ff       	call   407840 <___pformat_putc>
  4082d3:	8b 47 08             	mov    0x8(%edi),%eax
  4082d6:	8d 50 ff             	lea    -0x1(%eax),%edx
  4082d9:	85 c0                	test   %eax,%eax
  4082db:	89 57 08             	mov    %edx,0x8(%edi)
  4082de:	7f e7                	jg     4082c7 <___pformat_emit_float+0x2c7>
  4082e0:	85 db                	test   %ebx,%ebx
  4082e2:	0f 8f f0 fd ff ff    	jg     4080d8 <___pformat_emit_float+0xd8>
  4082e8:	89 fa                	mov    %edi,%edx
  4082ea:	b8 30 00 00 00       	mov    $0x30,%eax
  4082ef:	e8 4c f5 ff ff       	call   407840 <___pformat_putc>
  4082f4:	e9 fd fd ff ff       	jmp    4080f6 <___pformat_emit_float+0xf6>
  4082f9:	8d b4 26 00 00 00 00 	lea    0x0(%esi,%eiz,1),%esi
  408300:	f6 47 05 08          	testb  $0x8,0x5(%edi)
  408304:	0f 84 57 fd ff ff    	je     408061 <___pformat_emit_float+0x61>
  40830a:	8d b6 00 00 00 00    	lea    0x0(%esi),%esi
  408310:	e9 3e fd ff ff       	jmp    408053 <___pformat_emit_float+0x53>
  408315:	89 fa                	mov    %edi,%edx
  408317:	b8 2e 00 00 00       	mov    $0x2e,%eax
  40831c:	e8 1f f5 ff ff       	call   407840 <___pformat_putc>
  408321:	e9 d4 fe ff ff       	jmp    4081fa <___pformat_emit_float+0x1fa>
  408326:	0f b7 57 14          	movzwl 0x14(%edi),%edx
  40832a:	e9 61 ff ff ff       	jmp    408290 <___pformat_emit_float+0x290>
  40832f:	90                   	nop

00408330 <___pformat_emit_efloat>:
  408330:	55                   	push   %ebp
  408331:	83 e9 01             	sub    $0x1,%ecx
  408334:	57                   	push   %edi
  408335:	89 d5                	mov    %edx,%ebp
  408337:	56                   	push   %esi
  408338:	be 01 00 00 00       	mov    $0x1,%esi
  40833d:	53                   	push   %ebx
  40833e:	bb 67 66 66 66       	mov    $0x66666667,%ebx
  408343:	83 ec 1c             	sub    $0x1c,%esp
  408346:	89 44 24 04          	mov    %eax,0x4(%esp)
  40834a:	89 c8                	mov    %ecx,%eax
  40834c:	8b 7c 24 30          	mov    0x30(%esp),%edi
  408350:	c1 f8 1f             	sar    $0x1f,%eax
  408353:	89 44 24 0c          	mov    %eax,0xc(%esp)
  408357:	89 c8                	mov    %ecx,%eax
  408359:	f7 eb                	imul   %ebx
  40835b:	89 4c 24 08          	mov    %ecx,0x8(%esp)
  40835f:	c1 f9 1f             	sar    $0x1f,%ecx
  408362:	c1 fa 02             	sar    $0x2,%edx
  408365:	89 d3                	mov    %edx,%ebx
  408367:	29 cb                	sub    %ecx,%ebx
  408369:	74 18                	je     408383 <___pformat_emit_efloat+0x53>
  40836b:	b9 67 66 66 66       	mov    $0x66666667,%ecx
  408370:	89 d8                	mov    %ebx,%eax
  408372:	83 c6 01             	add    $0x1,%esi
  408375:	f7 e9                	imul   %ecx
  408377:	c1 fb 1f             	sar    $0x1f,%ebx
  40837a:	c1 fa 02             	sar    $0x2,%edx
  40837d:	29 da                	sub    %ebx,%edx
  40837f:	89 d3                	mov    %edx,%ebx
  408381:	75 ed                	jne    408370 <___pformat_emit_efloat+0x40>
  408383:	8b 47 20             	mov    0x20(%edi),%eax
  408386:	39 c6                	cmp    %eax,%esi
  408388:	7d 02                	jge    40838c <___pformat_emit_efloat+0x5c>
  40838a:	89 c6                	mov    %eax,%esi
  40838c:	8b 57 08             	mov    0x8(%edi),%edx
  40838f:	8d 46 02             	lea    0x2(%esi),%eax
  408392:	39 c2                	cmp    %eax,%edx
  408394:	7f 5a                	jg     4083f0 <___pformat_emit_efloat+0xc0>
  408396:	c7 47 08 ff ff ff ff 	movl   $0xffffffff,0x8(%edi)
  40839d:	8b 44 24 04          	mov    0x4(%esp),%eax
  4083a1:	b9 01 00 00 00       	mov    $0x1,%ecx
  4083a6:	89 ea                	mov    %ebp,%edx
  4083a8:	89 3c 24             	mov    %edi,(%esp)
  4083ab:	83 c6 01             	add    $0x1,%esi
  4083ae:	e8 4d fc ff ff       	call   408000 <___pformat_emit_float>
  4083b3:	8b 47 20             	mov    0x20(%edi),%eax
  4083b6:	89 47 0c             	mov    %eax,0xc(%edi)
  4083b9:	8b 47 04             	mov    0x4(%edi),%eax
  4083bc:	89 c2                	mov    %eax,%edx
  4083be:	83 e0 20             	and    $0x20,%eax
  4083c1:	81 ca c0 01 00 00    	or     $0x1c0,%edx
  4083c7:	83 c8 45             	or     $0x45,%eax
  4083ca:	89 57 04             	mov    %edx,0x4(%edi)
  4083cd:	89 fa                	mov    %edi,%edx
  4083cf:	e8 6c f4 ff ff       	call   407840 <___pformat_putc>
  4083d4:	8b 44 24 08          	mov    0x8(%esp),%eax
  4083d8:	89 f9                	mov    %edi,%ecx
  4083da:	01 77 08             	add    %esi,0x8(%edi)
  4083dd:	8b 54 24 0c          	mov    0xc(%esp),%edx
  4083e1:	e8 0a f7 ff ff       	call   407af0 <___pformat_int>
  4083e6:	83 c4 1c             	add    $0x1c,%esp
  4083e9:	5b                   	pop    %ebx
  4083ea:	5e                   	pop    %esi
  4083eb:	5f                   	pop    %edi
  4083ec:	5d                   	pop    %ebp
  4083ed:	c3                   	ret    
  4083ee:	66 90                	xchg   %ax,%ax
  4083f0:	29 c2                	sub    %eax,%edx
  4083f2:	89 57 08             	mov    %edx,0x8(%edi)
  4083f5:	eb a6                	jmp    40839d <___pformat_emit_efloat+0x6d>
  4083f7:	89 f6                	mov    %esi,%esi
  4083f9:	8d bc 27 00 00 00 00 	lea    0x0(%edi,%eiz,1),%edi

00408400 <___pformat_efloat>:
  408400:	56                   	push   %esi
  408401:	53                   	push   %ebx
  408402:	89 c3                	mov    %eax,%ebx
  408404:	83 ec 44             	sub    $0x44,%esp
  408407:	8b 40 0c             	mov    0xc(%eax),%eax
  40840a:	85 c0                	test   %eax,%eax
  40840c:	78 72                	js     408480 <___pformat_efloat+0x80>
  40840e:	83 c0 01             	add    $0x1,%eax
  408411:	db 6c 24 50          	fldt   0x50(%esp)
  408415:	89 44 24 10          	mov    %eax,0x10(%esp)
  408419:	8d 54 24 28          	lea    0x28(%esp),%edx
  40841d:	db 7c 24 30          	fstpt  0x30(%esp)
  408421:	8b 44 24 30          	mov    0x30(%esp),%eax
  408425:	89 54 24 18          	mov    %edx,0x18(%esp)
  408429:	8d 54 24 2c          	lea    0x2c(%esp),%edx
  40842d:	89 54 24 14          	mov    %edx,0x14(%esp)
  408431:	89 04 24             	mov    %eax,(%esp)
  408434:	8b 44 24 34          	mov    0x34(%esp),%eax
  408438:	89 44 24 04          	mov    %eax,0x4(%esp)
  40843c:	8b 44 24 38          	mov    0x38(%esp),%eax
  408440:	89 44 24 08          	mov    %eax,0x8(%esp)
  408444:	8b 44 24 3c          	mov    0x3c(%esp),%eax
  408448:	89 44 24 0c          	mov    %eax,0xc(%esp)
  40844c:	b8 02 00 00 00       	mov    $0x2,%eax
  408451:	e8 ea f2 ff ff       	call   407740 <___pformat_cvt>
  408456:	8b 4c 24 2c          	mov    0x2c(%esp),%ecx
  40845a:	81 f9 00 80 ff ff    	cmp    $0xffff8000,%ecx
  408460:	89 c6                	mov    %eax,%esi
  408462:	74 2c                	je     408490 <___pformat_efloat+0x90>
  408464:	89 c2                	mov    %eax,%edx
  408466:	8b 44 24 28          	mov    0x28(%esp),%eax
  40846a:	89 1c 24             	mov    %ebx,(%esp)
  40846d:	e8 be fe ff ff       	call   408330 <___pformat_emit_efloat>
  408472:	89 34 24             	mov    %esi,(%esp)
  408475:	e8 86 2d 00 00       	call   40b200 <___freedtoa>
  40847a:	83 c4 44             	add    $0x44,%esp
  40847d:	5b                   	pop    %ebx
  40847e:	5e                   	pop    %esi
  40847f:	c3                   	ret    
  408480:	c7 43 0c 06 00 00 00 	movl   $0x6,0xc(%ebx)
  408487:	b8 07 00 00 00       	mov    $0x7,%eax
  40848c:	eb 83                	jmp    408411 <___pformat_efloat+0x11>
  40848e:	66 90                	xchg   %ax,%ax
  408490:	89 c2                	mov    %eax,%edx
  408492:	8b 44 24 28          	mov    0x28(%esp),%eax
  408496:	89 d9                	mov    %ebx,%ecx
  408498:	e8 c3 f5 ff ff       	call   407a60 <___pformat_emit_inf_or_nan>
  40849d:	89 34 24             	mov    %esi,(%esp)
  4084a0:	e8 5b 2d 00 00       	call   40b200 <___freedtoa>
  4084a5:	83 c4 44             	add    $0x44,%esp
  4084a8:	5b                   	pop    %ebx
  4084a9:	5e                   	pop    %esi
  4084aa:	c3                   	ret    
  4084ab:	90                   	nop
  4084ac:	8d 74 26 00          	lea    0x0(%esi,%eiz,1),%esi

004084b0 <___pformat_float>:
  4084b0:	57                   	push   %edi
  4084b1:	56                   	push   %esi
  4084b2:	53                   	push   %ebx
  4084b3:	89 c3                	mov    %eax,%ebx
  4084b5:	83 ec 40             	sub    $0x40,%esp
  4084b8:	8b 40 0c             	mov    0xc(%eax),%eax
  4084bb:	85 c0                	test   %eax,%eax
  4084bd:	0f 88 9d 00 00 00    	js     408560 <___pformat_float+0xb0>
  4084c3:	db 6c 24 50          	fldt   0x50(%esp)
  4084c7:	89 44 24 10          	mov    %eax,0x10(%esp)
  4084cb:	8d 54 24 28          	lea    0x28(%esp),%edx
  4084cf:	db 7c 24 30          	fstpt  0x30(%esp)
  4084d3:	8b 44 24 30          	mov    0x30(%esp),%eax
  4084d7:	89 54 24 18          	mov    %edx,0x18(%esp)
  4084db:	8d 54 24 2c          	lea    0x2c(%esp),%edx
  4084df:	89 54 24 14          	mov    %edx,0x14(%esp)
  4084e3:	89 04 24             	mov    %eax,(%esp)
  4084e6:	8b 44 24 34          	mov    0x34(%esp),%eax
  4084ea:	89 44 24 04          	mov    %eax,0x4(%esp)
  4084ee:	8b 44 24 38          	mov    0x38(%esp),%eax
  4084f2:	89 44 24 08          	mov    %eax,0x8(%esp)
  4084f6:	8b 44 24 3c          	mov    0x3c(%esp),%eax
  4084fa:	89 44 24 0c          	mov    %eax,0xc(%esp)
  4084fe:	b8 03 00 00 00       	mov    $0x3,%eax
  408503:	e8 38 f2 ff ff       	call   407740 <___pformat_cvt>
  408508:	8b 4c 24 2c          	mov    0x2c(%esp),%ecx
  40850c:	81 f9 00 80 ff ff    	cmp    $0xffff8000,%ecx
  408512:	89 c7                	mov    %eax,%edi
  408514:	74 5b                	je     408571 <___pformat_float+0xc1>
  408516:	89 c2                	mov    %eax,%edx
  408518:	8b 44 24 28          	mov    0x28(%esp),%eax
  40851c:	89 1c 24             	mov    %ebx,(%esp)
  40851f:	e8 dc fa ff ff       	call   408000 <___pformat_emit_float>
  408524:	8b 43 08             	mov    0x8(%ebx),%eax
  408527:	8d 50 ff             	lea    -0x1(%eax),%edx
  40852a:	85 c0                	test   %eax,%eax
  40852c:	89 53 08             	mov    %edx,0x8(%ebx)
  40852f:	7e 19                	jle    40854a <___pformat_float+0x9a>
  408531:	89 da                	mov    %ebx,%edx
  408533:	b8 20 00 00 00       	mov    $0x20,%eax
  408538:	e8 03 f3 ff ff       	call   407840 <___pformat_putc>
  40853d:	8b 4b 08             	mov    0x8(%ebx),%ecx
  408540:	8d 71 ff             	lea    -0x1(%ecx),%esi
  408543:	85 c9                	test   %ecx,%ecx
  408545:	89 73 08             	mov    %esi,0x8(%ebx)
  408548:	7f e7                	jg     408531 <___pformat_float+0x81>
  40854a:	89 3c 24             	mov    %edi,(%esp)
  40854d:	e8 ae 2c 00 00       	call   40b200 <___freedtoa>
  408552:	83 c4 40             	add    $0x40,%esp
  408555:	5b                   	pop    %ebx
  408556:	5e                   	pop    %esi
  408557:	5f                   	pop    %edi
  408558:	c3                   	ret    
  408559:	8d b4 26 00 00 00 00 	lea    0x0(%esi,%eiz,1),%esi
  408560:	c7 43 0c 06 00 00 00 	movl   $0x6,0xc(%ebx)
  408567:	b8 06 00 00 00       	mov    $0x6,%eax
  40856c:	e9 52 ff ff ff       	jmp    4084c3 <___pformat_float+0x13>
  408571:	89 c2                	mov    %eax,%edx
  408573:	8b 44 24 28          	mov    0x28(%esp),%eax
  408577:	89 d9                	mov    %ebx,%ecx
  408579:	e8 e2 f4 ff ff       	call   407a60 <___pformat_emit_inf_or_nan>
  40857e:	89 3c 24             	mov    %edi,(%esp)
  408581:	e8 7a 2c 00 00       	call   40b200 <___freedtoa>
  408586:	83 c4 40             	add    $0x40,%esp
  408589:	5b                   	pop    %ebx
  40858a:	5e                   	pop    %esi
  40858b:	5f                   	pop    %edi
  40858c:	c3                   	ret    
  40858d:	8d 76 00             	lea    0x0(%esi),%esi

00408590 <___pformat_gfloat>:
  408590:	57                   	push   %edi
  408591:	56                   	push   %esi
  408592:	53                   	push   %ebx
  408593:	89 c3                	mov    %eax,%ebx
  408595:	83 ec 40             	sub    $0x40,%esp
  408598:	8b 40 0c             	mov    0xc(%eax),%eax
  40859b:	85 c0                	test   %eax,%eax
  40859d:	0f 88 1d 01 00 00    	js     4086c0 <___pformat_gfloat+0x130>
  4085a3:	0f 84 fa 00 00 00    	je     4086a3 <___pformat_gfloat+0x113>
  4085a9:	db 6c 24 50          	fldt   0x50(%esp)
  4085ad:	89 44 24 10          	mov    %eax,0x10(%esp)
  4085b1:	8d 54 24 28          	lea    0x28(%esp),%edx
  4085b5:	db 7c 24 30          	fstpt  0x30(%esp)
  4085b9:	8b 44 24 30          	mov    0x30(%esp),%eax
  4085bd:	89 54 24 18          	mov    %edx,0x18(%esp)
  4085c1:	8d 54 24 2c          	lea    0x2c(%esp),%edx
  4085c5:	89 54 24 14          	mov    %edx,0x14(%esp)
  4085c9:	89 04 24             	mov    %eax,(%esp)
  4085cc:	8b 44 24 34          	mov    0x34(%esp),%eax
  4085d0:	89 44 24 04          	mov    %eax,0x4(%esp)
  4085d4:	8b 44 24 38          	mov    0x38(%esp),%eax
  4085d8:	89 44 24 08          	mov    %eax,0x8(%esp)
  4085dc:	8b 44 24 3c          	mov    0x3c(%esp),%eax
  4085e0:	89 44 24 0c          	mov    %eax,0xc(%esp)
  4085e4:	b8 02 00 00 00       	mov    $0x2,%eax
  4085e9:	e8 52 f1 ff ff       	call   407740 <___pformat_cvt>
  4085ee:	8b 74 24 2c          	mov    0x2c(%esp),%esi
  4085f2:	81 fe 00 80 ff ff    	cmp    $0xffff8000,%esi
  4085f8:	89 c7                	mov    %eax,%edi
  4085fa:	0f 84 e0 00 00 00    	je     4086e0 <___pformat_gfloat+0x150>
  408600:	83 fe fd             	cmp    $0xfffffffd,%esi
  408603:	7c 6b                	jl     408670 <___pformat_gfloat+0xe0>
  408605:	8b 43 0c             	mov    0xc(%ebx),%eax
  408608:	39 c6                	cmp    %eax,%esi
  40860a:	7f 64                	jg     408670 <___pformat_gfloat+0xe0>
  40860c:	f6 43 05 08          	testb  $0x8,0x5(%ebx)
  408610:	0f 85 bb 00 00 00    	jne    4086d1 <___pformat_gfloat+0x141>
  408616:	89 3c 24             	mov    %edi,(%esp)
  408619:	e8 12 3b 00 00       	call   40c130 <_strlen>
  40861e:	29 f0                	sub    %esi,%eax
  408620:	85 c0                	test   %eax,%eax
  408622:	89 43 0c             	mov    %eax,0xc(%ebx)
  408625:	0f 88 c5 00 00 00    	js     4086f0 <___pformat_gfloat+0x160>
  40862b:	8b 44 24 28          	mov    0x28(%esp),%eax
  40862f:	89 fa                	mov    %edi,%edx
  408631:	89 f1                	mov    %esi,%ecx
  408633:	89 1c 24             	mov    %ebx,(%esp)
  408636:	e8 c5 f9 ff ff       	call   408000 <___pformat_emit_float>
  40863b:	8b 43 08             	mov    0x8(%ebx),%eax
  40863e:	8d 50 ff             	lea    -0x1(%eax),%edx
  408641:	85 c0                	test   %eax,%eax
  408643:	89 53 08             	mov    %edx,0x8(%ebx)
  408646:	7e 4c                	jle    408694 <___pformat_gfloat+0x104>
  408648:	89 da                	mov    %ebx,%edx
  40864a:	b8 20 00 00 00       	mov    $0x20,%eax
  40864f:	e8 ec f1 ff ff       	call   407840 <___pformat_putc>
  408654:	8b 4b 08             	mov    0x8(%ebx),%ecx
  408657:	8d 71 ff             	lea    -0x1(%ecx),%esi
  40865a:	85 c9                	test   %ecx,%ecx
  40865c:	89 73 08             	mov    %esi,0x8(%ebx)
  40865f:	7f e7                	jg     408648 <___pformat_gfloat+0xb8>
  408661:	89 3c 24             	mov    %edi,(%esp)
  408664:	e8 97 2b 00 00       	call   40b200 <___freedtoa>
  408669:	83 c4 40             	add    $0x40,%esp
  40866c:	5b                   	pop    %ebx
  40866d:	5e                   	pop    %esi
  40866e:	5f                   	pop    %edi
  40866f:	c3                   	ret    
  408670:	f6 43 05 08          	testb  $0x8,0x5(%ebx)
  408674:	75 3e                	jne    4086b4 <___pformat_gfloat+0x124>
  408676:	89 3c 24             	mov    %edi,(%esp)
  408679:	e8 b2 3a 00 00       	call   40c130 <_strlen>
  40867e:	83 e8 01             	sub    $0x1,%eax
  408681:	89 43 0c             	mov    %eax,0xc(%ebx)
  408684:	8b 44 24 28          	mov    0x28(%esp),%eax
  408688:	89 f1                	mov    %esi,%ecx
  40868a:	89 fa                	mov    %edi,%edx
  40868c:	89 1c 24             	mov    %ebx,(%esp)
  40868f:	e8 9c fc ff ff       	call   408330 <___pformat_emit_efloat>
  408694:	89 3c 24             	mov    %edi,(%esp)
  408697:	e8 64 2b 00 00       	call   40b200 <___freedtoa>
  40869c:	83 c4 40             	add    $0x40,%esp
  40869f:	5b                   	pop    %ebx
  4086a0:	5e                   	pop    %esi
  4086a1:	5f                   	pop    %edi
  4086a2:	c3                   	ret    
  4086a3:	c7 43 0c 01 00 00 00 	movl   $0x1,0xc(%ebx)
  4086aa:	b8 01 00 00 00       	mov    $0x1,%eax
  4086af:	e9 f5 fe ff ff       	jmp    4085a9 <___pformat_gfloat+0x19>
  4086b4:	83 6b 0c 01          	subl   $0x1,0xc(%ebx)
  4086b8:	eb ca                	jmp    408684 <___pformat_gfloat+0xf4>
  4086ba:	8d b6 00 00 00 00    	lea    0x0(%esi),%esi
  4086c0:	c7 43 0c 06 00 00 00 	movl   $0x6,0xc(%ebx)
  4086c7:	b8 06 00 00 00       	mov    $0x6,%eax
  4086cc:	e9 d8 fe ff ff       	jmp    4085a9 <___pformat_gfloat+0x19>
  4086d1:	29 f0                	sub    %esi,%eax
  4086d3:	89 43 0c             	mov    %eax,0xc(%ebx)
  4086d6:	e9 50 ff ff ff       	jmp    40862b <___pformat_gfloat+0x9b>
  4086db:	90                   	nop
  4086dc:	8d 74 26 00          	lea    0x0(%esi,%eiz,1),%esi
  4086e0:	89 c2                	mov    %eax,%edx
  4086e2:	8b 44 24 28          	mov    0x28(%esp),%eax
  4086e6:	89 d9                	mov    %ebx,%ecx
  4086e8:	e8 73 f3 ff ff       	call   407a60 <___pformat_emit_inf_or_nan>
  4086ed:	eb a5                	jmp    408694 <___pformat_gfloat+0x104>
  4086ef:	90                   	nop
  4086f0:	8b 53 08             	mov    0x8(%ebx),%edx
  4086f3:	85 d2                	test   %edx,%edx
  4086f5:	0f 8e 30 ff ff ff    	jle    40862b <___pformat_gfloat+0x9b>
  4086fb:	01 d0                	add    %edx,%eax
  4086fd:	89 43 08             	mov    %eax,0x8(%ebx)
  408700:	e9 26 ff ff ff       	jmp    40862b <___pformat_gfloat+0x9b>
  408705:	8d 74 26 00          	lea    0x0(%esi,%eiz,1),%esi
  408709:	8d bc 27 00 00 00 00 	lea    0x0(%edi,%eiz,1),%edi

00408710 <___pformat_xldouble>:
  408710:	55                   	push   %ebp
  408711:	89 e5                	mov    %esp,%ebp
  408713:	57                   	push   %edi
  408714:	89 c7                	mov    %eax,%edi
  408716:	56                   	push   %esi
  408717:	53                   	push   %ebx
  408718:	83 ec 6c             	sub    $0x6c,%esp
  40871b:	db 6d 08             	fldt   0x8(%ebp)
  40871e:	d9 c0                	fld    %st(0)
  408720:	db 7d c0             	fstpt  -0x40(%ebp)
  408723:	d9 e5                	fxam   
  408725:	9b df e0             	fstsw  %ax
  408728:	66 25 00 45          	and    $0x4500,%ax
  40872c:	66 3d 00 01          	cmp    $0x100,%ax
  408730:	0f 84 1f 05 00 00    	je     408c55 <___pformat_xldouble+0x545>
  408736:	0f b7 55 c8          	movzwl -0x38(%ebp),%edx
  40873a:	89 d3                	mov    %edx,%ebx
  40873c:	81 e3 00 80 00 00    	and    $0x8000,%ebx
  408742:	0f 85 48 01 00 00    	jne    408890 <___pformat_xldouble+0x180>
  408748:	d9 e5                	fxam   
  40874a:	9b df e0             	fstsw  %ax
  40874d:	dd d8                	fstp   %st(0)
  40874f:	66 25 00 45          	and    $0x4500,%ax
  408753:	66 3d 00 05          	cmp    $0x500,%ax
  408757:	0f 84 16 05 00 00    	je     408c73 <___pformat_xldouble+0x563>
  40875d:	66 81 e2 ff 7f       	and    $0x7fff,%dx
  408762:	0f 84 b8 01 00 00    	je     408920 <___pformat_xldouble+0x210>
  408768:	8d b2 01 c0 ff ff    	lea    -0x3fff(%edx),%esi
  40876e:	8b 45 c0             	mov    -0x40(%ebp),%eax
  408771:	8b 55 c4             	mov    -0x3c(%ebp),%edx
  408774:	8b 5f 0c             	mov    0xc(%edi),%ebx
  408777:	83 fb 0e             	cmp    $0xe,%ebx
  40877a:	0f 86 26 01 00 00    	jbe    4088a6 <___pformat_xldouble+0x196>
  408780:	89 d1                	mov    %edx,%ecx
  408782:	09 c1                	or     %eax,%ecx
  408784:	0f 84 fc 04 00 00    	je     408c86 <___pformat_xldouble+0x576>
  40878a:	8d 4d d6             	lea    -0x2a(%ebp),%ecx
  40878d:	89 4d a4             	mov    %ecx,-0x5c(%ebp)
  408790:	89 4d ac             	mov    %ecx,-0x54(%ebp)
  408793:	89 7d a8             	mov    %edi,-0x58(%ebp)
  408796:	eb 5e                	jmp    4087f6 <___pformat_xldouble+0xe6>
  408798:	8b 4d a8             	mov    -0x58(%ebp),%ecx
  40879b:	8b 49 0c             	mov    0xc(%ecx),%ecx
  40879e:	85 c9                	test   %ecx,%ecx
  4087a0:	7e 09                	jle    4087ab <___pformat_xldouble+0x9b>
  4087a2:	8b 5d a8             	mov    -0x58(%ebp),%ebx
  4087a5:	83 e9 01             	sub    $0x1,%ecx
  4087a8:	89 4b 0c             	mov    %ecx,0xc(%ebx)
  4087ab:	8b 4d ac             	mov    -0x54(%ebp),%ecx
  4087ae:	0f ac d0 04          	shrd   $0x4,%edx,%eax
  4087b2:	c1 ea 04             	shr    $0x4,%edx
  4087b5:	85 ff                	test   %edi,%edi
  4087b7:	89 4d b0             	mov    %ecx,-0x50(%ebp)
  4087ba:	0f 84 a8 00 00 00    	je     408868 <___pformat_xldouble+0x158>
  4087c0:	8b 4d b0             	mov    -0x50(%ebp),%ecx
  4087c3:	83 c1 01             	add    $0x1,%ecx
  4087c6:	83 ff 09             	cmp    $0x9,%edi
  4087c9:	89 4d ac             	mov    %ecx,-0x54(%ebp)
  4087cc:	0f 8e b5 00 00 00    	jle    408887 <___pformat_xldouble+0x177>
  4087d2:	8d 4f 37             	lea    0x37(%edi),%ecx
  4087d5:	8b 7d a8             	mov    -0x58(%ebp),%edi
  4087d8:	8b 7f 04             	mov    0x4(%edi),%edi
  4087db:	89 7d a0             	mov    %edi,-0x60(%ebp)
  4087de:	0f b6 5d a0          	movzbl -0x60(%ebp),%ebx
  4087e2:	83 e3 20             	and    $0x20,%ebx
  4087e5:	09 d9                	or     %ebx,%ecx
  4087e7:	8b 7d b0             	mov    -0x50(%ebp),%edi
  4087ea:	88 0f                	mov    %cl,(%edi)
  4087ec:	89 d7                	mov    %edx,%edi
  4087ee:	09 c7                	or     %eax,%edi
  4087f0:	0f 84 60 01 00 00    	je     408956 <___pformat_xldouble+0x246>
  4087f6:	89 c7                	mov    %eax,%edi
  4087f8:	89 c1                	mov    %eax,%ecx
  4087fa:	83 e7 0f             	and    $0xf,%edi
  4087fd:	89 fb                	mov    %edi,%ebx
  4087ff:	31 f9                	xor    %edi,%ecx
  408801:	c1 fb 1f             	sar    $0x1f,%ebx
  408804:	31 d3                	xor    %edx,%ebx
  408806:	09 cb                	or     %ecx,%ebx
  408808:	75 8e                	jne    408798 <___pformat_xldouble+0x88>
  40880a:	8b 4d a4             	mov    -0x5c(%ebp),%ecx
  40880d:	39 4d ac             	cmp    %ecx,-0x54(%ebp)
  408810:	77 1e                	ja     408830 <___pformat_xldouble+0x120>
  408812:	8b 4d a8             	mov    -0x58(%ebp),%ecx
  408815:	f6 41 05 08          	testb  $0x8,0x5(%ecx)
  408819:	75 15                	jne    408830 <___pformat_xldouble+0x120>
  40881b:	8b 4d ac             	mov    -0x54(%ebp),%ecx
  40881e:	89 4d b0             	mov    %ecx,-0x50(%ebp)
  408821:	8b 4d a8             	mov    -0x58(%ebp),%ecx
  408824:	8b 59 0c             	mov    0xc(%ecx),%ebx
  408827:	85 db                	test   %ebx,%ebx
  408829:	7e 11                	jle    40883c <___pformat_xldouble+0x12c>
  40882b:	90                   	nop
  40882c:	8d 74 26 00          	lea    0x0(%esi,%eiz,1),%esi
  408830:	8b 4d ac             	mov    -0x54(%ebp),%ecx
  408833:	8d 59 01             	lea    0x1(%ecx),%ebx
  408836:	89 5d b0             	mov    %ebx,-0x50(%ebp)
  408839:	c6 01 2e             	movb   $0x2e,(%ecx)
  40883c:	89 c1                	mov    %eax,%ecx
  40883e:	83 f1 01             	xor    $0x1,%ecx
  408841:	09 d1                	or     %edx,%ecx
  408843:	74 17                	je     40885c <___pformat_xldouble+0x14c>
  408845:	8d 4e ff             	lea    -0x1(%esi),%ecx
  408848:	0f ac d0 01          	shrd   $0x1,%edx,%eax
  40884c:	89 ce                	mov    %ecx,%esi
  40884e:	89 c3                	mov    %eax,%ebx
  408850:	d1 ea                	shr    %edx
  408852:	83 f3 01             	xor    $0x1,%ebx
  408855:	09 d3                	or     %edx,%ebx
  408857:	8d 4e ff             	lea    -0x1(%esi),%ecx
  40885a:	75 ec                	jne    408848 <___pformat_xldouble+0x138>
  40885c:	31 c0                	xor    %eax,%eax
  40885e:	31 d2                	xor    %edx,%edx
  408860:	85 ff                	test   %edi,%edi
  408862:	0f 85 58 ff ff ff    	jne    4087c0 <___pformat_xldouble+0xb0>
  408868:	8b 4d a4             	mov    -0x5c(%ebp),%ecx
  40886b:	39 4d b0             	cmp    %ecx,-0x50(%ebp)
  40886e:	77 0e                	ja     40887e <___pformat_xldouble+0x16e>
  408870:	8b 4d a8             	mov    -0x58(%ebp),%ecx
  408873:	8b 49 0c             	mov    0xc(%ecx),%ecx
  408876:	85 c9                	test   %ecx,%ecx
  408878:	0f 88 b7 01 00 00    	js     408a35 <___pformat_xldouble+0x325>
  40887e:	8b 4d b0             	mov    -0x50(%ebp),%ecx
  408881:	83 c1 01             	add    $0x1,%ecx
  408884:	89 4d ac             	mov    %ecx,-0x54(%ebp)
  408887:	8d 4f 30             	lea    0x30(%edi),%ecx
  40888a:	e9 58 ff ff ff       	jmp    4087e7 <___pformat_xldouble+0xd7>
  40888f:	90                   	nop
  408890:	81 4f 04 80 00 00 00 	orl    $0x80,0x4(%edi)
  408897:	e9 ac fe ff ff       	jmp    408748 <___pformat_xldouble+0x38>
  40889c:	8d 74 26 00          	lea    0x0(%esi,%eiz,1),%esi
  4088a0:	0f a4 c2 01          	shld   $0x1,%eax,%edx
  4088a4:	01 c0                	add    %eax,%eax
  4088a6:	85 d2                	test   %edx,%edx
  4088a8:	79 f6                	jns    4088a0 <___pformat_xldouble+0x190>
  4088aa:	b9 0e 00 00 00       	mov    $0xe,%ecx
  4088af:	0f ac d0 01          	shrd   $0x1,%edx,%eax
  4088b3:	29 d9                	sub    %ebx,%ecx
  4088b5:	d1 ea                	shr    %edx
  4088b7:	c1 e1 02             	shl    $0x2,%ecx
  4088ba:	89 45 b0             	mov    %eax,-0x50(%ebp)
  4088bd:	b8 04 00 00 00       	mov    $0x4,%eax
  4088c2:	89 55 b4             	mov    %edx,-0x4c(%ebp)
  4088c5:	31 d2                	xor    %edx,%edx
  4088c7:	0f a5 c2             	shld   %cl,%eax,%edx
  4088ca:	d3 e0                	shl    %cl,%eax
  4088cc:	f6 c1 20             	test   $0x20,%cl
  4088cf:	74 04                	je     4088d5 <___pformat_xldouble+0x1c5>
  4088d1:	89 c2                	mov    %eax,%edx
  4088d3:	31 c0                	xor    %eax,%eax
  4088d5:	01 45 b0             	add    %eax,-0x50(%ebp)
  4088d8:	11 55 b4             	adc    %edx,-0x4c(%ebp)
  4088db:	8b 55 b4             	mov    -0x4c(%ebp),%edx
  4088de:	8b 45 b0             	mov    -0x50(%ebp),%eax
  4088e1:	85 d2                	test   %edx,%edx
  4088e3:	0f 88 64 03 00 00    	js     408c4d <___pformat_xldouble+0x53d>
  4088e9:	0f a4 c2 01          	shld   $0x1,%eax,%edx
  4088ed:	01 c0                	add    %eax,%eax
  4088ef:	89 45 b0             	mov    %eax,-0x50(%ebp)
  4088f2:	89 55 b4             	mov    %edx,-0x4c(%ebp)
  4088f5:	8b 55 b4             	mov    -0x4c(%ebp),%edx
  4088f8:	b9 0f 00 00 00       	mov    $0xf,%ecx
  4088fd:	8b 45 b0             	mov    -0x50(%ebp),%eax
  408900:	29 d9                	sub    %ebx,%ecx
  408902:	c1 e1 02             	shl    $0x2,%ecx
  408905:	0f ad d0             	shrd   %cl,%edx,%eax
  408908:	d3 ea                	shr    %cl,%edx
  40890a:	f6 c1 20             	test   $0x20,%cl
  40890d:	0f 84 77 fe ff ff    	je     40878a <___pformat_xldouble+0x7a>
  408913:	89 d0                	mov    %edx,%eax
  408915:	31 d2                	xor    %edx,%edx
  408917:	e9 6e fe ff ff       	jmp    40878a <___pformat_xldouble+0x7a>
  40891c:	8d 74 26 00          	lea    0x0(%esi,%eiz,1),%esi
  408920:	8b 55 c4             	mov    -0x3c(%ebp),%edx
  408923:	8b 45 c0             	mov    -0x40(%ebp),%eax
  408926:	89 d6                	mov    %edx,%esi
  408928:	09 c6                	or     %eax,%esi
  40892a:	0f 84 d7 02 00 00    	je     408c07 <___pformat_xldouble+0x4f7>
  408930:	85 d2                	test   %edx,%edx
  408932:	0f 88 84 03 00 00    	js     408cbc <___pformat_xldouble+0x5ac>
  408938:	b9 01 c0 ff ff       	mov    $0xffffc001,%ecx
  40893d:	8d 76 00             	lea    0x0(%esi),%esi
  408940:	0f a4 c2 01          	shld   $0x1,%eax,%edx
  408944:	89 cb                	mov    %ecx,%ebx
  408946:	01 c0                	add    %eax,%eax
  408948:	83 e9 01             	sub    $0x1,%ecx
  40894b:	85 d2                	test   %edx,%edx
  40894d:	79 f1                	jns    408940 <___pformat_xldouble+0x230>
  40894f:	89 de                	mov    %ebx,%esi
  408951:	e9 1e fe ff ff       	jmp    408774 <___pformat_xldouble+0x64>
  408956:	8b 45 a4             	mov    -0x5c(%ebp),%eax
  408959:	39 45 ac             	cmp    %eax,-0x54(%ebp)
  40895c:	8b 7d a8             	mov    -0x58(%ebp),%edi
  40895f:	0f 84 52 03 00 00    	je     408cb7 <___pformat_xldouble+0x5a7>
  408965:	8b 47 04             	mov    0x4(%edi),%eax
  408968:	89 45 b0             	mov    %eax,-0x50(%ebp)
  40896b:	8b 47 08             	mov    0x8(%edi),%eax
  40896e:	85 c0                	test   %eax,%eax
  408970:	89 45 a0             	mov    %eax,-0x60(%ebp)
  408973:	0f 8e 7c 02 00 00    	jle    408bf5 <___pformat_xldouble+0x4e5>
  408979:	8b 57 0c             	mov    0xc(%edi),%edx
  40897c:	0f bf f6             	movswl %si,%esi
  40897f:	8b 45 ac             	mov    -0x54(%ebp),%eax
  408982:	2b 45 a4             	sub    -0x5c(%ebp),%eax
  408985:	89 75 a8             	mov    %esi,-0x58(%ebp)
  408988:	85 d2                	test   %edx,%edx
  40898a:	7e 02                	jle    40898e <___pformat_xldouble+0x27e>
  40898c:	01 d0                	add    %edx,%eax
  40898e:	8b 55 b0             	mov    -0x50(%ebp),%edx
  408991:	81 e2 c0 01 00 00    	and    $0x1c0,%edx
  408997:	83 fa 01             	cmp    $0x1,%edx
  40899a:	19 d2                	sbb    %edx,%edx
  40899c:	8d 74 10 06          	lea    0x6(%eax,%edx,1),%esi
  4089a0:	8b 45 a8             	mov    -0x58(%ebp),%eax
  4089a3:	ba 67 66 66 66       	mov    $0x66666667,%edx
  4089a8:	f7 ea                	imul   %edx
  4089aa:	8b 45 a8             	mov    -0x58(%ebp),%eax
  4089ad:	c1 fa 02             	sar    $0x2,%edx
  4089b0:	c1 f8 1f             	sar    $0x1f,%eax
  4089b3:	29 c2                	sub    %eax,%edx
  4089b5:	89 d1                	mov    %edx,%ecx
  4089b7:	0f 84 ee 02 00 00    	je     408cab <___pformat_xldouble+0x59b>
  4089bd:	bb 02 00 00 00       	mov    $0x2,%ebx
  4089c2:	b8 67 66 66 66       	mov    $0x66666667,%eax
  4089c7:	83 c6 01             	add    $0x1,%esi
  4089ca:	f7 e9                	imul   %ecx
  4089cc:	83 c3 01             	add    $0x1,%ebx
  4089cf:	c1 f9 1f             	sar    $0x1f,%ecx
  4089d2:	c1 fa 02             	sar    $0x2,%edx
  4089d5:	29 ca                	sub    %ecx,%edx
  4089d7:	89 d1                	mov    %edx,%ecx
  4089d9:	75 e7                	jne    4089c2 <___pformat_xldouble+0x2b2>
  4089db:	0f bf c3             	movswl %bx,%eax
  4089de:	89 45 9c             	mov    %eax,-0x64(%ebp)
  4089e1:	39 75 a0             	cmp    %esi,-0x60(%ebp)
  4089e4:	7e 5a                	jle    408a40 <___pformat_xldouble+0x330>
  4089e6:	8b 45 a0             	mov    -0x60(%ebp),%eax
  4089e9:	29 f0                	sub    %esi,%eax
  4089eb:	f7 45 b0 00 06 00 00 	testl  $0x600,-0x50(%ebp)
  4089f2:	0f 85 1a 02 00 00    	jne    408c12 <___pformat_xldouble+0x502>
  4089f8:	8d 50 ff             	lea    -0x1(%eax),%edx
  4089fb:	85 c0                	test   %eax,%eax
  4089fd:	89 57 08             	mov    %edx,0x8(%edi)
  408a00:	7e 45                	jle    408a47 <___pformat_xldouble+0x337>
  408a02:	89 fa                	mov    %edi,%edx
  408a04:	b8 20 00 00 00       	mov    $0x20,%eax
  408a09:	e8 32 ee ff ff       	call   407840 <___pformat_putc>
  408a0e:	8b 47 08             	mov    0x8(%edi),%eax
  408a11:	8d 50 ff             	lea    -0x1(%eax),%edx
  408a14:	85 c0                	test   %eax,%eax
  408a16:	89 57 08             	mov    %edx,0x8(%edi)
  408a19:	7f e7                	jg     408a02 <___pformat_xldouble+0x2f2>
  408a1b:	8b 47 04             	mov    0x4(%edi),%eax
  408a1e:	89 45 b0             	mov    %eax,-0x50(%ebp)
  408a21:	f6 45 b0 80          	testb  $0x80,-0x50(%ebp)
  408a25:	74 26                	je     408a4d <___pformat_xldouble+0x33d>
  408a27:	89 fa                	mov    %edi,%edx
  408a29:	b8 2d 00 00 00       	mov    $0x2d,%eax
  408a2e:	e8 0d ee ff ff       	call   407840 <___pformat_putc>
  408a33:	eb 2f                	jmp    408a64 <___pformat_xldouble+0x354>
  408a35:	8b 7d b0             	mov    -0x50(%ebp),%edi
  408a38:	89 7d ac             	mov    %edi,-0x54(%ebp)
  408a3b:	e9 ac fd ff ff       	jmp    4087ec <___pformat_xldouble+0xdc>
  408a40:	c7 47 08 ff ff ff ff 	movl   $0xffffffff,0x8(%edi)
  408a47:	f6 45 b0 80          	testb  $0x80,-0x50(%ebp)
  408a4b:	75 da                	jne    408a27 <___pformat_xldouble+0x317>
  408a4d:	f7 45 b0 00 01 00 00 	testl  $0x100,-0x50(%ebp)
  408a54:	0f 85 c0 01 00 00    	jne    408c1a <___pformat_xldouble+0x50a>
  408a5a:	f6 45 b0 40          	testb  $0x40,-0x50(%ebp)
  408a5e:	0f 85 d8 01 00 00    	jne    408c3c <___pformat_xldouble+0x52c>
  408a64:	89 fa                	mov    %edi,%edx
  408a66:	b8 30 00 00 00       	mov    $0x30,%eax
  408a6b:	e8 d0 ed ff ff       	call   407840 <___pformat_putc>
  408a70:	8b 47 04             	mov    0x4(%edi),%eax
  408a73:	89 fa                	mov    %edi,%edx
  408a75:	83 e0 20             	and    $0x20,%eax
  408a78:	83 c8 58             	or     $0x58,%eax
  408a7b:	e8 c0 ed ff ff       	call   407840 <___pformat_putc>
  408a80:	8b 47 08             	mov    0x8(%edi),%eax
  408a83:	85 c0                	test   %eax,%eax
  408a85:	7e 25                	jle    408aac <___pformat_xldouble+0x39c>
  408a87:	f6 47 05 02          	testb  $0x2,0x5(%edi)
  408a8b:	74 1f                	je     408aac <___pformat_xldouble+0x39c>
  408a8d:	83 e8 01             	sub    $0x1,%eax
  408a90:	89 47 08             	mov    %eax,0x8(%edi)
  408a93:	89 fa                	mov    %edi,%edx
  408a95:	b8 30 00 00 00       	mov    $0x30,%eax
  408a9a:	e8 a1 ed ff ff       	call   407840 <___pformat_putc>
  408a9f:	8b 47 08             	mov    0x8(%edi),%eax
  408aa2:	8d 50 ff             	lea    -0x1(%eax),%edx
  408aa5:	85 c0                	test   %eax,%eax
  408aa7:	89 57 08             	mov    %edx,0x8(%edi)
  408aaa:	7f e7                	jg     408a93 <___pformat_xldouble+0x383>
  408aac:	8b 45 a4             	mov    -0x5c(%ebp),%eax
  408aaf:	39 45 ac             	cmp    %eax,-0x54(%ebp)
  408ab2:	8b 5d ac             	mov    -0x54(%ebp),%ebx
  408ab5:	77 19                	ja     408ad0 <___pformat_xldouble+0x3c0>
  408ab7:	e9 a1 00 00 00       	jmp    408b5d <___pformat_xldouble+0x44d>
  408abc:	8d 74 26 00          	lea    0x0(%esi,%eiz,1),%esi
  408ac0:	89 fa                	mov    %edi,%edx
  408ac2:	e8 79 ed ff ff       	call   407840 <___pformat_putc>
  408ac7:	3b 5d a4             	cmp    -0x5c(%ebp),%ebx
  408aca:	0f 84 8d 00 00 00    	je     408b5d <___pformat_xldouble+0x44d>
  408ad0:	83 eb 01             	sub    $0x1,%ebx
  408ad3:	0f be 03             	movsbl (%ebx),%eax
  408ad6:	83 f8 2e             	cmp    $0x2e,%eax
  408ad9:	75 e5                	jne    408ac0 <___pformat_xldouble+0x3b0>
  408adb:	83 7f 10 fd          	cmpl   $0xfffffffd,0x10(%edi)
  408adf:	0f 84 cc 00 00 00    	je     408bb1 <___pformat_xldouble+0x4a1>
  408ae5:	0f b7 57 14          	movzwl 0x14(%edi),%edx
  408ae9:	66 85 d2             	test   %dx,%dx
  408aec:	0f 84 ae 00 00 00    	je     408ba0 <___pformat_xldouble+0x490>
  408af2:	8b 47 10             	mov    0x10(%edi),%eax
  408af5:	89 65 b0             	mov    %esp,-0x50(%ebp)
  408af8:	83 c0 0f             	add    $0xf,%eax
  408afb:	83 e0 f0             	and    $0xfffffff0,%eax
  408afe:	e8 cd d5 ff ff       	call   4060d0 <___chkstk_ms>
  408b03:	29 c4                	sub    %eax,%esp
  408b05:	8d 74 24 10          	lea    0x10(%esp),%esi
  408b09:	8d 45 bc             	lea    -0x44(%ebp),%eax
  408b0c:	c7 45 bc 00 00 00 00 	movl   $0x0,-0x44(%ebp)
  408b13:	89 44 24 08          	mov    %eax,0x8(%esp)
  408b17:	89 54 24 04          	mov    %edx,0x4(%esp)
  408b1b:	89 34 24             	mov    %esi,(%esp)
  408b1e:	e8 5d 20 00 00       	call   40ab80 <_wcrtomb>
  408b23:	85 c0                	test   %eax,%eax
  408b25:	0f 8e 00 01 00 00    	jle    408c2b <___pformat_xldouble+0x51b>
  408b2b:	01 f0                	add    %esi,%eax
  408b2d:	89 5d ac             	mov    %ebx,-0x54(%ebp)
  408b30:	89 f3                	mov    %esi,%ebx
  408b32:	89 c6                	mov    %eax,%esi
  408b34:	83 c3 01             	add    $0x1,%ebx
  408b37:	0f be 43 ff          	movsbl -0x1(%ebx),%eax
  408b3b:	89 fa                	mov    %edi,%edx
  408b3d:	e8 fe ec ff ff       	call   407840 <___pformat_putc>
  408b42:	39 f3                	cmp    %esi,%ebx
  408b44:	75 ee                	jne    408b34 <___pformat_xldouble+0x424>
  408b46:	8b 5d ac             	mov    -0x54(%ebp),%ebx
  408b49:	8b 65 b0             	mov    -0x50(%ebp),%esp
  408b4c:	e9 76 ff ff ff       	jmp    408ac7 <___pformat_xldouble+0x3b7>
  408b51:	89 fa                	mov    %edi,%edx
  408b53:	b8 30 00 00 00       	mov    $0x30,%eax
  408b58:	e8 e3 ec ff ff       	call   407840 <___pformat_putc>
  408b5d:	8b 47 0c             	mov    0xc(%edi),%eax
  408b60:	8d 50 ff             	lea    -0x1(%eax),%edx
  408b63:	85 c0                	test   %eax,%eax
  408b65:	89 57 0c             	mov    %edx,0xc(%edi)
  408b68:	7f e7                	jg     408b51 <___pformat_xldouble+0x441>
  408b6a:	8b 47 04             	mov    0x4(%edi),%eax
  408b6d:	89 fa                	mov    %edi,%edx
  408b6f:	83 e0 20             	and    $0x20,%eax
  408b72:	83 c8 50             	or     $0x50,%eax
  408b75:	e8 c6 ec ff ff       	call   407840 <___pformat_putc>
  408b7a:	8b 45 9c             	mov    -0x64(%ebp),%eax
  408b7d:	89 f9                	mov    %edi,%ecx
  408b7f:	01 47 08             	add    %eax,0x8(%edi)
  408b82:	8b 45 a8             	mov    -0x58(%ebp),%eax
  408b85:	81 4f 04 c0 01 00 00 	orl    $0x1c0,0x4(%edi)
  408b8c:	99                   	cltd   
  408b8d:	e8 5e ef ff ff       	call   407af0 <___pformat_int>
  408b92:	8d 65 f4             	lea    -0xc(%ebp),%esp
  408b95:	5b                   	pop    %ebx
  408b96:	5e                   	pop    %esi
  408b97:	5f                   	pop    %edi
  408b98:	5d                   	pop    %ebp
  408b99:	c3                   	ret    
  408b9a:	8d b6 00 00 00 00    	lea    0x0(%esi),%esi
  408ba0:	89 fa                	mov    %edi,%edx
  408ba2:	b8 2e 00 00 00       	mov    $0x2e,%eax
  408ba7:	e8 94 ec ff ff       	call   407840 <___pformat_putc>
  408bac:	e9 16 ff ff ff       	jmp    408ac7 <___pformat_xldouble+0x3b7>
  408bb1:	c7 45 bc 00 00 00 00 	movl   $0x0,-0x44(%ebp)
  408bb8:	8d 75 bc             	lea    -0x44(%ebp),%esi
  408bbb:	e8 f0 35 00 00       	call   40c1b0 <_localeconv>
  408bc0:	89 74 24 0c          	mov    %esi,0xc(%esp)
  408bc4:	c7 44 24 08 10 00 00 	movl   $0x10,0x8(%esp)
  408bcb:	00 
  408bcc:	8b 00                	mov    (%eax),%eax
  408bce:	89 44 24 04          	mov    %eax,0x4(%esp)
  408bd2:	8d 45 ba             	lea    -0x46(%ebp),%eax
  408bd5:	89 04 24             	mov    %eax,(%esp)
  408bd8:	e8 f3 22 00 00       	call   40aed0 <_mbrtowc>
  408bdd:	85 c0                	test   %eax,%eax
  408bdf:	0f 8e 85 00 00 00    	jle    408c6a <___pformat_xldouble+0x55a>
  408be5:	0f b7 55 ba          	movzwl -0x46(%ebp),%edx
  408be9:	66 89 57 14          	mov    %dx,0x14(%edi)
  408bed:	89 47 10             	mov    %eax,0x10(%edi)
  408bf0:	e9 f4 fe ff ff       	jmp    408ae9 <___pformat_xldouble+0x3d9>
  408bf5:	0f bf c6             	movswl %si,%eax
  408bf8:	c7 45 9c 02 00 00 00 	movl   $0x2,-0x64(%ebp)
  408bff:	89 45 a8             	mov    %eax,-0x58(%ebp)
  408c02:	e9 40 fe ff ff       	jmp    408a47 <___pformat_xldouble+0x337>
  408c07:	31 f6                	xor    %esi,%esi
  408c09:	31 c0                	xor    %eax,%eax
  408c0b:	31 d2                	xor    %edx,%edx
  408c0d:	e9 62 fb ff ff       	jmp    408774 <___pformat_xldouble+0x64>
  408c12:	89 47 08             	mov    %eax,0x8(%edi)
  408c15:	e9 2d fe ff ff       	jmp    408a47 <___pformat_xldouble+0x337>
  408c1a:	89 fa                	mov    %edi,%edx
  408c1c:	b8 2b 00 00 00       	mov    $0x2b,%eax
  408c21:	e8 1a ec ff ff       	call   407840 <___pformat_putc>
  408c26:	e9 39 fe ff ff       	jmp    408a64 <___pformat_xldouble+0x354>
  408c2b:	89 fa                	mov    %edi,%edx
  408c2d:	b8 2e 00 00 00       	mov    $0x2e,%eax
  408c32:	e8 09 ec ff ff       	call   407840 <___pformat_putc>
  408c37:	e9 0d ff ff ff       	jmp    408b49 <___pformat_xldouble+0x439>
  408c3c:	89 fa                	mov    %edi,%edx
  408c3e:	b8 20 00 00 00       	mov    $0x20,%eax
  408c43:	e8 f8 eb ff ff       	call   407840 <___pformat_putc>
  408c48:	e9 17 fe ff ff       	jmp    408a64 <___pformat_xldouble+0x354>
  408c4d:	83 c6 01             	add    $0x1,%esi
  408c50:	e9 a0 fc ff ff       	jmp    4088f5 <___pformat_xldouble+0x1e5>
  408c55:	dd d8                	fstp   %st(0)
  408c57:	89 f9                	mov    %edi,%ecx
  408c59:	ba 4c e1 40 00       	mov    $0x40e14c,%edx
  408c5e:	31 c0                	xor    %eax,%eax
  408c60:	e8 fb ed ff ff       	call   407a60 <___pformat_emit_inf_or_nan>
  408c65:	e9 28 ff ff ff       	jmp    408b92 <___pformat_xldouble+0x482>
  408c6a:	0f b7 57 14          	movzwl 0x14(%edi),%edx
  408c6e:	e9 7a ff ff ff       	jmp    408bed <___pformat_xldouble+0x4dd>
  408c73:	89 f9                	mov    %edi,%ecx
  408c75:	ba 50 e1 40 00       	mov    $0x40e150,%edx
  408c7a:	89 d8                	mov    %ebx,%eax
  408c7c:	e8 df ed ff ff       	call   407a60 <___pformat_emit_inf_or_nan>
  408c81:	e9 0c ff ff ff       	jmp    408b92 <___pformat_xldouble+0x482>
  408c86:	8d 45 d6             	lea    -0x2a(%ebp),%eax
  408c89:	89 45 a4             	mov    %eax,-0x5c(%ebp)
  408c8c:	85 db                	test   %ebx,%ebx
  408c8e:	8b 47 04             	mov    0x4(%edi),%eax
  408c91:	7e 33                	jle    408cc6 <___pformat_xldouble+0x5b6>
  408c93:	89 45 b0             	mov    %eax,-0x50(%ebp)
  408c96:	c6 45 d6 2e          	movb   $0x2e,-0x2a(%ebp)
  408c9a:	8d 45 d7             	lea    -0x29(%ebp),%eax
  408c9d:	8d 50 01             	lea    0x1(%eax),%edx
  408ca0:	89 55 ac             	mov    %edx,-0x54(%ebp)
  408ca3:	c6 00 30             	movb   $0x30,(%eax)
  408ca6:	e9 c0 fc ff ff       	jmp    40896b <___pformat_xldouble+0x25b>
  408cab:	c7 45 9c 02 00 00 00 	movl   $0x2,-0x64(%ebp)
  408cb2:	e9 2a fd ff ff       	jmp    4089e1 <___pformat_xldouble+0x2d1>
  408cb7:	8b 5f 0c             	mov    0xc(%edi),%ebx
  408cba:	eb d0                	jmp    408c8c <___pformat_xldouble+0x57c>
  408cbc:	be 02 c0 ff ff       	mov    $0xffffc002,%esi
  408cc1:	e9 ae fa ff ff       	jmp    408774 <___pformat_xldouble+0x64>
  408cc6:	89 c2                	mov    %eax,%edx
  408cc8:	80 e6 08             	and    $0x8,%dh
  408ccb:	89 45 b0             	mov    %eax,-0x50(%ebp)
  408cce:	8b 45 a4             	mov    -0x5c(%ebp),%eax
  408cd1:	74 ca                	je     408c9d <___pformat_xldouble+0x58d>
  408cd3:	eb c1                	jmp    408c96 <___pformat_xldouble+0x586>
  408cd5:	8d 74 26 00          	lea    0x0(%esi,%eiz,1),%esi
  408cd9:	8d bc 27 00 00 00 00 	lea    0x0(%edi,%eiz,1),%edi

00408ce0 <___mingw_pformat>:
  408ce0:	55                   	push   %ebp
  408ce1:	57                   	push   %edi
  408ce2:	56                   	push   %esi
  408ce3:	53                   	push   %ebx
  408ce4:	83 ec 5c             	sub    $0x5c,%esp
  408ce7:	8b 44 24 74          	mov    0x74(%esp),%eax
  408ceb:	81 64 24 70 00 30 00 	andl   $0x3000,0x70(%esp)
  408cf2:	00 
  408cf3:	8b 74 24 7c          	mov    0x7c(%esp),%esi
  408cf7:	c7 04 24 69 e1 40 00 	movl   $0x40e169,(%esp)
  408cfe:	8b ac 24 80 00 00 00 	mov    0x80(%esp),%ebp
  408d05:	89 44 24 2c          	mov    %eax,0x2c(%esp)
  408d09:	8b 44 24 70          	mov    0x70(%esp),%eax
  408d0d:	c7 44 24 34 ff ff ff 	movl   $0xffffffff,0x34(%esp)
  408d14:	ff 
  408d15:	c7 44 24 38 ff ff ff 	movl   $0xffffffff,0x38(%esp)
  408d1c:	ff 
  408d1d:	c7 44 24 3c fd ff ff 	movl   $0xfffffffd,0x3c(%esp)
  408d24:	ff 
  408d25:	89 44 24 30          	mov    %eax,0x30(%esp)
  408d29:	31 c0                	xor    %eax,%eax
  408d2b:	66 89 44 24 40       	mov    %ax,0x40(%esp)
  408d30:	8b 44 24 78          	mov    0x78(%esp),%eax
  408d34:	c7 44 24 44 00 00 00 	movl   $0x0,0x44(%esp)
  408d3b:	00 
  408d3c:	89 44 24 48          	mov    %eax,0x48(%esp)
  408d40:	e8 73 34 00 00       	call   40c1b8 <_getenv>
  408d45:	85 c0                	test   %eax,%eax
  408d47:	0f 84 d3 00 00 00    	je     408e20 <___mingw_pformat+0x140>
  408d4d:	0f be 00             	movsbl (%eax),%eax
  408d50:	83 e8 30             	sub    $0x30,%eax
  408d53:	83 f8 02             	cmp    $0x2,%eax
  408d56:	0f 87 c4 00 00 00    	ja     408e20 <___mingw_pformat+0x140>
  408d5c:	b8 02 00 00 00       	mov    $0x2,%eax
  408d61:	89 44 24 4c          	mov    %eax,0x4c(%esp)
  408d65:	8b 44 24 70          	mov    0x70(%esp),%eax
  408d69:	80 cc 02             	or     $0x2,%ah
  408d6c:	89 44 24 1c          	mov    %eax,0x1c(%esp)
  408d70:	0f be 06             	movsbl (%esi),%eax
  408d73:	8d 5e 01             	lea    0x1(%esi),%ebx
  408d76:	89 d9                	mov    %ebx,%ecx
  408d78:	85 c0                	test   %eax,%eax
  408d7a:	0f 84 92 00 00 00    	je     408e12 <___mingw_pformat+0x132>
  408d80:	83 f8 25             	cmp    $0x25,%eax
  408d83:	0f 85 de 00 00 00    	jne    408e67 <___mingw_pformat+0x187>
  408d89:	8b 44 24 70          	mov    0x70(%esp),%eax
  408d8d:	c7 44 24 38 ff ff ff 	movl   $0xffffffff,0x38(%esp)
  408d94:	ff 
  408d95:	c7 44 24 34 ff ff ff 	movl   $0xffffffff,0x34(%esp)
  408d9c:	ff 
  408d9d:	c7 44 24 14 00 00 00 	movl   $0x0,0x14(%esp)
  408da4:	00 
  408da5:	89 44 24 30          	mov    %eax,0x30(%esp)
  408da9:	0f b6 56 01          	movzbl 0x1(%esi),%edx
  408dad:	8d 44 24 34          	lea    0x34(%esp),%eax
  408db1:	89 44 24 18          	mov    %eax,0x18(%esp)
  408db5:	c7 44 24 10 00 00 00 	movl   $0x0,0x10(%esp)
  408dbc:	00 
  408dbd:	84 d2                	test   %dl,%dl
  408dbf:	74 3f                	je     408e00 <___mingw_pformat+0x120>
  408dc1:	8d 42 e0             	lea    -0x20(%edx),%eax
  408dc4:	0f be fa             	movsbl %dl,%edi
  408dc7:	3c 5a                	cmp    $0x5a,%al
  408dc9:	8d 71 01             	lea    0x1(%ecx),%esi
  408dcc:	0f 87 70 04 00 00    	ja     409242 <___mingw_pformat+0x562>
  408dd2:	0f b6 c0             	movzbl %al,%eax
  408dd5:	ff 24 85 80 e1 40 00 	jmp    *0x40e180(,%eax,4)
  408ddc:	8d 74 26 00          	lea    0x0(%esi,%eiz,1),%esi
  408de0:	0f b6 51 01          	movzbl 0x1(%ecx),%edx
  408de4:	89 f1                	mov    %esi,%ecx
  408de6:	c7 44 24 14 02 00 00 	movl   $0x2,0x14(%esp)
  408ded:	00 
  408dee:	c7 44 24 10 04 00 00 	movl   $0x4,0x10(%esp)
  408df5:	00 
  408df6:	84 d2                	test   %dl,%dl
  408df8:	75 c7                	jne    408dc1 <___mingw_pformat+0xe1>
  408dfa:	8d b6 00 00 00 00    	lea    0x0(%esi),%esi
  408e00:	89 ce                	mov    %ecx,%esi
  408e02:	0f be 06             	movsbl (%esi),%eax
  408e05:	8d 5e 01             	lea    0x1(%esi),%ebx
  408e08:	89 d9                	mov    %ebx,%ecx
  408e0a:	85 c0                	test   %eax,%eax
  408e0c:	0f 85 6e ff ff ff    	jne    408d80 <___mingw_pformat+0xa0>
  408e12:	8b 44 24 44          	mov    0x44(%esp),%eax
  408e16:	83 c4 5c             	add    $0x5c,%esp
  408e19:	5b                   	pop    %ebx
  408e1a:	5e                   	pop    %esi
  408e1b:	5f                   	pop    %edi
  408e1c:	5d                   	pop    %ebp
  408e1d:	c3                   	ret    
  408e1e:	66 90                	xchg   %ax,%ax
  408e20:	f6 05 78 10 41 00 01 	testb  $0x1,0x411078
  408e27:	0f 85 2f ff ff ff    	jne    408d5c <___mingw_pformat+0x7c>
  408e2d:	b8 03 00 00 00       	mov    $0x3,%eax
  408e32:	e9 2a ff ff ff       	jmp    408d61 <___mingw_pformat+0x81>
  408e37:	80 79 01 6c          	cmpb   $0x6c,0x1(%ecx)
  408e3b:	c7 44 24 14 02 00 00 	movl   $0x2,0x14(%esp)
  408e42:	00 
  408e43:	75 0b                	jne    408e50 <___mingw_pformat+0x170>
  408e45:	8d 71 02             	lea    0x2(%ecx),%esi
  408e48:	c7 44 24 14 03 00 00 	movl   $0x3,0x14(%esp)
  408e4f:	00 
  408e50:	83 4c 24 30 04       	orl    $0x4,0x30(%esp)
  408e55:	89 f1                	mov    %esi,%ecx
  408e57:	0f b6 16             	movzbl (%esi),%edx
  408e5a:	c7 44 24 10 04 00 00 	movl   $0x4,0x10(%esp)
  408e61:	00 
  408e62:	e9 56 ff ff ff       	jmp    408dbd <___mingw_pformat+0xdd>
  408e67:	8d 54 24 2c          	lea    0x2c(%esp),%edx
  408e6b:	89 de                	mov    %ebx,%esi
  408e6d:	e8 ce e9 ff ff       	call   407840 <___pformat_putc>
  408e72:	e9 f9 fe ff ff       	jmp    408d70 <___mingw_pformat+0x90>
  408e77:	8b 54 24 14          	mov    0x14(%esp),%edx
  408e7b:	89 e8                	mov    %ebp,%eax
  408e7d:	83 ea 02             	sub    $0x2,%edx
  408e80:	83 fa 01             	cmp    $0x1,%edx
  408e83:	0f 86 07 05 00 00    	jbe    409390 <___mingw_pformat+0x6b0>
  408e89:	8b 18                	mov    (%eax),%ebx
  408e8b:	83 c5 04             	add    $0x4,%ebp
  408e8e:	85 db                	test   %ebx,%ebx
  408e90:	0f 84 89 06 00 00    	je     40951f <___mingw_pformat+0x83f>
  408e96:	89 1c 24             	mov    %ebx,(%esp)
  408e99:	e8 92 32 00 00       	call   40c130 <_strlen>
  408e9e:	89 c2                	mov    %eax,%edx
  408ea0:	8d 4c 24 2c          	lea    0x2c(%esp),%ecx
  408ea4:	89 d8                	mov    %ebx,%eax
  408ea6:	e8 05 eb ff ff       	call   4079b0 <___pformat_putchars>
  408eab:	e9 c0 fe ff ff       	jmp    408d70 <___mingw_pformat+0x90>
  408eb0:	8b 54 24 14          	mov    0x14(%esp),%edx
  408eb4:	89 e8                	mov    %ebp,%eax
  408eb6:	c7 44 24 38 ff ff ff 	movl   $0xffffffff,0x38(%esp)
  408ebd:	ff 
  408ebe:	83 ea 02             	sub    $0x2,%edx
  408ec1:	83 fa 01             	cmp    $0x1,%edx
  408ec4:	0f 86 23 03 00 00    	jbe    4091ed <___mingw_pformat+0x50d>
  408eca:	8b 00                	mov    (%eax),%eax
  408ecc:	8d 4c 24 2c          	lea    0x2c(%esp),%ecx
  408ed0:	ba 01 00 00 00       	mov    $0x1,%edx
  408ed5:	83 c5 04             	add    $0x4,%ebp
  408ed8:	88 44 24 20          	mov    %al,0x20(%esp)
  408edc:	8d 44 24 20          	lea    0x20(%esp),%eax
  408ee0:	e8 cb ea ff ff       	call   4079b0 <___pformat_putchars>
  408ee5:	e9 86 fe ff ff       	jmp    408d70 <___mingw_pformat+0x90>
  408eea:	8d b6 00 00 00 00    	lea    0x0(%esi),%esi
  408ef0:	83 7c 24 14 04       	cmpl   $0x4,0x14(%esp)
  408ef5:	0f 84 f0 05 00 00    	je     4094eb <___mingw_pformat+0x80b>
  408efb:	83 7c 24 14 01       	cmpl   $0x1,0x14(%esp)
  408f00:	8b 45 00             	mov    0x0(%ebp),%eax
  408f03:	8b 54 24 44          	mov    0x44(%esp),%edx
  408f07:	0f 84 17 05 00 00    	je     409424 <___mingw_pformat+0x744>
  408f0d:	83 7c 24 14 02       	cmpl   $0x2,0x14(%esp)
  408f12:	0f 84 43 06 00 00    	je     40955b <___mingw_pformat+0x87b>
  408f18:	83 7c 24 14 03       	cmpl   $0x3,0x14(%esp)
  408f1d:	89 10                	mov    %edx,(%eax)
  408f1f:	0f 84 a9 06 00 00    	je     4095ce <___mingw_pformat+0x8ee>
  408f25:	83 c5 04             	add    $0x4,%ebp
  408f28:	e9 43 fe ff ff       	jmp    408d70 <___mingw_pformat+0x90>
  408f2d:	8d 76 00             	lea    0x0(%esi),%esi
  408f30:	0f b6 51 01          	movzbl 0x1(%ecx),%edx
  408f34:	89 f1                	mov    %esi,%ecx
  408f36:	c7 44 24 14 03 00 00 	movl   $0x3,0x14(%esp)
  408f3d:	00 
  408f3e:	c7 44 24 10 04 00 00 	movl   $0x4,0x10(%esp)
  408f45:	00 
  408f46:	e9 72 fe ff ff       	jmp    408dbd <___mingw_pformat+0xdd>
  408f4b:	90                   	nop
  408f4c:	8d 74 26 00          	lea    0x0(%esi,%eiz,1),%esi
  408f50:	0f b6 51 01          	movzbl 0x1(%ecx),%edx
  408f54:	80 fa 68             	cmp    $0x68,%dl
  408f57:	0f 84 4c 05 00 00    	je     4094a9 <___mingw_pformat+0x7c9>
  408f5d:	89 f1                	mov    %esi,%ecx
  408f5f:	c7 44 24 14 01 00 00 	movl   $0x1,0x14(%esp)
  408f66:	00 
  408f67:	c7 44 24 10 04 00 00 	movl   $0x4,0x10(%esp)
  408f6e:	00 
  408f6f:	e9 49 fe ff ff       	jmp    408dbd <___mingw_pformat+0xdd>
  408f74:	8b 44 24 10          	mov    0x10(%esp),%eax
  408f78:	85 c0                	test   %eax,%eax
  408f7a:	75 0e                	jne    408f8a <___mingw_pformat+0x2aa>
  408f7c:	8b 44 24 70          	mov    0x70(%esp),%eax
  408f80:	39 44 24 30          	cmp    %eax,0x30(%esp)
  408f84:	0f 84 a4 05 00 00    	je     40952e <___mingw_pformat+0x84e>
  408f8a:	8b 45 00             	mov    0x0(%ebp),%eax
  408f8d:	8d 5d 04             	lea    0x4(%ebp),%ebx
  408f90:	c7 44 24 24 00 00 00 	movl   $0x0,0x24(%esp)
  408f97:	00 
  408f98:	8b 4c 24 24          	mov    0x24(%esp),%ecx
  408f9c:	89 dd                	mov    %ebx,%ebp
  408f9e:	89 44 24 20          	mov    %eax,0x20(%esp)
  408fa2:	8b 54 24 20          	mov    0x20(%esp),%edx
  408fa6:	8d 44 24 2c          	lea    0x2c(%esp),%eax
  408faa:	89 04 24             	mov    %eax,(%esp)
  408fad:	b8 78 00 00 00       	mov    $0x78,%eax
  408fb2:	e8 69 ed ff ff       	call   407d20 <___pformat_xint>
  408fb7:	e9 b4 fd ff ff       	jmp    408d70 <___mingw_pformat+0x90>
  408fbc:	8d 74 26 00          	lea    0x0(%esi,%eiz,1),%esi
  408fc0:	8b 44 24 30          	mov    0x30(%esp),%eax
  408fc4:	83 c8 20             	or     $0x20,%eax
  408fc7:	a8 04                	test   $0x4,%al
  408fc9:	89 44 24 30          	mov    %eax,0x30(%esp)
  408fcd:	0f 84 4a 02 00 00    	je     40921d <___mingw_pformat+0x53d>
  408fd3:	db 6d 00             	fldt   0x0(%ebp)
  408fd6:	8d 5d 0c             	lea    0xc(%ebp),%ebx
  408fd9:	db 3c 24             	fstpt  (%esp)
  408fdc:	89 dd                	mov    %ebx,%ebp
  408fde:	8d 44 24 2c          	lea    0x2c(%esp),%eax
  408fe2:	e8 29 f7 ff ff       	call   408710 <___pformat_xldouble>
  408fe7:	e9 84 fd ff ff       	jmp    408d70 <___mingw_pformat+0x90>
  408fec:	8d 74 26 00          	lea    0x0(%esi,%eiz,1),%esi
  408ff0:	83 7c 24 14 03       	cmpl   $0x3,0x14(%esp)
  408ff5:	89 f8                	mov    %edi,%eax
  408ff7:	0f 84 80 04 00 00    	je     40947d <___mingw_pformat+0x79d>
  408ffd:	83 7c 24 14 02       	cmpl   $0x2,0x14(%esp)
  409002:	0f 84 27 04 00 00    	je     40942f <___mingw_pformat+0x74f>
  409008:	8b 7d 00             	mov    0x0(%ebp),%edi
  40900b:	8d 55 04             	lea    0x4(%ebp),%edx
  40900e:	83 7c 24 14 01       	cmpl   $0x1,0x14(%esp)
  409013:	c7 44 24 24 00 00 00 	movl   $0x0,0x24(%esp)
  40901a:	00 
  40901b:	89 7c 24 20          	mov    %edi,0x20(%esp)
  40901f:	0f 84 1e 05 00 00    	je     409543 <___mingw_pformat+0x863>
  409025:	83 7c 24 14 04       	cmpl   $0x4,0x14(%esp)
  40902a:	89 d5                	mov    %edx,%ebp
  40902c:	0f 84 86 05 00 00    	je     4095b8 <___mingw_pformat+0x8d8>
  409032:	83 f8 75             	cmp    $0x75,%eax
  409035:	0f 84 ec 00 00 00    	je     409127 <___mingw_pformat+0x447>
  40903b:	8b 54 24 20          	mov    0x20(%esp),%edx
  40903f:	8d 7c 24 2c          	lea    0x2c(%esp),%edi
  409043:	8b 4c 24 24          	mov    0x24(%esp),%ecx
  409047:	89 3c 24             	mov    %edi,(%esp)
  40904a:	e8 d1 ec ff ff       	call   407d20 <___pformat_xint>
  40904f:	e9 1c fd ff ff       	jmp    408d70 <___mingw_pformat+0x90>
  409054:	8b 44 24 30          	mov    0x30(%esp),%eax
  409058:	83 c8 20             	or     $0x20,%eax
  40905b:	a8 04                	test   $0x4,%al
  40905d:	89 44 24 30          	mov    %eax,0x30(%esp)
  409061:	0f 84 15 01 00 00    	je     40917c <___mingw_pformat+0x49c>
  409067:	db 6d 00             	fldt   0x0(%ebp)
  40906a:	8d 5d 0c             	lea    0xc(%ebp),%ebx
  40906d:	db 3c 24             	fstpt  (%esp)
  409070:	89 dd                	mov    %ebx,%ebp
  409072:	8d 44 24 2c          	lea    0x2c(%esp),%eax
  409076:	e8 15 f5 ff ff       	call   408590 <___pformat_gfloat>
  40907b:	e9 f0 fc ff ff       	jmp    408d70 <___mingw_pformat+0x90>
  409080:	8b 44 24 30          	mov    0x30(%esp),%eax
  409084:	83 c8 20             	or     $0x20,%eax
  409087:	a8 04                	test   $0x4,%al
  409089:	89 44 24 30          	mov    %eax,0x30(%esp)
  40908d:	0f 84 0e 01 00 00    	je     4091a1 <___mingw_pformat+0x4c1>
  409093:	db 6d 00             	fldt   0x0(%ebp)
  409096:	8d 5d 0c             	lea    0xc(%ebp),%ebx
  409099:	db 3c 24             	fstpt  (%esp)
  40909c:	89 dd                	mov    %ebx,%ebp
  40909e:	8d 44 24 2c          	lea    0x2c(%esp),%eax
  4090a2:	e8 09 f4 ff ff       	call   4084b0 <___pformat_float>
  4090a7:	e9 c4 fc ff ff       	jmp    408d70 <___mingw_pformat+0x90>
  4090ac:	8d 74 26 00          	lea    0x0(%esi,%eiz,1),%esi
  4090b0:	8b 44 24 30          	mov    0x30(%esp),%eax
  4090b4:	83 c8 20             	or     $0x20,%eax
  4090b7:	a8 04                	test   $0x4,%al
  4090b9:	89 44 24 30          	mov    %eax,0x30(%esp)
  4090bd:	0f 84 09 01 00 00    	je     4091cc <___mingw_pformat+0x4ec>
  4090c3:	db 6d 00             	fldt   0x0(%ebp)
  4090c6:	8d 5d 0c             	lea    0xc(%ebp),%ebx
  4090c9:	db 3c 24             	fstpt  (%esp)
  4090cc:	89 dd                	mov    %ebx,%ebp
  4090ce:	8d 44 24 2c          	lea    0x2c(%esp),%eax
  4090d2:	e8 29 f3 ff ff       	call   408400 <___pformat_efloat>
  4090d7:	e9 94 fc ff ff       	jmp    408d70 <___mingw_pformat+0x90>
  4090dc:	8d 74 26 00          	lea    0x0(%esi,%eiz,1),%esi
  4090e0:	81 4c 24 30 80 00 00 	orl    $0x80,0x30(%esp)
  4090e7:	00 
  4090e8:	83 7c 24 14 03       	cmpl   $0x3,0x14(%esp)
  4090ed:	0f 84 a0 03 00 00    	je     409493 <___mingw_pformat+0x7b3>
  4090f3:	83 7c 24 14 02       	cmpl   $0x2,0x14(%esp)
  4090f8:	0f 84 48 03 00 00    	je     409446 <___mingw_pformat+0x766>
  4090fe:	8b 45 00             	mov    0x0(%ebp),%eax
  409101:	8d 55 04             	lea    0x4(%ebp),%edx
  409104:	89 44 24 20          	mov    %eax,0x20(%esp)
  409108:	c1 f8 1f             	sar    $0x1f,%eax
  40910b:	83 7c 24 14 01       	cmpl   $0x1,0x14(%esp)
  409110:	89 44 24 24          	mov    %eax,0x24(%esp)
  409114:	0f 84 4b 04 00 00    	je     409565 <___mingw_pformat+0x885>
  40911a:	83 7c 24 14 04       	cmpl   $0x4,0x14(%esp)
  40911f:	89 d5                	mov    %edx,%ebp
  409121:	0f 84 7c 04 00 00    	je     4095a3 <___mingw_pformat+0x8c3>
  409127:	8b 44 24 20          	mov    0x20(%esp),%eax
  40912b:	8d 4c 24 2c          	lea    0x2c(%esp),%ecx
  40912f:	8b 54 24 24          	mov    0x24(%esp),%edx
  409133:	e8 b8 e9 ff ff       	call   407af0 <___pformat_int>
  409138:	e9 33 fc ff ff       	jmp    408d70 <___mingw_pformat+0x90>
  40913d:	8d 76 00             	lea    0x0(%esi),%esi
  409140:	0f b6 51 01          	movzbl 0x1(%ecx),%edx
  409144:	80 fa 36             	cmp    $0x36,%dl
  409147:	0f 84 78 03 00 00    	je     4094c5 <___mingw_pformat+0x7e5>
  40914d:	80 fa 33             	cmp    $0x33,%dl
  409150:	0f 84 a8 02 00 00    	je     4093fe <___mingw_pformat+0x71e>
  409156:	89 f1                	mov    %esi,%ecx
  409158:	c7 44 24 14 02 00 00 	movl   $0x2,0x14(%esp)
  40915f:	00 
  409160:	c7 44 24 10 04 00 00 	movl   $0x4,0x10(%esp)
  409167:	00 
  409168:	e9 50 fc ff ff       	jmp    408dbd <___mingw_pformat+0xdd>
  40916d:	8d 76 00             	lea    0x0(%esi),%esi
  409170:	8b 44 24 30          	mov    0x30(%esp),%eax
  409174:	a8 04                	test   $0x4,%al
  409176:	0f 85 eb fe ff ff    	jne    409067 <___mingw_pformat+0x387>
  40917c:	dd 45 00             	fldl   0x0(%ebp)
  40917f:	8d 5d 08             	lea    0x8(%ebp),%ebx
  409182:	db 3c 24             	fstpt  (%esp)
  409185:	89 dd                	mov    %ebx,%ebp
  409187:	8d 44 24 2c          	lea    0x2c(%esp),%eax
  40918b:	e8 00 f4 ff ff       	call   408590 <___pformat_gfloat>
  409190:	e9 db fb ff ff       	jmp    408d70 <___mingw_pformat+0x90>
  409195:	8b 44 24 30          	mov    0x30(%esp),%eax
  409199:	a8 04                	test   $0x4,%al
  40919b:	0f 85 f2 fe ff ff    	jne    409093 <___mingw_pformat+0x3b3>
  4091a1:	dd 45 00             	fldl   0x0(%ebp)
  4091a4:	8d 5d 08             	lea    0x8(%ebp),%ebx
  4091a7:	db 3c 24             	fstpt  (%esp)
  4091aa:	89 dd                	mov    %ebx,%ebp
  4091ac:	8d 44 24 2c          	lea    0x2c(%esp),%eax
  4091b0:	e8 fb f2 ff ff       	call   4084b0 <___pformat_float>
  4091b5:	e9 b6 fb ff ff       	jmp    408d70 <___mingw_pformat+0x90>
  4091ba:	8d b6 00 00 00 00    	lea    0x0(%esi),%esi
  4091c0:	8b 44 24 30          	mov    0x30(%esp),%eax
  4091c4:	a8 04                	test   $0x4,%al
  4091c6:	0f 85 f7 fe ff ff    	jne    4090c3 <___mingw_pformat+0x3e3>
  4091cc:	dd 45 00             	fldl   0x0(%ebp)
  4091cf:	8d 5d 08             	lea    0x8(%ebp),%ebx
  4091d2:	db 3c 24             	fstpt  (%esp)
  4091d5:	89 dd                	mov    %ebx,%ebp
  4091d7:	8d 44 24 2c          	lea    0x2c(%esp),%eax
  4091db:	e8 20 f2 ff ff       	call   408400 <___pformat_efloat>
  4091e0:	e9 8b fb ff ff       	jmp    408d70 <___mingw_pformat+0x90>
  4091e5:	c7 44 24 38 ff ff ff 	movl   $0xffffffff,0x38(%esp)
  4091ec:	ff 
  4091ed:	8b 45 00             	mov    0x0(%ebp),%eax
  4091f0:	8d 5d 04             	lea    0x4(%ebp),%ebx
  4091f3:	ba 01 00 00 00       	mov    $0x1,%edx
  4091f8:	8d 4c 24 2c          	lea    0x2c(%esp),%ecx
  4091fc:	89 dd                	mov    %ebx,%ebp
  4091fe:	66 89 44 24 20       	mov    %ax,0x20(%esp)
  409203:	8d 44 24 20          	lea    0x20(%esp),%eax
  409207:	e8 94 e6 ff ff       	call   4078a0 <___pformat_wputchars>
  40920c:	e9 5f fb ff ff       	jmp    408d70 <___mingw_pformat+0x90>
  409211:	8b 44 24 30          	mov    0x30(%esp),%eax
  409215:	a8 04                	test   $0x4,%al
  409217:	0f 85 b6 fd ff ff    	jne    408fd3 <___mingw_pformat+0x2f3>
  40921d:	dd 45 00             	fldl   0x0(%ebp)
  409220:	8d 5d 08             	lea    0x8(%ebp),%ebx
  409223:	db 3c 24             	fstpt  (%esp)
  409226:	89 dd                	mov    %ebx,%ebp
  409228:	8d 44 24 2c          	lea    0x2c(%esp),%eax
  40922c:	e8 df f4 ff ff       	call   408710 <___pformat_xldouble>
  409231:	e9 3a fb ff ff       	jmp    408d70 <___mingw_pformat+0x90>
  409236:	8b 44 24 10          	mov    0x10(%esp),%eax
  40923a:	85 c0                	test   %eax,%eax
  40923c:	0f 84 8e 01 00 00    	je     4093d0 <___mingw_pformat+0x6f0>
  409242:	8b 44 24 10          	mov    0x10(%esp),%eax
  409246:	83 f8 04             	cmp    $0x4,%eax
  409249:	0f 84 c7 03 00 00    	je     409616 <___mingw_pformat+0x936>
  40924f:	83 ea 30             	sub    $0x30,%edx
  409252:	80 fa 09             	cmp    $0x9,%dl
  409255:	0f 87 bb 03 00 00    	ja     409616 <___mingw_pformat+0x936>
  40925b:	85 c0                	test   %eax,%eax
  40925d:	0f 84 5d 01 00 00    	je     4093c0 <___mingw_pformat+0x6e0>
  409263:	83 f8 02             	cmp    $0x2,%eax
  409266:	0f 84 f0 01 00 00    	je     40945c <___mingw_pformat+0x77c>
  40926c:	8b 44 24 18          	mov    0x18(%esp),%eax
  409270:	85 c0                	test   %eax,%eax
  409272:	74 1b                	je     40928f <___mingw_pformat+0x5af>
  409274:	8b 44 24 18          	mov    0x18(%esp),%eax
  409278:	8b 00                	mov    (%eax),%eax
  40927a:	85 c0                	test   %eax,%eax
  40927c:	0f 88 e7 01 00 00    	js     409469 <___mingw_pformat+0x789>
  409282:	8d 04 80             	lea    (%eax,%eax,4),%eax
  409285:	8d 44 47 d0          	lea    -0x30(%edi,%eax,2),%eax
  409289:	8b 7c 24 18          	mov    0x18(%esp),%edi
  40928d:	89 07                	mov    %eax,(%edi)
  40928f:	0f b6 51 01          	movzbl 0x1(%ecx),%edx
  409293:	89 f1                	mov    %esi,%ecx
  409295:	e9 23 fb ff ff       	jmp    408dbd <___mingw_pformat+0xdd>
  40929a:	8d b6 00 00 00 00    	lea    0x0(%esi),%esi
  4092a0:	83 7c 24 10 01       	cmpl   $0x1,0x10(%esp)
  4092a5:	0f 86 51 02 00 00    	jbe    4094fc <___mingw_pformat+0x81c>
  4092ab:	0f b6 51 01          	movzbl 0x1(%ecx),%edx
  4092af:	89 f1                	mov    %esi,%ecx
  4092b1:	c7 44 24 10 04 00 00 	movl   $0x4,0x10(%esp)
  4092b8:	00 
  4092b9:	e9 ff fa ff ff       	jmp    408dbd <___mingw_pformat+0xdd>
  4092be:	66 90                	xchg   %ax,%ax
  4092c0:	8b 44 24 10          	mov    0x10(%esp),%eax
  4092c4:	85 c0                	test   %eax,%eax
  4092c6:	75 c7                	jne    40928f <___mingw_pformat+0x5af>
  4092c8:	81 4c 24 30 00 04 00 	orl    $0x400,0x30(%esp)
  4092cf:	00 
  4092d0:	0f b6 51 01          	movzbl 0x1(%ecx),%edx
  4092d4:	89 f1                	mov    %esi,%ecx
  4092d6:	e9 e2 fa ff ff       	jmp    408dbd <___mingw_pformat+0xdd>
  4092db:	90                   	nop
  4092dc:	8d 74 26 00          	lea    0x0(%esi,%eiz,1),%esi
  4092e0:	8b 44 24 10          	mov    0x10(%esp),%eax
  4092e4:	85 c0                	test   %eax,%eax
  4092e6:	75 a7                	jne    40928f <___mingw_pformat+0x5af>
  4092e8:	81 4c 24 30 00 01 00 	orl    $0x100,0x30(%esp)
  4092ef:	00 
  4092f0:	0f b6 51 01          	movzbl 0x1(%ecx),%edx
  4092f4:	89 f1                	mov    %esi,%ecx
  4092f6:	e9 c2 fa ff ff       	jmp    408dbd <___mingw_pformat+0xdd>
  4092fb:	90                   	nop
  4092fc:	8d 74 26 00          	lea    0x0(%esi,%eiz,1),%esi
  409300:	8b 7c 24 18          	mov    0x18(%esp),%edi
  409304:	85 ff                	test   %edi,%edi
  409306:	74 a3                	je     4092ab <___mingw_pformat+0x5cb>
  409308:	f6 44 24 10 05       	testb  $0x5,0x10(%esp)
  40930d:	0f 85 d0 00 00 00    	jne    4093e3 <___mingw_pformat+0x703>
  409313:	8b 45 00             	mov    0x0(%ebp),%eax
  409316:	8d 7d 04             	lea    0x4(%ebp),%edi
  409319:	8b 54 24 18          	mov    0x18(%esp),%edx
  40931d:	85 c0                	test   %eax,%eax
  40931f:	89 02                	mov    %eax,(%edx)
  409321:	0f 88 5f 02 00 00    	js     409586 <___mingw_pformat+0x8a6>
  409327:	0f b6 51 01          	movzbl 0x1(%ecx),%edx
  40932b:	89 fd                	mov    %edi,%ebp
  40932d:	89 f1                	mov    %esi,%ecx
  40932f:	c7 44 24 18 00 00 00 	movl   $0x0,0x18(%esp)
  409336:	00 
  409337:	e9 81 fa ff ff       	jmp    408dbd <___mingw_pformat+0xdd>
  40933c:	8d 74 26 00          	lea    0x0(%esi,%eiz,1),%esi
  409340:	89 f8                	mov    %edi,%eax
  409342:	8d 54 24 2c          	lea    0x2c(%esp),%edx
  409346:	e8 f5 e4 ff ff       	call   407840 <___pformat_putc>
  40934b:	e9 20 fa ff ff       	jmp    408d70 <___mingw_pformat+0x90>
  409350:	8b 44 24 10          	mov    0x10(%esp),%eax
  409354:	85 c0                	test   %eax,%eax
  409356:	0f 85 33 ff ff ff    	jne    40928f <___mingw_pformat+0x5af>
  40935c:	81 4c 24 30 00 08 00 	orl    $0x800,0x30(%esp)
  409363:	00 
  409364:	0f b6 51 01          	movzbl 0x1(%ecx),%edx
  409368:	89 f1                	mov    %esi,%ecx
  40936a:	e9 4e fa ff ff       	jmp    408dbd <___mingw_pformat+0xdd>
  40936f:	90                   	nop
  409370:	8b 44 24 10          	mov    0x10(%esp),%eax
  409374:	85 c0                	test   %eax,%eax
  409376:	0f 85 13 ff ff ff    	jne    40928f <___mingw_pformat+0x5af>
  40937c:	83 4c 24 30 40       	orl    $0x40,0x30(%esp)
  409381:	0f b6 51 01          	movzbl 0x1(%ecx),%edx
  409385:	89 f1                	mov    %esi,%ecx
  409387:	e9 31 fa ff ff       	jmp    408dbd <___mingw_pformat+0xdd>
  40938c:	8d 74 26 00          	lea    0x0(%esi,%eiz,1),%esi
  409390:	8b 5d 00             	mov    0x0(%ebp),%ebx
  409393:	8d 7d 04             	lea    0x4(%ebp),%edi
  409396:	85 db                	test   %ebx,%ebx
  409398:	0f 84 de 01 00 00    	je     40957c <___mingw_pformat+0x89c>
  40939e:	89 1c 24             	mov    %ebx,(%esp)
  4093a1:	89 fd                	mov    %edi,%ebp
  4093a3:	e8 18 2e 00 00       	call   40c1c0 <_wcslen>
  4093a8:	8d 4c 24 2c          	lea    0x2c(%esp),%ecx
  4093ac:	89 c2                	mov    %eax,%edx
  4093ae:	89 d8                	mov    %ebx,%eax
  4093b0:	e8 eb e4 ff ff       	call   4078a0 <___pformat_wputchars>
  4093b5:	e9 b6 f9 ff ff       	jmp    408d70 <___mingw_pformat+0x90>
  4093ba:	8d b6 00 00 00 00    	lea    0x0(%esi),%esi
  4093c0:	c7 44 24 10 01 00 00 	movl   $0x1,0x10(%esp)
  4093c7:	00 
  4093c8:	e9 9f fe ff ff       	jmp    40926c <___mingw_pformat+0x58c>
  4093cd:	8d 76 00             	lea    0x0(%esi),%esi
  4093d0:	81 4c 24 30 00 02 00 	orl    $0x200,0x30(%esp)
  4093d7:	00 
  4093d8:	0f b6 51 01          	movzbl 0x1(%ecx),%edx
  4093dc:	89 f1                	mov    %esi,%ecx
  4093de:	e9 da f9 ff ff       	jmp    408dbd <___mingw_pformat+0xdd>
  4093e3:	0f b6 51 01          	movzbl 0x1(%ecx),%edx
  4093e7:	89 f1                	mov    %esi,%ecx
  4093e9:	c7 44 24 18 00 00 00 	movl   $0x0,0x18(%esp)
  4093f0:	00 
  4093f1:	c7 44 24 10 04 00 00 	movl   $0x4,0x10(%esp)
  4093f8:	00 
  4093f9:	e9 bf f9 ff ff       	jmp    408dbd <___mingw_pformat+0xdd>
  4093fe:	80 79 02 32          	cmpb   $0x32,0x2(%ecx)
  409402:	0f 84 f2 01 00 00    	je     4095fa <___mingw_pformat+0x91a>
  409408:	89 f1                	mov    %esi,%ecx
  40940a:	ba 33 00 00 00       	mov    $0x33,%edx
  40940f:	c7 44 24 14 02 00 00 	movl   $0x2,0x14(%esp)
  409416:	00 
  409417:	c7 44 24 10 04 00 00 	movl   $0x4,0x10(%esp)
  40941e:	00 
  40941f:	e9 9d f9 ff ff       	jmp    408dc1 <___mingw_pformat+0xe1>
  409424:	66 89 10             	mov    %dx,(%eax)
  409427:	83 c5 04             	add    $0x4,%ebp
  40942a:	e9 41 f9 ff ff       	jmp    408d70 <___mingw_pformat+0x90>
  40942f:	8b 7d 00             	mov    0x0(%ebp),%edi
  409432:	83 c5 04             	add    $0x4,%ebp
  409435:	c7 44 24 24 00 00 00 	movl   $0x0,0x24(%esp)
  40943c:	00 
  40943d:	89 7c 24 20          	mov    %edi,0x20(%esp)
  409441:	e9 ec fb ff ff       	jmp    409032 <___mingw_pformat+0x352>
  409446:	8b 45 00             	mov    0x0(%ebp),%eax
  409449:	83 c5 04             	add    $0x4,%ebp
  40944c:	89 44 24 20          	mov    %eax,0x20(%esp)
  409450:	c1 f8 1f             	sar    $0x1f,%eax
  409453:	89 44 24 24          	mov    %eax,0x24(%esp)
  409457:	e9 cb fc ff ff       	jmp    409127 <___mingw_pformat+0x447>
  40945c:	c7 44 24 10 03 00 00 	movl   $0x3,0x10(%esp)
  409463:	00 
  409464:	e9 03 fe ff ff       	jmp    40926c <___mingw_pformat+0x58c>
  409469:	8b 44 24 18          	mov    0x18(%esp),%eax
  40946d:	83 ef 30             	sub    $0x30,%edi
  409470:	89 38                	mov    %edi,(%eax)
  409472:	0f b6 51 01          	movzbl 0x1(%ecx),%edx
  409476:	89 f1                	mov    %esi,%ecx
  409478:	e9 40 f9 ff ff       	jmp    408dbd <___mingw_pformat+0xdd>
  40947d:	8b 4d 00             	mov    0x0(%ebp),%ecx
  409480:	83 c5 08             	add    $0x8,%ebp
  409483:	8b 5d fc             	mov    -0x4(%ebp),%ebx
  409486:	89 4c 24 20          	mov    %ecx,0x20(%esp)
  40948a:	89 5c 24 24          	mov    %ebx,0x24(%esp)
  40948e:	e9 9f fb ff ff       	jmp    409032 <___mingw_pformat+0x352>
  409493:	8b 45 00             	mov    0x0(%ebp),%eax
  409496:	83 c5 08             	add    $0x8,%ebp
  409499:	8b 55 fc             	mov    -0x4(%ebp),%edx
  40949c:	89 44 24 20          	mov    %eax,0x20(%esp)
  4094a0:	89 54 24 24          	mov    %edx,0x24(%esp)
  4094a4:	e9 7e fc ff ff       	jmp    409127 <___mingw_pformat+0x447>
  4094a9:	0f b6 51 02          	movzbl 0x2(%ecx),%edx
  4094ad:	83 c1 02             	add    $0x2,%ecx
  4094b0:	c7 44 24 14 04 00 00 	movl   $0x4,0x14(%esp)
  4094b7:	00 
  4094b8:	c7 44 24 10 04 00 00 	movl   $0x4,0x10(%esp)
  4094bf:	00 
  4094c0:	e9 f8 f8 ff ff       	jmp    408dbd <___mingw_pformat+0xdd>
  4094c5:	80 79 02 34          	cmpb   $0x34,0x2(%ecx)
  4094c9:	0f 84 0f 01 00 00    	je     4095de <___mingw_pformat+0x8fe>
  4094cf:	89 f1                	mov    %esi,%ecx
  4094d1:	ba 36 00 00 00       	mov    $0x36,%edx
  4094d6:	c7 44 24 14 02 00 00 	movl   $0x2,0x14(%esp)
  4094dd:	00 
  4094de:	c7 44 24 10 04 00 00 	movl   $0x4,0x10(%esp)
  4094e5:	00 
  4094e6:	e9 d6 f8 ff ff       	jmp    408dc1 <___mingw_pformat+0xe1>
  4094eb:	8b 55 00             	mov    0x0(%ebp),%edx
  4094ee:	83 c5 04             	add    $0x4,%ebp
  4094f1:	8b 44 24 44          	mov    0x44(%esp),%eax
  4094f5:	88 02                	mov    %al,(%edx)
  4094f7:	e9 74 f8 ff ff       	jmp    408d70 <___mingw_pformat+0x90>
  4094fc:	8d 44 24 38          	lea    0x38(%esp),%eax
  409500:	c7 44 24 38 00 00 00 	movl   $0x0,0x38(%esp)
  409507:	00 
  409508:	0f b6 51 01          	movzbl 0x1(%ecx),%edx
  40950c:	89 f1                	mov    %esi,%ecx
  40950e:	89 44 24 18          	mov    %eax,0x18(%esp)
  409512:	c7 44 24 10 02 00 00 	movl   $0x2,0x10(%esp)
  409519:	00 
  40951a:	e9 9e f8 ff ff       	jmp    408dbd <___mingw_pformat+0xdd>
  40951f:	ba 06 00 00 00       	mov    $0x6,%edx
  409524:	bb 62 e1 40 00       	mov    $0x40e162,%ebx
  409529:	e9 72 f9 ff ff       	jmp    408ea0 <___mingw_pformat+0x1c0>
  40952e:	8b 44 24 1c          	mov    0x1c(%esp),%eax
  409532:	c7 44 24 38 08 00 00 	movl   $0x8,0x38(%esp)
  409539:	00 
  40953a:	89 44 24 30          	mov    %eax,0x30(%esp)
  40953e:	e9 47 fa ff ff       	jmp    408f8a <___mingw_pformat+0x2aa>
  409543:	0f b7 4c 24 20       	movzwl 0x20(%esp),%ecx
  409548:	89 d5                	mov    %edx,%ebp
  40954a:	c7 44 24 24 00 00 00 	movl   $0x0,0x24(%esp)
  409551:	00 
  409552:	89 4c 24 20          	mov    %ecx,0x20(%esp)
  409556:	e9 d7 fa ff ff       	jmp    409032 <___mingw_pformat+0x352>
  40955b:	89 10                	mov    %edx,(%eax)
  40955d:	83 c5 04             	add    $0x4,%ebp
  409560:	e9 0b f8 ff ff       	jmp    408d70 <___mingw_pformat+0x90>
  409565:	0f bf 44 24 20       	movswl 0x20(%esp),%eax
  40956a:	89 d5                	mov    %edx,%ebp
  40956c:	89 44 24 20          	mov    %eax,0x20(%esp)
  409570:	c1 f8 1f             	sar    $0x1f,%eax
  409573:	89 44 24 24          	mov    %eax,0x24(%esp)
  409577:	e9 ab fb ff ff       	jmp    409127 <___mingw_pformat+0x447>
  40957c:	bb 54 e1 40 00       	mov    $0x40e154,%ebx
  409581:	e9 18 fe ff ff       	jmp    40939e <___mingw_pformat+0x6be>
  409586:	8b 54 24 10          	mov    0x10(%esp),%edx
  40958a:	85 d2                	test   %edx,%edx
  40958c:	0f 85 99 00 00 00    	jne    40962b <___mingw_pformat+0x94b>
  409592:	81 4c 24 30 00 04 00 	orl    $0x400,0x30(%esp)
  409599:	00 
  40959a:	f7 5c 24 34          	negl   0x34(%esp)
  40959e:	e9 84 fd ff ff       	jmp    409327 <___mingw_pformat+0x647>
  4095a3:	0f be 44 24 20       	movsbl 0x20(%esp),%eax
  4095a8:	89 44 24 20          	mov    %eax,0x20(%esp)
  4095ac:	c1 f8 1f             	sar    $0x1f,%eax
  4095af:	89 44 24 24          	mov    %eax,0x24(%esp)
  4095b3:	e9 6f fb ff ff       	jmp    409127 <___mingw_pformat+0x447>
  4095b8:	0f b6 54 24 20       	movzbl 0x20(%esp),%edx
  4095bd:	c7 44 24 24 00 00 00 	movl   $0x0,0x24(%esp)
  4095c4:	00 
  4095c5:	89 54 24 20          	mov    %edx,0x20(%esp)
  4095c9:	e9 64 fa ff ff       	jmp    409032 <___mingw_pformat+0x352>
  4095ce:	89 d7                	mov    %edx,%edi
  4095d0:	83 c5 04             	add    $0x4,%ebp
  4095d3:	c1 ff 1f             	sar    $0x1f,%edi
  4095d6:	89 78 04             	mov    %edi,0x4(%eax)
  4095d9:	e9 92 f7 ff ff       	jmp    408d70 <___mingw_pformat+0x90>
  4095de:	0f b6 51 03          	movzbl 0x3(%ecx),%edx
  4095e2:	83 c1 03             	add    $0x3,%ecx
  4095e5:	c7 44 24 14 03 00 00 	movl   $0x3,0x14(%esp)
  4095ec:	00 
  4095ed:	c7 44 24 10 04 00 00 	movl   $0x4,0x10(%esp)
  4095f4:	00 
  4095f5:	e9 c3 f7 ff ff       	jmp    408dbd <___mingw_pformat+0xdd>
  4095fa:	0f b6 51 03          	movzbl 0x3(%ecx),%edx
  4095fe:	83 c1 03             	add    $0x3,%ecx
  409601:	c7 44 24 14 02 00 00 	movl   $0x2,0x14(%esp)
  409608:	00 
  409609:	c7 44 24 10 04 00 00 	movl   $0x4,0x10(%esp)
  409610:	00 
  409611:	e9 a7 f7 ff ff       	jmp    408dbd <___mingw_pformat+0xdd>
  409616:	8d 54 24 2c          	lea    0x2c(%esp),%edx
  40961a:	b8 25 00 00 00       	mov    $0x25,%eax
  40961f:	89 de                	mov    %ebx,%esi
  409621:	e8 1a e2 ff ff       	call   407840 <___pformat_putc>
  409626:	e9 45 f7 ff ff       	jmp    408d70 <___mingw_pformat+0x90>
  40962b:	c7 44 24 38 ff ff ff 	movl   $0xffffffff,0x38(%esp)
  409632:	ff 
  409633:	89 fd                	mov    %edi,%ebp
  409635:	0f b6 51 01          	movzbl 0x1(%ecx),%edx
  409639:	c7 44 24 18 00 00 00 	movl   $0x0,0x18(%esp)
  409640:	00 
  409641:	89 f1                	mov    %esi,%ecx
  409643:	e9 75 f7 ff ff       	jmp    408dbd <___mingw_pformat+0xdd>
  409648:	90                   	nop
  409649:	90                   	nop
  40964a:	90                   	nop
  40964b:	90                   	nop
  40964c:	90                   	nop
  40964d:	90                   	nop
  40964e:	90                   	nop
  40964f:	90                   	nop

00409650 <___gdtoa>:
  409650:	55                   	push   %ebp
  409651:	57                   	push   %edi
  409652:	56                   	push   %esi
  409653:	53                   	push   %ebx
  409654:	83 ec 6c             	sub    $0x6c,%esp
  409657:	8b 84 24 8c 00 00 00 	mov    0x8c(%esp),%eax
  40965e:	8b 9c 24 8c 00 00 00 	mov    0x8c(%esp),%ebx
  409665:	8b 30                	mov    (%eax),%esi
  409667:	89 f0                	mov    %esi,%eax
  409669:	83 e0 cf             	and    $0xffffffcf,%eax
  40966c:	89 03                	mov    %eax,(%ebx)
  40966e:	89 f0                	mov    %esi,%eax
  409670:	83 e0 07             	and    $0x7,%eax
  409673:	83 f8 04             	cmp    $0x4,%eax
  409676:	0f 87 5f 14 00 00    	ja     40aadb <___gdtoa+0x148b>
  40967c:	ff 24 85 00 e3 40 00 	jmp    *0x40e300(,%eax,4)
  409683:	8b 84 24 80 00 00 00 	mov    0x80(%esp),%eax
  40968a:	31 d2                	xor    %edx,%edx
  40968c:	8b 38                	mov    (%eax),%edi
  40968e:	83 ff 20             	cmp    $0x20,%edi
  409691:	7e 0e                	jle    4096a1 <___gdtoa+0x51>
  409693:	b8 20 00 00 00       	mov    $0x20,%eax
  409698:	01 c0                	add    %eax,%eax
  40969a:	83 c2 01             	add    $0x1,%edx
  40969d:	39 c7                	cmp    %eax,%edi
  40969f:	7f f7                	jg     409698 <___gdtoa+0x48>
  4096a1:	89 14 24             	mov    %edx,(%esp)
  4096a4:	e8 97 1e 00 00       	call   40b540 <___Balloc_D2A>
  4096a9:	8b 8c 24 88 00 00 00 	mov    0x88(%esp),%ecx
  4096b0:	89 c3                	mov    %eax,%ebx
  4096b2:	8d 47 ff             	lea    -0x1(%edi),%eax
  4096b5:	c1 f8 05             	sar    $0x5,%eax
  4096b8:	8d 2c 81             	lea    (%ecx,%eax,4),%ebp
  4096bb:	8b 84 24 88 00 00 00 	mov    0x88(%esp),%eax
  4096c2:	8d 4b 14             	lea    0x14(%ebx),%ecx
  4096c5:	89 ca                	mov    %ecx,%edx
  4096c7:	89 4c 24 0c          	mov    %ecx,0xc(%esp)
  4096cb:	90                   	nop
  4096cc:	8d 74 26 00          	lea    0x0(%esi,%eiz,1),%esi
  4096d0:	8b 08                	mov    (%eax),%ecx
  4096d2:	83 c0 04             	add    $0x4,%eax
  4096d5:	83 c2 04             	add    $0x4,%edx
  4096d8:	39 c5                	cmp    %eax,%ebp
  4096da:	89 4a fc             	mov    %ecx,-0x4(%edx)
  4096dd:	73 f1                	jae    4096d0 <___gdtoa+0x80>
  4096df:	8b 4c 24 0c          	mov    0xc(%esp),%ecx
  4096e3:	29 ca                	sub    %ecx,%edx
  4096e5:	c1 fa 02             	sar    $0x2,%edx
  4096e8:	eb 10                	jmp    4096fa <___gdtoa+0xaa>
  4096ea:	8d b6 00 00 00 00    	lea    0x0(%esi),%esi
  4096f0:	85 c0                	test   %eax,%eax
  4096f2:	0f 84 6e 04 00 00    	je     409b66 <___gdtoa+0x516>
  4096f8:	89 c2                	mov    %eax,%edx
  4096fa:	8d 42 ff             	lea    -0x1(%edx),%eax
  4096fd:	8b 2c 81             	mov    (%ecx,%eax,4),%ebp
  409700:	85 ed                	test   %ebp,%ebp
  409702:	74 ec                	je     4096f0 <___gdtoa+0xa0>
  409704:	0f bd 44 93 10       	bsr    0x10(%ebx,%edx,4),%eax
  409709:	89 53 10             	mov    %edx,0x10(%ebx)
  40970c:	c1 e2 05             	shl    $0x5,%edx
  40970f:	89 d5                	mov    %edx,%ebp
  409711:	83 f0 1f             	xor    $0x1f,%eax
  409714:	29 c5                	sub    %eax,%ebp
  409716:	89 1c 24             	mov    %ebx,(%esp)
  409719:	e8 72 29 00 00       	call   40c090 <___trailz_D2A>
  40971e:	8b 8c 24 84 00 00 00 	mov    0x84(%esp),%ecx
  409725:	89 4c 24 20          	mov    %ecx,0x20(%esp)
  409729:	85 c0                	test   %eax,%eax
  40972b:	89 44 24 5c          	mov    %eax,0x5c(%esp)
  40972f:	0f 85 3f 04 00 00    	jne    409b74 <___gdtoa+0x524>
  409735:	8b 4b 10             	mov    0x10(%ebx),%ecx
  409738:	85 c9                	test   %ecx,%ecx
  40973a:	0f 85 a8 00 00 00    	jne    4097e8 <___gdtoa+0x198>
  409740:	89 1c 24             	mov    %ebx,(%esp)
  409743:	e8 c8 1e 00 00       	call   40b610 <___Bfree_D2A>
  409748:	8b 84 24 98 00 00 00 	mov    0x98(%esp),%eax
  40974f:	c7 00 01 00 00 00    	movl   $0x1,(%eax)
  409755:	8b 84 24 9c 00 00 00 	mov    0x9c(%esp),%eax
  40975c:	c7 44 24 08 01 00 00 	movl   $0x1,0x8(%esp)
  409763:	00 
  409764:	c7 04 24 fd e2 40 00 	movl   $0x40e2fd,(%esp)
  40976b:	89 44 24 04          	mov    %eax,0x4(%esp)
  40976f:	e8 3c 1a 00 00       	call   40b1b0 <___nrv_alloc_D2A>
  409774:	83 c4 6c             	add    $0x6c,%esp
  409777:	5b                   	pop    %ebx
  409778:	5e                   	pop    %esi
  409779:	5f                   	pop    %edi
  40977a:	5d                   	pop    %ebp
  40977b:	c3                   	ret    
  40977c:	8d 74 26 00          	lea    0x0(%esi,%eiz,1),%esi
  409780:	8b 84 24 98 00 00 00 	mov    0x98(%esp),%eax
  409787:	c7 00 00 80 ff ff    	movl   $0xffff8000,(%eax)
  40978d:	8b 84 24 9c 00 00 00 	mov    0x9c(%esp),%eax
  409794:	c7 44 24 08 03 00 00 	movl   $0x3,0x8(%esp)
  40979b:	00 
  40979c:	c7 04 24 f9 e2 40 00 	movl   $0x40e2f9,(%esp)
  4097a3:	89 44 24 04          	mov    %eax,0x4(%esp)
  4097a7:	e8 04 1a 00 00       	call   40b1b0 <___nrv_alloc_D2A>
  4097ac:	83 c4 6c             	add    $0x6c,%esp
  4097af:	5b                   	pop    %ebx
  4097b0:	5e                   	pop    %esi
  4097b1:	5f                   	pop    %edi
  4097b2:	5d                   	pop    %ebp
  4097b3:	c3                   	ret    
  4097b4:	8b 84 24 98 00 00 00 	mov    0x98(%esp),%eax
  4097bb:	c7 00 00 80 ff ff    	movl   $0xffff8000,(%eax)
  4097c1:	8b 84 24 9c 00 00 00 	mov    0x9c(%esp),%eax
  4097c8:	c7 44 24 08 08 00 00 	movl   $0x8,0x8(%esp)
  4097cf:	00 
  4097d0:	c7 04 24 f0 e2 40 00 	movl   $0x40e2f0,(%esp)
  4097d7:	89 44 24 04          	mov    %eax,0x4(%esp)
  4097db:	e8 d0 19 00 00       	call   40b1b0 <___nrv_alloc_D2A>
  4097e0:	83 c4 6c             	add    $0x6c,%esp
  4097e3:	5b                   	pop    %ebx
  4097e4:	5e                   	pop    %esi
  4097e5:	5f                   	pop    %edi
  4097e6:	5d                   	pop    %ebp
  4097e7:	c3                   	ret    
  4097e8:	8d 44 24 5c          	lea    0x5c(%esp),%eax
  4097ec:	89 44 24 04          	mov    %eax,0x4(%esp)
  4097f0:	89 1c 24             	mov    %ebx,(%esp)
  4097f3:	e8 68 25 00 00       	call   40bd60 <___b2d_D2A>
  4097f8:	8b 44 24 20          	mov    0x20(%esp),%eax
  4097fc:	8d 54 28 ff          	lea    -0x1(%eax,%ebp,1),%edx
  409800:	89 54 24 48          	mov    %edx,0x48(%esp)
  409804:	89 d0                	mov    %edx,%eax
  409806:	dd 5c 24 10          	fstpl  0x10(%esp)
  40980a:	8b 4c 24 14          	mov    0x14(%esp),%ecx
  40980e:	c1 f8 1f             	sar    $0x1f,%eax
  409811:	89 44 24 0c          	mov    %eax,0xc(%esp)
  409815:	31 d0                	xor    %edx,%eax
  409817:	2b 44 24 0c          	sub    0xc(%esp),%eax
  40981b:	81 e1 ff ff 0f 00    	and    $0xfffff,%ecx
  409821:	81 c9 00 00 f0 3f    	or     $0x3ff00000,%ecx
  409827:	89 4c 24 14          	mov    %ecx,0x14(%esp)
  40982b:	2d 35 04 00 00       	sub    $0x435,%eax
  409830:	dd 44 24 10          	fldl   0x10(%esp)
  409834:	85 c0                	test   %eax,%eax
  409836:	d8 25 14 e3 40 00    	fsubs  0x40e314
  40983c:	dc 0d 18 e3 40 00    	fmull  0x40e318
  409842:	dc 05 20 e3 40 00    	faddl  0x40e320
  409848:	db 44 24 48          	fildl  0x48(%esp)
  40984c:	dc 0d 28 e3 40 00    	fmull  0x40e328
  409852:	de c1                	faddp  %st,%st(1)
  409854:	7e 10                	jle    409866 <___gdtoa+0x216>
  409856:	89 44 24 48          	mov    %eax,0x48(%esp)
  40985a:	db 44 24 48          	fildl  0x48(%esp)
  40985e:	dc 0d 30 e3 40 00    	fmull  0x40e330
  409864:	de c1                	faddp  %st,%st(1)
  409866:	d9 7c 24 4e          	fnstcw 0x4e(%esp)
  40986a:	0f b7 44 24 4e       	movzwl 0x4e(%esp),%eax
  40986f:	b4 0c                	mov    $0xc,%ah
  409871:	66 89 44 24 4c       	mov    %ax,0x4c(%esp)
  409876:	d9 6c 24 4c          	fldcw  0x4c(%esp)
  40987a:	db 54 24 0c          	fistl  0xc(%esp)
  40987e:	d9 6c 24 4e          	fldcw  0x4e(%esp)
  409882:	d9 ee                	fldz   
  409884:	dd e9                	fucomp %st(1)
  409886:	df e0                	fnstsw %ax
  409888:	9e                   	sahf   
  409889:	0f 87 76 07 00 00    	ja     40a005 <___gdtoa+0x9b5>
  40988f:	dd d8                	fstp   %st(0)
  409891:	89 d0                	mov    %edx,%eax
  409893:	c1 e0 14             	shl    $0x14,%eax
  409896:	01 c8                	add    %ecx,%eax
  409898:	83 7c 24 0c 16       	cmpl   $0x16,0xc(%esp)
  40989d:	89 44 24 14          	mov    %eax,0x14(%esp)
  4098a1:	c7 44 24 34 01 00 00 	movl   $0x1,0x34(%esp)
  4098a8:	00 
  4098a9:	77 29                	ja     4098d4 <___gdtoa+0x284>
  4098ab:	8b 44 24 0c          	mov    0xc(%esp),%eax
  4098af:	dd 04 c5 80 e3 40 00 	fldl   0x40e380(,%eax,8)
  4098b6:	dd 44 24 10          	fldl   0x10(%esp)
  4098ba:	d9 c9                	fxch   %st(1)
  4098bc:	da e9                	fucompp 
  4098be:	df e0                	fnstsw %ax
  4098c0:	9e                   	sahf   
  4098c1:	0f 86 6d 06 00 00    	jbe    409f34 <___gdtoa+0x8e4>
  4098c7:	83 6c 24 0c 01       	subl   $0x1,0xc(%esp)
  4098cc:	c7 44 24 34 00 00 00 	movl   $0x0,0x34(%esp)
  4098d3:	00 
  4098d4:	89 e8                	mov    %ebp,%eax
  4098d6:	29 d0                	sub    %edx,%eax
  4098d8:	83 e8 01             	sub    $0x1,%eax
  4098db:	c7 44 24 28 00 00 00 	movl   $0x0,0x28(%esp)
  4098e2:	00 
  4098e3:	89 44 24 1c          	mov    %eax,0x1c(%esp)
  4098e7:	0f 88 05 07 00 00    	js     409ff2 <___gdtoa+0x9a2>
  4098ed:	8b 44 24 0c          	mov    0xc(%esp),%eax
  4098f1:	85 c0                	test   %eax,%eax
  4098f3:	0f 88 de 06 00 00    	js     409fd7 <___gdtoa+0x987>
  4098f9:	01 44 24 1c          	add    %eax,0x1c(%esp)
  4098fd:	89 44 24 3c          	mov    %eax,0x3c(%esp)
  409901:	c7 44 24 30 00 00 00 	movl   $0x0,0x30(%esp)
  409908:	00 
  409909:	83 bc 24 90 00 00 00 	cmpl   $0x9,0x90(%esp)
  409910:	09 
  409911:	0f 87 81 02 00 00    	ja     409b98 <___gdtoa+0x548>
  409917:	83 bc 24 90 00 00 00 	cmpl   $0x5,0x90(%esp)
  40991e:	05 
  40991f:	0f 8e c0 11 00 00    	jle    40aae5 <___gdtoa+0x1495>
  409925:	83 ac 24 90 00 00 00 	subl   $0x4,0x90(%esp)
  40992c:	04 
  40992d:	31 c0                	xor    %eax,%eax
  40992f:	83 bc 24 90 00 00 00 	cmpl   $0x3,0x90(%esp)
  409936:	03 
  409937:	0f 84 11 06 00 00    	je     409f4e <___gdtoa+0x8fe>
  40993d:	0f 8e 18 06 00 00    	jle    409f5b <___gdtoa+0x90b>
  409943:	83 bc 24 90 00 00 00 	cmpl   $0x4,0x90(%esp)
  40994a:	04 
  40994b:	c7 44 24 40 01 00 00 	movl   $0x1,0x40(%esp)
  409952:	00 
  409953:	0f 84 18 06 00 00    	je     409f71 <___gdtoa+0x921>
  409959:	83 bc 24 90 00 00 00 	cmpl   $0x5,0x90(%esp)
  409960:	05 
  409961:	0f 85 3c 02 00 00    	jne    409ba3 <___gdtoa+0x553>
  409967:	8b 4c 24 0c          	mov    0xc(%esp),%ecx
  40996b:	03 8c 24 94 00 00 00 	add    0x94(%esp),%ecx
  409972:	89 4c 24 44          	mov    %ecx,0x44(%esp)
  409976:	83 c1 01             	add    $0x1,%ecx
  409979:	85 c9                	test   %ecx,%ecx
  40997b:	89 4c 24 18          	mov    %ecx,0x18(%esp)
  40997f:	0f 8e e3 0a 00 00    	jle    40a468 <___gdtoa+0xe18>
  409985:	83 f9 0e             	cmp    $0xe,%ecx
  409988:	0f 96 c2             	setbe  %dl
  40998b:	21 c2                	and    %eax,%edx
  40998d:	89 c8                	mov    %ecx,%eax
  40998f:	89 4c 24 5c          	mov    %ecx,0x5c(%esp)
  409993:	89 04 24             	mov    %eax,(%esp)
  409996:	89 54 24 38          	mov    %edx,0x38(%esp)
  40999a:	e8 d1 17 00 00       	call   40b170 <___rv_alloc_D2A>
  40999f:	8b 54 24 38          	mov    0x38(%esp),%edx
  4099a3:	89 44 24 24          	mov    %eax,0x24(%esp)
  4099a7:	8b 84 24 80 00 00 00 	mov    0x80(%esp),%eax
  4099ae:	8b 40 0c             	mov    0xc(%eax),%eax
  4099b1:	83 e8 01             	sub    $0x1,%eax
  4099b4:	89 44 24 2c          	mov    %eax,0x2c(%esp)
  4099b8:	74 0f                	je     4099c9 <___gdtoa+0x379>
  4099ba:	0f 88 81 05 00 00    	js     409f41 <___gdtoa+0x8f1>
  4099c0:	83 e6 08             	and    $0x8,%esi
  4099c3:	0f 85 59 05 00 00    	jne    409f22 <___gdtoa+0x8d2>
  4099c9:	84 d2                	test   %dl,%dl
  4099cb:	90                   	nop
  4099cc:	8d 74 26 00          	lea    0x0(%esi,%eiz,1),%esi
  4099d0:	0f 84 70 02 00 00    	je     409c46 <___gdtoa+0x5f6>
  4099d6:	8b 44 24 2c          	mov    0x2c(%esp),%eax
  4099da:	0b 44 24 0c          	or     0xc(%esp),%eax
  4099de:	0f 85 62 02 00 00    	jne    409c46 <___gdtoa+0x5f6>
  4099e4:	8b 44 24 34          	mov    0x34(%esp),%eax
  4099e8:	c7 44 24 5c 00 00 00 	movl   $0x0,0x5c(%esp)
  4099ef:	00 
  4099f0:	dd 44 24 10          	fldl   0x10(%esp)
  4099f4:	85 c0                	test   %eax,%eax
  4099f6:	74 0d                	je     409a05 <___gdtoa+0x3b5>
  4099f8:	d9 e8                	fld1   
  4099fa:	dd e9                	fucomp %st(1)
  4099fc:	df e0                	fnstsw %ax
  4099fe:	9e                   	sahf   
  4099ff:	0f 87 e7 0d 00 00    	ja     40a7ec <___gdtoa+0x119c>
  409a05:	d9 c0                	fld    %st(0)
  409a07:	8b 74 24 18          	mov    0x18(%esp),%esi
  409a0b:	d8 c1                	fadd   %st(1),%st
  409a0d:	d8 05 4c e3 40 00    	fadds  0x40e34c
  409a13:	dd 5c 24 10          	fstpl  0x10(%esp)
  409a17:	81 6c 24 14 00 00 40 	subl   $0x3400000,0x14(%esp)
  409a1e:	03 
  409a1f:	85 f6                	test   %esi,%esi
  409a21:	0f 84 e1 01 00 00    	je     409c08 <___gdtoa+0x5b8>
  409a27:	8b 54 24 18          	mov    0x18(%esp),%edx
  409a2b:	d9 c0                	fld    %st(0)
  409a2d:	c7 44 24 38 00 00 00 	movl   $0x0,0x38(%esp)
  409a34:	00 
  409a35:	8b 4c 24 40          	mov    0x40(%esp),%ecx
  409a39:	85 c9                	test   %ecx,%ecx
  409a3b:	0f 84 58 0a 00 00    	je     40a499 <___gdtoa+0xe49>
  409a41:	d9 05 54 e3 40 00    	flds   0x40e354
  409a47:	dc 34 d5 78 e3 40 00 	fdivl  0x40e378(,%edx,8)
  409a4e:	d9 7c 24 4e          	fnstcw 0x4e(%esp)
  409a52:	c7 44 24 5c 00 00 00 	movl   $0x0,0x5c(%esp)
  409a59:	00 
  409a5a:	0f b7 44 24 4e       	movzwl 0x4e(%esp),%eax
  409a5f:	b4 0c                	mov    $0xc,%ah
  409a61:	66 89 44 24 4c       	mov    %ax,0x4c(%esp)
  409a66:	8b 44 24 24          	mov    0x24(%esp),%eax
  409a6a:	8d 70 01             	lea    0x1(%eax),%esi
  409a6d:	dc 64 24 10          	fsubl  0x10(%esp)
  409a71:	d9 c9                	fxch   %st(1)
  409a73:	d9 6c 24 4c          	fldcw  0x4c(%esp)
  409a77:	db 54 24 48          	fistl  0x48(%esp)
  409a7b:	d9 6c 24 4e          	fldcw  0x4e(%esp)
  409a7f:	8b 4c 24 48          	mov    0x48(%esp),%ecx
  409a83:	89 4c 24 48          	mov    %ecx,0x48(%esp)
  409a87:	83 c1 30             	add    $0x30,%ecx
  409a8a:	db 44 24 48          	fildl  0x48(%esp)
  409a8e:	de e9                	fsubrp %st,%st(1)
  409a90:	d9 c9                	fxch   %st(1)
  409a92:	88 08                	mov    %cl,(%eax)
  409a94:	dd e1                	fucom  %st(1)
  409a96:	df e0                	fnstsw %ax
  409a98:	9e                   	sahf   
  409a99:	0f 87 9a 00 00 00    	ja     409b39 <___gdtoa+0x4e9>
  409a9f:	d9 c1                	fld    %st(1)
  409aa1:	d8 2d 40 e3 40 00    	fsubrs 0x40e340
  409aa7:	d9 c9                	fxch   %st(1)
  409aa9:	dd e1                	fucom  %st(1)
  409aab:	df e0                	fnstsw %ax
  409aad:	dd d9                	fstp   %st(1)
  409aaf:	9e                   	sahf   
  409ab0:	0f 87 f1 0a 00 00    	ja     40a5a7 <___gdtoa+0xf57>
  409ab6:	8b 44 24 5c          	mov    0x5c(%esp),%eax
  409aba:	83 c0 01             	add    $0x1,%eax
  409abd:	39 c2                	cmp    %eax,%edx
  409abf:	89 44 24 5c          	mov    %eax,0x5c(%esp)
  409ac3:	0f 8e 69 01 00 00    	jle    409c32 <___gdtoa+0x5e2>
  409ac9:	d9 05 44 e3 40 00    	flds   0x40e344
  409acf:	eb 2e                	jmp    409aff <___gdtoa+0x4af>
  409ad1:	d9 c1                	fld    %st(1)
  409ad3:	d8 2d 40 e3 40 00    	fsubrs 0x40e340
  409ad9:	d9 c9                	fxch   %st(1)
  409adb:	dd e1                	fucom  %st(1)
  409add:	df e0                	fnstsw %ax
  409adf:	dd d9                	fstp   %st(1)
  409ae1:	9e                   	sahf   
  409ae2:	0f 87 c7 0a 00 00    	ja     40a5af <___gdtoa+0xf5f>
  409ae8:	8b 44 24 5c          	mov    0x5c(%esp),%eax
  409aec:	83 c0 01             	add    $0x1,%eax
  409aef:	39 c2                	cmp    %eax,%edx
  409af1:	89 44 24 5c          	mov    %eax,0x5c(%esp)
  409af5:	0f 8e 3d 01 00 00    	jle    409c38 <___gdtoa+0x5e8>
  409afb:	d9 c9                	fxch   %st(1)
  409afd:	d9 ca                	fxch   %st(2)
  409aff:	dc c9                	fmul   %st,%st(1)
  409b01:	83 c6 01             	add    $0x1,%esi
  409b04:	dc ca                	fmul   %st,%st(2)
  409b06:	d9 ca                	fxch   %st(2)
  409b08:	d9 6c 24 4c          	fldcw  0x4c(%esp)
  409b0c:	db 54 24 48          	fistl  0x48(%esp)
  409b10:	d9 6c 24 4e          	fldcw  0x4e(%esp)
  409b14:	8b 44 24 48          	mov    0x48(%esp),%eax
  409b18:	89 44 24 48          	mov    %eax,0x48(%esp)
  409b1c:	8d 48 30             	lea    0x30(%eax),%ecx
  409b1f:	db 44 24 48          	fildl  0x48(%esp)
  409b23:	de e9                	fsubrp %st,%st(1)
  409b25:	d9 c9                	fxch   %st(1)
  409b27:	88 4e ff             	mov    %cl,-0x1(%esi)
  409b2a:	dd e1                	fucom  %st(1)
  409b2c:	df e0                	fnstsw %ax
  409b2e:	9e                   	sahf   
  409b2f:	76 a0                	jbe    409ad1 <___gdtoa+0x481>
  409b31:	dd d8                	fstp   %st(0)
  409b33:	dd d9                	fstp   %st(1)
  409b35:	dd d9                	fstp   %st(1)
  409b37:	eb 04                	jmp    409b3d <___gdtoa+0x4ed>
  409b39:	dd d8                	fstp   %st(0)
  409b3b:	dd d9                	fstp   %st(1)
  409b3d:	d9 ee                	fldz   
  409b3f:	d9 c9                	fxch   %st(1)
  409b41:	da e9                	fucompp 
  409b43:	df e0                	fnstsw %ax
  409b45:	9e                   	sahf   
  409b46:	8b 44 24 38          	mov    0x38(%esp),%eax
  409b4a:	7a 06                	jp     409b52 <___gdtoa+0x502>
  409b4c:	0f 84 ad 05 00 00    	je     40a0ff <___gdtoa+0xaaf>
  409b52:	83 c0 01             	add    $0x1,%eax
  409b55:	89 44 24 0c          	mov    %eax,0xc(%esp)
  409b59:	c7 44 24 18 10 00 00 	movl   $0x10,0x18(%esp)
  409b60:	00 
  409b61:	e9 77 03 00 00       	jmp    409edd <___gdtoa+0x88d>
  409b66:	c7 43 10 00 00 00 00 	movl   $0x0,0x10(%ebx)
  409b6d:	31 ed                	xor    %ebp,%ebp
  409b6f:	e9 a2 fb ff ff       	jmp    409716 <___gdtoa+0xc6>
  409b74:	89 44 24 04          	mov    %eax,0x4(%esp)
  409b78:	89 1c 24             	mov    %ebx,(%esp)
  409b7b:	e8 f0 23 00 00       	call   40bf70 <___rshift_D2A>
  409b80:	8b 44 24 5c          	mov    0x5c(%esp),%eax
  409b84:	8b 8c 24 84 00 00 00 	mov    0x84(%esp),%ecx
  409b8b:	29 c5                	sub    %eax,%ebp
  409b8d:	01 c1                	add    %eax,%ecx
  409b8f:	89 4c 24 20          	mov    %ecx,0x20(%esp)
  409b93:	e9 9d fb ff ff       	jmp    409735 <___gdtoa+0xe5>
  409b98:	c7 84 24 90 00 00 00 	movl   $0x0,0x90(%esp)
  409b9f:	00 00 00 00 
  409ba3:	89 7c 24 48          	mov    %edi,0x48(%esp)
  409ba7:	31 d2                	xor    %edx,%edx
  409ba9:	db 44 24 48          	fildl  0x48(%esp)
  409bad:	dc 0d 38 e3 40 00    	fmull  0x40e338
  409bb3:	c7 44 24 40 01 00 00 	movl   $0x1,0x40(%esp)
  409bba:	00 
  409bbb:	c7 44 24 44 ff ff ff 	movl   $0xffffffff,0x44(%esp)
  409bc2:	ff 
  409bc3:	c7 44 24 18 ff ff ff 	movl   $0xffffffff,0x18(%esp)
  409bca:	ff 
  409bcb:	c7 84 24 94 00 00 00 	movl   $0x0,0x94(%esp)
  409bd2:	00 00 00 00 
  409bd6:	d9 6c 24 4c          	fldcw  0x4c(%esp)
  409bda:	db 5c 24 48          	fistpl 0x48(%esp)
  409bde:	d9 6c 24 4e          	fldcw  0x4e(%esp)
  409be2:	8b 44 24 48          	mov    0x48(%esp),%eax
  409be6:	83 c0 03             	add    $0x3,%eax
  409be9:	89 44 24 5c          	mov    %eax,0x5c(%esp)
  409bed:	e9 a1 fd ff ff       	jmp    409993 <___gdtoa+0x343>
  409bf2:	d9 c0                	fld    %st(0)
  409bf4:	d8 c1                	fadd   %st(1),%st
  409bf6:	d8 05 4c e3 40 00    	fadds  0x40e34c
  409bfc:	dd 5c 24 10          	fstpl  0x10(%esp)
  409c00:	81 6c 24 14 00 00 40 	subl   $0x3400000,0x14(%esp)
  409c07:	03 
  409c08:	d9 c0                	fld    %st(0)
  409c0a:	d8 25 50 e3 40 00    	fsubs  0x40e350
  409c10:	dd 44 24 10          	fldl   0x10(%esp)
  409c14:	d9 c9                	fxch   %st(1)
  409c16:	dd e1                	fucom  %st(1)
  409c18:	df e0                	fnstsw %ax
  409c1a:	9e                   	sahf   
  409c1b:	0f 87 52 09 00 00    	ja     40a573 <___gdtoa+0xf23>
  409c21:	d9 c9                	fxch   %st(1)
  409c23:	d9 e0                	fchs   
  409c25:	da e9                	fucompp 
  409c27:	df e0                	fnstsw %ax
  409c29:	9e                   	sahf   
  409c2a:	0f 87 77 03 00 00    	ja     409fa7 <___gdtoa+0x957>
  409c30:	eb 10                	jmp    409c42 <___gdtoa+0x5f2>
  409c32:	dd d8                	fstp   %st(0)
  409c34:	dd d8                	fstp   %st(0)
  409c36:	eb 0a                	jmp    409c42 <___gdtoa+0x5f2>
  409c38:	dd d8                	fstp   %st(0)
  409c3a:	dd d8                	fstp   %st(0)
  409c3c:	dd d8                	fstp   %st(0)
  409c3e:	eb 02                	jmp    409c42 <___gdtoa+0x5f2>
  409c40:	dd d8                	fstp   %st(0)
  409c42:	dd 5c 24 10          	fstpl  0x10(%esp)
  409c46:	83 7c 24 0c 0e       	cmpl   $0xe,0xc(%esp)
  409c4b:	0f 8e df 01 00 00    	jle    409e30 <___gdtoa+0x7e0>
  409c51:	8b 44 24 40          	mov    0x40(%esp),%eax
  409c55:	85 c0                	test   %eax,%eax
  409c57:	0f 84 c3 03 00 00    	je     40a020 <___gdtoa+0x9d0>
  409c5d:	83 bc 24 90 00 00 00 	cmpl   $0x1,0x90(%esp)
  409c64:	01 
  409c65:	0f 8e 93 09 00 00    	jle    40a5fe <___gdtoa+0xfae>
  409c6b:	8b 44 24 18          	mov    0x18(%esp),%eax
  409c6f:	83 e8 01             	sub    $0x1,%eax
  409c72:	39 44 24 30          	cmp    %eax,0x30(%esp)
  409c76:	0f 8c 08 08 00 00    	jl     40a484 <___gdtoa+0xe34>
  409c7c:	8b 7c 24 30          	mov    0x30(%esp),%edi
  409c80:	29 c7                	sub    %eax,%edi
  409c82:	8b 44 24 18          	mov    0x18(%esp),%eax
  409c86:	85 c0                	test   %eax,%eax
  409c88:	0f 88 15 0a 00 00    	js     40a6a3 <___gdtoa+0x1053>
  409c8e:	8b 74 24 28          	mov    0x28(%esp),%esi
  409c92:	89 44 24 5c          	mov    %eax,0x5c(%esp)
  409c96:	c7 04 24 01 00 00 00 	movl   $0x1,(%esp)
  409c9d:	01 44 24 28          	add    %eax,0x28(%esp)
  409ca1:	01 44 24 1c          	add    %eax,0x1c(%esp)
  409ca5:	e8 b6 1a 00 00       	call   40b760 <___i2b_D2A>
  409caa:	89 44 24 20          	mov    %eax,0x20(%esp)
  409cae:	8b 44 24 1c          	mov    0x1c(%esp),%eax
  409cb2:	85 c0                	test   %eax,%eax
  409cb4:	7e 1e                	jle    409cd4 <___gdtoa+0x684>
  409cb6:	85 f6                	test   %esi,%esi
  409cb8:	7e 1a                	jle    409cd4 <___gdtoa+0x684>
  409cba:	8b 4c 24 1c          	mov    0x1c(%esp),%ecx
  409cbe:	39 f1                	cmp    %esi,%ecx
  409cc0:	89 c8                	mov    %ecx,%eax
  409cc2:	7e 02                	jle    409cc6 <___gdtoa+0x676>
  409cc4:	89 f0                	mov    %esi,%eax
  409cc6:	29 44 24 28          	sub    %eax,0x28(%esp)
  409cca:	29 c6                	sub    %eax,%esi
  409ccc:	29 44 24 1c          	sub    %eax,0x1c(%esp)
  409cd0:	89 44 24 5c          	mov    %eax,0x5c(%esp)
  409cd4:	8b 4c 24 30          	mov    0x30(%esp),%ecx
  409cd8:	85 c9                	test   %ecx,%ecx
  409cda:	7e 4e                	jle    409d2a <___gdtoa+0x6da>
  409cdc:	8b 54 24 40          	mov    0x40(%esp),%edx
  409ce0:	85 d2                	test   %edx,%edx
  409ce2:	0f 84 dd 05 00 00    	je     40a2c5 <___gdtoa+0xc75>
  409ce8:	85 ff                	test   %edi,%edi
  409cea:	7e 32                	jle    409d1e <___gdtoa+0x6ce>
  409cec:	8b 44 24 20          	mov    0x20(%esp),%eax
  409cf0:	89 7c 24 04          	mov    %edi,0x4(%esp)
  409cf4:	89 04 24             	mov    %eax,(%esp)
  409cf7:	e8 f4 1b 00 00       	call   40b8f0 <___pow5mult_D2A>
  409cfc:	89 5c 24 04          	mov    %ebx,0x4(%esp)
  409d00:	89 04 24             	mov    %eax,(%esp)
  409d03:	89 44 24 20          	mov    %eax,0x20(%esp)
  409d07:	e8 84 1a 00 00       	call   40b790 <___mult_D2A>
  409d0c:	89 1c 24             	mov    %ebx,(%esp)
  409d0f:	89 44 24 10          	mov    %eax,0x10(%esp)
  409d13:	e8 f8 18 00 00       	call   40b610 <___Bfree_D2A>
  409d18:	8b 44 24 10          	mov    0x10(%esp),%eax
  409d1c:	89 c3                	mov    %eax,%ebx
  409d1e:	8b 44 24 30          	mov    0x30(%esp),%eax
  409d22:	29 f8                	sub    %edi,%eax
  409d24:	0f 85 9f 05 00 00    	jne    40a2c9 <___gdtoa+0xc79>
  409d2a:	c7 04 24 01 00 00 00 	movl   $0x1,(%esp)
  409d31:	e8 2a 1a 00 00       	call   40b760 <___i2b_D2A>
  409d36:	89 c7                	mov    %eax,%edi
  409d38:	8b 44 24 3c          	mov    0x3c(%esp),%eax
  409d3c:	85 c0                	test   %eax,%eax
  409d3e:	7e 0e                	jle    409d4e <___gdtoa+0x6fe>
  409d40:	89 3c 24             	mov    %edi,(%esp)
  409d43:	89 44 24 04          	mov    %eax,0x4(%esp)
  409d47:	e8 a4 1b 00 00       	call   40b8f0 <___pow5mult_D2A>
  409d4c:	89 c7                	mov    %eax,%edi
  409d4e:	83 bc 24 90 00 00 00 	cmpl   $0x1,0x90(%esp)
  409d55:	01 
  409d56:	c7 44 24 10 00 00 00 	movl   $0x0,0x10(%esp)
  409d5d:	00 
  409d5e:	0f 8e 8f 06 00 00    	jle    40a3f3 <___gdtoa+0xda3>
  409d64:	8b 44 24 3c          	mov    0x3c(%esp),%eax
  409d68:	bd 1f 00 00 00       	mov    $0x1f,%ebp
  409d6d:	85 c0                	test   %eax,%eax
  409d6f:	74 0b                	je     409d7c <___gdtoa+0x72c>
  409d71:	8b 47 10             	mov    0x10(%edi),%eax
  409d74:	0f bd 6c 87 10       	bsr    0x10(%edi,%eax,4),%ebp
  409d79:	83 f5 1f             	xor    $0x1f,%ebp
  409d7c:	2b 6c 24 1c          	sub    0x1c(%esp),%ebp
  409d80:	8b 54 24 28          	mov    0x28(%esp),%edx
  409d84:	83 ed 04             	sub    $0x4,%ebp
  409d87:	83 e5 1f             	and    $0x1f,%ebp
  409d8a:	01 ea                	add    %ebp,%edx
  409d8c:	89 e8                	mov    %ebp,%eax
  409d8e:	85 d2                	test   %edx,%edx
  409d90:	89 6c 24 5c          	mov    %ebp,0x5c(%esp)
  409d94:	7e 12                	jle    409da8 <___gdtoa+0x758>
  409d96:	89 1c 24             	mov    %ebx,(%esp)
  409d99:	89 54 24 04          	mov    %edx,0x4(%esp)
  409d9d:	e8 de 1c 00 00       	call   40ba80 <___lshift_D2A>
  409da2:	89 c3                	mov    %eax,%ebx
  409da4:	8b 44 24 5c          	mov    0x5c(%esp),%eax
  409da8:	03 44 24 1c          	add    0x1c(%esp),%eax
  409dac:	85 c0                	test   %eax,%eax
  409dae:	7e 0e                	jle    409dbe <___gdtoa+0x76e>
  409db0:	89 3c 24             	mov    %edi,(%esp)
  409db3:	89 44 24 04          	mov    %eax,0x4(%esp)
  409db7:	e8 c4 1c 00 00       	call   40ba80 <___lshift_D2A>
  409dbc:	89 c7                	mov    %eax,%edi
  409dbe:	8b 44 24 34          	mov    0x34(%esp),%eax
  409dc2:	85 c0                	test   %eax,%eax
  409dc4:	0f 85 12 05 00 00    	jne    40a2dc <___gdtoa+0xc8c>
  409dca:	83 bc 24 90 00 00 00 	cmpl   $0x2,0x90(%esp)
  409dd1:	02 
  409dd2:	0f 8e 3b 03 00 00    	jle    40a113 <___gdtoa+0xac3>
  409dd8:	8b 44 24 18          	mov    0x18(%esp),%eax
  409ddc:	85 c0                	test   %eax,%eax
  409dde:	0f 8f 2f 03 00 00    	jg     40a113 <___gdtoa+0xac3>
  409de4:	8b 44 24 18          	mov    0x18(%esp),%eax
  409de8:	85 c0                	test   %eax,%eax
  409dea:	0f 85 c7 01 00 00    	jne    409fb7 <___gdtoa+0x967>
  409df0:	89 3c 24             	mov    %edi,(%esp)
  409df3:	c7 44 24 08 00 00 00 	movl   $0x0,0x8(%esp)
  409dfa:	00 
  409dfb:	c7 44 24 04 05 00 00 	movl   $0x5,0x4(%esp)
  409e02:	00 
  409e03:	e8 78 18 00 00       	call   40b680 <___multadd_D2A>
  409e08:	89 1c 24             	mov    %ebx,(%esp)
  409e0b:	89 44 24 04          	mov    %eax,0x4(%esp)
  409e0f:	89 c7                	mov    %eax,%edi
  409e11:	e8 7a 1d 00 00       	call   40bb90 <___cmp_D2A>
  409e16:	85 c0                	test   %eax,%eax
  409e18:	0f 8e 99 01 00 00    	jle    409fb7 <___gdtoa+0x967>
  409e1e:	8b 44 24 0c          	mov    0xc(%esp),%eax
  409e22:	83 c0 02             	add    $0x2,%eax
  409e25:	89 44 24 0c          	mov    %eax,0xc(%esp)
  409e29:	eb 72                	jmp    409e9d <___gdtoa+0x84d>
  409e2b:	90                   	nop
  409e2c:	8d 74 26 00          	lea    0x0(%esi,%eiz,1),%esi
  409e30:	8b 44 24 20          	mov    0x20(%esp),%eax
  409e34:	85 c0                	test   %eax,%eax
  409e36:	0f 88 15 fe ff ff    	js     409c51 <___gdtoa+0x601>
  409e3c:	8b 44 24 0c          	mov    0xc(%esp),%eax
  409e40:	dd 04 c5 80 e3 40 00 	fldl   0x40e380(,%eax,8)
  409e47:	8b 44 24 18          	mov    0x18(%esp),%eax
  409e4b:	85 c0                	test   %eax,%eax
  409e4d:	0f 8f e2 01 00 00    	jg     40a035 <___gdtoa+0x9e5>
  409e53:	8b 84 24 94 00 00 00 	mov    0x94(%esp),%eax
  409e5a:	c1 e8 1f             	shr    $0x1f,%eax
  409e5d:	84 c0                	test   %al,%al
  409e5f:	0f 84 d0 01 00 00    	je     40a035 <___gdtoa+0x9e5>
  409e65:	8b 44 24 18          	mov    0x18(%esp),%eax
  409e69:	85 c0                	test   %eax,%eax
  409e6b:	0f 85 3a 01 00 00    	jne    409fab <___gdtoa+0x95b>
  409e71:	d8 0d 50 e3 40 00    	fmuls  0x40e350
  409e77:	dd 44 24 10          	fldl   0x10(%esp)
  409e7b:	d9 c9                	fxch   %st(1)
  409e7d:	da e9                	fucompp 
  409e7f:	df e0                	fnstsw %ax
  409e81:	9e                   	sahf   
  409e82:	0f 83 25 01 00 00    	jae    409fad <___gdtoa+0x95d>
  409e88:	8b 44 24 0c          	mov    0xc(%esp),%eax
  409e8c:	31 ff                	xor    %edi,%edi
  409e8e:	c7 44 24 20 00 00 00 	movl   $0x0,0x20(%esp)
  409e95:	00 
  409e96:	83 c0 02             	add    $0x2,%eax
  409e99:	89 44 24 0c          	mov    %eax,0xc(%esp)
  409e9d:	8b 44 24 24          	mov    0x24(%esp),%eax
  409ea1:	31 d2                	xor    %edx,%edx
  409ea3:	c7 44 24 18 20 00 00 	movl   $0x20,0x18(%esp)
  409eaa:	00 
  409eab:	8d 70 01             	lea    0x1(%eax),%esi
  409eae:	c6 00 31             	movb   $0x31,(%eax)
  409eb1:	89 3c 24             	mov    %edi,(%esp)
  409eb4:	89 54 24 10          	mov    %edx,0x10(%esp)
  409eb8:	e8 53 17 00 00       	call   40b610 <___Bfree_D2A>
  409ebd:	8b 44 24 20          	mov    0x20(%esp),%eax
  409ec1:	85 c0                	test   %eax,%eax
  409ec3:	74 18                	je     409edd <___gdtoa+0x88d>
  409ec5:	8b 54 24 10          	mov    0x10(%esp),%edx
  409ec9:	39 c2                	cmp    %eax,%edx
  409ecb:	0f 85 dd 03 00 00    	jne    40a2ae <___gdtoa+0xc5e>
  409ed1:	8b 44 24 20          	mov    0x20(%esp),%eax
  409ed5:	89 04 24             	mov    %eax,(%esp)
  409ed8:	e8 33 17 00 00       	call   40b610 <___Bfree_D2A>
  409edd:	89 1c 24             	mov    %ebx,(%esp)
  409ee0:	e8 2b 17 00 00       	call   40b610 <___Bfree_D2A>
  409ee5:	8b 84 24 98 00 00 00 	mov    0x98(%esp),%eax
  409eec:	8b 7c 24 0c          	mov    0xc(%esp),%edi
  409ef0:	c6 06 00             	movb   $0x0,(%esi)
  409ef3:	89 38                	mov    %edi,(%eax)
  409ef5:	8b 84 24 9c 00 00 00 	mov    0x9c(%esp),%eax
  409efc:	85 c0                	test   %eax,%eax
  409efe:	74 09                	je     409f09 <___gdtoa+0x8b9>
  409f00:	8b 84 24 9c 00 00 00 	mov    0x9c(%esp),%eax
  409f07:	89 30                	mov    %esi,(%eax)
  409f09:	8b 84 24 8c 00 00 00 	mov    0x8c(%esp),%eax
  409f10:	8b 7c 24 18          	mov    0x18(%esp),%edi
  409f14:	09 38                	or     %edi,(%eax)
  409f16:	8b 44 24 24          	mov    0x24(%esp),%eax
  409f1a:	83 c4 6c             	add    $0x6c,%esp
  409f1d:	5b                   	pop    %ebx
  409f1e:	5e                   	pop    %esi
  409f1f:	5f                   	pop    %edi
  409f20:	5d                   	pop    %ebp
  409f21:	c3                   	ret    
  409f22:	b8 03 00 00 00       	mov    $0x3,%eax
  409f27:	2b 44 24 2c          	sub    0x2c(%esp),%eax
  409f2b:	89 44 24 2c          	mov    %eax,0x2c(%esp)
  409f2f:	e9 95 fa ff ff       	jmp    4099c9 <___gdtoa+0x379>
  409f34:	c7 44 24 34 00 00 00 	movl   $0x0,0x34(%esp)
  409f3b:	00 
  409f3c:	e9 93 f9 ff ff       	jmp    4098d4 <___gdtoa+0x284>
  409f41:	c7 44 24 2c 02 00 00 	movl   $0x2,0x2c(%esp)
  409f48:	00 
  409f49:	e9 72 fa ff ff       	jmp    4099c0 <___gdtoa+0x370>
  409f4e:	c7 44 24 40 00 00 00 	movl   $0x0,0x40(%esp)
  409f55:	00 
  409f56:	e9 0c fa ff ff       	jmp    409967 <___gdtoa+0x317>
  409f5b:	83 bc 24 90 00 00 00 	cmpl   $0x2,0x90(%esp)
  409f62:	02 
  409f63:	c7 44 24 40 00 00 00 	movl   $0x0,0x40(%esp)
  409f6a:	00 
  409f6b:	0f 85 32 fc ff ff    	jne    409ba3 <___gdtoa+0x553>
  409f71:	8b 94 24 94 00 00 00 	mov    0x94(%esp),%edx
  409f78:	85 d2                	test   %edx,%edx
  409f7a:	0f 8e d3 04 00 00    	jle    40a453 <___gdtoa+0xe03>
  409f80:	83 bc 24 94 00 00 00 	cmpl   $0xe,0x94(%esp)
  409f87:	0e 
  409f88:	0f 96 c2             	setbe  %dl
  409f8b:	8b 8c 24 94 00 00 00 	mov    0x94(%esp),%ecx
  409f92:	21 c2                	and    %eax,%edx
  409f94:	89 4c 24 5c          	mov    %ecx,0x5c(%esp)
  409f98:	89 c8                	mov    %ecx,%eax
  409f9a:	89 4c 24 44          	mov    %ecx,0x44(%esp)
  409f9e:	89 4c 24 18          	mov    %ecx,0x18(%esp)
  409fa2:	e9 ec f9 ff ff       	jmp    409993 <___gdtoa+0x343>
  409fa7:	dd d8                	fstp   %st(0)
  409fa9:	eb 02                	jmp    409fad <___gdtoa+0x95d>
  409fab:	dd d8                	fstp   %st(0)
  409fad:	31 ff                	xor    %edi,%edi
  409faf:	c7 44 24 20 00 00 00 	movl   $0x0,0x20(%esp)
  409fb6:	00 
  409fb7:	8b 84 24 94 00 00 00 	mov    0x94(%esp),%eax
  409fbe:	31 d2                	xor    %edx,%edx
  409fc0:	8b 74 24 24          	mov    0x24(%esp),%esi
  409fc4:	c7 44 24 18 10 00 00 	movl   $0x10,0x18(%esp)
  409fcb:	00 
  409fcc:	f7 d8                	neg    %eax
  409fce:	89 44 24 0c          	mov    %eax,0xc(%esp)
  409fd2:	e9 da fe ff ff       	jmp    409eb1 <___gdtoa+0x861>
  409fd7:	8b 44 24 0c          	mov    0xc(%esp),%eax
  409fdb:	29 44 24 28          	sub    %eax,0x28(%esp)
  409fdf:	c7 44 24 3c 00 00 00 	movl   $0x0,0x3c(%esp)
  409fe6:	00 
  409fe7:	f7 d8                	neg    %eax
  409fe9:	89 44 24 30          	mov    %eax,0x30(%esp)
  409fed:	e9 17 f9 ff ff       	jmp    409909 <___gdtoa+0x2b9>
  409ff2:	f7 d8                	neg    %eax
  409ff4:	89 44 24 28          	mov    %eax,0x28(%esp)
  409ff8:	c7 44 24 1c 00 00 00 	movl   $0x0,0x1c(%esp)
  409fff:	00 
  40a000:	e9 e8 f8 ff ff       	jmp    4098ed <___gdtoa+0x29d>
  40a005:	db 44 24 0c          	fildl  0xc(%esp)
  40a009:	da e9                	fucompp 
  40a00b:	df e0                	fnstsw %ax
  40a00d:	9e                   	sahf   
  40a00e:	7a 06                	jp     40a016 <___gdtoa+0x9c6>
  40a010:	0f 84 7b f8 ff ff    	je     409891 <___gdtoa+0x241>
  40a016:	83 6c 24 0c 01       	subl   $0x1,0xc(%esp)
  40a01b:	e9 71 f8 ff ff       	jmp    409891 <___gdtoa+0x241>
  40a020:	8b 7c 24 30          	mov    0x30(%esp),%edi
  40a024:	8b 74 24 28          	mov    0x28(%esp),%esi
  40a028:	c7 44 24 20 00 00 00 	movl   $0x0,0x20(%esp)
  40a02f:	00 
  40a030:	e9 79 fc ff ff       	jmp    409cae <___gdtoa+0x65e>
  40a035:	dd 44 24 10          	fldl   0x10(%esp)
  40a039:	d9 c0                	fld    %st(0)
  40a03b:	8b 7c 24 24          	mov    0x24(%esp),%edi
  40a03f:	d8 f2                	fdiv   %st(2),%st
  40a041:	d9 7c 24 4e          	fnstcw 0x4e(%esp)
  40a045:	c7 44 24 5c 01 00 00 	movl   $0x1,0x5c(%esp)
  40a04c:	00 
  40a04d:	8d 77 01             	lea    0x1(%edi),%esi
  40a050:	0f b7 44 24 4e       	movzwl 0x4e(%esp),%eax
  40a055:	b4 0c                	mov    $0xc,%ah
  40a057:	66 89 44 24 4c       	mov    %ax,0x4c(%esp)
  40a05c:	d9 6c 24 4c          	fldcw  0x4c(%esp)
  40a060:	db 5c 24 48          	fistpl 0x48(%esp)
  40a064:	d9 6c 24 4e          	fldcw  0x4e(%esp)
  40a068:	8b 4c 24 48          	mov    0x48(%esp),%ecx
  40a06c:	89 4c 24 48          	mov    %ecx,0x48(%esp)
  40a070:	8d 41 30             	lea    0x30(%ecx),%eax
  40a073:	db 44 24 48          	fildl  0x48(%esp)
  40a077:	d8 ca                	fmul   %st(2),%st
  40a079:	88 07                	mov    %al,(%edi)
  40a07b:	de e9                	fsubrp %st,%st(1)
  40a07d:	d9 ee                	fldz   
  40a07f:	d9 c9                	fxch   %st(1)
  40a081:	dd e1                	fucom  %st(1)
  40a083:	df e0                	fnstsw %ax
  40a085:	dd d9                	fstp   %st(1)
  40a087:	9e                   	sahf   
  40a088:	0f 8b 52 09 00 00    	jnp    40a9e0 <___gdtoa+0x1390>
  40a08e:	8b 44 24 5c          	mov    0x5c(%esp),%eax
  40a092:	39 44 24 18          	cmp    %eax,0x18(%esp)
  40a096:	0f 84 93 03 00 00    	je     40a42f <___gdtoa+0xddf>
  40a09c:	d9 05 44 e3 40 00    	flds   0x40e344
  40a0a2:	8b 54 24 18          	mov    0x18(%esp),%edx
  40a0a6:	eb 0c                	jmp    40a0b4 <___gdtoa+0xa64>
  40a0a8:	8b 44 24 5c          	mov    0x5c(%esp),%eax
  40a0ac:	39 c2                	cmp    %eax,%edx
  40a0ae:	0f 84 79 03 00 00    	je     40a42d <___gdtoa+0xddd>
  40a0b4:	83 c0 01             	add    $0x1,%eax
  40a0b7:	dc c9                	fmul   %st,%st(1)
  40a0b9:	83 c6 01             	add    $0x1,%esi
  40a0bc:	89 44 24 5c          	mov    %eax,0x5c(%esp)
  40a0c0:	d9 c1                	fld    %st(1)
  40a0c2:	d8 f3                	fdiv   %st(3),%st
  40a0c4:	d9 6c 24 4c          	fldcw  0x4c(%esp)
  40a0c8:	db 5c 24 48          	fistpl 0x48(%esp)
  40a0cc:	d9 6c 24 4e          	fldcw  0x4e(%esp)
  40a0d0:	8b 4c 24 48          	mov    0x48(%esp),%ecx
  40a0d4:	89 4c 24 48          	mov    %ecx,0x48(%esp)
  40a0d8:	8d 41 30             	lea    0x30(%ecx),%eax
  40a0db:	db 44 24 48          	fildl  0x48(%esp)
  40a0df:	d8 cb                	fmul   %st(3),%st
  40a0e1:	88 46 ff             	mov    %al,-0x1(%esi)
  40a0e4:	de ea                	fsubrp %st,%st(2)
  40a0e6:	d9 ee                	fldz   
  40a0e8:	d9 ca                	fxch   %st(2)
  40a0ea:	dd e2                	fucom  %st(2)
  40a0ec:	df e0                	fnstsw %ax
  40a0ee:	dd da                	fstp   %st(2)
  40a0f0:	9e                   	sahf   
  40a0f1:	7a b5                	jp     40a0a8 <___gdtoa+0xa58>
  40a0f3:	75 b3                	jne    40a0a8 <___gdtoa+0xa58>
  40a0f5:	dd d8                	fstp   %st(0)
  40a0f7:	dd d8                	fstp   %st(0)
  40a0f9:	dd d8                	fstp   %st(0)
  40a0fb:	8b 44 24 0c          	mov    0xc(%esp),%eax
  40a0ff:	83 c0 01             	add    $0x1,%eax
  40a102:	89 44 24 0c          	mov    %eax,0xc(%esp)
  40a106:	c7 44 24 18 00 00 00 	movl   $0x0,0x18(%esp)
  40a10d:	00 
  40a10e:	e9 ca fd ff ff       	jmp    409edd <___gdtoa+0x88d>
  40a113:	8b 44 24 40          	mov    0x40(%esp),%eax
  40a117:	85 c0                	test   %eax,%eax
  40a119:	0f 84 19 02 00 00    	je     40a338 <___gdtoa+0xce8>
  40a11f:	8d 04 2e             	lea    (%esi,%ebp,1),%eax
  40a122:	85 c0                	test   %eax,%eax
  40a124:	7e 14                	jle    40a13a <___gdtoa+0xaea>
  40a126:	89 44 24 04          	mov    %eax,0x4(%esp)
  40a12a:	8b 44 24 20          	mov    0x20(%esp),%eax
  40a12e:	89 04 24             	mov    %eax,(%esp)
  40a131:	e8 4a 19 00 00       	call   40ba80 <___lshift_D2A>
  40a136:	89 44 24 20          	mov    %eax,0x20(%esp)
  40a13a:	8b 74 24 10          	mov    0x10(%esp),%esi
  40a13e:	8b 6c 24 20          	mov    0x20(%esp),%ebp
  40a142:	85 f6                	test   %esi,%esi
  40a144:	0f 85 e9 06 00 00    	jne    40a833 <___gdtoa+0x11e3>
  40a14a:	8b 74 24 24          	mov    0x24(%esp),%esi
  40a14e:	89 7c 24 1c          	mov    %edi,0x1c(%esp)
  40a152:	8b 7c 24 20          	mov    0x20(%esp),%edi
  40a156:	c7 44 24 5c 01 00 00 	movl   $0x1,0x5c(%esp)
  40a15d:	00 
  40a15e:	89 74 24 28          	mov    %esi,0x28(%esp)
  40a162:	e9 d6 00 00 00       	jmp    40a23d <___gdtoa+0xbed>
  40a167:	89 14 24             	mov    %edx,(%esp)
  40a16a:	89 44 24 20          	mov    %eax,0x20(%esp)
  40a16e:	e8 9d 14 00 00       	call   40b610 <___Bfree_D2A>
  40a173:	8b 44 24 20          	mov    0x20(%esp),%eax
  40a177:	89 c1                	mov    %eax,%ecx
  40a179:	0b 8c 24 90 00 00 00 	or     0x90(%esp),%ecx
  40a180:	75 18                	jne    40a19a <___gdtoa+0xb4a>
  40a182:	8b 8c 24 88 00 00 00 	mov    0x88(%esp),%ecx
  40a189:	f6 01 01             	testb  $0x1,(%ecx)
  40a18c:	75 0c                	jne    40a19a <___gdtoa+0xb4a>
  40a18e:	8b 54 24 2c          	mov    0x2c(%esp),%edx
  40a192:	85 d2                	test   %edx,%edx
  40a194:	0f 84 55 08 00 00    	je     40a9ef <___gdtoa+0x139f>
  40a19a:	85 f6                	test   %esi,%esi
  40a19c:	0f 88 18 05 00 00    	js     40a6ba <___gdtoa+0x106a>
  40a1a2:	0b b4 24 90 00 00 00 	or     0x90(%esp),%esi
  40a1a9:	75 10                	jne    40a1bb <___gdtoa+0xb6b>
  40a1ab:	8b b4 24 88 00 00 00 	mov    0x88(%esp),%esi
  40a1b2:	f6 06 01             	testb  $0x1,(%esi)
  40a1b5:	0f 84 ff 04 00 00    	je     40a6ba <___gdtoa+0x106a>
  40a1bb:	85 c0                	test   %eax,%eax
  40a1bd:	0f 8f c9 06 00 00    	jg     40a88c <___gdtoa+0x123c>
  40a1c3:	83 44 24 28 01       	addl   $0x1,0x28(%esp)
  40a1c8:	0f b6 44 24 10       	movzbl 0x10(%esp),%eax
  40a1cd:	8b 74 24 28          	mov    0x28(%esp),%esi
  40a1d1:	88 46 ff             	mov    %al,-0x1(%esi)
  40a1d4:	8b 44 24 18          	mov    0x18(%esp),%eax
  40a1d8:	39 44 24 5c          	cmp    %eax,0x5c(%esp)
  40a1dc:	0f 84 97 06 00 00    	je     40a879 <___gdtoa+0x1229>
  40a1e2:	89 1c 24             	mov    %ebx,(%esp)
  40a1e5:	c7 44 24 08 00 00 00 	movl   $0x0,0x8(%esp)
  40a1ec:	00 
  40a1ed:	c7 44 24 04 0a 00 00 	movl   $0xa,0x4(%esp)
  40a1f4:	00 
  40a1f5:	e8 86 14 00 00       	call   40b680 <___multadd_D2A>
  40a1fa:	39 ef                	cmp    %ebp,%edi
  40a1fc:	c7 44 24 08 00 00 00 	movl   $0x0,0x8(%esp)
  40a203:	00 
  40a204:	c7 44 24 04 0a 00 00 	movl   $0xa,0x4(%esp)
  40a20b:	00 
  40a20c:	89 3c 24             	mov    %edi,(%esp)
  40a20f:	89 c3                	mov    %eax,%ebx
  40a211:	0f 84 8c 00 00 00    	je     40a2a3 <___gdtoa+0xc53>
  40a217:	e8 64 14 00 00       	call   40b680 <___multadd_D2A>
  40a21c:	89 2c 24             	mov    %ebp,(%esp)
  40a21f:	c7 44 24 08 00 00 00 	movl   $0x0,0x8(%esp)
  40a226:	00 
  40a227:	c7 44 24 04 0a 00 00 	movl   $0xa,0x4(%esp)
  40a22e:	00 
  40a22f:	89 c7                	mov    %eax,%edi
  40a231:	e8 4a 14 00 00       	call   40b680 <___multadd_D2A>
  40a236:	89 c5                	mov    %eax,%ebp
  40a238:	83 44 24 5c 01       	addl   $0x1,0x5c(%esp)
  40a23d:	8b 44 24 1c          	mov    0x1c(%esp),%eax
  40a241:	89 1c 24             	mov    %ebx,(%esp)
  40a244:	89 44 24 04          	mov    %eax,0x4(%esp)
  40a248:	e8 d3 0f 00 00       	call   40b220 <___quorem_D2A>
  40a24d:	89 7c 24 04          	mov    %edi,0x4(%esp)
  40a251:	89 1c 24             	mov    %ebx,(%esp)
  40a254:	89 c6                	mov    %eax,%esi
  40a256:	83 c6 30             	add    $0x30,%esi
  40a259:	89 74 24 10          	mov    %esi,0x10(%esp)
  40a25d:	89 44 24 30          	mov    %eax,0x30(%esp)
  40a261:	e8 2a 19 00 00       	call   40bb90 <___cmp_D2A>
  40a266:	89 6c 24 04          	mov    %ebp,0x4(%esp)
  40a26a:	89 c6                	mov    %eax,%esi
  40a26c:	8b 44 24 1c          	mov    0x1c(%esp),%eax
  40a270:	89 04 24             	mov    %eax,(%esp)
  40a273:	e8 68 19 00 00       	call   40bbe0 <___diff_D2A>
  40a278:	89 c2                	mov    %eax,%edx
  40a27a:	b8 01 00 00 00       	mov    $0x1,%eax
  40a27f:	8b 4a 0c             	mov    0xc(%edx),%ecx
  40a282:	85 c9                	test   %ecx,%ecx
  40a284:	0f 85 dd fe ff ff    	jne    40a167 <___gdtoa+0xb17>
  40a28a:	89 54 24 04          	mov    %edx,0x4(%esp)
  40a28e:	89 1c 24             	mov    %ebx,(%esp)
  40a291:	89 54 24 20          	mov    %edx,0x20(%esp)
  40a295:	e8 f6 18 00 00       	call   40bb90 <___cmp_D2A>
  40a29a:	8b 54 24 20          	mov    0x20(%esp),%edx
  40a29e:	e9 c4 fe ff ff       	jmp    40a167 <___gdtoa+0xb17>
  40a2a3:	e8 d8 13 00 00       	call   40b680 <___multadd_D2A>
  40a2a8:	89 c7                	mov    %eax,%edi
  40a2aa:	89 c5                	mov    %eax,%ebp
  40a2ac:	eb 8a                	jmp    40a238 <___gdtoa+0xbe8>
  40a2ae:	85 d2                	test   %edx,%edx
  40a2b0:	0f 84 1b fc ff ff    	je     409ed1 <___gdtoa+0x881>
  40a2b6:	89 14 24             	mov    %edx,(%esp)
  40a2b9:	e8 52 13 00 00       	call   40b610 <___Bfree_D2A>
  40a2be:	66 90                	xchg   %ax,%ax
  40a2c0:	e9 0c fc ff ff       	jmp    409ed1 <___gdtoa+0x881>
  40a2c5:	8b 44 24 30          	mov    0x30(%esp),%eax
  40a2c9:	89 1c 24             	mov    %ebx,(%esp)
  40a2cc:	89 44 24 04          	mov    %eax,0x4(%esp)
  40a2d0:	e8 1b 16 00 00       	call   40b8f0 <___pow5mult_D2A>
  40a2d5:	89 c3                	mov    %eax,%ebx
  40a2d7:	e9 4e fa ff ff       	jmp    409d2a <___gdtoa+0x6da>
  40a2dc:	89 7c 24 04          	mov    %edi,0x4(%esp)
  40a2e0:	89 1c 24             	mov    %ebx,(%esp)
  40a2e3:	e8 a8 18 00 00       	call   40bb90 <___cmp_D2A>
  40a2e8:	85 c0                	test   %eax,%eax
  40a2ea:	0f 89 da fa ff ff    	jns    409dca <___gdtoa+0x77a>
  40a2f0:	89 1c 24             	mov    %ebx,(%esp)
  40a2f3:	c7 44 24 08 00 00 00 	movl   $0x0,0x8(%esp)
  40a2fa:	00 
  40a2fb:	c7 44 24 04 0a 00 00 	movl   $0xa,0x4(%esp)
  40a302:	00 
  40a303:	83 6c 24 0c 01       	subl   $0x1,0xc(%esp)
  40a308:	e8 73 13 00 00       	call   40b680 <___multadd_D2A>
  40a30d:	89 c3                	mov    %eax,%ebx
  40a30f:	8b 44 24 40          	mov    0x40(%esp),%eax
  40a313:	85 c0                	test   %eax,%eax
  40a315:	0f 85 24 07 00 00    	jne    40aa3f <___gdtoa+0x13ef>
  40a31b:	83 bc 24 90 00 00 00 	cmpl   $0x2,0x90(%esp)
  40a322:	02 
  40a323:	8b 44 24 44          	mov    0x44(%esp),%eax
  40a327:	7e 0b                	jle    40a334 <___gdtoa+0xce4>
  40a329:	83 7c 24 44 00       	cmpl   $0x0,0x44(%esp)
  40a32e:	0f 8e 86 07 00 00    	jle    40aaba <___gdtoa+0x146a>
  40a334:	89 44 24 18          	mov    %eax,0x18(%esp)
  40a338:	c7 44 24 5c 01 00 00 	movl   $0x1,0x5c(%esp)
  40a33f:	00 
  40a340:	8b 74 24 24          	mov    0x24(%esp),%esi
  40a344:	8b 6c 24 18          	mov    0x18(%esp),%ebp
  40a348:	eb 25                	jmp    40a36f <___gdtoa+0xd1f>
  40a34a:	8d b6 00 00 00 00    	lea    0x0(%esi),%esi
  40a350:	89 1c 24             	mov    %ebx,(%esp)
  40a353:	c7 44 24 08 00 00 00 	movl   $0x0,0x8(%esp)
  40a35a:	00 
  40a35b:	c7 44 24 04 0a 00 00 	movl   $0xa,0x4(%esp)
  40a362:	00 
  40a363:	e8 18 13 00 00       	call   40b680 <___multadd_D2A>
  40a368:	83 44 24 5c 01       	addl   $0x1,0x5c(%esp)
  40a36d:	89 c3                	mov    %eax,%ebx
  40a36f:	89 7c 24 04          	mov    %edi,0x4(%esp)
  40a373:	83 c6 01             	add    $0x1,%esi
  40a376:	89 1c 24             	mov    %ebx,(%esp)
  40a379:	e8 a2 0e 00 00       	call   40b220 <___quorem_D2A>
  40a37e:	83 c0 30             	add    $0x30,%eax
  40a381:	88 46 ff             	mov    %al,-0x1(%esi)
  40a384:	3b 6c 24 5c          	cmp    0x5c(%esp),%ebp
  40a388:	7f c6                	jg     40a350 <___gdtoa+0xd00>
  40a38a:	89 44 24 10          	mov    %eax,0x10(%esp)
  40a38e:	31 d2                	xor    %edx,%edx
  40a390:	8b 44 24 2c          	mov    0x2c(%esp),%eax
  40a394:	85 c0                	test   %eax,%eax
  40a396:	0f 84 e5 03 00 00    	je     40a781 <___gdtoa+0x1131>
  40a39c:	83 f8 02             	cmp    $0x2,%eax
  40a39f:	0f 84 18 04 00 00    	je     40a7bd <___gdtoa+0x116d>
  40a3a5:	83 7b 10 01          	cmpl   $0x1,0x10(%ebx)
  40a3a9:	0f 8e cb 05 00 00    	jle    40a97a <___gdtoa+0x132a>
  40a3af:	0f b6 4e ff          	movzbl -0x1(%esi),%ecx
  40a3b3:	8b 6c 24 24          	mov    0x24(%esp),%ebp
  40a3b7:	eb 15                	jmp    40a3ce <___gdtoa+0xd7e>
  40a3b9:	8d b4 26 00 00 00 00 	lea    0x0(%esi,%eiz,1),%esi
  40a3c0:	39 e8                	cmp    %ebp,%eax
  40a3c2:	0f 84 a6 02 00 00    	je     40a66e <___gdtoa+0x101e>
  40a3c8:	0f b6 48 ff          	movzbl -0x1(%eax),%ecx
  40a3cc:	89 c6                	mov    %eax,%esi
  40a3ce:	80 f9 39             	cmp    $0x39,%cl
  40a3d1:	8d 46 ff             	lea    -0x1(%esi),%eax
  40a3d4:	74 ea                	je     40a3c0 <___gdtoa+0xd70>
  40a3d6:	83 c1 01             	add    $0x1,%ecx
  40a3d9:	88 08                	mov    %cl,(%eax)
  40a3db:	8b 44 24 0c          	mov    0xc(%esp),%eax
  40a3df:	c7 44 24 18 20 00 00 	movl   $0x20,0x18(%esp)
  40a3e6:	00 
  40a3e7:	83 c0 01             	add    $0x1,%eax
  40a3ea:	89 44 24 0c          	mov    %eax,0xc(%esp)
  40a3ee:	e9 be fa ff ff       	jmp    409eb1 <___gdtoa+0x861>
  40a3f3:	83 fd 01             	cmp    $0x1,%ebp
  40a3f6:	0f 85 68 f9 ff ff    	jne    409d64 <___gdtoa+0x714>
  40a3fc:	8b 84 24 80 00 00 00 	mov    0x80(%esp),%eax
  40a403:	8b 40 04             	mov    0x4(%eax),%eax
  40a406:	83 c0 01             	add    $0x1,%eax
  40a409:	39 84 24 84 00 00 00 	cmp    %eax,0x84(%esp)
  40a410:	0f 8e 4e f9 ff ff    	jle    409d64 <___gdtoa+0x714>
  40a416:	83 44 24 28 01       	addl   $0x1,0x28(%esp)
  40a41b:	83 44 24 1c 01       	addl   $0x1,0x1c(%esp)
  40a420:	c7 44 24 10 01 00 00 	movl   $0x1,0x10(%esp)
  40a427:	00 
  40a428:	e9 37 f9 ff ff       	jmp    409d64 <___gdtoa+0x714>
  40a42d:	dd d8                	fstp   %st(0)
  40a42f:	8b 44 24 2c          	mov    0x2c(%esp),%eax
  40a433:	85 c0                	test   %eax,%eax
  40a435:	0f 84 fe 01 00 00    	je     40a639 <___gdtoa+0xfe9>
  40a43b:	dd d8                	fstp   %st(0)
  40a43d:	dd d8                	fstp   %st(0)
  40a43f:	83 7c 24 2c 01       	cmpl   $0x1,0x2c(%esp)
  40a444:	0f 84 22 03 00 00    	je     40a76c <___gdtoa+0x111c>
  40a44a:	8b 44 24 0c          	mov    0xc(%esp),%eax
  40a44e:	e9 ff f6 ff ff       	jmp    409b52 <___gdtoa+0x502>
  40a453:	ba 01 00 00 00       	mov    $0x1,%edx
  40a458:	c7 84 24 94 00 00 00 	movl   $0x1,0x94(%esp)
  40a45f:	01 00 00 00 
  40a463:	e9 23 fb ff ff       	jmp    409f8b <___gdtoa+0x93b>
  40a468:	83 7c 24 18 0e       	cmpl   $0xe,0x18(%esp)
  40a46d:	c7 44 24 5c 01 00 00 	movl   $0x1,0x5c(%esp)
  40a474:	00 
  40a475:	0f 96 c2             	setbe  %dl
  40a478:	21 c2                	and    %eax,%edx
  40a47a:	b8 01 00 00 00       	mov    $0x1,%eax
  40a47f:	e9 0f f5 ff ff       	jmp    409993 <___gdtoa+0x343>
  40a484:	89 c2                	mov    %eax,%edx
  40a486:	31 ff                	xor    %edi,%edi
  40a488:	2b 54 24 30          	sub    0x30(%esp),%edx
  40a48c:	89 44 24 30          	mov    %eax,0x30(%esp)
  40a490:	01 54 24 3c          	add    %edx,0x3c(%esp)
  40a494:	e9 e9 f7 ff ff       	jmp    409c82 <___gdtoa+0x632>
  40a499:	d9 7c 24 4e          	fnstcw 0x4e(%esp)
  40a49d:	dd 44 24 10          	fldl   0x10(%esp)
  40a4a1:	dc 0c d5 78 e3 40 00 	fmull  0x40e378(,%edx,8)
  40a4a8:	c7 44 24 5c 01 00 00 	movl   $0x1,0x5c(%esp)
  40a4af:	00 
  40a4b0:	8b 74 24 24          	mov    0x24(%esp),%esi
  40a4b4:	0f b7 44 24 4e       	movzwl 0x4e(%esp),%eax
  40a4b9:	b4 0c                	mov    $0xc,%ah
  40a4bb:	d9 05 44 e3 40 00    	flds   0x40e344
  40a4c1:	d9 ca                	fxch   %st(2)
  40a4c3:	66 89 44 24 4c       	mov    %ax,0x4c(%esp)
  40a4c8:	eb 0f                	jmp    40a4d9 <___gdtoa+0xe89>
  40a4ca:	8d b6 00 00 00 00    	lea    0x0(%esi),%esi
  40a4d0:	d8 ca                	fmul   %st(2),%st
  40a4d2:	83 c0 01             	add    $0x1,%eax
  40a4d5:	89 44 24 5c          	mov    %eax,0x5c(%esp)
  40a4d9:	d9 6c 24 4c          	fldcw  0x4c(%esp)
  40a4dd:	db 54 24 48          	fistl  0x48(%esp)
  40a4e1:	d9 6c 24 4e          	fldcw  0x4e(%esp)
  40a4e5:	8b 44 24 48          	mov    0x48(%esp),%eax
  40a4e9:	85 c0                	test   %eax,%eax
  40a4eb:	74 0a                	je     40a4f7 <___gdtoa+0xea7>
  40a4ed:	89 44 24 48          	mov    %eax,0x48(%esp)
  40a4f1:	db 44 24 48          	fildl  0x48(%esp)
  40a4f5:	de e9                	fsubrp %st,%st(1)
  40a4f7:	83 c6 01             	add    $0x1,%esi
  40a4fa:	8d 48 30             	lea    0x30(%eax),%ecx
  40a4fd:	88 4e ff             	mov    %cl,-0x1(%esi)
  40a500:	8b 44 24 5c          	mov    0x5c(%esp),%eax
  40a504:	39 d0                	cmp    %edx,%eax
  40a506:	75 c8                	jne    40a4d0 <___gdtoa+0xe80>
  40a508:	dd da                	fstp   %st(2)
  40a50a:	d9 c9                	fxch   %st(1)
  40a50c:	d9 05 54 e3 40 00    	flds   0x40e354
  40a512:	d9 c2                	fld    %st(2)
  40a514:	d8 c1                	fadd   %st(1),%st
  40a516:	d9 ca                	fxch   %st(2)
  40a518:	dd e2                	fucom  %st(2)
  40a51a:	df e0                	fnstsw %ax
  40a51c:	dd da                	fstp   %st(2)
  40a51e:	9e                   	sahf   
  40a51f:	0f 87 94 00 00 00    	ja     40a5b9 <___gdtoa+0xf69>
  40a525:	de e2                	fsubp  %st,%st(2)
  40a527:	d9 c9                	fxch   %st(1)
  40a529:	dd e9                	fucomp %st(1)
  40a52b:	df e0                	fnstsw %ax
  40a52d:	9e                   	sahf   
  40a52e:	0f 86 0c f7 ff ff    	jbe    409c40 <___gdtoa+0x5f0>
  40a534:	dd d9                	fstp   %st(1)
  40a536:	d9 ee                	fldz   
  40a538:	d9 c9                	fxch   %st(1)
  40a53a:	da e9                	fucompp 
  40a53c:	df e0                	fnstsw %ax
  40a53e:	9e                   	sahf   
  40a53f:	0f 8a 4d 04 00 00    	jp     40a992 <___gdtoa+0x1342>
  40a545:	0f 85 47 04 00 00    	jne    40a992 <___gdtoa+0x1342>
  40a54b:	c7 44 24 18 00 00 00 	movl   $0x0,0x18(%esp)
  40a552:	00 
  40a553:	eb 06                	jmp    40a55b <___gdtoa+0xf0b>
  40a555:	0f b6 48 ff          	movzbl -0x1(%eax),%ecx
  40a559:	89 c6                	mov    %eax,%esi
  40a55b:	80 f9 30             	cmp    $0x30,%cl
  40a55e:	8d 46 ff             	lea    -0x1(%esi),%eax
  40a561:	74 f2                	je     40a555 <___gdtoa+0xf05>
  40a563:	8b 44 24 38          	mov    0x38(%esp),%eax
  40a567:	83 c0 01             	add    $0x1,%eax
  40a56a:	89 44 24 0c          	mov    %eax,0xc(%esp)
  40a56e:	e9 6a f9 ff ff       	jmp    409edd <___gdtoa+0x88d>
  40a573:	dd d8                	fstp   %st(0)
  40a575:	dd d8                	fstp   %st(0)
  40a577:	dd d8                	fstp   %st(0)
  40a579:	c7 44 24 0c 02 00 00 	movl   $0x2,0xc(%esp)
  40a580:	00 
  40a581:	31 ff                	xor    %edi,%edi
  40a583:	c7 44 24 20 00 00 00 	movl   $0x0,0x20(%esp)
  40a58a:	00 
  40a58b:	e9 0d f9 ff ff       	jmp    409e9d <___gdtoa+0x84d>
  40a590:	8b 44 24 0c          	mov    0xc(%esp),%eax
  40a594:	83 e1 01             	and    $0x1,%ecx
  40a597:	0f b6 4e ff          	movzbl -0x1(%esi),%ecx
  40a59b:	89 44 24 38          	mov    %eax,0x38(%esp)
  40a59f:	0f 84 ed 03 00 00    	je     40a992 <___gdtoa+0x1342>
  40a5a5:	eb 1a                	jmp    40a5c1 <___gdtoa+0xf71>
  40a5a7:	dd d8                	fstp   %st(0)
  40a5a9:	dd d8                	fstp   %st(0)
  40a5ab:	dd d8                	fstp   %st(0)
  40a5ad:	eb 12                	jmp    40a5c1 <___gdtoa+0xf71>
  40a5af:	dd d8                	fstp   %st(0)
  40a5b1:	dd d8                	fstp   %st(0)
  40a5b3:	dd d8                	fstp   %st(0)
  40a5b5:	dd d8                	fstp   %st(0)
  40a5b7:	eb 08                	jmp    40a5c1 <___gdtoa+0xf71>
  40a5b9:	dd d8                	fstp   %st(0)
  40a5bb:	dd d8                	fstp   %st(0)
  40a5bd:	dd d8                	fstp   %st(0)
  40a5bf:	dd d8                	fstp   %st(0)
  40a5c1:	8b 54 24 24          	mov    0x24(%esp),%edx
  40a5c5:	eb 0e                	jmp    40a5d5 <___gdtoa+0xf85>
  40a5c7:	39 d0                	cmp    %edx,%eax
  40a5c9:	0f 84 be 00 00 00    	je     40a68d <___gdtoa+0x103d>
  40a5cf:	0f b6 48 ff          	movzbl -0x1(%eax),%ecx
  40a5d3:	89 c6                	mov    %eax,%esi
  40a5d5:	80 f9 39             	cmp    $0x39,%cl
  40a5d8:	8d 46 ff             	lea    -0x1(%esi),%eax
  40a5db:	74 ea                	je     40a5c7 <___gdtoa+0xf77>
  40a5dd:	89 54 24 24          	mov    %edx,0x24(%esp)
  40a5e1:	83 c1 01             	add    $0x1,%ecx
  40a5e4:	88 08                	mov    %cl,(%eax)
  40a5e6:	8b 44 24 38          	mov    0x38(%esp),%eax
  40a5ea:	c7 44 24 18 20 00 00 	movl   $0x20,0x18(%esp)
  40a5f1:	00 
  40a5f2:	83 c0 01             	add    $0x1,%eax
  40a5f5:	89 44 24 0c          	mov    %eax,0xc(%esp)
  40a5f9:	e9 df f8 ff ff       	jmp    409edd <___gdtoa+0x88d>
  40a5fe:	8b b4 24 80 00 00 00 	mov    0x80(%esp),%esi
  40a605:	29 ef                	sub    %ebp,%edi
  40a607:	8b 54 24 20          	mov    0x20(%esp),%edx
  40a60b:	8d 47 01             	lea    0x1(%edi),%eax
  40a60e:	89 44 24 5c          	mov    %eax,0x5c(%esp)
  40a612:	8b 4e 04             	mov    0x4(%esi),%ecx
  40a615:	29 fa                	sub    %edi,%edx
  40a617:	39 ca                	cmp    %ecx,%edx
  40a619:	0f 8d be 02 00 00    	jge    40a8dd <___gdtoa+0x128d>
  40a61f:	8b 44 24 20          	mov    0x20(%esp),%eax
  40a623:	8b 7c 24 30          	mov    0x30(%esp),%edi
  40a627:	8b 74 24 28          	mov    0x28(%esp),%esi
  40a62b:	29 c8                	sub    %ecx,%eax
  40a62d:	83 c0 01             	add    $0x1,%eax
  40a630:	89 44 24 5c          	mov    %eax,0x5c(%esp)
  40a634:	e9 5d f6 ff ff       	jmp    409c96 <___gdtoa+0x646>
  40a639:	d8 c0                	fadd   %st(0),%st
  40a63b:	dd e1                	fucom  %st(1)
  40a63d:	df e0                	fnstsw %ax
  40a63f:	9e                   	sahf   
  40a640:	0f 87 22 01 00 00    	ja     40a768 <___gdtoa+0x1118>
  40a646:	d9 c9                	fxch   %st(1)
  40a648:	da e9                	fucompp 
  40a64a:	df e0                	fnstsw %ax
  40a64c:	9e                   	sahf   
  40a64d:	7a 06                	jp     40a655 <___gdtoa+0x1005>
  40a64f:	0f 84 3b ff ff ff    	je     40a590 <___gdtoa+0xf40>
  40a655:	8b 44 24 0c          	mov    0xc(%esp),%eax
  40a659:	0f b6 4e ff          	movzbl -0x1(%esi),%ecx
  40a65d:	c7 44 24 18 10 00 00 	movl   $0x10,0x18(%esp)
  40a664:	00 
  40a665:	89 44 24 38          	mov    %eax,0x38(%esp)
  40a669:	e9 ed fe ff ff       	jmp    40a55b <___gdtoa+0xf0b>
  40a66e:	8b 44 24 24          	mov    0x24(%esp),%eax
  40a672:	c7 44 24 18 20 00 00 	movl   $0x20,0x18(%esp)
  40a679:	00 
  40a67a:	c6 00 31             	movb   $0x31,(%eax)
  40a67d:	8b 44 24 0c          	mov    0xc(%esp),%eax
  40a681:	83 c0 02             	add    $0x2,%eax
  40a684:	89 44 24 0c          	mov    %eax,0xc(%esp)
  40a688:	e9 24 f8 ff ff       	jmp    409eb1 <___gdtoa+0x861>
  40a68d:	89 54 24 24          	mov    %edx,0x24(%esp)
  40a691:	b9 31 00 00 00       	mov    $0x31,%ecx
  40a696:	83 44 24 38 01       	addl   $0x1,0x38(%esp)
  40a69b:	c6 02 30             	movb   $0x30,(%edx)
  40a69e:	e9 41 ff ff ff       	jmp    40a5e4 <___gdtoa+0xf94>
  40a6a3:	8b 74 24 28          	mov    0x28(%esp),%esi
  40a6a7:	31 c0                	xor    %eax,%eax
  40a6a9:	2b 74 24 18          	sub    0x18(%esp),%esi
  40a6ad:	c7 44 24 5c 00 00 00 	movl   $0x0,0x5c(%esp)
  40a6b4:	00 
  40a6b5:	e9 dc f5 ff ff       	jmp    409c96 <___gdtoa+0x646>
  40a6ba:	8b 4c 24 2c          	mov    0x2c(%esp),%ecx
  40a6be:	89 7c 24 20          	mov    %edi,0x20(%esp)
  40a6c2:	8b 74 24 28          	mov    0x28(%esp),%esi
  40a6c6:	8b 7c 24 1c          	mov    0x1c(%esp),%edi
  40a6ca:	8b 54 24 10          	mov    0x10(%esp),%edx
  40a6ce:	85 c9                	test   %ecx,%ecx
  40a6d0:	0f 84 1e 02 00 00    	je     40a8f4 <___gdtoa+0x12a4>
  40a6d6:	83 7b 10 01          	cmpl   $0x1,0x10(%ebx)
  40a6da:	0f 8e 0a 02 00 00    	jle    40a8ea <___gdtoa+0x129a>
  40a6e0:	83 7c 24 2c 02       	cmpl   $0x2,0x2c(%esp)
  40a6e5:	75 3a                	jne    40a721 <___gdtoa+0x10d1>
  40a6e7:	e9 63 02 00 00       	jmp    40a94f <___gdtoa+0x12ff>
  40a6ec:	8d 74 26 00          	lea    0x0(%esi,%eiz,1),%esi
  40a6f0:	89 1c 24             	mov    %ebx,(%esp)
  40a6f3:	c7 44 24 08 00 00 00 	movl   $0x0,0x8(%esp)
  40a6fa:	00 
  40a6fb:	c7 44 24 04 0a 00 00 	movl   $0xa,0x4(%esp)
  40a702:	00 
  40a703:	e8 78 0f 00 00       	call   40b680 <___multadd_D2A>
  40a708:	89 7c 24 04          	mov    %edi,0x4(%esp)
  40a70c:	89 04 24             	mov    %eax,(%esp)
  40a70f:	89 c3                	mov    %eax,%ebx
  40a711:	e8 0a 0b 00 00       	call   40b220 <___quorem_D2A>
  40a716:	8b 6c 24 18          	mov    0x18(%esp),%ebp
  40a71a:	83 c0 30             	add    $0x30,%eax
  40a71d:	89 44 24 10          	mov    %eax,0x10(%esp)
  40a721:	89 6c 24 04          	mov    %ebp,0x4(%esp)
  40a725:	89 3c 24             	mov    %edi,(%esp)
  40a728:	e8 63 14 00 00       	call   40bb90 <___cmp_D2A>
  40a72d:	85 c0                	test   %eax,%eax
  40a72f:	0f 8e 88 02 00 00    	jle    40a9bd <___gdtoa+0x136d>
  40a735:	0f b6 44 24 10       	movzbl 0x10(%esp),%eax
  40a73a:	83 c6 01             	add    $0x1,%esi
  40a73d:	88 46 ff             	mov    %al,-0x1(%esi)
  40a740:	c7 44 24 08 00 00 00 	movl   $0x0,0x8(%esp)
  40a747:	00 
  40a748:	c7 44 24 04 0a 00 00 	movl   $0xa,0x4(%esp)
  40a74f:	00 
  40a750:	89 2c 24             	mov    %ebp,(%esp)
  40a753:	e8 28 0f 00 00       	call   40b680 <___multadd_D2A>
  40a758:	39 6c 24 20          	cmp    %ebp,0x20(%esp)
  40a75c:	89 44 24 18          	mov    %eax,0x18(%esp)
  40a760:	75 8e                	jne    40a6f0 <___gdtoa+0x10a0>
  40a762:	89 44 24 20          	mov    %eax,0x20(%esp)
  40a766:	eb 88                	jmp    40a6f0 <___gdtoa+0x10a0>
  40a768:	dd d8                	fstp   %st(0)
  40a76a:	dd d8                	fstp   %st(0)
  40a76c:	8b 44 24 0c          	mov    0xc(%esp),%eax
  40a770:	0f b6 4e ff          	movzbl -0x1(%esi),%ecx
  40a774:	8b 54 24 24          	mov    0x24(%esp),%edx
  40a778:	89 44 24 38          	mov    %eax,0x38(%esp)
  40a77c:	e9 54 fe ff ff       	jmp    40a5d5 <___gdtoa+0xf85>
  40a781:	89 1c 24             	mov    %ebx,(%esp)
  40a784:	c7 44 24 04 01 00 00 	movl   $0x1,0x4(%esp)
  40a78b:	00 
  40a78c:	89 54 24 18          	mov    %edx,0x18(%esp)
  40a790:	e8 eb 12 00 00       	call   40ba80 <___lshift_D2A>
  40a795:	89 7c 24 04          	mov    %edi,0x4(%esp)
  40a799:	89 04 24             	mov    %eax,(%esp)
  40a79c:	89 c3                	mov    %eax,%ebx
  40a79e:	e8 ed 13 00 00       	call   40bb90 <___cmp_D2A>
  40a7a3:	8b 54 24 18          	mov    0x18(%esp),%edx
  40a7a7:	83 f8 00             	cmp    $0x0,%eax
  40a7aa:	0f 8f ff fb ff ff    	jg     40a3af <___gdtoa+0xd5f>
  40a7b0:	75 0b                	jne    40a7bd <___gdtoa+0x116d>
  40a7b2:	f6 44 24 10 01       	testb  $0x1,0x10(%esp)
  40a7b7:	0f 85 f2 fb ff ff    	jne    40a3af <___gdtoa+0xd5f>
  40a7bd:	83 7b 10 01          	cmpl   $0x1,0x10(%ebx)
  40a7c1:	0f 8e dc 02 00 00    	jle    40aaa3 <___gdtoa+0x1453>
  40a7c7:	c7 44 24 18 10 00 00 	movl   $0x10,0x18(%esp)
  40a7ce:	00 
  40a7cf:	eb 02                	jmp    40a7d3 <___gdtoa+0x1183>
  40a7d1:	89 c6                	mov    %eax,%esi
  40a7d3:	80 7e ff 30          	cmpb   $0x30,-0x1(%esi)
  40a7d7:	8d 46 ff             	lea    -0x1(%esi),%eax
  40a7da:	74 f5                	je     40a7d1 <___gdtoa+0x1181>
  40a7dc:	8b 44 24 0c          	mov    0xc(%esp),%eax
  40a7e0:	83 c0 01             	add    $0x1,%eax
  40a7e3:	89 44 24 0c          	mov    %eax,0xc(%esp)
  40a7e7:	e9 c5 f6 ff ff       	jmp    409eb1 <___gdtoa+0x861>
  40a7ec:	8b 44 24 18          	mov    0x18(%esp),%eax
  40a7f0:	85 c0                	test   %eax,%eax
  40a7f2:	0f 84 fa f3 ff ff    	je     409bf2 <___gdtoa+0x5a2>
  40a7f8:	8b 54 24 44          	mov    0x44(%esp),%edx
  40a7fc:	85 d2                	test   %edx,%edx
  40a7fe:	0f 8e 3e f4 ff ff    	jle    409c42 <___gdtoa+0x5f2>
  40a804:	d9 c0                	fld    %st(0)
  40a806:	d8 0d 44 e3 40 00    	fmuls  0x40e344
  40a80c:	c7 44 24 38 ff ff ff 	movl   $0xffffffff,0x38(%esp)
  40a813:	ff 
  40a814:	d9 c0                	fld    %st(0)
  40a816:	d8 0d 48 e3 40 00    	fmuls  0x40e348
  40a81c:	d8 05 4c e3 40 00    	fadds  0x40e34c
  40a822:	dd 5c 24 10          	fstpl  0x10(%esp)
  40a826:	81 6c 24 14 00 00 40 	subl   $0x3400000,0x14(%esp)
  40a82d:	03 
  40a82e:	e9 02 f2 ff ff       	jmp    409a35 <___gdtoa+0x3e5>
  40a833:	8b 45 04             	mov    0x4(%ebp),%eax
  40a836:	89 04 24             	mov    %eax,(%esp)
  40a839:	e8 02 0d 00 00       	call   40b540 <___Balloc_D2A>
  40a83e:	8d 48 0c             	lea    0xc(%eax),%ecx
  40a841:	89 c6                	mov    %eax,%esi
  40a843:	8b 45 10             	mov    0x10(%ebp),%eax
  40a846:	89 0c 24             	mov    %ecx,(%esp)
  40a849:	8d 14 85 08 00 00 00 	lea    0x8(,%eax,4),%edx
  40a850:	89 e8                	mov    %ebp,%eax
  40a852:	83 c0 0c             	add    $0xc,%eax
  40a855:	89 54 24 08          	mov    %edx,0x8(%esp)
  40a859:	89 44 24 04          	mov    %eax,0x4(%esp)
  40a85d:	e8 f6 18 00 00       	call   40c158 <_memcpy>
  40a862:	c7 44 24 04 01 00 00 	movl   $0x1,0x4(%esp)
  40a869:	00 
  40a86a:	89 34 24             	mov    %esi,(%esp)
  40a86d:	e8 0e 12 00 00       	call   40ba80 <___lshift_D2A>
  40a872:	89 c5                	mov    %eax,%ebp
  40a874:	e9 d1 f8 ff ff       	jmp    40a14a <___gdtoa+0xafa>
  40a879:	89 fa                	mov    %edi,%edx
  40a87b:	8b 74 24 28          	mov    0x28(%esp),%esi
  40a87f:	8b 7c 24 1c          	mov    0x1c(%esp),%edi
  40a883:	89 6c 24 20          	mov    %ebp,0x20(%esp)
  40a887:	e9 04 fb ff ff       	jmp    40a390 <___gdtoa+0xd40>
  40a88c:	83 7c 24 2c 02       	cmpl   $0x2,0x2c(%esp)
  40a891:	0f 84 2c f9 ff ff    	je     40a1c3 <___gdtoa+0xb73>
  40a897:	8b 74 24 28          	mov    0x28(%esp),%esi
  40a89b:	83 7c 24 10 39       	cmpl   $0x39,0x10(%esp)
  40a8a0:	89 7c 24 20          	mov    %edi,0x20(%esp)
  40a8a4:	8b 7c 24 1c          	mov    0x1c(%esp),%edi
  40a8a8:	89 f0                	mov    %esi,%eax
  40a8aa:	0f 84 f1 00 00 00    	je     40a9a1 <___gdtoa+0x1351>
  40a8b0:	0f b6 4c 24 10       	movzbl 0x10(%esp),%ecx
  40a8b5:	83 c6 01             	add    $0x1,%esi
  40a8b8:	8b 54 24 20          	mov    0x20(%esp),%edx
  40a8bc:	c7 44 24 18 20 00 00 	movl   $0x20,0x18(%esp)
  40a8c3:	00 
  40a8c4:	89 6c 24 20          	mov    %ebp,0x20(%esp)
  40a8c8:	83 c1 01             	add    $0x1,%ecx
  40a8cb:	88 08                	mov    %cl,(%eax)
  40a8cd:	8b 44 24 0c          	mov    0xc(%esp),%eax
  40a8d1:	83 c0 01             	add    $0x1,%eax
  40a8d4:	89 44 24 0c          	mov    %eax,0xc(%esp)
  40a8d8:	e9 d4 f5 ff ff       	jmp    409eb1 <___gdtoa+0x861>
  40a8dd:	8b 7c 24 30          	mov    0x30(%esp),%edi
  40a8e1:	8b 74 24 28          	mov    0x28(%esp),%esi
  40a8e5:	e9 ac f3 ff ff       	jmp    409c96 <___gdtoa+0x646>
  40a8ea:	83 7b 14 00          	cmpl   $0x0,0x14(%ebx)
  40a8ee:	0f 85 ec fd ff ff    	jne    40a6e0 <___gdtoa+0x1090>
  40a8f4:	85 c0                	test   %eax,%eax
  40a8f6:	89 54 24 18          	mov    %edx,0x18(%esp)
  40a8fa:	0f 8e d3 00 00 00    	jle    40a9d3 <___gdtoa+0x1383>
  40a900:	89 1c 24             	mov    %ebx,(%esp)
  40a903:	c7 44 24 04 01 00 00 	movl   $0x1,0x4(%esp)
  40a90a:	00 
  40a90b:	e8 70 11 00 00       	call   40ba80 <___lshift_D2A>
  40a910:	89 7c 24 04          	mov    %edi,0x4(%esp)
  40a914:	89 04 24             	mov    %eax,(%esp)
  40a917:	89 c3                	mov    %eax,%ebx
  40a919:	e8 72 12 00 00       	call   40bb90 <___cmp_D2A>
  40a91e:	8b 54 24 18          	mov    0x18(%esp),%edx
  40a922:	83 f8 00             	cmp    $0x0,%eax
  40a925:	0f 8e 98 01 00 00    	jle    40aac3 <___gdtoa+0x1473>
  40a92b:	8b 44 24 30          	mov    0x30(%esp),%eax
  40a92f:	83 c0 31             	add    $0x31,%eax
  40a932:	83 fa 39             	cmp    $0x39,%edx
  40a935:	89 44 24 10          	mov    %eax,0x10(%esp)
  40a939:	74 64                	je     40a99f <___gdtoa+0x134f>
  40a93b:	c7 44 24 18 20 00 00 	movl   $0x20,0x18(%esp)
  40a942:	00 
  40a943:	83 7b 10 01          	cmpl   $0x1,0x10(%ebx)
  40a947:	7f 06                	jg     40a94f <___gdtoa+0x12ff>
  40a949:	83 7b 14 00          	cmpl   $0x0,0x14(%ebx)
  40a94d:	74 08                	je     40a957 <___gdtoa+0x1307>
  40a94f:	c7 44 24 18 10 00 00 	movl   $0x10,0x18(%esp)
  40a956:	00 
  40a957:	0f b6 44 24 10       	movzbl 0x10(%esp),%eax
  40a95c:	83 c6 01             	add    $0x1,%esi
  40a95f:	8b 54 24 20          	mov    0x20(%esp),%edx
  40a963:	89 6c 24 20          	mov    %ebp,0x20(%esp)
  40a967:	88 46 ff             	mov    %al,-0x1(%esi)
  40a96a:	8b 44 24 0c          	mov    0xc(%esp),%eax
  40a96e:	83 c0 01             	add    $0x1,%eax
  40a971:	89 44 24 0c          	mov    %eax,0xc(%esp)
  40a975:	e9 37 f5 ff ff       	jmp    409eb1 <___gdtoa+0x861>
  40a97a:	8b 4b 14             	mov    0x14(%ebx),%ecx
  40a97d:	85 c9                	test   %ecx,%ecx
  40a97f:	0f 85 2a fa ff ff    	jne    40a3af <___gdtoa+0xd5f>
  40a985:	c7 44 24 18 00 00 00 	movl   $0x0,0x18(%esp)
  40a98c:	00 
  40a98d:	e9 41 fe ff ff       	jmp    40a7d3 <___gdtoa+0x1183>
  40a992:	c7 44 24 18 10 00 00 	movl   $0x10,0x18(%esp)
  40a999:	00 
  40a99a:	e9 bc fb ff ff       	jmp    40a55b <___gdtoa+0xf0b>
  40a99f:	89 f0                	mov    %esi,%eax
  40a9a1:	8b 54 24 20          	mov    0x20(%esp),%edx
  40a9a5:	83 c6 01             	add    $0x1,%esi
  40a9a8:	b9 39 00 00 00       	mov    $0x39,%ecx
  40a9ad:	89 6c 24 20          	mov    %ebp,0x20(%esp)
  40a9b1:	8b 6c 24 24          	mov    0x24(%esp),%ebp
  40a9b5:	c6 00 39             	movb   $0x39,(%eax)
  40a9b8:	e9 11 fa ff ff       	jmp    40a3ce <___gdtoa+0xd7e>
  40a9bd:	83 7c 24 10 39       	cmpl   $0x39,0x10(%esp)
  40a9c2:	74 db                	je     40a99f <___gdtoa+0x134f>
  40a9c4:	83 44 24 10 01       	addl   $0x1,0x10(%esp)
  40a9c9:	c7 44 24 18 20 00 00 	movl   $0x20,0x18(%esp)
  40a9d0:	00 
  40a9d1:	eb 84                	jmp    40a957 <___gdtoa+0x1307>
  40a9d3:	c7 44 24 18 00 00 00 	movl   $0x0,0x18(%esp)
  40a9da:	00 
  40a9db:	e9 63 ff ff ff       	jmp    40a943 <___gdtoa+0x12f3>
  40a9e0:	0f 85 a8 f6 ff ff    	jne    40a08e <___gdtoa+0xa3e>
  40a9e6:	dd d8                	fstp   %st(0)
  40a9e8:	dd d8                	fstp   %st(0)
  40a9ea:	e9 0c f7 ff ff       	jmp    40a0fb <___gdtoa+0xaab>
  40a9ef:	89 f1                	mov    %esi,%ecx
  40a9f1:	8b 74 24 28          	mov    0x28(%esp),%esi
  40a9f5:	83 7c 24 10 39       	cmpl   $0x39,0x10(%esp)
  40a9fa:	89 7c 24 20          	mov    %edi,0x20(%esp)
  40a9fe:	8b 7c 24 1c          	mov    0x1c(%esp),%edi
  40aa02:	89 f0                	mov    %esi,%eax
  40aa04:	74 99                	je     40a99f <___gdtoa+0x134f>
  40aa06:	85 c9                	test   %ecx,%ecx
  40aa08:	7e 73                	jle    40aa7d <___gdtoa+0x142d>
  40aa0a:	8b 4c 24 30          	mov    0x30(%esp),%ecx
  40aa0e:	c7 44 24 18 20 00 00 	movl   $0x20,0x18(%esp)
  40aa15:	00 
  40aa16:	83 c1 31             	add    $0x31,%ecx
  40aa19:	89 4c 24 10          	mov    %ecx,0x10(%esp)
  40aa1d:	0f b6 4c 24 10       	movzbl 0x10(%esp),%ecx
  40aa22:	83 c6 01             	add    $0x1,%esi
  40aa25:	8b 54 24 20          	mov    0x20(%esp),%edx
  40aa29:	89 6c 24 20          	mov    %ebp,0x20(%esp)
  40aa2d:	88 08                	mov    %cl,(%eax)
  40aa2f:	8b 44 24 0c          	mov    0xc(%esp),%eax
  40aa33:	83 c0 01             	add    $0x1,%eax
  40aa36:	89 44 24 0c          	mov    %eax,0xc(%esp)
  40aa3a:	e9 72 f4 ff ff       	jmp    409eb1 <___gdtoa+0x861>
  40aa3f:	8b 44 24 20          	mov    0x20(%esp),%eax
  40aa43:	c7 44 24 08 00 00 00 	movl   $0x0,0x8(%esp)
  40aa4a:	00 
  40aa4b:	c7 44 24 04 0a 00 00 	movl   $0xa,0x4(%esp)
  40aa52:	00 
  40aa53:	89 04 24             	mov    %eax,(%esp)
  40aa56:	e8 25 0c 00 00       	call   40b680 <___multadd_D2A>
  40aa5b:	83 7c 24 44 00       	cmpl   $0x0,0x44(%esp)
  40aa60:	89 44 24 20          	mov    %eax,0x20(%esp)
  40aa64:	8b 44 24 44          	mov    0x44(%esp),%eax
  40aa68:	7f 0a                	jg     40aa74 <___gdtoa+0x1424>
  40aa6a:	83 bc 24 90 00 00 00 	cmpl   $0x2,0x90(%esp)
  40aa71:	02 
  40aa72:	7f 46                	jg     40aaba <___gdtoa+0x146a>
  40aa74:	89 44 24 18          	mov    %eax,0x18(%esp)
  40aa78:	e9 a2 f6 ff ff       	jmp    40a11f <___gdtoa+0xacf>
  40aa7d:	83 7b 10 01          	cmpl   $0x1,0x10(%ebx)
  40aa81:	c7 44 24 18 10 00 00 	movl   $0x10,0x18(%esp)
  40aa88:	00 
  40aa89:	7f 92                	jg     40aa1d <___gdtoa+0x13cd>
  40aa8b:	83 7b 14 01          	cmpl   $0x1,0x14(%ebx)
  40aa8f:	19 c9                	sbb    %ecx,%ecx
  40aa91:	89 4c 24 18          	mov    %ecx,0x18(%esp)
  40aa95:	f7 54 24 18          	notl   0x18(%esp)
  40aa99:	83 64 24 18 10       	andl   $0x10,0x18(%esp)
  40aa9e:	e9 7a ff ff ff       	jmp    40aa1d <___gdtoa+0x13cd>
  40aaa3:	83 7b 14 00          	cmpl   $0x0,0x14(%ebx)
  40aaa7:	c7 44 24 18 00 00 00 	movl   $0x0,0x18(%esp)
  40aaae:	00 
  40aaaf:	0f 85 12 fd ff ff    	jne    40a7c7 <___gdtoa+0x1177>
  40aab5:	e9 19 fd ff ff       	jmp    40a7d3 <___gdtoa+0x1183>
  40aaba:	89 44 24 18          	mov    %eax,0x18(%esp)
  40aabe:	e9 21 f3 ff ff       	jmp    409de4 <___gdtoa+0x794>
  40aac3:	0f 85 72 fe ff ff    	jne    40a93b <___gdtoa+0x12eb>
  40aac9:	f6 44 24 10 01       	testb  $0x1,0x10(%esp)
  40aace:	66 90                	xchg   %ax,%ax
  40aad0:	0f 84 65 fe ff ff    	je     40a93b <___gdtoa+0x12eb>
  40aad6:	e9 50 fe ff ff       	jmp    40a92b <___gdtoa+0x12db>
  40aadb:	31 c0                	xor    %eax,%eax
  40aadd:	8d 76 00             	lea    0x0(%esi),%esi
  40aae0:	e9 8f ec ff ff       	jmp    409774 <___gdtoa+0x124>
  40aae5:	b8 01 00 00 00       	mov    $0x1,%eax
  40aaea:	e9 40 ee ff ff       	jmp    40992f <___gdtoa+0x2df>
  40aaef:	90                   	nop

0040aaf0 <___wcrtomb_cp>:
  40aaf0:	55                   	push   %ebp
  40aaf1:	89 e5                	mov    %esp,%ebp
  40aaf3:	83 ec 48             	sub    $0x48,%esp
  40aaf6:	8b 55 10             	mov    0x10(%ebp),%edx
  40aaf9:	8b 45 0c             	mov    0xc(%ebp),%eax
  40aafc:	85 d2                	test   %edx,%edx
  40aafe:	66 89 45 e4          	mov    %ax,-0x1c(%ebp)
  40ab02:	75 12                	jne    40ab16 <___wcrtomb_cp+0x26>
  40ab04:	66 3d ff 00          	cmp    $0xff,%ax
  40ab08:	77 5d                	ja     40ab67 <___wcrtomb_cp+0x77>
  40ab0a:	8b 4d 08             	mov    0x8(%ebp),%ecx
  40ab0d:	88 01                	mov    %al,(%ecx)
  40ab0f:	b8 01 00 00 00       	mov    $0x1,%eax
  40ab14:	c9                   	leave  
  40ab15:	c3                   	ret    
  40ab16:	8d 45 f4             	lea    -0xc(%ebp),%eax
  40ab19:	89 44 24 1c          	mov    %eax,0x1c(%esp)
  40ab1d:	8b 45 14             	mov    0x14(%ebp),%eax
  40ab20:	c7 44 24 18 00 00 00 	movl   $0x0,0x18(%esp)
  40ab27:	00 
  40ab28:	c7 44 24 0c 01 00 00 	movl   $0x1,0xc(%esp)
  40ab2f:	00 
  40ab30:	c7 44 24 04 00 00 00 	movl   $0x0,0x4(%esp)
  40ab37:	00 
  40ab38:	89 44 24 14          	mov    %eax,0x14(%esp)
  40ab3c:	8b 45 08             	mov    0x8(%ebp),%eax
  40ab3f:	89 14 24             	mov    %edx,(%esp)
  40ab42:	c7 45 f4 00 00 00 00 	movl   $0x0,-0xc(%ebp)
  40ab49:	89 44 24 10          	mov    %eax,0x10(%esp)
  40ab4d:	8d 45 e4             	lea    -0x1c(%ebp),%eax
  40ab50:	89 44 24 08          	mov    %eax,0x8(%esp)
  40ab54:	e8 ff 16 00 00       	call   40c258 <_WideCharToMultiByte@32>
  40ab59:	83 ec 20             	sub    $0x20,%esp
  40ab5c:	85 c0                	test   %eax,%eax
  40ab5e:	74 07                	je     40ab67 <___wcrtomb_cp+0x77>
  40ab60:	8b 55 f4             	mov    -0xc(%ebp),%edx
  40ab63:	85 d2                	test   %edx,%edx
  40ab65:	74 ad                	je     40ab14 <___wcrtomb_cp+0x24>
  40ab67:	e8 14 16 00 00       	call   40c180 <__errno>
  40ab6c:	c7 00 2a 00 00 00    	movl   $0x2a,(%eax)
  40ab72:	b8 ff ff ff ff       	mov    $0xffffffff,%eax
  40ab77:	c9                   	leave  
  40ab78:	c3                   	ret    
  40ab79:	8d b4 26 00 00 00 00 	lea    0x0(%esi,%eiz,1),%esi

0040ab80 <_wcrtomb>:
  40ab80:	57                   	push   %edi
  40ab81:	56                   	push   %esi
  40ab82:	53                   	push   %ebx
  40ab83:	83 ec 20             	sub    $0x20,%esp
  40ab86:	8b 5c 24 30          	mov    0x30(%esp),%ebx
  40ab8a:	8b 74 24 34          	mov    0x34(%esp),%esi
  40ab8e:	85 db                	test   %ebx,%ebx
  40ab90:	74 5e                	je     40abf0 <_wcrtomb+0x70>
  40ab92:	a1 b8 21 41 00       	mov    0x4121b8,%eax
  40ab97:	8b 38                	mov    (%eax),%edi
  40ab99:	c7 44 24 04 00 00 00 	movl   $0x0,0x4(%esp)
  40aba0:	00 
  40aba1:	c7 04 24 02 00 00 00 	movl   $0x2,(%esp)
  40aba8:	e8 db 15 00 00       	call   40c188 <_setlocale>
  40abad:	c7 44 24 04 2e 00 00 	movl   $0x2e,0x4(%esp)
  40abb4:	00 
  40abb5:	89 04 24             	mov    %eax,(%esp)
  40abb8:	e8 0b 16 00 00       	call   40c1c8 <_strchr>
  40abbd:	31 d2                	xor    %edx,%edx
  40abbf:	85 c0                	test   %eax,%eax
  40abc1:	74 0d                	je     40abd0 <_wcrtomb+0x50>
  40abc3:	83 c0 01             	add    $0x1,%eax
  40abc6:	89 04 24             	mov    %eax,(%esp)
  40abc9:	e8 02 16 00 00       	call   40c1d0 <_atoi>
  40abce:	89 c2                	mov    %eax,%edx
  40abd0:	0f b7 f6             	movzwl %si,%esi
  40abd3:	89 7c 24 0c          	mov    %edi,0xc(%esp)
  40abd7:	89 74 24 04          	mov    %esi,0x4(%esp)
  40abdb:	89 1c 24             	mov    %ebx,(%esp)
  40abde:	89 54 24 08          	mov    %edx,0x8(%esp)
  40abe2:	e8 09 ff ff ff       	call   40aaf0 <___wcrtomb_cp>
  40abe7:	83 c4 20             	add    $0x20,%esp
  40abea:	5b                   	pop    %ebx
  40abeb:	5e                   	pop    %esi
  40abec:	5f                   	pop    %edi
  40abed:	c3                   	ret    
  40abee:	66 90                	xchg   %ax,%ax
  40abf0:	8d 5c 24 1e          	lea    0x1e(%esp),%ebx
  40abf4:	eb 9c                	jmp    40ab92 <_wcrtomb+0x12>
  40abf6:	8d 76 00             	lea    0x0(%esi),%esi
  40abf9:	8d bc 27 00 00 00 00 	lea    0x0(%edi,%eiz,1),%edi

0040ac00 <_wcsrtombs>:
  40ac00:	55                   	push   %ebp
  40ac01:	57                   	push   %edi
  40ac02:	56                   	push   %esi
  40ac03:	31 f6                	xor    %esi,%esi
  40ac05:	53                   	push   %ebx
  40ac06:	83 ec 3c             	sub    $0x3c,%esp
  40ac09:	c7 44 24 04 00 00 00 	movl   $0x0,0x4(%esp)
  40ac10:	00 
  40ac11:	8b 5c 24 50          	mov    0x50(%esp),%ebx
  40ac15:	c7 04 24 02 00 00 00 	movl   $0x2,(%esp)
  40ac1c:	e8 67 15 00 00       	call   40c188 <_setlocale>
  40ac21:	c7 44 24 04 2e 00 00 	movl   $0x2e,0x4(%esp)
  40ac28:	00 
  40ac29:	89 04 24             	mov    %eax,(%esp)
  40ac2c:	e8 97 15 00 00       	call   40c1c8 <_strchr>
  40ac31:	85 c0                	test   %eax,%eax
  40ac33:	74 0d                	je     40ac42 <_wcsrtombs+0x42>
  40ac35:	83 c0 01             	add    $0x1,%eax
  40ac38:	89 04 24             	mov    %eax,(%esp)
  40ac3b:	e8 90 15 00 00       	call   40c1d0 <_atoi>
  40ac40:	89 c6                	mov    %eax,%esi
  40ac42:	a1 b8 21 41 00       	mov    0x4121b8,%eax
  40ac47:	8b 00                	mov    (%eax),%eax
  40ac49:	89 44 24 1c          	mov    %eax,0x1c(%esp)
  40ac4d:	8b 44 24 54          	mov    0x54(%esp),%eax
  40ac51:	8b 38                	mov    (%eax),%edi
  40ac53:	85 ff                	test   %edi,%edi
  40ac55:	0f 84 cc 00 00 00    	je     40ad27 <_wcsrtombs+0x127>
  40ac5b:	31 ed                	xor    %ebp,%ebp
  40ac5d:	85 db                	test   %ebx,%ebx
  40ac5f:	74 76                	je     40acd7 <_wcsrtombs+0xd7>
  40ac61:	8b 4c 24 58          	mov    0x58(%esp),%ecx
  40ac65:	85 c9                	test   %ecx,%ecx
  40ac67:	74 49                	je     40acb2 <_wcsrtombs+0xb2>
  40ac69:	89 f0                	mov    %esi,%eax
  40ac6b:	89 fe                	mov    %edi,%esi
  40ac6d:	89 c7                	mov    %eax,%edi
  40ac6f:	eb 13                	jmp    40ac84 <_wcsrtombs+0x84>
  40ac71:	01 c3                	add    %eax,%ebx
  40ac73:	01 c5                	add    %eax,%ebp
  40ac75:	80 7b ff 00          	cmpb   $0x0,-0x1(%ebx)
  40ac79:	74 47                	je     40acc2 <_wcsrtombs+0xc2>
  40ac7b:	83 c6 02             	add    $0x2,%esi
  40ac7e:	39 6c 24 58          	cmp    %ebp,0x58(%esp)
  40ac82:	76 2c                	jbe    40acb0 <_wcsrtombs+0xb0>
  40ac84:	8b 44 24 1c          	mov    0x1c(%esp),%eax
  40ac88:	89 7c 24 08          	mov    %edi,0x8(%esp)
  40ac8c:	89 44 24 0c          	mov    %eax,0xc(%esp)
  40ac90:	0f b7 06             	movzwl (%esi),%eax
  40ac93:	89 1c 24             	mov    %ebx,(%esp)
  40ac96:	89 44 24 04          	mov    %eax,0x4(%esp)
  40ac9a:	e8 51 fe ff ff       	call   40aaf0 <___wcrtomb_cp>
  40ac9f:	85 c0                	test   %eax,%eax
  40aca1:	7f ce                	jg     40ac71 <_wcsrtombs+0x71>
  40aca3:	b8 ff ff ff ff       	mov    $0xffffffff,%eax
  40aca8:	83 c4 3c             	add    $0x3c,%esp
  40acab:	5b                   	pop    %ebx
  40acac:	5e                   	pop    %esi
  40acad:	5f                   	pop    %edi
  40acae:	5d                   	pop    %ebp
  40acaf:	c3                   	ret    
  40acb0:	89 f7                	mov    %esi,%edi
  40acb2:	8b 44 24 54          	mov    0x54(%esp),%eax
  40acb6:	89 38                	mov    %edi,(%eax)
  40acb8:	83 c4 3c             	add    $0x3c,%esp
  40acbb:	89 e8                	mov    %ebp,%eax
  40acbd:	5b                   	pop    %ebx
  40acbe:	5e                   	pop    %esi
  40acbf:	5f                   	pop    %edi
  40acc0:	5d                   	pop    %ebp
  40acc1:	c3                   	ret    
  40acc2:	8b 44 24 54          	mov    0x54(%esp),%eax
  40acc6:	c7 00 00 00 00 00    	movl   $0x0,(%eax)
  40accc:	83 c4 3c             	add    $0x3c,%esp
  40accf:	5b                   	pop    %ebx
  40acd0:	8d 45 ff             	lea    -0x1(%ebp),%eax
  40acd3:	5e                   	pop    %esi
  40acd4:	5f                   	pop    %edi
  40acd5:	5d                   	pop    %ebp
  40acd6:	c3                   	ret    
  40acd7:	8b 44 24 58          	mov    0x58(%esp),%eax
  40acdb:	85 c0                	test   %eax,%eax
  40acdd:	74 63                	je     40ad42 <_wcsrtombs+0x142>
  40acdf:	89 e8                	mov    %ebp,%eax
  40ace1:	8b 5c 24 1c          	mov    0x1c(%esp),%ebx
  40ace5:	89 fd                	mov    %edi,%ebp
  40ace7:	89 c7                	mov    %eax,%edi
  40ace9:	eb 17                	jmp    40ad02 <_wcsrtombs+0x102>
  40aceb:	90                   	nop
  40acec:	8d 74 26 00          	lea    0x0(%esi,%eiz,1),%esi
  40acf0:	01 c7                	add    %eax,%edi
  40acf2:	80 7c 04 2d 00       	cmpb   $0x0,0x2d(%esp,%eax,1)
  40acf7:	74 38                	je     40ad31 <_wcsrtombs+0x131>
  40acf9:	83 c5 02             	add    $0x2,%ebp
  40acfc:	39 7c 24 58          	cmp    %edi,0x58(%esp)
  40ad00:	76 37                	jbe    40ad39 <_wcsrtombs+0x139>
  40ad02:	89 5c 24 0c          	mov    %ebx,0xc(%esp)
  40ad06:	89 74 24 08          	mov    %esi,0x8(%esp)
  40ad0a:	0f b7 45 00          	movzwl 0x0(%ebp),%eax
  40ad0e:	89 44 24 04          	mov    %eax,0x4(%esp)
  40ad12:	8d 44 24 2e          	lea    0x2e(%esp),%eax
  40ad16:	89 04 24             	mov    %eax,(%esp)
  40ad19:	e8 d2 fd ff ff       	call   40aaf0 <___wcrtomb_cp>
  40ad1e:	85 c0                	test   %eax,%eax
  40ad20:	7f ce                	jg     40acf0 <_wcsrtombs+0xf0>
  40ad22:	e9 7c ff ff ff       	jmp    40aca3 <_wcsrtombs+0xa3>
  40ad27:	83 c4 3c             	add    $0x3c,%esp
  40ad2a:	31 c0                	xor    %eax,%eax
  40ad2c:	5b                   	pop    %ebx
  40ad2d:	5e                   	pop    %esi
  40ad2e:	5f                   	pop    %edi
  40ad2f:	5d                   	pop    %ebp
  40ad30:	c3                   	ret    
  40ad31:	8d 47 ff             	lea    -0x1(%edi),%eax
  40ad34:	e9 6f ff ff ff       	jmp    40aca8 <_wcsrtombs+0xa8>
  40ad39:	89 fd                	mov    %edi,%ebp
  40ad3b:	89 e8                	mov    %ebp,%eax
  40ad3d:	e9 66 ff ff ff       	jmp    40aca8 <_wcsrtombs+0xa8>
  40ad42:	89 dd                	mov    %ebx,%ebp
  40ad44:	89 e8                	mov    %ebp,%eax
  40ad46:	e9 5d ff ff ff       	jmp    40aca8 <_wcsrtombs+0xa8>
  40ad4b:	90                   	nop
  40ad4c:	90                   	nop
  40ad4d:	90                   	nop
  40ad4e:	90                   	nop
  40ad4f:	90                   	nop

0040ad50 <___mbrtowc_cp>:
  40ad50:	55                   	push   %ebp
  40ad51:	89 e5                	mov    %esp,%ebp
  40ad53:	56                   	push   %esi
  40ad54:	53                   	push   %ebx
  40ad55:	83 ec 30             	sub    $0x30,%esp
  40ad58:	8b 5d 0c             	mov    0xc(%ebp),%ebx
  40ad5b:	8b 75 14             	mov    0x14(%ebp),%esi
  40ad5e:	85 db                	test   %ebx,%ebx
  40ad60:	0f 84 2d 01 00 00    	je     40ae93 <___mbrtowc_cp+0x143>
  40ad66:	8b 4d 10             	mov    0x10(%ebp),%ecx
  40ad69:	85 c9                	test   %ecx,%ecx
  40ad6b:	0f 84 2f 01 00 00    	je     40aea0 <___mbrtowc_cp+0x150>
  40ad71:	8b 06                	mov    (%esi),%eax
  40ad73:	c7 06 00 00 00 00    	movl   $0x0,(%esi)
  40ad79:	89 45 f4             	mov    %eax,-0xc(%ebp)
  40ad7c:	0f b6 03             	movzbl (%ebx),%eax
  40ad7f:	84 c0                	test   %al,%al
  40ad81:	0f 84 99 00 00 00    	je     40ae20 <___mbrtowc_cp+0xd0>
  40ad87:	83 7d 1c 01          	cmpl   $0x1,0x1c(%ebp)
  40ad8b:	76 73                	jbe    40ae00 <___mbrtowc_cp+0xb0>
  40ad8d:	80 7d f4 00          	cmpb   $0x0,-0xc(%ebp)
  40ad91:	0f 85 9a 00 00 00    	jne    40ae31 <___mbrtowc_cp+0xe1>
  40ad97:	89 44 24 04          	mov    %eax,0x4(%esp)
  40ad9b:	8b 45 18             	mov    0x18(%ebp),%eax
  40ad9e:	89 04 24             	mov    %eax,(%esp)
  40ada1:	e8 ba 14 00 00       	call   40c260 <_IsDBCSLeadByteEx@8>
  40ada6:	83 ec 08             	sub    $0x8,%esp
  40ada9:	85 c0                	test   %eax,%eax
  40adab:	74 53                	je     40ae00 <___mbrtowc_cp+0xb0>
  40adad:	83 7d 10 01          	cmpl   $0x1,0x10(%ebp)
  40adb1:	0f 86 05 01 00 00    	jbe    40aebc <___mbrtowc_cp+0x16c>
  40adb7:	8b 45 08             	mov    0x8(%ebp),%eax
  40adba:	c7 44 24 14 01 00 00 	movl   $0x1,0x14(%esp)
  40adc1:	00 
  40adc2:	c7 44 24 0c 02 00 00 	movl   $0x2,0xc(%esp)
  40adc9:	00 
  40adca:	89 5c 24 08          	mov    %ebx,0x8(%esp)
  40adce:	89 44 24 10          	mov    %eax,0x10(%esp)
  40add2:	8b 45 18             	mov    0x18(%ebp),%eax
  40add5:	c7 44 24 04 08 00 00 	movl   $0x8,0x4(%esp)
  40addc:	00 
  40addd:	89 04 24             	mov    %eax,(%esp)
  40ade0:	e8 83 14 00 00       	call   40c268 <_MultiByteToWideChar@24>
  40ade5:	83 ec 18             	sub    $0x18,%esp
  40ade8:	85 c0                	test   %eax,%eax
  40adea:	0f 84 b7 00 00 00    	je     40aea7 <___mbrtowc_cp+0x157>
  40adf0:	8d 65 f8             	lea    -0x8(%ebp),%esp
  40adf3:	b8 02 00 00 00       	mov    $0x2,%eax
  40adf8:	5b                   	pop    %ebx
  40adf9:	5e                   	pop    %esi
  40adfa:	5d                   	pop    %ebp
  40adfb:	c3                   	ret    
  40adfc:	8d 74 26 00          	lea    0x0(%esi,%eiz,1),%esi
  40ae00:	8b 45 18             	mov    0x18(%ebp),%eax
  40ae03:	85 c0                	test   %eax,%eax
  40ae05:	75 50                	jne    40ae57 <___mbrtowc_cp+0x107>
  40ae07:	0f b6 03             	movzbl (%ebx),%eax
  40ae0a:	8b 55 08             	mov    0x8(%ebp),%edx
  40ae0d:	66 89 02             	mov    %ax,(%edx)
  40ae10:	8d 65 f8             	lea    -0x8(%ebp),%esp
  40ae13:	b8 01 00 00 00       	mov    $0x1,%eax
  40ae18:	5b                   	pop    %ebx
  40ae19:	5e                   	pop    %esi
  40ae1a:	5d                   	pop    %ebp
  40ae1b:	c3                   	ret    
  40ae1c:	8d 74 26 00          	lea    0x0(%esi,%eiz,1),%esi
  40ae20:	8b 45 08             	mov    0x8(%ebp),%eax
  40ae23:	31 d2                	xor    %edx,%edx
  40ae25:	66 89 10             	mov    %dx,(%eax)
  40ae28:	31 c0                	xor    %eax,%eax
  40ae2a:	8d 65 f8             	lea    -0x8(%ebp),%esp
  40ae2d:	5b                   	pop    %ebx
  40ae2e:	5e                   	pop    %esi
  40ae2f:	5d                   	pop    %ebp
  40ae30:	c3                   	ret    
  40ae31:	88 45 f5             	mov    %al,-0xb(%ebp)
  40ae34:	8b 45 08             	mov    0x8(%ebp),%eax
  40ae37:	c7 44 24 14 01 00 00 	movl   $0x1,0x14(%esp)
  40ae3e:	00 
  40ae3f:	c7 44 24 0c 02 00 00 	movl   $0x2,0xc(%esp)
  40ae46:	00 
  40ae47:	89 44 24 10          	mov    %eax,0x10(%esp)
  40ae4b:	8d 45 f4             	lea    -0xc(%ebp),%eax
  40ae4e:	89 44 24 08          	mov    %eax,0x8(%esp)
  40ae52:	e9 7b ff ff ff       	jmp    40add2 <___mbrtowc_cp+0x82>
  40ae57:	8b 45 08             	mov    0x8(%ebp),%eax
  40ae5a:	c7 44 24 14 01 00 00 	movl   $0x1,0x14(%esp)
  40ae61:	00 
  40ae62:	c7 44 24 0c 01 00 00 	movl   $0x1,0xc(%esp)
  40ae69:	00 
  40ae6a:	89 5c 24 08          	mov    %ebx,0x8(%esp)
  40ae6e:	89 44 24 10          	mov    %eax,0x10(%esp)
  40ae72:	8b 45 18             	mov    0x18(%ebp),%eax
  40ae75:	c7 44 24 04 08 00 00 	movl   $0x8,0x4(%esp)
  40ae7c:	00 
  40ae7d:	89 04 24             	mov    %eax,(%esp)
  40ae80:	e8 e3 13 00 00       	call   40c268 <_MultiByteToWideChar@24>
  40ae85:	83 ec 18             	sub    $0x18,%esp
  40ae88:	85 c0                	test   %eax,%eax
  40ae8a:	74 1b                	je     40aea7 <___mbrtowc_cp+0x157>
  40ae8c:	b8 01 00 00 00       	mov    $0x1,%eax
  40ae91:	eb 97                	jmp    40ae2a <___mbrtowc_cp+0xda>
  40ae93:	8d 65 f8             	lea    -0x8(%ebp),%esp
  40ae96:	31 c0                	xor    %eax,%eax
  40ae98:	5b                   	pop    %ebx
  40ae99:	5e                   	pop    %esi
  40ae9a:	5d                   	pop    %ebp
  40ae9b:	c3                   	ret    
  40ae9c:	8d 74 26 00          	lea    0x0(%esi,%eiz,1),%esi
  40aea0:	b8 fe ff ff ff       	mov    $0xfffffffe,%eax
  40aea5:	eb 83                	jmp    40ae2a <___mbrtowc_cp+0xda>
  40aea7:	e8 d4 12 00 00       	call   40c180 <__errno>
  40aeac:	c7 00 2a 00 00 00    	movl   $0x2a,(%eax)
  40aeb2:	b8 ff ff ff ff       	mov    $0xffffffff,%eax
  40aeb7:	e9 6e ff ff ff       	jmp    40ae2a <___mbrtowc_cp+0xda>
  40aebc:	0f b6 03             	movzbl (%ebx),%eax
  40aebf:	88 06                	mov    %al,(%esi)
  40aec1:	b8 fe ff ff ff       	mov    $0xfffffffe,%eax
  40aec6:	e9 5f ff ff ff       	jmp    40ae2a <___mbrtowc_cp+0xda>
  40aecb:	90                   	nop
  40aecc:	8d 74 26 00          	lea    0x0(%esi,%eiz,1),%esi

0040aed0 <_mbrtowc>:
  40aed0:	56                   	push   %esi
  40aed1:	31 f6                	xor    %esi,%esi
  40aed3:	53                   	push   %ebx
  40aed4:	83 ec 34             	sub    $0x34,%esp
  40aed7:	8b 5c 24 40          	mov    0x40(%esp),%ebx
  40aedb:	66 89 74 24 2e       	mov    %si,0x2e(%esp)
  40aee0:	85 db                	test   %ebx,%ebx
  40aee2:	74 70                	je     40af54 <_mbrtowc+0x84>
  40aee4:	a1 b8 21 41 00       	mov    0x4121b8,%eax
  40aee9:	8b 30                	mov    (%eax),%esi
  40aeeb:	c7 44 24 04 00 00 00 	movl   $0x0,0x4(%esp)
  40aef2:	00 
  40aef3:	c7 04 24 02 00 00 00 	movl   $0x2,(%esp)
  40aefa:	e8 89 12 00 00       	call   40c188 <_setlocale>
  40aeff:	c7 44 24 04 2e 00 00 	movl   $0x2e,0x4(%esp)
  40af06:	00 
  40af07:	89 04 24             	mov    %eax,(%esp)
  40af0a:	e8 b9 12 00 00       	call   40c1c8 <_strchr>
  40af0f:	31 c9                	xor    %ecx,%ecx
  40af11:	85 c0                	test   %eax,%eax
  40af13:	74 0d                	je     40af22 <_mbrtowc+0x52>
  40af15:	83 c0 01             	add    $0x1,%eax
  40af18:	89 04 24             	mov    %eax,(%esp)
  40af1b:	e8 b0 12 00 00       	call   40c1d0 <_atoi>
  40af20:	89 c1                	mov    %eax,%ecx
  40af22:	8b 54 24 4c          	mov    0x4c(%esp),%edx
  40af26:	85 d2                	test   %edx,%edx
  40af28:	74 36                	je     40af60 <_mbrtowc+0x90>
  40af2a:	8b 44 24 48          	mov    0x48(%esp),%eax
  40af2e:	89 74 24 14          	mov    %esi,0x14(%esp)
  40af32:	89 1c 24             	mov    %ebx,(%esp)
  40af35:	89 4c 24 10          	mov    %ecx,0x10(%esp)
  40af39:	89 44 24 08          	mov    %eax,0x8(%esp)
  40af3d:	8b 44 24 44          	mov    0x44(%esp),%eax
  40af41:	89 54 24 0c          	mov    %edx,0xc(%esp)
  40af45:	89 44 24 04          	mov    %eax,0x4(%esp)
  40af49:	e8 02 fe ff ff       	call   40ad50 <___mbrtowc_cp>
  40af4e:	83 c4 34             	add    $0x34,%esp
  40af51:	5b                   	pop    %ebx
  40af52:	5e                   	pop    %esi
  40af53:	c3                   	ret    
  40af54:	8d 5c 24 2e          	lea    0x2e(%esp),%ebx
  40af58:	eb 8a                	jmp    40aee4 <_mbrtowc+0x14>
  40af5a:	8d b6 00 00 00 00    	lea    0x0(%esi),%esi
  40af60:	ba 84 10 41 00       	mov    $0x411084,%edx
  40af65:	eb c3                	jmp    40af2a <_mbrtowc+0x5a>
  40af67:	89 f6                	mov    %esi,%esi
  40af69:	8d bc 27 00 00 00 00 	lea    0x0(%edi,%eiz,1),%edi

0040af70 <_mbsrtowcs>:
  40af70:	55                   	push   %ebp
  40af71:	57                   	push   %edi
  40af72:	56                   	push   %esi
  40af73:	53                   	push   %ebx
  40af74:	83 ec 3c             	sub    $0x3c,%esp
  40af77:	8b 44 24 5c          	mov    0x5c(%esp),%eax
  40af7b:	8b 5c 24 50          	mov    0x50(%esp),%ebx
  40af7f:	8b 74 24 54          	mov    0x54(%esp),%esi
  40af83:	8b 7c 24 58          	mov    0x58(%esp),%edi
  40af87:	85 c0                	test   %eax,%eax
  40af89:	0f 84 41 01 00 00    	je     40b0d0 <_mbsrtowcs+0x160>
  40af8f:	c7 44 24 04 00 00 00 	movl   $0x0,0x4(%esp)
  40af96:	00 
  40af97:	c7 04 24 02 00 00 00 	movl   $0x2,(%esp)
  40af9e:	e8 e5 11 00 00       	call   40c188 <_setlocale>
  40afa3:	c7 44 24 04 2e 00 00 	movl   $0x2e,0x4(%esp)
  40afaa:	00 
  40afab:	89 04 24             	mov    %eax,(%esp)
  40afae:	e8 15 12 00 00       	call   40c1c8 <_strchr>
  40afb3:	c7 44 24 18 00 00 00 	movl   $0x0,0x18(%esp)
  40afba:	00 
  40afbb:	85 c0                	test   %eax,%eax
  40afbd:	74 0f                	je     40afce <_mbsrtowcs+0x5e>
  40afbf:	83 c0 01             	add    $0x1,%eax
  40afc2:	89 04 24             	mov    %eax,(%esp)
  40afc5:	e8 06 12 00 00       	call   40c1d0 <_atoi>
  40afca:	89 44 24 18          	mov    %eax,0x18(%esp)
  40afce:	a1 b8 21 41 00       	mov    0x4121b8,%eax
  40afd3:	85 f6                	test   %esi,%esi
  40afd5:	8b 00                	mov    (%eax),%eax
  40afd7:	89 44 24 1c          	mov    %eax,0x1c(%esp)
  40afdb:	0f 84 df 00 00 00    	je     40b0c0 <_mbsrtowcs+0x150>
  40afe1:	8b 0e                	mov    (%esi),%ecx
  40afe3:	85 c9                	test   %ecx,%ecx
  40afe5:	0f 84 d5 00 00 00    	je     40b0c0 <_mbsrtowcs+0x150>
  40afeb:	85 db                	test   %ebx,%ebx
  40afed:	74 71                	je     40b060 <_mbsrtowcs+0xf0>
  40afef:	85 ff                	test   %edi,%edi
  40aff1:	0f 84 c9 00 00 00    	je     40b0c0 <_mbsrtowcs+0x150>
  40aff7:	89 74 24 54          	mov    %esi,0x54(%esp)
  40affb:	31 ed                	xor    %ebp,%ebp
  40affd:	89 de                	mov    %ebx,%esi
  40afff:	8b 5c 24 54          	mov    0x54(%esp),%ebx
  40b003:	eb 0f                	jmp    40b014 <_mbsrtowcs+0xa4>
  40b005:	8b 0b                	mov    (%ebx),%ecx
  40b007:	01 c5                	add    %eax,%ebp
  40b009:	83 c6 02             	add    $0x2,%esi
  40b00c:	01 c1                	add    %eax,%ecx
  40b00e:	39 ef                	cmp    %ebp,%edi
  40b010:	89 0b                	mov    %ecx,(%ebx)
  40b012:	76 30                	jbe    40b044 <_mbsrtowcs+0xd4>
  40b014:	8b 44 24 1c          	mov    0x1c(%esp),%eax
  40b018:	89 4c 24 04          	mov    %ecx,0x4(%esp)
  40b01c:	89 34 24             	mov    %esi,(%esp)
  40b01f:	89 44 24 14          	mov    %eax,0x14(%esp)
  40b023:	8b 44 24 18          	mov    0x18(%esp),%eax
  40b027:	89 44 24 10          	mov    %eax,0x10(%esp)
  40b02b:	8b 44 24 5c          	mov    0x5c(%esp),%eax
  40b02f:	89 44 24 0c          	mov    %eax,0xc(%esp)
  40b033:	89 f8                	mov    %edi,%eax
  40b035:	29 e8                	sub    %ebp,%eax
  40b037:	89 44 24 08          	mov    %eax,0x8(%esp)
  40b03b:	e8 10 fd ff ff       	call   40ad50 <___mbrtowc_cp>
  40b040:	85 c0                	test   %eax,%eax
  40b042:	7f c1                	jg     40b005 <_mbsrtowcs+0x95>
  40b044:	85 c0                	test   %eax,%eax
  40b046:	75 6e                	jne    40b0b6 <_mbsrtowcs+0x146>
  40b048:	39 fd                	cmp    %edi,%ebp
  40b04a:	73 6a                	jae    40b0b6 <_mbsrtowcs+0x146>
  40b04c:	c7 03 00 00 00 00    	movl   $0x0,(%ebx)
  40b052:	83 c4 3c             	add    $0x3c,%esp
  40b055:	89 e8                	mov    %ebp,%eax
  40b057:	5b                   	pop    %ebx
  40b058:	5e                   	pop    %esi
  40b059:	5f                   	pop    %edi
  40b05a:	5d                   	pop    %ebp
  40b05b:	c3                   	ret    
  40b05c:	8d 74 26 00          	lea    0x0(%esi,%eiz,1),%esi
  40b060:	31 ed                	xor    %ebp,%ebp
  40b062:	66 89 6c 24 2e       	mov    %bp,0x2e(%esp)
  40b067:	31 ed                	xor    %ebp,%ebp
  40b069:	85 ff                	test   %edi,%edi
  40b06b:	74 49                	je     40b0b6 <_mbsrtowcs+0x146>
  40b06d:	89 7c 24 58          	mov    %edi,0x58(%esp)
  40b071:	8d 5c 24 2e          	lea    0x2e(%esp),%ebx
  40b075:	89 f7                	mov    %esi,%edi
  40b077:	8b 74 24 1c          	mov    0x1c(%esp),%esi
  40b07b:	eb 11                	jmp    40b08e <_mbsrtowcs+0x11e>
  40b07d:	8d 76 00             	lea    0x0(%esi),%esi
  40b080:	8b 0f                	mov    (%edi),%ecx
  40b082:	01 c5                	add    %eax,%ebp
  40b084:	01 c1                	add    %eax,%ecx
  40b086:	39 6c 24 58          	cmp    %ebp,0x58(%esp)
  40b08a:	89 0f                	mov    %ecx,(%edi)
  40b08c:	76 28                	jbe    40b0b6 <_mbsrtowcs+0x146>
  40b08e:	8b 44 24 18          	mov    0x18(%esp),%eax
  40b092:	89 74 24 14          	mov    %esi,0x14(%esp)
  40b096:	89 74 24 08          	mov    %esi,0x8(%esp)
  40b09a:	89 4c 24 04          	mov    %ecx,0x4(%esp)
  40b09e:	89 44 24 10          	mov    %eax,0x10(%esp)
  40b0a2:	8b 44 24 5c          	mov    0x5c(%esp),%eax
  40b0a6:	89 1c 24             	mov    %ebx,(%esp)
  40b0a9:	89 44 24 0c          	mov    %eax,0xc(%esp)
  40b0ad:	e8 9e fc ff ff       	call   40ad50 <___mbrtowc_cp>
  40b0b2:	85 c0                	test   %eax,%eax
  40b0b4:	7f ca                	jg     40b080 <_mbsrtowcs+0x110>
  40b0b6:	83 c4 3c             	add    $0x3c,%esp
  40b0b9:	89 e8                	mov    %ebp,%eax
  40b0bb:	5b                   	pop    %ebx
  40b0bc:	5e                   	pop    %esi
  40b0bd:	5f                   	pop    %edi
  40b0be:	5d                   	pop    %ebp
  40b0bf:	c3                   	ret    
  40b0c0:	83 c4 3c             	add    $0x3c,%esp
  40b0c3:	31 c0                	xor    %eax,%eax
  40b0c5:	5b                   	pop    %ebx
  40b0c6:	5e                   	pop    %esi
  40b0c7:	5f                   	pop    %edi
  40b0c8:	5d                   	pop    %ebp
  40b0c9:	c3                   	ret    
  40b0ca:	8d b6 00 00 00 00    	lea    0x0(%esi),%esi
  40b0d0:	c7 44 24 5c 80 10 41 	movl   $0x411080,0x5c(%esp)
  40b0d7:	00 
  40b0d8:	e9 b2 fe ff ff       	jmp    40af8f <_mbsrtowcs+0x1f>
  40b0dd:	8d 76 00             	lea    0x0(%esi),%esi

0040b0e0 <_mbrlen>:
  40b0e0:	53                   	push   %ebx
  40b0e1:	31 c0                	xor    %eax,%eax
  40b0e3:	83 ec 38             	sub    $0x38,%esp
  40b0e6:	66 89 44 24 2e       	mov    %ax,0x2e(%esp)
  40b0eb:	a1 b8 21 41 00       	mov    0x4121b8,%eax
  40b0f0:	8b 18                	mov    (%eax),%ebx
  40b0f2:	c7 44 24 04 00 00 00 	movl   $0x0,0x4(%esp)
  40b0f9:	00 
  40b0fa:	c7 04 24 02 00 00 00 	movl   $0x2,(%esp)
  40b101:	e8 82 10 00 00       	call   40c188 <_setlocale>
  40b106:	c7 44 24 04 2e 00 00 	movl   $0x2e,0x4(%esp)
  40b10d:	00 
  40b10e:	89 04 24             	mov    %eax,(%esp)
  40b111:	e8 b2 10 00 00       	call   40c1c8 <_strchr>
  40b116:	31 c9                	xor    %ecx,%ecx
  40b118:	85 c0                	test   %eax,%eax
  40b11a:	74 0d                	je     40b129 <_mbrlen+0x49>
  40b11c:	83 c0 01             	add    $0x1,%eax
  40b11f:	89 04 24             	mov    %eax,(%esp)
  40b122:	e8 a9 10 00 00       	call   40c1d0 <_atoi>
  40b127:	89 c1                	mov    %eax,%ecx
  40b129:	8b 54 24 48          	mov    0x48(%esp),%edx
  40b12d:	85 d2                	test   %edx,%edx
  40b12f:	74 2f                	je     40b160 <_mbrlen+0x80>
  40b131:	8b 44 24 44          	mov    0x44(%esp),%eax
  40b135:	89 5c 24 14          	mov    %ebx,0x14(%esp)
  40b139:	89 4c 24 10          	mov    %ecx,0x10(%esp)
  40b13d:	89 54 24 0c          	mov    %edx,0xc(%esp)
  40b141:	89 44 24 08          	mov    %eax,0x8(%esp)
  40b145:	8b 44 24 40          	mov    0x40(%esp),%eax
  40b149:	89 44 24 04          	mov    %eax,0x4(%esp)
  40b14d:	8d 44 24 2e          	lea    0x2e(%esp),%eax
  40b151:	89 04 24             	mov    %eax,(%esp)
  40b154:	e8 f7 fb ff ff       	call   40ad50 <___mbrtowc_cp>
  40b159:	83 c4 38             	add    $0x38,%esp
  40b15c:	5b                   	pop    %ebx
  40b15d:	c3                   	ret    
  40b15e:	66 90                	xchg   %ax,%ax
  40b160:	ba 7c 10 41 00       	mov    $0x41107c,%edx
  40b165:	eb ca                	jmp    40b131 <_mbrlen+0x51>
  40b167:	90                   	nop
  40b168:	90                   	nop
  40b169:	90                   	nop
  40b16a:	90                   	nop
  40b16b:	90                   	nop
  40b16c:	90                   	nop
  40b16d:	90                   	nop
  40b16e:	90                   	nop
  40b16f:	90                   	nop

0040b170 <___rv_alloc_D2A>:
  40b170:	53                   	push   %ebx
  40b171:	31 db                	xor    %ebx,%ebx
  40b173:	83 ec 18             	sub    $0x18,%esp
  40b176:	8b 4c 24 20          	mov    0x20(%esp),%ecx
  40b17a:	83 f9 13             	cmp    $0x13,%ecx
  40b17d:	76 11                	jbe    40b190 <___rv_alloc_D2A+0x20>
  40b17f:	b8 04 00 00 00       	mov    $0x4,%eax
  40b184:	01 c0                	add    %eax,%eax
  40b186:	83 c3 01             	add    $0x1,%ebx
  40b189:	8d 50 10             	lea    0x10(%eax),%edx
  40b18c:	39 ca                	cmp    %ecx,%edx
  40b18e:	76 f4                	jbe    40b184 <___rv_alloc_D2A+0x14>
  40b190:	89 1c 24             	mov    %ebx,(%esp)
  40b193:	e8 a8 03 00 00       	call   40b540 <___Balloc_D2A>
  40b198:	89 18                	mov    %ebx,(%eax)
  40b19a:	83 c4 18             	add    $0x18,%esp
  40b19d:	83 c0 04             	add    $0x4,%eax
  40b1a0:	5b                   	pop    %ebx
  40b1a1:	c3                   	ret    
  40b1a2:	8d b4 26 00 00 00 00 	lea    0x0(%esi,%eiz,1),%esi
  40b1a9:	8d bc 27 00 00 00 00 	lea    0x0(%edi,%eiz,1),%edi

0040b1b0 <___nrv_alloc_D2A>:
  40b1b0:	56                   	push   %esi
  40b1b1:	53                   	push   %ebx
  40b1b2:	83 ec 14             	sub    $0x14,%esp
  40b1b5:	8b 44 24 28          	mov    0x28(%esp),%eax
  40b1b9:	8b 5c 24 20          	mov    0x20(%esp),%ebx
  40b1bd:	8b 74 24 24          	mov    0x24(%esp),%esi
  40b1c1:	89 04 24             	mov    %eax,(%esp)
  40b1c4:	e8 a7 ff ff ff       	call   40b170 <___rv_alloc_D2A>
  40b1c9:	0f b6 13             	movzbl (%ebx),%edx
  40b1cc:	8d 4b 01             	lea    0x1(%ebx),%ecx
  40b1cf:	84 d2                	test   %dl,%dl
  40b1d1:	88 10                	mov    %dl,(%eax)
  40b1d3:	89 c2                	mov    %eax,%edx
  40b1d5:	74 10                	je     40b1e7 <___nrv_alloc_D2A+0x37>
  40b1d7:	83 c1 01             	add    $0x1,%ecx
  40b1da:	0f b6 59 ff          	movzbl -0x1(%ecx),%ebx
  40b1de:	83 c2 01             	add    $0x1,%edx
  40b1e1:	84 db                	test   %bl,%bl
  40b1e3:	88 1a                	mov    %bl,(%edx)
  40b1e5:	75 f0                	jne    40b1d7 <___nrv_alloc_D2A+0x27>
  40b1e7:	85 f6                	test   %esi,%esi
  40b1e9:	74 02                	je     40b1ed <___nrv_alloc_D2A+0x3d>
  40b1eb:	89 16                	mov    %edx,(%esi)
  40b1ed:	83 c4 14             	add    $0x14,%esp
  40b1f0:	5b                   	pop    %ebx
  40b1f1:	5e                   	pop    %esi
  40b1f2:	c3                   	ret    
  40b1f3:	8d b6 00 00 00 00    	lea    0x0(%esi),%esi
  40b1f9:	8d bc 27 00 00 00 00 	lea    0x0(%edi,%eiz,1),%edi

0040b200 <___freedtoa>:
  40b200:	8b 44 24 04          	mov    0x4(%esp),%eax
  40b204:	ba 01 00 00 00       	mov    $0x1,%edx
  40b209:	8b 48 fc             	mov    -0x4(%eax),%ecx
  40b20c:	83 e8 04             	sub    $0x4,%eax
  40b20f:	d3 e2                	shl    %cl,%edx
  40b211:	89 48 04             	mov    %ecx,0x4(%eax)
  40b214:	89 50 08             	mov    %edx,0x8(%eax)
  40b217:	89 44 24 04          	mov    %eax,0x4(%esp)
  40b21b:	e9 f0 03 00 00       	jmp    40b610 <___Bfree_D2A>

0040b220 <___quorem_D2A>:
  40b220:	55                   	push   %ebp
  40b221:	57                   	push   %edi
  40b222:	56                   	push   %esi
  40b223:	53                   	push   %ebx
  40b224:	83 ec 4c             	sub    $0x4c,%esp
  40b227:	8b 44 24 64          	mov    0x64(%esp),%eax
  40b22b:	8b 7c 24 60          	mov    0x60(%esp),%edi
  40b22f:	8b 50 10             	mov    0x10(%eax),%edx
  40b232:	31 c0                	xor    %eax,%eax
  40b234:	3b 57 10             	cmp    0x10(%edi),%edx
  40b237:	0f 8f d6 01 00 00    	jg     40b413 <___quorem_D2A+0x1f3>
  40b23d:	8b 44 24 64          	mov    0x64(%esp),%eax
  40b241:	8b 74 24 60          	mov    0x60(%esp),%esi
  40b245:	83 c0 14             	add    $0x14,%eax
  40b248:	89 c7                	mov    %eax,%edi
  40b24a:	89 44 24 38          	mov    %eax,0x38(%esp)
  40b24e:	8d 42 ff             	lea    -0x1(%edx),%eax
  40b251:	31 d2                	xor    %edx,%edx
  40b253:	89 44 24 30          	mov    %eax,0x30(%esp)
  40b257:	c1 e0 02             	shl    $0x2,%eax
  40b25a:	01 c7                	add    %eax,%edi
  40b25c:	8d 5e 14             	lea    0x14(%esi),%ebx
  40b25f:	01 d8                	add    %ebx,%eax
  40b261:	89 7c 24 28          	mov    %edi,0x28(%esp)
  40b265:	8b 3f                	mov    (%edi),%edi
  40b267:	89 44 24 3c          	mov    %eax,0x3c(%esp)
  40b26b:	8b 00                	mov    (%eax),%eax
  40b26d:	89 5c 24 2c          	mov    %ebx,0x2c(%esp)
  40b271:	8d 4f 01             	lea    0x1(%edi),%ecx
  40b274:	f7 f1                	div    %ecx
  40b276:	89 7c 24 10          	mov    %edi,0x10(%esp)
  40b27a:	85 c0                	test   %eax,%eax
  40b27c:	89 c5                	mov    %eax,%ebp
  40b27e:	89 44 24 34          	mov    %eax,0x34(%esp)
  40b282:	0f 84 c7 00 00 00    	je     40b34f <___quorem_D2A+0x12f>
  40b288:	8b 7c 24 38          	mov    0x38(%esp),%edi
  40b28c:	89 de                	mov    %ebx,%esi
  40b28e:	c7 44 24 20 00 00 00 	movl   $0x0,0x20(%esp)
  40b295:	00 
  40b296:	c7 44 24 24 00 00 00 	movl   $0x0,0x24(%esp)
  40b29d:	00 
  40b29e:	c7 44 24 10 00 00 00 	movl   $0x0,0x10(%esp)
  40b2a5:	00 
  40b2a6:	c7 44 24 14 00 00 00 	movl   $0x0,0x14(%esp)
  40b2ad:	00 
  40b2ae:	66 90                	xchg   %ax,%ax
  40b2b0:	83 c7 04             	add    $0x4,%edi
  40b2b3:	89 e8                	mov    %ebp,%eax
  40b2b5:	f7 67 fc             	mull   -0x4(%edi)
  40b2b8:	03 44 24 20          	add    0x20(%esp),%eax
  40b2bc:	13 54 24 24          	adc    0x24(%esp),%edx
  40b2c0:	c7 44 24 1c 00 00 00 	movl   $0x0,0x1c(%esp)
  40b2c7:	00 
  40b2c8:	89 44 24 18          	mov    %eax,0x18(%esp)
  40b2cc:	89 d3                	mov    %edx,%ebx
  40b2ce:	89 d9                	mov    %ebx,%ecx
  40b2d0:	31 db                	xor    %ebx,%ebx
  40b2d2:	89 4c 24 20          	mov    %ecx,0x20(%esp)
  40b2d6:	8b 0e                	mov    (%esi),%ecx
  40b2d8:	89 5c 24 24          	mov    %ebx,0x24(%esp)
  40b2dc:	31 db                	xor    %ebx,%ebx
  40b2de:	2b 4c 24 18          	sub    0x18(%esp),%ecx
  40b2e2:	1b 5c 24 1c          	sbb    0x1c(%esp),%ebx
  40b2e6:	2b 4c 24 10          	sub    0x10(%esp),%ecx
  40b2ea:	1b 5c 24 14          	sbb    0x14(%esp),%ebx
  40b2ee:	83 c6 04             	add    $0x4,%esi
  40b2f1:	c7 44 24 14 00 00 00 	movl   $0x0,0x14(%esp)
  40b2f8:	00 
  40b2f9:	89 d8                	mov    %ebx,%eax
  40b2fb:	83 e0 01             	and    $0x1,%eax
  40b2fe:	39 7c 24 28          	cmp    %edi,0x28(%esp)
  40b302:	89 44 24 10          	mov    %eax,0x10(%esp)
  40b306:	89 4e fc             	mov    %ecx,-0x4(%esi)
  40b309:	73 a5                	jae    40b2b0 <___quorem_D2A+0x90>
  40b30b:	8b 44 24 3c          	mov    0x3c(%esp),%eax
  40b30f:	8b 38                	mov    (%eax),%edi
  40b311:	85 ff                	test   %edi,%edi
  40b313:	75 3a                	jne    40b34f <___quorem_D2A+0x12f>
  40b315:	8b 4c 24 2c          	mov    0x2c(%esp),%ecx
  40b319:	89 c6                	mov    %eax,%esi
  40b31b:	83 e8 04             	sub    $0x4,%eax
  40b31e:	39 c1                	cmp    %eax,%ecx
  40b320:	73 22                	jae    40b344 <___quorem_D2A+0x124>
  40b322:	8b 76 fc             	mov    -0x4(%esi),%esi
  40b325:	85 f6                	test   %esi,%esi
  40b327:	75 1b                	jne    40b344 <___quorem_D2A+0x124>
  40b329:	8b 54 24 30          	mov    0x30(%esp),%edx
  40b32d:	eb 07                	jmp    40b336 <___quorem_D2A+0x116>
  40b32f:	90                   	nop
  40b330:	8b 18                	mov    (%eax),%ebx
  40b332:	85 db                	test   %ebx,%ebx
  40b334:	75 0a                	jne    40b340 <___quorem_D2A+0x120>
  40b336:	83 e8 04             	sub    $0x4,%eax
  40b339:	83 ea 01             	sub    $0x1,%edx
  40b33c:	39 c1                	cmp    %eax,%ecx
  40b33e:	72 f0                	jb     40b330 <___quorem_D2A+0x110>
  40b340:	89 54 24 30          	mov    %edx,0x30(%esp)
  40b344:	8b 44 24 60          	mov    0x60(%esp),%eax
  40b348:	8b 7c 24 30          	mov    0x30(%esp),%edi
  40b34c:	89 78 10             	mov    %edi,0x10(%eax)
  40b34f:	8b 44 24 64          	mov    0x64(%esp),%eax
  40b353:	89 44 24 04          	mov    %eax,0x4(%esp)
  40b357:	8b 44 24 60          	mov    0x60(%esp),%eax
  40b35b:	89 04 24             	mov    %eax,(%esp)
  40b35e:	e8 2d 08 00 00       	call   40bb90 <___cmp_D2A>
  40b363:	85 c0                	test   %eax,%eax
  40b365:	0f 88 a4 00 00 00    	js     40b40f <___quorem_D2A+0x1ef>
  40b36b:	31 f6                	xor    %esi,%esi
  40b36d:	31 ff                	xor    %edi,%edi
  40b36f:	8d 45 01             	lea    0x1(%ebp),%eax
  40b372:	8b 6c 24 2c          	mov    0x2c(%esp),%ebp
  40b376:	89 74 24 10          	mov    %esi,0x10(%esp)
  40b37a:	8b 74 24 38          	mov    0x38(%esp),%esi
  40b37e:	89 7c 24 14          	mov    %edi,0x14(%esp)
  40b382:	8b 7c 24 28          	mov    0x28(%esp),%edi
  40b386:	89 44 24 34          	mov    %eax,0x34(%esp)
  40b38a:	8d b6 00 00 00 00    	lea    0x0(%esi),%esi
  40b390:	83 c6 04             	add    $0x4,%esi
  40b393:	8b 45 00             	mov    0x0(%ebp),%eax
  40b396:	31 db                	xor    %ebx,%ebx
  40b398:	8b 4e fc             	mov    -0x4(%esi),%ecx
  40b39b:	31 d2                	xor    %edx,%edx
  40b39d:	29 c8                	sub    %ecx,%eax
  40b39f:	19 da                	sbb    %ebx,%edx
  40b3a1:	2b 44 24 10          	sub    0x10(%esp),%eax
  40b3a5:	1b 54 24 14          	sbb    0x14(%esp),%edx
  40b3a9:	83 c5 04             	add    $0x4,%ebp
  40b3ac:	c7 44 24 14 00 00 00 	movl   $0x0,0x14(%esp)
  40b3b3:	00 
  40b3b4:	89 d3                	mov    %edx,%ebx
  40b3b6:	83 e3 01             	and    $0x1,%ebx
  40b3b9:	39 f7                	cmp    %esi,%edi
  40b3bb:	89 5c 24 10          	mov    %ebx,0x10(%esp)
  40b3bf:	89 45 fc             	mov    %eax,-0x4(%ebp)
  40b3c2:	73 cc                	jae    40b390 <___quorem_D2A+0x170>
  40b3c4:	8b 44 24 2c          	mov    0x2c(%esp),%eax
  40b3c8:	8b 5c 24 30          	mov    0x30(%esp),%ebx
  40b3cc:	8d 14 98             	lea    (%eax,%ebx,4),%edx
  40b3cf:	8b 3a                	mov    (%edx),%edi
  40b3d1:	85 ff                	test   %edi,%edi
  40b3d3:	75 3a                	jne    40b40f <___quorem_D2A+0x1ef>
  40b3d5:	8b 4c 24 2c          	mov    0x2c(%esp),%ecx
  40b3d9:	8d 42 fc             	lea    -0x4(%edx),%eax
  40b3dc:	39 c1                	cmp    %eax,%ecx
  40b3de:	73 24                	jae    40b404 <___quorem_D2A+0x1e4>
  40b3e0:	8b 72 fc             	mov    -0x4(%edx),%esi
  40b3e3:	85 f6                	test   %esi,%esi
  40b3e5:	75 1d                	jne    40b404 <___quorem_D2A+0x1e4>
  40b3e7:	89 da                	mov    %ebx,%edx
  40b3e9:	eb 0b                	jmp    40b3f6 <___quorem_D2A+0x1d6>
  40b3eb:	90                   	nop
  40b3ec:	8d 74 26 00          	lea    0x0(%esi,%eiz,1),%esi
  40b3f0:	8b 18                	mov    (%eax),%ebx
  40b3f2:	85 db                	test   %ebx,%ebx
  40b3f4:	75 0a                	jne    40b400 <___quorem_D2A+0x1e0>
  40b3f6:	83 e8 04             	sub    $0x4,%eax
  40b3f9:	83 ea 01             	sub    $0x1,%edx
  40b3fc:	39 c1                	cmp    %eax,%ecx
  40b3fe:	72 f0                	jb     40b3f0 <___quorem_D2A+0x1d0>
  40b400:	89 54 24 30          	mov    %edx,0x30(%esp)
  40b404:	8b 44 24 60          	mov    0x60(%esp),%eax
  40b408:	8b 7c 24 30          	mov    0x30(%esp),%edi
  40b40c:	89 78 10             	mov    %edi,0x10(%eax)
  40b40f:	8b 44 24 34          	mov    0x34(%esp),%eax
  40b413:	83 c4 4c             	add    $0x4c,%esp
  40b416:	5b                   	pop    %ebx
  40b417:	5e                   	pop    %esi
  40b418:	5f                   	pop    %edi
  40b419:	5d                   	pop    %ebp
  40b41a:	c3                   	ret    
  40b41b:	90                   	nop
  40b41c:	90                   	nop
  40b41d:	90                   	nop
  40b41e:	90                   	nop
  40b41f:	90                   	nop

0040b420 <_dtoa_lock>:
  40b420:	55                   	push   %ebp
  40b421:	89 e5                	mov    %esp,%ebp
  40b423:	53                   	push   %ebx
  40b424:	89 c3                	mov    %eax,%ebx
  40b426:	83 ec 14             	sub    $0x14,%esp
  40b429:	8b 15 e8 19 41 00    	mov    0x4119e8,%edx
  40b42f:	83 fa 02             	cmp    $0x2,%edx
  40b432:	74 7f                	je     40b4b3 <_dtoa_lock+0x93>
  40b434:	85 d2                	test   %edx,%edx
  40b436:	75 1d                	jne    40b455 <_dtoa_lock+0x35>
  40b438:	eb 2a                	jmp    40b464 <_dtoa_lock+0x44>
  40b43a:	8d b6 00 00 00 00    	lea    0x0(%esi),%esi
  40b440:	c7 04 24 01 00 00 00 	movl   $0x1,(%esp)
  40b447:	e8 24 0e 00 00       	call   40c270 <_Sleep@4>
  40b44c:	83 ec 04             	sub    $0x4,%esp
  40b44f:	8b 15 e8 19 41 00    	mov    0x4119e8,%edx
  40b455:	83 fa 01             	cmp    $0x1,%edx
  40b458:	74 e6                	je     40b440 <_dtoa_lock+0x20>
  40b45a:	83 fa 02             	cmp    $0x2,%edx
  40b45d:	74 54                	je     40b4b3 <_dtoa_lock+0x93>
  40b45f:	8b 5d fc             	mov    -0x4(%ebp),%ebx
  40b462:	c9                   	leave  
  40b463:	c3                   	ret    
  40b464:	c7 44 24 04 01 00 00 	movl   $0x1,0x4(%esp)
  40b46b:	00 
  40b46c:	c7 04 24 e8 19 41 00 	movl   $0x4119e8,(%esp)
  40b473:	e8 00 0e 00 00       	call   40c278 <_InterlockedExchange@8>
  40b478:	83 ec 08             	sub    $0x8,%esp
  40b47b:	85 c0                	test   %eax,%eax
  40b47d:	75 51                	jne    40b4d0 <_dtoa_lock+0xb0>
  40b47f:	c7 04 24 00 1a 41 00 	movl   $0x411a00,(%esp)
  40b486:	e8 ad 0d 00 00       	call   40c238 <_InitializeCriticalSection@4>
  40b48b:	83 ec 04             	sub    $0x4,%esp
  40b48e:	c7 04 24 18 1a 41 00 	movl   $0x411a18,(%esp)
  40b495:	e8 9e 0d 00 00       	call   40c238 <_InitializeCriticalSection@4>
  40b49a:	83 ec 04             	sub    $0x4,%esp
  40b49d:	c7 04 24 f0 b4 40 00 	movl   $0x40b4f0,(%esp)
  40b4a4:	e8 37 5e ff ff       	call   4012e0 <_atexit>
  40b4a9:	c7 05 e8 19 41 00 02 	movl   $0x2,0x4119e8
  40b4b0:	00 00 00 
  40b4b3:	8d 04 5b             	lea    (%ebx,%ebx,2),%eax
  40b4b6:	8d 04 c5 00 1a 41 00 	lea    0x411a00(,%eax,8),%eax
  40b4bd:	89 04 24             	mov    %eax,(%esp)
  40b4c0:	e8 4b 0d 00 00       	call   40c210 <_EnterCriticalSection@4>
  40b4c5:	8b 5d fc             	mov    -0x4(%ebp),%ebx
  40b4c8:	83 ec 04             	sub    $0x4,%esp
  40b4cb:	c9                   	leave  
  40b4cc:	c3                   	ret    
  40b4cd:	8d 76 00             	lea    0x0(%esi),%esi
  40b4d0:	83 f8 02             	cmp    $0x2,%eax
  40b4d3:	0f 85 76 ff ff ff    	jne    40b44f <_dtoa_lock+0x2f>
  40b4d9:	c7 05 e8 19 41 00 02 	movl   $0x2,0x4119e8
  40b4e0:	00 00 00 
  40b4e3:	eb ce                	jmp    40b4b3 <_dtoa_lock+0x93>
  40b4e5:	8d 74 26 00          	lea    0x0(%esi,%eiz,1),%esi
  40b4e9:	8d bc 27 00 00 00 00 	lea    0x0(%edi,%eiz,1),%edi

0040b4f0 <_dtoa_lock_cleanup>:
  40b4f0:	55                   	push   %ebp
  40b4f1:	89 e5                	mov    %esp,%ebp
  40b4f3:	83 ec 18             	sub    $0x18,%esp
  40b4f6:	c7 44 24 04 03 00 00 	movl   $0x3,0x4(%esp)
  40b4fd:	00 
  40b4fe:	c7 04 24 e8 19 41 00 	movl   $0x4119e8,(%esp)
  40b505:	e8 6e 0d 00 00       	call   40c278 <_InterlockedExchange@8>
  40b50a:	83 ec 08             	sub    $0x8,%esp
  40b50d:	83 f8 02             	cmp    $0x2,%eax
  40b510:	74 02                	je     40b514 <_dtoa_lock_cleanup+0x24>
  40b512:	c9                   	leave  
  40b513:	c3                   	ret    
  40b514:	c7 04 24 00 1a 41 00 	movl   $0x411a00,(%esp)
  40b51b:	e8 10 0d 00 00       	call   40c230 <_DeleteCriticalSection@4>
  40b520:	83 ec 04             	sub    $0x4,%esp
  40b523:	c7 04 24 18 1a 41 00 	movl   $0x411a18,(%esp)
  40b52a:	e8 01 0d 00 00       	call   40c230 <_DeleteCriticalSection@4>
  40b52f:	83 ec 04             	sub    $0x4,%esp
  40b532:	c9                   	leave  
  40b533:	c3                   	ret    
  40b534:	8d b6 00 00 00 00    	lea    0x0(%esi),%esi
  40b53a:	8d bf 00 00 00 00    	lea    0x0(%edi),%edi

0040b540 <___Balloc_D2A>:
  40b540:	55                   	push   %ebp
  40b541:	31 c0                	xor    %eax,%eax
  40b543:	89 e5                	mov    %esp,%ebp
  40b545:	57                   	push   %edi
  40b546:	56                   	push   %esi
  40b547:	53                   	push   %ebx
  40b548:	83 ec 1c             	sub    $0x1c,%esp
  40b54b:	8b 75 08             	mov    0x8(%ebp),%esi
  40b54e:	e8 cd fe ff ff       	call   40b420 <_dtoa_lock>
  40b553:	83 fe 09             	cmp    $0x9,%esi
  40b556:	7f 2e                	jg     40b586 <___Balloc_D2A+0x46>
  40b558:	8b 1c b5 c0 19 41 00 	mov    0x4119c0(,%esi,4),%ebx
  40b55f:	85 db                	test   %ebx,%ebx
  40b561:	74 6e                	je     40b5d1 <___Balloc_D2A+0x91>
  40b563:	8b 03                	mov    (%ebx),%eax
  40b565:	83 3d e8 19 41 00 02 	cmpl   $0x2,0x4119e8
  40b56c:	89 04 b5 c0 19 41 00 	mov    %eax,0x4119c0(,%esi,4)
  40b573:	75 44                	jne    40b5b9 <___Balloc_D2A+0x79>
  40b575:	c7 04 24 00 1a 41 00 	movl   $0x411a00,(%esp)
  40b57c:	e8 a7 0c 00 00       	call   40c228 <_LeaveCriticalSection@4>
  40b581:	83 ec 04             	sub    $0x4,%esp
  40b584:	eb 33                	jmp    40b5b9 <___Balloc_D2A+0x79>
  40b586:	bf 01 00 00 00       	mov    $0x1,%edi
  40b58b:	89 f1                	mov    %esi,%ecx
  40b58d:	d3 e7                	shl    %cl,%edi
  40b58f:	8d 04 bd 1b 00 00 00 	lea    0x1b(,%edi,4),%eax
  40b596:	c1 e8 03             	shr    $0x3,%eax
  40b599:	c1 e0 03             	shl    $0x3,%eax
  40b59c:	89 04 24             	mov    %eax,(%esp)
  40b59f:	e8 74 0b 00 00       	call   40c118 <_malloc>
  40b5a4:	85 c0                	test   %eax,%eax
  40b5a6:	89 c3                	mov    %eax,%ebx
  40b5a8:	74 5f                	je     40b609 <___Balloc_D2A+0xc9>
  40b5aa:	83 3d e8 19 41 00 02 	cmpl   $0x2,0x4119e8
  40b5b1:	89 73 04             	mov    %esi,0x4(%ebx)
  40b5b4:	89 7b 08             	mov    %edi,0x8(%ebx)
  40b5b7:	74 bc                	je     40b575 <___Balloc_D2A+0x35>
  40b5b9:	c7 43 10 00 00 00 00 	movl   $0x0,0x10(%ebx)
  40b5c0:	89 d8                	mov    %ebx,%eax
  40b5c2:	c7 43 0c 00 00 00 00 	movl   $0x0,0xc(%ebx)
  40b5c9:	8d 65 f4             	lea    -0xc(%ebp),%esp
  40b5cc:	5b                   	pop    %ebx
  40b5cd:	5e                   	pop    %esi
  40b5ce:	5f                   	pop    %edi
  40b5cf:	5d                   	pop    %ebp
  40b5d0:	c3                   	ret    
  40b5d1:	8b 1d 58 d8 40 00    	mov    0x40d858,%ebx
  40b5d7:	bf 01 00 00 00       	mov    $0x1,%edi
  40b5dc:	89 f1                	mov    %esi,%ecx
  40b5de:	d3 e7                	shl    %cl,%edi
  40b5e0:	8d 04 bd 1b 00 00 00 	lea    0x1b(,%edi,4),%eax
  40b5e7:	c1 e8 03             	shr    $0x3,%eax
  40b5ea:	89 da                	mov    %ebx,%edx
  40b5ec:	81 ea c0 10 41 00    	sub    $0x4110c0,%edx
  40b5f2:	c1 fa 03             	sar    $0x3,%edx
  40b5f5:	01 c2                	add    %eax,%edx
  40b5f7:	81 fa 20 01 00 00    	cmp    $0x120,%edx
  40b5fd:	77 9a                	ja     40b599 <___Balloc_D2A+0x59>
  40b5ff:	8d 04 c3             	lea    (%ebx,%eax,8),%eax
  40b602:	a3 58 d8 40 00       	mov    %eax,0x40d858
  40b607:	eb a1                	jmp    40b5aa <___Balloc_D2A+0x6a>
  40b609:	31 c0                	xor    %eax,%eax
  40b60b:	eb bc                	jmp    40b5c9 <___Balloc_D2A+0x89>
  40b60d:	8d 76 00             	lea    0x0(%esi),%esi

0040b610 <___Bfree_D2A>:
  40b610:	55                   	push   %ebp
  40b611:	89 e5                	mov    %esp,%ebp
  40b613:	53                   	push   %ebx
  40b614:	83 ec 14             	sub    $0x14,%esp
  40b617:	8b 5d 08             	mov    0x8(%ebp),%ebx
  40b61a:	85 db                	test   %ebx,%ebx
  40b61c:	74 29                	je     40b647 <___Bfree_D2A+0x37>
  40b61e:	83 7b 04 09          	cmpl   $0x9,0x4(%ebx)
  40b622:	7f 2c                	jg     40b650 <___Bfree_D2A+0x40>
  40b624:	31 c0                	xor    %eax,%eax
  40b626:	e8 f5 fd ff ff       	call   40b420 <_dtoa_lock>
  40b62b:	8b 43 04             	mov    0x4(%ebx),%eax
  40b62e:	83 3d e8 19 41 00 02 	cmpl   $0x2,0x4119e8
  40b635:	8b 14 85 c0 19 41 00 	mov    0x4119c0(,%eax,4),%edx
  40b63c:	89 1c 85 c0 19 41 00 	mov    %ebx,0x4119c0(,%eax,4)
  40b643:	89 13                	mov    %edx,(%ebx)
  40b645:	74 19                	je     40b660 <___Bfree_D2A+0x50>
  40b647:	8b 5d fc             	mov    -0x4(%ebp),%ebx
  40b64a:	c9                   	leave  
  40b64b:	c3                   	ret    
  40b64c:	8d 74 26 00          	lea    0x0(%esi,%eiz,1),%esi
  40b650:	8b 5d fc             	mov    -0x4(%ebp),%ebx
  40b653:	c9                   	leave  
  40b654:	e9 07 0b 00 00       	jmp    40c160 <_free>
  40b659:	8d b4 26 00 00 00 00 	lea    0x0(%esi,%eiz,1),%esi
  40b660:	c7 04 24 00 1a 41 00 	movl   $0x411a00,(%esp)
  40b667:	e8 bc 0b 00 00       	call   40c228 <_LeaveCriticalSection@4>
  40b66c:	8b 5d fc             	mov    -0x4(%ebp),%ebx
  40b66f:	83 ec 04             	sub    $0x4,%esp
  40b672:	c9                   	leave  
  40b673:	c3                   	ret    
  40b674:	8d b6 00 00 00 00    	lea    0x0(%esi),%esi
  40b67a:	8d bf 00 00 00 00    	lea    0x0(%edi),%edi

0040b680 <___multadd_D2A>:
  40b680:	55                   	push   %ebp
  40b681:	31 c9                	xor    %ecx,%ecx
  40b683:	57                   	push   %edi
  40b684:	56                   	push   %esi
  40b685:	53                   	push   %ebx
  40b686:	83 ec 2c             	sub    $0x2c,%esp
  40b689:	8b 44 24 40          	mov    0x40(%esp),%eax
  40b68d:	8b 7c 24 48          	mov    0x48(%esp),%edi
  40b691:	8b 40 10             	mov    0x10(%eax),%eax
  40b694:	89 fd                	mov    %edi,%ebp
  40b696:	c1 fd 1f             	sar    $0x1f,%ebp
  40b699:	89 44 24 1c          	mov    %eax,0x1c(%esp)
  40b69d:	8b 44 24 40          	mov    0x40(%esp),%eax
  40b6a1:	8d 58 14             	lea    0x14(%eax),%ebx
  40b6a4:	8b 44 24 44          	mov    0x44(%esp),%eax
  40b6a8:	89 44 24 10          	mov    %eax,0x10(%esp)
  40b6ac:	c1 f8 1f             	sar    $0x1f,%eax
  40b6af:	89 44 24 14          	mov    %eax,0x14(%esp)
  40b6b3:	8b 04 8b             	mov    (%ebx,%ecx,4),%eax
  40b6b6:	8b 74 24 14          	mov    0x14(%esp),%esi
  40b6ba:	0f af f0             	imul   %eax,%esi
  40b6bd:	f7 64 24 10          	mull   0x10(%esp)
  40b6c1:	01 f2                	add    %esi,%edx
  40b6c3:	01 f8                	add    %edi,%eax
  40b6c5:	11 ea                	adc    %ebp,%edx
  40b6c7:	89 d5                	mov    %edx,%ebp
  40b6c9:	89 ef                	mov    %ebp,%edi
  40b6cb:	31 ed                	xor    %ebp,%ebp
  40b6cd:	89 04 8b             	mov    %eax,(%ebx,%ecx,4)
  40b6d0:	83 c1 01             	add    $0x1,%ecx
  40b6d3:	39 4c 24 1c          	cmp    %ecx,0x1c(%esp)
  40b6d7:	7f da                	jg     40b6b3 <___multadd_D2A+0x33>
  40b6d9:	89 ea                	mov    %ebp,%edx
  40b6db:	8b 44 24 40          	mov    0x40(%esp),%eax
  40b6df:	09 fa                	or     %edi,%edx
  40b6e1:	74 1d                	je     40b700 <___multadd_D2A+0x80>
  40b6e3:	8b 54 24 1c          	mov    0x1c(%esp),%edx
  40b6e7:	3b 50 08             	cmp    0x8(%eax),%edx
  40b6ea:	7d 1c                	jge    40b708 <___multadd_D2A+0x88>
  40b6ec:	8b 54 24 40          	mov    0x40(%esp),%edx
  40b6f0:	8b 44 24 1c          	mov    0x1c(%esp),%eax
  40b6f4:	89 7c 82 14          	mov    %edi,0x14(%edx,%eax,4)
  40b6f8:	83 c0 01             	add    $0x1,%eax
  40b6fb:	89 42 10             	mov    %eax,0x10(%edx)
  40b6fe:	89 d0                	mov    %edx,%eax
  40b700:	83 c4 2c             	add    $0x2c,%esp
  40b703:	5b                   	pop    %ebx
  40b704:	5e                   	pop    %esi
  40b705:	5f                   	pop    %edi
  40b706:	5d                   	pop    %ebp
  40b707:	c3                   	ret    
  40b708:	8b 40 04             	mov    0x4(%eax),%eax
  40b70b:	89 44 24 10          	mov    %eax,0x10(%esp)
  40b70f:	83 c0 01             	add    $0x1,%eax
  40b712:	89 04 24             	mov    %eax,(%esp)
  40b715:	e8 26 fe ff ff       	call   40b540 <___Balloc_D2A>
  40b71a:	85 c0                	test   %eax,%eax
  40b71c:	89 c3                	mov    %eax,%ebx
  40b71e:	74 3a                	je     40b75a <___multadd_D2A+0xda>
  40b720:	8d 48 0c             	lea    0xc(%eax),%ecx
  40b723:	8b 44 24 40          	mov    0x40(%esp),%eax
  40b727:	8b 40 10             	mov    0x10(%eax),%eax
  40b72a:	89 0c 24             	mov    %ecx,(%esp)
  40b72d:	8d 14 85 08 00 00 00 	lea    0x8(,%eax,4),%edx
  40b734:	8b 44 24 40          	mov    0x40(%esp),%eax
  40b738:	89 54 24 08          	mov    %edx,0x8(%esp)
  40b73c:	83 c0 0c             	add    $0xc,%eax
  40b73f:	89 44 24 04          	mov    %eax,0x4(%esp)
  40b743:	e8 10 0a 00 00       	call   40c158 <_memcpy>
  40b748:	8b 44 24 40          	mov    0x40(%esp),%eax
  40b74c:	89 04 24             	mov    %eax,(%esp)
  40b74f:	e8 bc fe ff ff       	call   40b610 <___Bfree_D2A>
  40b754:	89 5c 24 40          	mov    %ebx,0x40(%esp)
  40b758:	eb 92                	jmp    40b6ec <___multadd_D2A+0x6c>
  40b75a:	31 c0                	xor    %eax,%eax
  40b75c:	eb a2                	jmp    40b700 <___multadd_D2A+0x80>
  40b75e:	66 90                	xchg   %ax,%ax

0040b760 <___i2b_D2A>:
  40b760:	83 ec 1c             	sub    $0x1c,%esp
  40b763:	c7 04 24 01 00 00 00 	movl   $0x1,(%esp)
  40b76a:	e8 d1 fd ff ff       	call   40b540 <___Balloc_D2A>
  40b76f:	85 c0                	test   %eax,%eax
  40b771:	74 0e                	je     40b781 <___i2b_D2A+0x21>
  40b773:	8b 54 24 20          	mov    0x20(%esp),%edx
  40b777:	c7 40 10 01 00 00 00 	movl   $0x1,0x10(%eax)
  40b77e:	89 50 14             	mov    %edx,0x14(%eax)
  40b781:	83 c4 1c             	add    $0x1c,%esp
  40b784:	c3                   	ret    
  40b785:	8d 74 26 00          	lea    0x0(%esi,%eiz,1),%esi
  40b789:	8d bc 27 00 00 00 00 	lea    0x0(%edi,%eiz,1),%edi

0040b790 <___mult_D2A>:
  40b790:	55                   	push   %ebp
  40b791:	57                   	push   %edi
  40b792:	56                   	push   %esi
  40b793:	53                   	push   %ebx
  40b794:	83 ec 3c             	sub    $0x3c,%esp
  40b797:	8b 7c 24 50          	mov    0x50(%esp),%edi
  40b79b:	8b 6c 24 54          	mov    0x54(%esp),%ebp
  40b79f:	8b 77 10             	mov    0x10(%edi),%esi
  40b7a2:	8b 5d 10             	mov    0x10(%ebp),%ebx
  40b7a5:	39 de                	cmp    %ebx,%esi
  40b7a7:	7d 0c                	jge    40b7b5 <___mult_D2A+0x25>
  40b7a9:	89 f0                	mov    %esi,%eax
  40b7ab:	89 de                	mov    %ebx,%esi
  40b7ad:	89 c3                	mov    %eax,%ebx
  40b7af:	89 f8                	mov    %edi,%eax
  40b7b1:	89 ef                	mov    %ebp,%edi
  40b7b3:	89 c5                	mov    %eax,%ebp
  40b7b5:	8d 04 1e             	lea    (%esi,%ebx,1),%eax
  40b7b8:	3b 47 08             	cmp    0x8(%edi),%eax
  40b7bb:	89 44 24 20          	mov    %eax,0x20(%esp)
  40b7bf:	0f 9f c0             	setg   %al
  40b7c2:	0f b6 c0             	movzbl %al,%eax
  40b7c5:	03 47 04             	add    0x4(%edi),%eax
  40b7c8:	89 04 24             	mov    %eax,(%esp)
  40b7cb:	e8 70 fd ff ff       	call   40b540 <___Balloc_D2A>
  40b7d0:	85 c0                	test   %eax,%eax
  40b7d2:	89 44 24 2c          	mov    %eax,0x2c(%esp)
  40b7d6:	0f 84 08 01 00 00    	je     40b8e4 <___mult_D2A+0x154>
  40b7dc:	8b 4c 24 20          	mov    0x20(%esp),%ecx
  40b7e0:	8d 40 14             	lea    0x14(%eax),%eax
  40b7e3:	89 44 24 18          	mov    %eax,0x18(%esp)
  40b7e7:	8d 0c 88             	lea    (%eax,%ecx,4),%ecx
  40b7ea:	89 ca                	mov    %ecx,%edx
  40b7ec:	39 d0                	cmp    %edx,%eax
  40b7ee:	89 4c 24 28          	mov    %ecx,0x28(%esp)
  40b7f2:	73 11                	jae    40b805 <___mult_D2A+0x75>
  40b7f4:	8b 54 24 28          	mov    0x28(%esp),%edx
  40b7f8:	c7 00 00 00 00 00    	movl   $0x0,(%eax)
  40b7fe:	83 c0 04             	add    $0x4,%eax
  40b801:	39 c2                	cmp    %eax,%edx
  40b803:	77 f3                	ja     40b7f8 <___mult_D2A+0x68>
  40b805:	8d 47 14             	lea    0x14(%edi),%eax
  40b808:	89 44 24 24          	mov    %eax,0x24(%esp)
  40b80c:	8d 04 b0             	lea    (%eax,%esi,4),%eax
  40b80f:	89 44 24 10          	mov    %eax,0x10(%esp)
  40b813:	8d 45 14             	lea    0x14(%ebp),%eax
  40b816:	8d 1c 98             	lea    (%eax,%ebx,4),%ebx
  40b819:	39 d8                	cmp    %ebx,%eax
  40b81b:	89 44 24 14          	mov    %eax,0x14(%esp)
  40b81f:	89 5c 24 1c          	mov    %ebx,0x1c(%esp)
  40b823:	73 74                	jae    40b899 <___mult_D2A+0x109>
  40b825:	83 44 24 14 04       	addl   $0x4,0x14(%esp)
  40b82a:	8b 44 24 14          	mov    0x14(%esp),%eax
  40b82e:	8b 68 fc             	mov    -0x4(%eax),%ebp
  40b831:	85 ed                	test   %ebp,%ebp
  40b833:	74 55                	je     40b88a <___mult_D2A+0xfa>
  40b835:	8b 7c 24 18          	mov    0x18(%esp),%edi
  40b839:	8b 74 24 24          	mov    0x24(%esp),%esi
  40b83d:	c7 44 24 08 00 00 00 	movl   $0x0,0x8(%esp)
  40b844:	00 
  40b845:	c7 44 24 0c 00 00 00 	movl   $0x0,0xc(%esp)
  40b84c:	00 
  40b84d:	eb 03                	jmp    40b852 <___mult_D2A+0xc2>
  40b84f:	90                   	nop
  40b850:	89 c7                	mov    %eax,%edi
  40b852:	83 c6 04             	add    $0x4,%esi
  40b855:	8b 0f                	mov    (%edi),%ecx
  40b857:	89 e8                	mov    %ebp,%eax
  40b859:	f7 66 fc             	mull   -0x4(%esi)
  40b85c:	31 db                	xor    %ebx,%ebx
  40b85e:	01 c1                	add    %eax,%ecx
  40b860:	11 d3                	adc    %edx,%ebx
  40b862:	03 4c 24 08          	add    0x8(%esp),%ecx
  40b866:	13 5c 24 0c          	adc    0xc(%esp),%ebx
  40b86a:	89 0f                	mov    %ecx,(%edi)
  40b86c:	89 da                	mov    %ebx,%edx
  40b86e:	89 d0                	mov    %edx,%eax
  40b870:	31 d2                	xor    %edx,%edx
  40b872:	39 74 24 10          	cmp    %esi,0x10(%esp)
  40b876:	89 44 24 08          	mov    %eax,0x8(%esp)
  40b87a:	8d 47 04             	lea    0x4(%edi),%eax
  40b87d:	89 54 24 0c          	mov    %edx,0xc(%esp)
  40b881:	77 cd                	ja     40b850 <___mult_D2A+0xc0>
  40b883:	8b 44 24 08          	mov    0x8(%esp),%eax
  40b887:	89 47 04             	mov    %eax,0x4(%edi)
  40b88a:	8b 44 24 14          	mov    0x14(%esp),%eax
  40b88e:	83 44 24 18 04       	addl   $0x4,0x18(%esp)
  40b893:	39 44 24 1c          	cmp    %eax,0x1c(%esp)
  40b897:	77 8c                	ja     40b825 <___mult_D2A+0x95>
  40b899:	8b 7c 24 20          	mov    0x20(%esp),%edi
  40b89d:	85 ff                	test   %edi,%edi
  40b89f:	7e 30                	jle    40b8d1 <___mult_D2A+0x141>
  40b8a1:	8b 5c 24 28          	mov    0x28(%esp),%ebx
  40b8a5:	8b 73 fc             	mov    -0x4(%ebx),%esi
  40b8a8:	85 f6                	test   %esi,%esi
  40b8aa:	75 25                	jne    40b8d1 <___mult_D2A+0x141>
  40b8ac:	8b 54 24 20          	mov    0x20(%esp),%edx
  40b8b0:	89 d0                	mov    %edx,%eax
  40b8b2:	c1 e0 02             	shl    $0x2,%eax
  40b8b5:	29 c3                	sub    %eax,%ebx
  40b8b7:	89 d8                	mov    %ebx,%eax
  40b8b9:	eb 0d                	jmp    40b8c8 <___mult_D2A+0x138>
  40b8bb:	90                   	nop
  40b8bc:	8d 74 26 00          	lea    0x0(%esi,%eiz,1),%esi
  40b8c0:	8b 4c 90 fc          	mov    -0x4(%eax,%edx,4),%ecx
  40b8c4:	85 c9                	test   %ecx,%ecx
  40b8c6:	75 05                	jne    40b8cd <___mult_D2A+0x13d>
  40b8c8:	83 ea 01             	sub    $0x1,%edx
  40b8cb:	75 f3                	jne    40b8c0 <___mult_D2A+0x130>
  40b8cd:	89 54 24 20          	mov    %edx,0x20(%esp)
  40b8d1:	8b 44 24 2c          	mov    0x2c(%esp),%eax
  40b8d5:	8b 5c 24 20          	mov    0x20(%esp),%ebx
  40b8d9:	89 58 10             	mov    %ebx,0x10(%eax)
  40b8dc:	83 c4 3c             	add    $0x3c,%esp
  40b8df:	5b                   	pop    %ebx
  40b8e0:	5e                   	pop    %esi
  40b8e1:	5f                   	pop    %edi
  40b8e2:	5d                   	pop    %ebp
  40b8e3:	c3                   	ret    
  40b8e4:	31 c0                	xor    %eax,%eax
  40b8e6:	eb f4                	jmp    40b8dc <___mult_D2A+0x14c>
  40b8e8:	90                   	nop
  40b8e9:	8d b4 26 00 00 00 00 	lea    0x0(%esi,%eiz,1),%esi

0040b8f0 <___pow5mult_D2A>:
  40b8f0:	55                   	push   %ebp
  40b8f1:	89 e5                	mov    %esp,%ebp
  40b8f3:	57                   	push   %edi
  40b8f4:	56                   	push   %esi
  40b8f5:	53                   	push   %ebx
  40b8f6:	83 ec 1c             	sub    $0x1c,%esp
  40b8f9:	8b 5d 0c             	mov    0xc(%ebp),%ebx
  40b8fc:	8b 55 08             	mov    0x8(%ebp),%edx
  40b8ff:	89 d8                	mov    %ebx,%eax
  40b901:	83 e0 03             	and    $0x3,%eax
  40b904:	0f 85 9e 00 00 00    	jne    40b9a8 <___pow5mult_D2A+0xb8>
  40b90a:	c1 fb 02             	sar    $0x2,%ebx
  40b90d:	89 d0                	mov    %edx,%eax
  40b90f:	85 db                	test   %ebx,%ebx
  40b911:	74 4e                	je     40b961 <___pow5mult_D2A+0x71>
  40b913:	8b 3d a0 10 41 00    	mov    0x4110a0,%edi
  40b919:	85 ff                	test   %edi,%edi
  40b91b:	0f 84 d5 00 00 00    	je     40b9f6 <___pow5mult_D2A+0x106>
  40b921:	f6 c3 01             	test   $0x1,%bl
  40b924:	75 13                	jne    40b939 <___pow5mult_D2A+0x49>
  40b926:	d1 fb                	sar    %ebx
  40b928:	74 35                	je     40b95f <___pow5mult_D2A+0x6f>
  40b92a:	8b 37                	mov    (%edi),%esi
  40b92c:	85 f6                	test   %esi,%esi
  40b92e:	66 90                	xchg   %ax,%ax
  40b930:	74 3e                	je     40b970 <___pow5mult_D2A+0x80>
  40b932:	89 f7                	mov    %esi,%edi
  40b934:	f6 c3 01             	test   $0x1,%bl
  40b937:	74 ed                	je     40b926 <___pow5mult_D2A+0x36>
  40b939:	89 7c 24 04          	mov    %edi,0x4(%esp)
  40b93d:	89 14 24             	mov    %edx,(%esp)
  40b940:	89 55 e4             	mov    %edx,-0x1c(%ebp)
  40b943:	e8 48 fe ff ff       	call   40b790 <___mult_D2A>
  40b948:	85 c0                	test   %eax,%eax
  40b94a:	89 c6                	mov    %eax,%esi
  40b94c:	74 7f                	je     40b9cd <___pow5mult_D2A+0xdd>
  40b94e:	8b 55 e4             	mov    -0x1c(%ebp),%edx
  40b951:	89 14 24             	mov    %edx,(%esp)
  40b954:	e8 b7 fc ff ff       	call   40b610 <___Bfree_D2A>
  40b959:	d1 fb                	sar    %ebx
  40b95b:	89 f2                	mov    %esi,%edx
  40b95d:	75 cb                	jne    40b92a <___pow5mult_D2A+0x3a>
  40b95f:	89 d0                	mov    %edx,%eax
  40b961:	8d 65 f4             	lea    -0xc(%ebp),%esp
  40b964:	5b                   	pop    %ebx
  40b965:	5e                   	pop    %esi
  40b966:	5f                   	pop    %edi
  40b967:	5d                   	pop    %ebp
  40b968:	c3                   	ret    
  40b969:	8d b4 26 00 00 00 00 	lea    0x0(%esi,%eiz,1),%esi
  40b970:	b8 01 00 00 00       	mov    $0x1,%eax
  40b975:	89 55 e4             	mov    %edx,-0x1c(%ebp)
  40b978:	e8 a3 fa ff ff       	call   40b420 <_dtoa_lock>
  40b97d:	8b 37                	mov    (%edi),%esi
  40b97f:	8b 55 e4             	mov    -0x1c(%ebp),%edx
  40b982:	85 f6                	test   %esi,%esi
  40b984:	74 51                	je     40b9d7 <___pow5mult_D2A+0xe7>
  40b986:	83 3d e8 19 41 00 02 	cmpl   $0x2,0x4119e8
  40b98d:	75 a3                	jne    40b932 <___pow5mult_D2A+0x42>
  40b98f:	c7 04 24 18 1a 41 00 	movl   $0x411a18,(%esp)
  40b996:	89 f7                	mov    %esi,%edi
  40b998:	89 55 e4             	mov    %edx,-0x1c(%ebp)
  40b99b:	e8 88 08 00 00       	call   40c228 <_LeaveCriticalSection@4>
  40b9a0:	8b 55 e4             	mov    -0x1c(%ebp),%edx
  40b9a3:	83 ec 04             	sub    $0x4,%esp
  40b9a6:	eb 8c                	jmp    40b934 <___pow5mult_D2A+0x44>
  40b9a8:	8b 04 85 5c e3 40 00 	mov    0x40e35c(,%eax,4),%eax
  40b9af:	89 14 24             	mov    %edx,(%esp)
  40b9b2:	c7 44 24 08 00 00 00 	movl   $0x0,0x8(%esp)
  40b9b9:	00 
  40b9ba:	89 44 24 04          	mov    %eax,0x4(%esp)
  40b9be:	e8 bd fc ff ff       	call   40b680 <___multadd_D2A>
  40b9c3:	85 c0                	test   %eax,%eax
  40b9c5:	89 c2                	mov    %eax,%edx
  40b9c7:	0f 85 3d ff ff ff    	jne    40b90a <___pow5mult_D2A+0x1a>
  40b9cd:	31 c0                	xor    %eax,%eax
  40b9cf:	8d 65 f4             	lea    -0xc(%ebp),%esp
  40b9d2:	5b                   	pop    %ebx
  40b9d3:	5e                   	pop    %esi
  40b9d4:	5f                   	pop    %edi
  40b9d5:	5d                   	pop    %ebp
  40b9d6:	c3                   	ret    
  40b9d7:	89 7c 24 04          	mov    %edi,0x4(%esp)
  40b9db:	89 3c 24             	mov    %edi,(%esp)
  40b9de:	e8 ad fd ff ff       	call   40b790 <___mult_D2A>
  40b9e3:	85 c0                	test   %eax,%eax
  40b9e5:	89 c6                	mov    %eax,%esi
  40b9e7:	89 07                	mov    %eax,(%edi)
  40b9e9:	74 e2                	je     40b9cd <___pow5mult_D2A+0xdd>
  40b9eb:	c7 00 00 00 00 00    	movl   $0x0,(%eax)
  40b9f1:	8b 55 e4             	mov    -0x1c(%ebp),%edx
  40b9f4:	eb 90                	jmp    40b986 <___pow5mult_D2A+0x96>
  40b9f6:	b8 01 00 00 00       	mov    $0x1,%eax
  40b9fb:	89 55 e4             	mov    %edx,-0x1c(%ebp)
  40b9fe:	e8 1d fa ff ff       	call   40b420 <_dtoa_lock>
  40ba03:	8b 3d a0 10 41 00    	mov    0x4110a0,%edi
  40ba09:	8b 55 e4             	mov    -0x1c(%ebp),%edx
  40ba0c:	85 ff                	test   %edi,%edi
  40ba0e:	74 27                	je     40ba37 <___pow5mult_D2A+0x147>
  40ba10:	83 3d e8 19 41 00 02 	cmpl   $0x2,0x4119e8
  40ba17:	0f 85 04 ff ff ff    	jne    40b921 <___pow5mult_D2A+0x31>
  40ba1d:	c7 04 24 18 1a 41 00 	movl   $0x411a18,(%esp)
  40ba24:	89 55 e4             	mov    %edx,-0x1c(%ebp)
  40ba27:	e8 fc 07 00 00       	call   40c228 <_LeaveCriticalSection@4>
  40ba2c:	8b 55 e4             	mov    -0x1c(%ebp),%edx
  40ba2f:	83 ec 04             	sub    $0x4,%esp
  40ba32:	e9 ea fe ff ff       	jmp    40b921 <___pow5mult_D2A+0x31>
  40ba37:	c7 04 24 01 00 00 00 	movl   $0x1,(%esp)
  40ba3e:	e8 fd fa ff ff       	call   40b540 <___Balloc_D2A>
  40ba43:	85 c0                	test   %eax,%eax
  40ba45:	89 c7                	mov    %eax,%edi
  40ba47:	74 1e                	je     40ba67 <___pow5mult_D2A+0x177>
  40ba49:	c7 40 14 71 02 00 00 	movl   $0x271,0x14(%eax)
  40ba50:	8b 55 e4             	mov    -0x1c(%ebp),%edx
  40ba53:	c7 40 10 01 00 00 00 	movl   $0x1,0x10(%eax)
  40ba5a:	a3 a0 10 41 00       	mov    %eax,0x4110a0
  40ba5f:	c7 00 00 00 00 00    	movl   $0x0,(%eax)
  40ba65:	eb a9                	jmp    40ba10 <___pow5mult_D2A+0x120>
  40ba67:	c7 05 a0 10 41 00 00 	movl   $0x0,0x4110a0
  40ba6e:	00 00 00 
  40ba71:	31 c0                	xor    %eax,%eax
  40ba73:	e9 57 ff ff ff       	jmp    40b9cf <___pow5mult_D2A+0xdf>
  40ba78:	90                   	nop
  40ba79:	8d b4 26 00 00 00 00 	lea    0x0(%esi,%eiz,1),%esi

0040ba80 <___lshift_D2A>:
  40ba80:	55                   	push   %ebp
  40ba81:	57                   	push   %edi
  40ba82:	56                   	push   %esi
  40ba83:	53                   	push   %ebx
  40ba84:	83 ec 2c             	sub    $0x2c,%esp
  40ba87:	8b 44 24 40          	mov    0x40(%esp),%eax
  40ba8b:	8b 74 24 44          	mov    0x44(%esp),%esi
  40ba8f:	89 c7                	mov    %eax,%edi
  40ba91:	8b 50 04             	mov    0x4(%eax),%edx
  40ba94:	8b 40 10             	mov    0x10(%eax),%eax
  40ba97:	89 f3                	mov    %esi,%ebx
  40ba99:	c1 fb 05             	sar    $0x5,%ebx
  40ba9c:	01 d8                	add    %ebx,%eax
  40ba9e:	8d 68 01             	lea    0x1(%eax),%ebp
  40baa1:	89 44 24 18          	mov    %eax,0x18(%esp)
  40baa5:	8b 47 08             	mov    0x8(%edi),%eax
  40baa8:	39 c5                	cmp    %eax,%ebp
  40baaa:	7e 0d                	jle    40bab9 <___lshift_D2A+0x39>
  40baac:	8d 74 26 00          	lea    0x0(%esi,%eiz,1),%esi
  40bab0:	01 c0                	add    %eax,%eax
  40bab2:	83 c2 01             	add    $0x1,%edx
  40bab5:	39 c5                	cmp    %eax,%ebp
  40bab7:	7f f7                	jg     40bab0 <___lshift_D2A+0x30>
  40bab9:	89 14 24             	mov    %edx,(%esp)
  40babc:	e8 7f fa ff ff       	call   40b540 <___Balloc_D2A>
  40bac1:	85 c0                	test   %eax,%eax
  40bac3:	89 44 24 14          	mov    %eax,0x14(%esp)
  40bac7:	0f 84 bc 00 00 00    	je     40bb89 <___lshift_D2A+0x109>
  40bacd:	85 db                	test   %ebx,%ebx
  40bacf:	8d 50 14             	lea    0x14(%eax),%edx
  40bad2:	7e 13                	jle    40bae7 <___lshift_D2A+0x67>
  40bad4:	31 c0                	xor    %eax,%eax
  40bad6:	c7 04 82 00 00 00 00 	movl   $0x0,(%edx,%eax,4)
  40badd:	83 c0 01             	add    $0x1,%eax
  40bae0:	39 d8                	cmp    %ebx,%eax
  40bae2:	75 f2                	jne    40bad6 <___lshift_D2A+0x56>
  40bae4:	8d 14 82             	lea    (%edx,%eax,4),%edx
  40bae7:	8b 7c 24 40          	mov    0x40(%esp),%edi
  40baeb:	8b 44 24 40          	mov    0x40(%esp),%eax
  40baef:	8b 4f 10             	mov    0x10(%edi),%ecx
  40baf2:	83 c0 14             	add    $0x14,%eax
  40baf5:	83 e6 1f             	and    $0x1f,%esi
  40baf8:	89 74 24 0c          	mov    %esi,0xc(%esp)
  40bafc:	8d 3c 88             	lea    (%eax,%ecx,4),%edi
  40baff:	89 f9                	mov    %edi,%ecx
  40bb01:	74 72                	je     40bb75 <___lshift_D2A+0xf5>
  40bb03:	c7 44 24 10 20 00 00 	movl   $0x20,0x10(%esp)
  40bb0a:	00 
  40bb0b:	89 6c 24 1c          	mov    %ebp,0x1c(%esp)
  40bb0f:	89 cd                	mov    %ecx,%ebp
  40bb11:	29 74 24 10          	sub    %esi,0x10(%esp)
  40bb15:	31 f6                	xor    %esi,%esi
  40bb17:	eb 09                	jmp    40bb22 <___lshift_D2A+0xa2>
  40bb19:	8d b4 26 00 00 00 00 	lea    0x0(%esi,%eiz,1),%esi
  40bb20:	89 fa                	mov    %edi,%edx
  40bb22:	8b 18                	mov    (%eax),%ebx
  40bb24:	83 c0 04             	add    $0x4,%eax
  40bb27:	0f b6 4c 24 0c       	movzbl 0xc(%esp),%ecx
  40bb2c:	8d 7a 04             	lea    0x4(%edx),%edi
  40bb2f:	d3 e3                	shl    %cl,%ebx
  40bb31:	0f b6 4c 24 10       	movzbl 0x10(%esp),%ecx
  40bb36:	09 f3                	or     %esi,%ebx
  40bb38:	89 1a                	mov    %ebx,(%edx)
  40bb3a:	8b 70 fc             	mov    -0x4(%eax),%esi
  40bb3d:	d3 ee                	shr    %cl,%esi
  40bb3f:	39 c5                	cmp    %eax,%ebp
  40bb41:	77 dd                	ja     40bb20 <___lshift_D2A+0xa0>
  40bb43:	85 f6                	test   %esi,%esi
  40bb45:	8b 6c 24 1c          	mov    0x1c(%esp),%ebp
  40bb49:	89 72 04             	mov    %esi,0x4(%edx)
  40bb4c:	74 07                	je     40bb55 <___lshift_D2A+0xd5>
  40bb4e:	8b 6c 24 18          	mov    0x18(%esp),%ebp
  40bb52:	83 c5 02             	add    $0x2,%ebp
  40bb55:	8b 7c 24 14          	mov    0x14(%esp),%edi
  40bb59:	8d 45 ff             	lea    -0x1(%ebp),%eax
  40bb5c:	89 47 10             	mov    %eax,0x10(%edi)
  40bb5f:	8b 44 24 40          	mov    0x40(%esp),%eax
  40bb63:	89 04 24             	mov    %eax,(%esp)
  40bb66:	e8 a5 fa ff ff       	call   40b610 <___Bfree_D2A>
  40bb6b:	89 f8                	mov    %edi,%eax
  40bb6d:	83 c4 2c             	add    $0x2c,%esp
  40bb70:	5b                   	pop    %ebx
  40bb71:	5e                   	pop    %esi
  40bb72:	5f                   	pop    %edi
  40bb73:	5d                   	pop    %ebp
  40bb74:	c3                   	ret    
  40bb75:	89 fb                	mov    %edi,%ebx
  40bb77:	83 c0 04             	add    $0x4,%eax
  40bb7a:	8b 48 fc             	mov    -0x4(%eax),%ecx
  40bb7d:	83 c2 04             	add    $0x4,%edx
  40bb80:	39 c3                	cmp    %eax,%ebx
  40bb82:	89 4a fc             	mov    %ecx,-0x4(%edx)
  40bb85:	77 f0                	ja     40bb77 <___lshift_D2A+0xf7>
  40bb87:	eb cc                	jmp    40bb55 <___lshift_D2A+0xd5>
  40bb89:	31 c0                	xor    %eax,%eax
  40bb8b:	eb e0                	jmp    40bb6d <___lshift_D2A+0xed>
  40bb8d:	8d 76 00             	lea    0x0(%esi),%esi

0040bb90 <___cmp_D2A>:
  40bb90:	53                   	push   %ebx
  40bb91:	8b 4c 24 08          	mov    0x8(%esp),%ecx
  40bb95:	8b 54 24 0c          	mov    0xc(%esp),%edx
  40bb99:	8b 41 10             	mov    0x10(%ecx),%eax
  40bb9c:	8b 5a 10             	mov    0x10(%edx),%ebx
  40bb9f:	29 d8                	sub    %ebx,%eax
  40bba1:	85 c0                	test   %eax,%eax
  40bba3:	75 24                	jne    40bbc9 <___cmp_D2A+0x39>
  40bba5:	c1 e3 02             	shl    $0x2,%ebx
  40bba8:	83 c1 14             	add    $0x14,%ecx
  40bbab:	8d 04 19             	lea    (%ecx,%ebx,1),%eax
  40bbae:	8d 54 1a 14          	lea    0x14(%edx,%ebx,1),%edx
  40bbb2:	eb 04                	jmp    40bbb8 <___cmp_D2A+0x28>
  40bbb4:	39 c1                	cmp    %eax,%ecx
  40bbb6:	73 18                	jae    40bbd0 <___cmp_D2A+0x40>
  40bbb8:	83 ea 04             	sub    $0x4,%edx
  40bbbb:	83 e8 04             	sub    $0x4,%eax
  40bbbe:	8b 1a                	mov    (%edx),%ebx
  40bbc0:	39 18                	cmp    %ebx,(%eax)
  40bbc2:	74 f0                	je     40bbb4 <___cmp_D2A+0x24>
  40bbc4:	19 c0                	sbb    %eax,%eax
  40bbc6:	83 c8 01             	or     $0x1,%eax
  40bbc9:	5b                   	pop    %ebx
  40bbca:	c3                   	ret    
  40bbcb:	90                   	nop
  40bbcc:	8d 74 26 00          	lea    0x0(%esi,%eiz,1),%esi
  40bbd0:	31 c0                	xor    %eax,%eax
  40bbd2:	5b                   	pop    %ebx
  40bbd3:	c3                   	ret    
  40bbd4:	8d b6 00 00 00 00    	lea    0x0(%esi),%esi
  40bbda:	8d bf 00 00 00 00    	lea    0x0(%edi),%edi

0040bbe0 <___diff_D2A>:
  40bbe0:	55                   	push   %ebp
  40bbe1:	57                   	push   %edi
  40bbe2:	56                   	push   %esi
  40bbe3:	53                   	push   %ebx
  40bbe4:	83 ec 2c             	sub    $0x2c,%esp
  40bbe7:	8b 74 24 40          	mov    0x40(%esp),%esi
  40bbeb:	8b 5c 24 44          	mov    0x44(%esp),%ebx
  40bbef:	89 34 24             	mov    %esi,(%esp)
  40bbf2:	89 5c 24 04          	mov    %ebx,0x4(%esp)
  40bbf6:	e8 95 ff ff ff       	call   40bb90 <___cmp_D2A>
  40bbfb:	85 c0                	test   %eax,%eax
  40bbfd:	0f 84 1f 01 00 00    	je     40bd22 <___diff_D2A+0x142>
  40bc03:	0f 88 3f 01 00 00    	js     40bd48 <___diff_D2A+0x168>
  40bc09:	31 ff                	xor    %edi,%edi
  40bc0b:	8b 46 04             	mov    0x4(%esi),%eax
  40bc0e:	89 04 24             	mov    %eax,(%esp)
  40bc11:	e8 2a f9 ff ff       	call   40b540 <___Balloc_D2A>
  40bc16:	85 c0                	test   %eax,%eax
  40bc18:	89 c2                	mov    %eax,%edx
  40bc1a:	89 44 24 1c          	mov    %eax,0x1c(%esp)
  40bc1e:	0f 84 34 01 00 00    	je     40bd58 <___diff_D2A+0x178>
  40bc24:	89 78 0c             	mov    %edi,0xc(%eax)
  40bc27:	8b 46 10             	mov    0x10(%esi),%eax
  40bc2a:	83 c6 14             	add    $0x14,%esi
  40bc2d:	8d 6b 14             	lea    0x14(%ebx),%ebp
  40bc30:	8d 7a 14             	lea    0x14(%edx),%edi
  40bc33:	c7 44 24 08 00 00 00 	movl   $0x0,0x8(%esp)
  40bc3a:	00 
  40bc3b:	89 44 24 18          	mov    %eax,0x18(%esp)
  40bc3f:	8d 04 86             	lea    (%esi,%eax,4),%eax
  40bc42:	89 44 24 10          	mov    %eax,0x10(%esp)
  40bc46:	8b 43 10             	mov    0x10(%ebx),%eax
  40bc49:	c7 44 24 0c 00 00 00 	movl   $0x0,0xc(%esp)
  40bc50:	00 
  40bc51:	8d 44 85 00          	lea    0x0(%ebp,%eax,4),%eax
  40bc55:	89 44 24 14          	mov    %eax,0x14(%esp)
  40bc59:	8d b4 26 00 00 00 00 	lea    0x0(%esi,%eiz,1),%esi
  40bc60:	83 c5 04             	add    $0x4,%ebp
  40bc63:	83 c6 04             	add    $0x4,%esi
  40bc66:	8b 4d fc             	mov    -0x4(%ebp),%ecx
  40bc69:	8b 46 fc             	mov    -0x4(%esi),%eax
  40bc6c:	31 d2                	xor    %edx,%edx
  40bc6e:	31 db                	xor    %ebx,%ebx
  40bc70:	29 c8                	sub    %ecx,%eax
  40bc72:	19 da                	sbb    %ebx,%edx
  40bc74:	2b 44 24 08          	sub    0x8(%esp),%eax
  40bc78:	1b 54 24 0c          	sbb    0xc(%esp),%edx
  40bc7c:	83 c7 04             	add    $0x4,%edi
  40bc7f:	c7 44 24 0c 00 00 00 	movl   $0x0,0xc(%esp)
  40bc86:	00 
  40bc87:	89 d1                	mov    %edx,%ecx
  40bc89:	83 e1 01             	and    $0x1,%ecx
  40bc8c:	39 6c 24 14          	cmp    %ebp,0x14(%esp)
  40bc90:	89 4c 24 08          	mov    %ecx,0x8(%esp)
  40bc94:	89 47 fc             	mov    %eax,-0x4(%edi)
  40bc97:	77 c7                	ja     40bc60 <___diff_D2A+0x80>
  40bc99:	39 74 24 10          	cmp    %esi,0x10(%esp)
  40bc9d:	76 4b                	jbe    40bcea <___diff_D2A+0x10a>
  40bc9f:	8b 5c 24 0c          	mov    0xc(%esp),%ebx
  40bca3:	8b 4c 24 08          	mov    0x8(%esp),%ecx
  40bca7:	89 7c 24 14          	mov    %edi,0x14(%esp)
  40bcab:	89 74 24 08          	mov    %esi,0x8(%esp)
  40bcaf:	90                   	nop
  40bcb0:	83 c6 04             	add    $0x4,%esi
  40bcb3:	8b 46 fc             	mov    -0x4(%esi),%eax
  40bcb6:	31 d2                	xor    %edx,%edx
  40bcb8:	29 c8                	sub    %ecx,%eax
  40bcba:	19 da                	sbb    %ebx,%edx
  40bcbc:	83 c7 04             	add    $0x4,%edi
  40bcbf:	89 d5                	mov    %edx,%ebp
  40bcc1:	31 db                	xor    %ebx,%ebx
  40bcc3:	83 e5 01             	and    $0x1,%ebp
  40bcc6:	39 74 24 10          	cmp    %esi,0x10(%esp)
  40bcca:	89 e9                	mov    %ebp,%ecx
  40bccc:	89 47 fc             	mov    %eax,-0x4(%edi)
  40bccf:	77 df                	ja     40bcb0 <___diff_D2A+0xd0>
  40bcd1:	8b 6c 24 08          	mov    0x8(%esp),%ebp
  40bcd5:	8b 7c 24 10          	mov    0x10(%esp),%edi
  40bcd9:	8b 5c 24 14          	mov    0x14(%esp),%ebx
  40bcdd:	f7 d5                	not    %ebp
  40bcdf:	8d 54 3d 00          	lea    0x0(%ebp,%edi,1),%edx
  40bce3:	c1 ea 02             	shr    $0x2,%edx
  40bce6:	8d 7c 93 04          	lea    0x4(%ebx,%edx,4),%edi
  40bcea:	85 c0                	test   %eax,%eax
  40bcec:	75 21                	jne    40bd0f <___diff_D2A+0x12f>
  40bcee:	8b 54 24 18          	mov    0x18(%esp),%edx
  40bcf2:	89 d0                	mov    %edx,%eax
  40bcf4:	c1 e0 02             	shl    $0x2,%eax
  40bcf7:	29 c7                	sub    %eax,%edi
  40bcf9:	89 d0                	mov    %edx,%eax
  40bcfb:	90                   	nop
  40bcfc:	8d 74 26 00          	lea    0x0(%esi,%eiz,1),%esi
  40bd00:	83 e8 01             	sub    $0x1,%eax
  40bd03:	8b 6c 87 fc          	mov    -0x4(%edi,%eax,4),%ebp
  40bd07:	85 ed                	test   %ebp,%ebp
  40bd09:	74 f5                	je     40bd00 <___diff_D2A+0x120>
  40bd0b:	89 44 24 18          	mov    %eax,0x18(%esp)
  40bd0f:	8b 44 24 1c          	mov    0x1c(%esp),%eax
  40bd13:	8b 54 24 18          	mov    0x18(%esp),%edx
  40bd17:	89 50 10             	mov    %edx,0x10(%eax)
  40bd1a:	83 c4 2c             	add    $0x2c,%esp
  40bd1d:	5b                   	pop    %ebx
  40bd1e:	5e                   	pop    %esi
  40bd1f:	5f                   	pop    %edi
  40bd20:	5d                   	pop    %ebp
  40bd21:	c3                   	ret    
  40bd22:	c7 04 24 00 00 00 00 	movl   $0x0,(%esp)
  40bd29:	e8 12 f8 ff ff       	call   40b540 <___Balloc_D2A>
  40bd2e:	85 c0                	test   %eax,%eax
  40bd30:	74 26                	je     40bd58 <___diff_D2A+0x178>
  40bd32:	c7 40 10 01 00 00 00 	movl   $0x1,0x10(%eax)
  40bd39:	c7 40 14 00 00 00 00 	movl   $0x0,0x14(%eax)
  40bd40:	83 c4 2c             	add    $0x2c,%esp
  40bd43:	5b                   	pop    %ebx
  40bd44:	5e                   	pop    %esi
  40bd45:	5f                   	pop    %edi
  40bd46:	5d                   	pop    %ebp
  40bd47:	c3                   	ret    
  40bd48:	89 f0                	mov    %esi,%eax
  40bd4a:	bf 01 00 00 00       	mov    $0x1,%edi
  40bd4f:	89 de                	mov    %ebx,%esi
  40bd51:	89 c3                	mov    %eax,%ebx
  40bd53:	e9 b3 fe ff ff       	jmp    40bc0b <___diff_D2A+0x2b>
  40bd58:	31 c0                	xor    %eax,%eax
  40bd5a:	eb be                	jmp    40bd1a <___diff_D2A+0x13a>
  40bd5c:	8d 74 26 00          	lea    0x0(%esi,%eiz,1),%esi

0040bd60 <___b2d_D2A>:
  40bd60:	55                   	push   %ebp
  40bd61:	b9 20 00 00 00       	mov    $0x20,%ecx
  40bd66:	57                   	push   %edi
  40bd67:	56                   	push   %esi
  40bd68:	53                   	push   %ebx
  40bd69:	83 ec 14             	sub    $0x14,%esp
  40bd6c:	8b 44 24 28          	mov    0x28(%esp),%eax
  40bd70:	8b 7c 24 2c          	mov    0x2c(%esp),%edi
  40bd74:	8d 58 14             	lea    0x14(%eax),%ebx
  40bd77:	8b 40 10             	mov    0x10(%eax),%eax
  40bd7a:	8d 2c 83             	lea    (%ebx,%eax,4),%ebp
  40bd7d:	8b 55 fc             	mov    -0x4(%ebp),%edx
  40bd80:	8d 75 fc             	lea    -0x4(%ebp),%esi
  40bd83:	0f bd c2             	bsr    %edx,%eax
  40bd86:	83 f0 1f             	xor    $0x1f,%eax
  40bd89:	29 c1                	sub    %eax,%ecx
  40bd8b:	83 f8 0a             	cmp    $0xa,%eax
  40bd8e:	89 0f                	mov    %ecx,(%edi)
  40bd90:	7f 3e                	jg     40bdd0 <___b2d_D2A+0x70>
  40bd92:	b9 0b 00 00 00       	mov    $0xb,%ecx
  40bd97:	89 d7                	mov    %edx,%edi
  40bd99:	29 c1                	sub    %eax,%ecx
  40bd9b:	d3 ef                	shr    %cl,%edi
  40bd9d:	81 cf 00 00 f0 3f    	or     $0x3ff00000,%edi
  40bda3:	89 7c 24 04          	mov    %edi,0x4(%esp)
  40bda7:	31 ff                	xor    %edi,%edi
  40bda9:	39 f3                	cmp    %esi,%ebx
  40bdab:	c7 04 24 00 00 00 00 	movl   $0x0,(%esp)
  40bdb2:	73 05                	jae    40bdb9 <___b2d_D2A+0x59>
  40bdb4:	8b 7d f8             	mov    -0x8(%ebp),%edi
  40bdb7:	d3 ef                	shr    %cl,%edi
  40bdb9:	8d 48 15             	lea    0x15(%eax),%ecx
  40bdbc:	d3 e2                	shl    %cl,%edx
  40bdbe:	09 d7                	or     %edx,%edi
  40bdc0:	89 3c 24             	mov    %edi,(%esp)
  40bdc3:	dd 04 24             	fldl   (%esp)
  40bdc6:	83 c4 14             	add    $0x14,%esp
  40bdc9:	5b                   	pop    %ebx
  40bdca:	5e                   	pop    %esi
  40bdcb:	5f                   	pop    %edi
  40bdcc:	5d                   	pop    %ebp
  40bdcd:	c3                   	ret    
  40bdce:	66 90                	xchg   %ax,%ax
  40bdd0:	31 ff                	xor    %edi,%edi
  40bdd2:	39 f3                	cmp    %esi,%ebx
  40bdd4:	73 06                	jae    40bddc <___b2d_D2A+0x7c>
  40bdd6:	8b 7d f8             	mov    -0x8(%ebp),%edi
  40bdd9:	8d 75 f8             	lea    -0x8(%ebp),%esi
  40bddc:	89 c1                	mov    %eax,%ecx
  40bdde:	83 e9 0b             	sub    $0xb,%ecx
  40bde1:	89 4c 24 0c          	mov    %ecx,0xc(%esp)
  40bde5:	74 49                	je     40be30 <___b2d_D2A+0xd0>
  40bde7:	0f b6 4c 24 0c       	movzbl 0xc(%esp),%ecx
  40bdec:	bd 2b 00 00 00       	mov    $0x2b,%ebp
  40bdf1:	29 c5                	sub    %eax,%ebp
  40bdf3:	89 f8                	mov    %edi,%eax
  40bdf5:	c7 04 24 00 00 00 00 	movl   $0x0,(%esp)
  40bdfc:	d3 e2                	shl    %cl,%edx
  40bdfe:	89 e9                	mov    %ebp,%ecx
  40be00:	d3 e8                	shr    %cl,%eax
  40be02:	81 ca 00 00 f0 3f    	or     $0x3ff00000,%edx
  40be08:	09 c2                	or     %eax,%edx
  40be0a:	31 c0                	xor    %eax,%eax
  40be0c:	39 de                	cmp    %ebx,%esi
  40be0e:	89 54 24 04          	mov    %edx,0x4(%esp)
  40be12:	76 05                	jbe    40be19 <___b2d_D2A+0xb9>
  40be14:	8b 46 fc             	mov    -0x4(%esi),%eax
  40be17:	d3 e8                	shr    %cl,%eax
  40be19:	0f b6 4c 24 0c       	movzbl 0xc(%esp),%ecx
  40be1e:	d3 e7                	shl    %cl,%edi
  40be20:	09 f8                	or     %edi,%eax
  40be22:	89 04 24             	mov    %eax,(%esp)
  40be25:	dd 04 24             	fldl   (%esp)
  40be28:	83 c4 14             	add    $0x14,%esp
  40be2b:	5b                   	pop    %ebx
  40be2c:	5e                   	pop    %esi
  40be2d:	5f                   	pop    %edi
  40be2e:	5d                   	pop    %ebp
  40be2f:	c3                   	ret    
  40be30:	81 ca 00 00 f0 3f    	or     $0x3ff00000,%edx
  40be36:	89 3c 24             	mov    %edi,(%esp)
  40be39:	89 54 24 04          	mov    %edx,0x4(%esp)
  40be3d:	dd 04 24             	fldl   (%esp)
  40be40:	83 c4 14             	add    $0x14,%esp
  40be43:	5b                   	pop    %ebx
  40be44:	5e                   	pop    %esi
  40be45:	5f                   	pop    %edi
  40be46:	5d                   	pop    %ebp
  40be47:	c3                   	ret    
  40be48:	90                   	nop
  40be49:	8d b4 26 00 00 00 00 	lea    0x0(%esi,%eiz,1),%esi

0040be50 <___d2b_D2A>:
  40be50:	55                   	push   %ebp
  40be51:	57                   	push   %edi
  40be52:	56                   	push   %esi
  40be53:	53                   	push   %ebx
  40be54:	83 ec 1c             	sub    $0x1c,%esp
  40be57:	dd 44 24 30          	fldl   0x30(%esp)
  40be5b:	c7 04 24 01 00 00 00 	movl   $0x1,(%esp)
  40be62:	dd 5c 24 08          	fstpl  0x8(%esp)
  40be66:	e8 d5 f6 ff ff       	call   40b540 <___Balloc_D2A>
  40be6b:	85 c0                	test   %eax,%eax
  40be6d:	0f 84 c5 00 00 00    	je     40bf38 <___d2b_D2A+0xe8>
  40be73:	8b 54 24 0c          	mov    0xc(%esp),%edx
  40be77:	89 d3                	mov    %edx,%ebx
  40be79:	81 e2 ff ff ff 7f    	and    $0x7fffffff,%edx
  40be7f:	c1 ea 14             	shr    $0x14,%edx
  40be82:	81 e3 ff ff 0f 00    	and    $0xfffff,%ebx
  40be88:	85 d2                	test   %edx,%edx
  40be8a:	74 06                	je     40be92 <___d2b_D2A+0x42>
  40be8c:	81 cb 00 00 10 00    	or     $0x100000,%ebx
  40be92:	8b 7c 24 08          	mov    0x8(%esp),%edi
  40be96:	85 ff                	test   %edi,%edi
  40be98:	75 3e                	jne    40bed8 <___d2b_D2A+0x88>
  40be9a:	f3 0f bc cb          	tzcnt  %ebx,%ecx
  40be9e:	d3 eb                	shr    %cl,%ebx
  40bea0:	85 d2                	test   %edx,%edx
  40bea2:	8d 71 20             	lea    0x20(%ecx),%esi
  40bea5:	b9 01 00 00 00       	mov    $0x1,%ecx
  40beaa:	89 58 14             	mov    %ebx,0x14(%eax)
  40bead:	c7 40 10 01 00 00 00 	movl   $0x1,0x10(%eax)
  40beb4:	74 56                	je     40bf0c <___d2b_D2A+0xbc>
  40beb6:	8b 7c 24 38          	mov    0x38(%esp),%edi
  40beba:	8d 94 16 cd fb ff ff 	lea    -0x433(%esi,%edx,1),%edx
  40bec1:	89 17                	mov    %edx,(%edi)
  40bec3:	ba 35 00 00 00       	mov    $0x35,%edx
  40bec8:	29 f2                	sub    %esi,%edx
  40beca:	8b 74 24 3c          	mov    0x3c(%esp),%esi
  40bece:	89 16                	mov    %edx,(%esi)
  40bed0:	83 c4 1c             	add    $0x1c,%esp
  40bed3:	5b                   	pop    %ebx
  40bed4:	5e                   	pop    %esi
  40bed5:	5f                   	pop    %edi
  40bed6:	5d                   	pop    %ebp
  40bed7:	c3                   	ret    
  40bed8:	f3 0f bc f7          	tzcnt  %edi,%esi
  40bedc:	89 f1                	mov    %esi,%ecx
  40bede:	d3 ef                	shr    %cl,%edi
  40bee0:	85 f6                	test   %esi,%esi
  40bee2:	74 4f                	je     40bf33 <___d2b_D2A+0xe3>
  40bee4:	b9 20 00 00 00       	mov    $0x20,%ecx
  40bee9:	89 dd                	mov    %ebx,%ebp
  40beeb:	29 f1                	sub    %esi,%ecx
  40beed:	d3 e5                	shl    %cl,%ebp
  40beef:	89 e9                	mov    %ebp,%ecx
  40bef1:	09 f9                	or     %edi,%ecx
  40bef3:	89 48 14             	mov    %ecx,0x14(%eax)
  40bef6:	89 f1                	mov    %esi,%ecx
  40bef8:	d3 eb                	shr    %cl,%ebx
  40befa:	83 fb 01             	cmp    $0x1,%ebx
  40befd:	19 c9                	sbb    %ecx,%ecx
  40beff:	83 c1 02             	add    $0x2,%ecx
  40bf02:	85 d2                	test   %edx,%edx
  40bf04:	89 58 18             	mov    %ebx,0x18(%eax)
  40bf07:	89 48 10             	mov    %ecx,0x10(%eax)
  40bf0a:	75 aa                	jne    40beb6 <___d2b_D2A+0x66>
  40bf0c:	8b 7c 24 38          	mov    0x38(%esp),%edi
  40bf10:	81 ee 32 04 00 00    	sub    $0x432,%esi
  40bf16:	0f bd 54 88 10       	bsr    0x10(%eax,%ecx,4),%edx
  40bf1b:	c1 e1 05             	shl    $0x5,%ecx
  40bf1e:	89 37                	mov    %esi,(%edi)
  40bf20:	8b 74 24 3c          	mov    0x3c(%esp),%esi
  40bf24:	83 f2 1f             	xor    $0x1f,%edx
  40bf27:	29 d1                	sub    %edx,%ecx
  40bf29:	89 0e                	mov    %ecx,(%esi)
  40bf2b:	83 c4 1c             	add    $0x1c,%esp
  40bf2e:	5b                   	pop    %ebx
  40bf2f:	5e                   	pop    %esi
  40bf30:	5f                   	pop    %edi
  40bf31:	5d                   	pop    %ebp
  40bf32:	c3                   	ret    
  40bf33:	89 78 14             	mov    %edi,0x14(%eax)
  40bf36:	eb c2                	jmp    40befa <___d2b_D2A+0xaa>
  40bf38:	31 c0                	xor    %eax,%eax
  40bf3a:	eb 94                	jmp    40bed0 <___d2b_D2A+0x80>
  40bf3c:	8d 74 26 00          	lea    0x0(%esi,%eiz,1),%esi

0040bf40 <___strcp_D2A>:
  40bf40:	8b 4c 24 08          	mov    0x8(%esp),%ecx
  40bf44:	8b 44 24 04          	mov    0x4(%esp),%eax
  40bf48:	8d 51 01             	lea    0x1(%ecx),%edx
  40bf4b:	0f b6 09             	movzbl (%ecx),%ecx
  40bf4e:	84 c9                	test   %cl,%cl
  40bf50:	88 08                	mov    %cl,(%eax)
  40bf52:	74 10                	je     40bf64 <___strcp_D2A+0x24>
  40bf54:	83 c2 01             	add    $0x1,%edx
  40bf57:	0f b6 4a ff          	movzbl -0x1(%edx),%ecx
  40bf5b:	83 c0 01             	add    $0x1,%eax
  40bf5e:	84 c9                	test   %cl,%cl
  40bf60:	88 08                	mov    %cl,(%eax)
  40bf62:	75 f0                	jne    40bf54 <___strcp_D2A+0x14>
  40bf64:	f3 c3                	repz ret 
  40bf66:	90                   	nop
  40bf67:	90                   	nop
  40bf68:	90                   	nop
  40bf69:	90                   	nop
  40bf6a:	90                   	nop
  40bf6b:	90                   	nop
  40bf6c:	90                   	nop
  40bf6d:	90                   	nop
  40bf6e:	90                   	nop
  40bf6f:	90                   	nop

0040bf70 <___rshift_D2A>:
  40bf70:	55                   	push   %ebp
  40bf71:	57                   	push   %edi
  40bf72:	56                   	push   %esi
  40bf73:	53                   	push   %ebx
  40bf74:	83 ec 10             	sub    $0x10,%esp
  40bf77:	8b 74 24 24          	mov    0x24(%esp),%esi
  40bf7b:	8b 44 24 24          	mov    0x24(%esp),%eax
  40bf7f:	8b 4c 24 28          	mov    0x28(%esp),%ecx
  40bf83:	8b 56 10             	mov    0x10(%esi),%edx
  40bf86:	8d 68 14             	lea    0x14(%eax),%ebp
  40bf89:	89 c8                	mov    %ecx,%eax
  40bf8b:	c1 f8 05             	sar    $0x5,%eax
  40bf8e:	39 d0                	cmp    %edx,%eax
  40bf90:	0f 8d 8a 00 00 00    	jge    40c020 <___rshift_D2A+0xb0>
  40bf96:	8d 44 85 00          	lea    0x0(%ebp,%eax,4),%eax
  40bf9a:	83 e1 1f             	and    $0x1f,%ecx
  40bf9d:	8d 7c 95 00          	lea    0x0(%ebp,%edx,4),%edi
  40bfa1:	89 44 24 04          	mov    %eax,0x4(%esp)
  40bfa5:	89 0c 24             	mov    %ecx,(%esp)
  40bfa8:	0f 84 92 00 00 00    	je     40c040 <___rshift_D2A+0xd0>
  40bfae:	8b 74 24 04          	mov    0x4(%esp),%esi
  40bfb2:	8b 04 24             	mov    (%esp),%eax
  40bfb5:	c7 44 24 08 20 00 00 	movl   $0x20,0x8(%esp)
  40bfbc:	00 
  40bfbd:	29 44 24 08          	sub    %eax,0x8(%esp)
  40bfc1:	8b 1e                	mov    (%esi),%ebx
  40bfc3:	8d 56 04             	lea    0x4(%esi),%edx
  40bfc6:	89 c1                	mov    %eax,%ecx
  40bfc8:	d3 eb                	shr    %cl,%ebx
  40bfca:	39 d7                	cmp    %edx,%edi
  40bfcc:	0f 86 ac 00 00 00    	jbe    40c07e <___rshift_D2A+0x10e>
  40bfd2:	89 ee                	mov    %ebp,%esi
  40bfd4:	89 6c 24 0c          	mov    %ebp,0xc(%esp)
  40bfd8:	8b 6c 24 08          	mov    0x8(%esp),%ebp
  40bfdc:	8d 74 26 00          	lea    0x0(%esi,%eiz,1),%esi
  40bfe0:	8b 02                	mov    (%edx),%eax
  40bfe2:	89 e9                	mov    %ebp,%ecx
  40bfe4:	83 c6 04             	add    $0x4,%esi
  40bfe7:	83 c2 04             	add    $0x4,%edx
  40bfea:	d3 e0                	shl    %cl,%eax
  40bfec:	0f b6 0c 24          	movzbl (%esp),%ecx
  40bff0:	09 d8                	or     %ebx,%eax
  40bff2:	89 46 fc             	mov    %eax,-0x4(%esi)
  40bff5:	8b 5a fc             	mov    -0x4(%edx),%ebx
  40bff8:	d3 eb                	shr    %cl,%ebx
  40bffa:	39 d7                	cmp    %edx,%edi
  40bffc:	77 e2                	ja     40bfe0 <___rshift_D2A+0x70>
  40bffe:	2b 7c 24 04          	sub    0x4(%esp),%edi
  40c002:	8b 6c 24 0c          	mov    0xc(%esp),%ebp
  40c006:	8d 47 fb             	lea    -0x5(%edi),%eax
  40c009:	c1 e8 02             	shr    $0x2,%eax
  40c00c:	8d 44 85 04          	lea    0x4(%ebp,%eax,4),%eax
  40c010:	85 db                	test   %ebx,%ebx
  40c012:	89 18                	mov    %ebx,(%eax)
  40c014:	74 03                	je     40c019 <___rshift_D2A+0xa9>
  40c016:	83 c0 04             	add    $0x4,%eax
  40c019:	29 e8                	sub    %ebp,%eax
  40c01b:	c1 f8 02             	sar    $0x2,%eax
  40c01e:	eb 4b                	jmp    40c06b <___rshift_D2A+0xfb>
  40c020:	8b 44 24 24          	mov    0x24(%esp),%eax
  40c024:	c7 40 10 00 00 00 00 	movl   $0x0,0x10(%eax)
  40c02b:	8b 44 24 24          	mov    0x24(%esp),%eax
  40c02f:	c7 40 14 00 00 00 00 	movl   $0x0,0x14(%eax)
  40c036:	83 c4 10             	add    $0x10,%esp
  40c039:	5b                   	pop    %ebx
  40c03a:	5e                   	pop    %esi
  40c03b:	5f                   	pop    %edi
  40c03c:	5d                   	pop    %ebp
  40c03d:	c3                   	ret    
  40c03e:	66 90                	xchg   %ax,%ax
  40c040:	39 c7                	cmp    %eax,%edi
  40c042:	89 ea                	mov    %ebp,%edx
  40c044:	76 da                	jbe    40c020 <___rshift_D2A+0xb0>
  40c046:	83 c0 04             	add    $0x4,%eax
  40c049:	8b 48 fc             	mov    -0x4(%eax),%ecx
  40c04c:	83 c2 04             	add    $0x4,%edx
  40c04f:	39 c7                	cmp    %eax,%edi
  40c051:	89 4a fc             	mov    %ecx,-0x4(%edx)
  40c054:	77 f0                	ja     40c046 <___rshift_D2A+0xd6>
  40c056:	8b 44 24 04          	mov    0x4(%esp),%eax
  40c05a:	f7 d0                	not    %eax
  40c05c:	01 f8                	add    %edi,%eax
  40c05e:	c1 e8 02             	shr    $0x2,%eax
  40c061:	8d 04 85 04 00 00 00 	lea    0x4(,%eax,4),%eax
  40c068:	c1 f8 02             	sar    $0x2,%eax
  40c06b:	8b 74 24 24          	mov    0x24(%esp),%esi
  40c06f:	85 c0                	test   %eax,%eax
  40c071:	89 46 10             	mov    %eax,0x10(%esi)
  40c074:	74 b5                	je     40c02b <___rshift_D2A+0xbb>
  40c076:	83 c4 10             	add    $0x10,%esp
  40c079:	5b                   	pop    %ebx
  40c07a:	5e                   	pop    %esi
  40c07b:	5f                   	pop    %edi
  40c07c:	5d                   	pop    %ebp
  40c07d:	c3                   	ret    
  40c07e:	89 e8                	mov    %ebp,%eax
  40c080:	eb 8e                	jmp    40c010 <___rshift_D2A+0xa0>
  40c082:	8d b4 26 00 00 00 00 	lea    0x0(%esi,%eiz,1),%esi
  40c089:	8d bc 27 00 00 00 00 	lea    0x0(%edi,%eiz,1),%edi

0040c090 <___trailz_D2A>:
  40c090:	53                   	push   %ebx
  40c091:	8b 44 24 08          	mov    0x8(%esp),%eax
  40c095:	8b 48 10             	mov    0x10(%eax),%ecx
  40c098:	8d 50 14             	lea    0x14(%eax),%edx
  40c09b:	8d 1c 8a             	lea    (%edx,%ecx,4),%ebx
  40c09e:	39 da                	cmp    %ebx,%edx
  40c0a0:	73 28                	jae    40c0ca <___trailz_D2A+0x3a>
  40c0a2:	8b 48 14             	mov    0x14(%eax),%ecx
  40c0a5:	31 c0                	xor    %eax,%eax
  40c0a7:	85 c9                	test   %ecx,%ecx
  40c0a9:	74 0b                	je     40c0b6 <___trailz_D2A+0x26>
  40c0ab:	eb 15                	jmp    40c0c2 <___trailz_D2A+0x32>
  40c0ad:	8d 76 00             	lea    0x0(%esi),%esi
  40c0b0:	8b 0a                	mov    (%edx),%ecx
  40c0b2:	85 c9                	test   %ecx,%ecx
  40c0b4:	75 0c                	jne    40c0c2 <___trailz_D2A+0x32>
  40c0b6:	83 c2 04             	add    $0x4,%edx
  40c0b9:	83 c0 20             	add    $0x20,%eax
  40c0bc:	39 d3                	cmp    %edx,%ebx
  40c0be:	77 f0                	ja     40c0b0 <___trailz_D2A+0x20>
  40c0c0:	5b                   	pop    %ebx
  40c0c1:	c3                   	ret    
  40c0c2:	f3 0f bc c9          	tzcnt  %ecx,%ecx
  40c0c6:	01 c8                	add    %ecx,%eax
  40c0c8:	5b                   	pop    %ebx
  40c0c9:	c3                   	ret    
  40c0ca:	31 c0                	xor    %eax,%eax
  40c0cc:	5b                   	pop    %ebx
  40c0cd:	c3                   	ret    
  40c0ce:	90                   	nop
  40c0cf:	90                   	nop

0040c0d0 <_signal>:
  40c0d0:	ff 25 28 22 41 00    	jmp    *0x412228
  40c0d6:	90                   	nop
  40c0d7:	90                   	nop

0040c0d8 <__setmode>:
  40c0d8:	ff 25 dc 21 41 00    	jmp    *0x4121dc
  40c0de:	90                   	nop
  40c0df:	90                   	nop

0040c0e0 <___p__fmode>:
  40c0e0:	ff 25 c0 21 41 00    	jmp    *0x4121c0
  40c0e6:	90                   	nop
  40c0e7:	90                   	nop

0040c0e8 <___p__environ>:
  40c0e8:	ff 25 bc 21 41 00    	jmp    *0x4121bc
  40c0ee:	90                   	nop
  40c0ef:	90                   	nop

0040c0f0 <__cexit>:
  40c0f0:	ff 25 c8 21 41 00    	jmp    *0x4121c8
  40c0f6:	90                   	nop
  40c0f7:	90                   	nop

0040c0f8 <___getmainargs>:
  40c0f8:	ff 25 b4 21 41 00    	jmp    *0x4121b4
  40c0fe:	90                   	nop
  40c0ff:	90                   	nop

0040c100 <_puts>:
  40c100:	ff 25 1c 22 41 00    	jmp    *0x41221c
  40c106:	90                   	nop
  40c107:	90                   	nop

0040c108 <_printf>:
  40c108:	ff 25 14 22 41 00    	jmp    *0x412214
  40c10e:	90                   	nop
  40c10f:	90                   	nop

0040c110 <_putchar>:
  40c110:	ff 25 18 22 41 00    	jmp    *0x412218
  40c116:	90                   	nop
  40c117:	90                   	nop

0040c118 <_malloc>:
  40c118:	ff 25 08 22 41 00    	jmp    *0x412208
  40c11e:	90                   	nop
  40c11f:	90                   	nop

0040c120 <_calloc>:
  40c120:	ff 25 ec 21 41 00    	jmp    *0x4121ec
  40c126:	90                   	nop
  40c127:	90                   	nop

0040c128 <_time>:
  40c128:	ff 25 38 22 41 00    	jmp    *0x412238
  40c12e:	90                   	nop
  40c12f:	90                   	nop

0040c130 <_strlen>:
  40c130:	ff 25 34 22 41 00    	jmp    *0x412234
  40c136:	90                   	nop
  40c137:	90                   	nop

0040c138 <_isspace>:
  40c138:	ff 25 00 22 41 00    	jmp    *0x412200
  40c13e:	90                   	nop
  40c13f:	90                   	nop

0040c140 <_fwrite>:
  40c140:	ff 25 f8 21 41 00    	jmp    *0x4121f8
  40c146:	90                   	nop
  40c147:	90                   	nop

0040c148 <_vfprintf>:
  40c148:	ff 25 40 22 41 00    	jmp    *0x412240
  40c14e:	90                   	nop
  40c14f:	90                   	nop

0040c150 <_abort>:
  40c150:	ff 25 e0 21 41 00    	jmp    *0x4121e0
  40c156:	90                   	nop
  40c157:	90                   	nop

0040c158 <_memcpy>:
  40c158:	ff 25 10 22 41 00    	jmp    *0x412210
  40c15e:	90                   	nop
  40c15f:	90                   	nop

0040c160 <_free>:
  40c160:	ff 25 f4 21 41 00    	jmp    *0x4121f4
  40c166:	90                   	nop
  40c167:	90                   	nop

0040c168 <_tolower>:
  40c168:	ff 25 3c 22 41 00    	jmp    *0x41223c
  40c16e:	90                   	nop
  40c16f:	90                   	nop

0040c170 <_realloc>:
  40c170:	ff 25 20 22 41 00    	jmp    *0x412220
  40c176:	90                   	nop
  40c177:	90                   	nop

0040c178 <_strcoll>:
  40c178:	ff 25 30 22 41 00    	jmp    *0x412230
  40c17e:	90                   	nop
  40c17f:	90                   	nop

0040c180 <__errno>:
  40c180:	ff 25 cc 21 41 00    	jmp    *0x4121cc
  40c186:	90                   	nop
  40c187:	90                   	nop

0040c188 <_setlocale>:
  40c188:	ff 25 24 22 41 00    	jmp    *0x412224
  40c18e:	90                   	nop
  40c18f:	90                   	nop

0040c190 <_wcstombs>:
  40c190:	ff 25 48 22 41 00    	jmp    *0x412248
  40c196:	90                   	nop
  40c197:	90                   	nop

0040c198 <_mbstowcs>:
  40c198:	ff 25 0c 22 41 00    	jmp    *0x41220c
  40c19e:	90                   	nop
  40c19f:	90                   	nop

0040c1a0 <__fullpath>:
  40c1a0:	ff 25 d0 21 41 00    	jmp    *0x4121d0
  40c1a6:	90                   	nop
  40c1a7:	90                   	nop

0040c1a8 <_fputc>:
  40c1a8:	ff 25 f0 21 41 00    	jmp    *0x4121f0
  40c1ae:	90                   	nop
  40c1af:	90                   	nop

0040c1b0 <_localeconv>:
  40c1b0:	ff 25 04 22 41 00    	jmp    *0x412204
  40c1b6:	90                   	nop
  40c1b7:	90                   	nop

0040c1b8 <_getenv>:
  40c1b8:	ff 25 fc 21 41 00    	jmp    *0x4121fc
  40c1be:	90                   	nop
  40c1bf:	90                   	nop

0040c1c0 <_wcslen>:
  40c1c0:	ff 25 44 22 41 00    	jmp    *0x412244
  40c1c6:	90                   	nop
  40c1c7:	90                   	nop

0040c1c8 <_strchr>:
  40c1c8:	ff 25 2c 22 41 00    	jmp    *0x41222c
  40c1ce:	90                   	nop
  40c1cf:	90                   	nop

0040c1d0 <_atoi>:
  40c1d0:	ff 25 e8 21 41 00    	jmp    *0x4121e8
  40c1d6:	90                   	nop
  40c1d7:	90                   	nop

0040c1d8 <_SetUnhandledExceptionFilter@4>:
  40c1d8:	ff 25 8c 21 41 00    	jmp    *0x41218c
  40c1de:	90                   	nop
  40c1df:	90                   	nop

0040c1e0 <_ExitProcess@4>:
  40c1e0:	ff 25 58 21 41 00    	jmp    *0x412158
  40c1e6:	90                   	nop
  40c1e7:	90                   	nop

0040c1e8 <_GetModuleHandleA@4>:
  40c1e8:	ff 25 70 21 41 00    	jmp    *0x412170
  40c1ee:	90                   	nop
  40c1ef:	90                   	nop

0040c1f0 <_GetProcAddress@8>:
  40c1f0:	ff 25 74 21 41 00    	jmp    *0x412174
  40c1f6:	90                   	nop
  40c1f7:	90                   	nop

0040c1f8 <_GetCommandLineA@0>:
  40c1f8:	ff 25 68 21 41 00    	jmp    *0x412168
  40c1fe:	90                   	nop
  40c1ff:	90                   	nop

0040c200 <_VirtualQuery@12>:
  40c200:	ff 25 9c 21 41 00    	jmp    *0x41219c
  40c206:	90                   	nop
  40c207:	90                   	nop

0040c208 <_VirtualProtect@16>:
  40c208:	ff 25 98 21 41 00    	jmp    *0x412198
  40c20e:	90                   	nop
  40c20f:	90                   	nop

0040c210 <_EnterCriticalSection@4>:
  40c210:	ff 25 54 21 41 00    	jmp    *0x412154
  40c216:	90                   	nop
  40c217:	90                   	nop

0040c218 <_TlsGetValue@4>:
  40c218:	ff 25 94 21 41 00    	jmp    *0x412194
  40c21e:	90                   	nop
  40c21f:	90                   	nop

0040c220 <_GetLastError@0>:
  40c220:	ff 25 6c 21 41 00    	jmp    *0x41216c
  40c226:	90                   	nop
  40c227:	90                   	nop

0040c228 <_LeaveCriticalSection@4>:
  40c228:	ff 25 84 21 41 00    	jmp    *0x412184
  40c22e:	90                   	nop
  40c22f:	90                   	nop

0040c230 <_DeleteCriticalSection@4>:
  40c230:	ff 25 50 21 41 00    	jmp    *0x412150
  40c236:	90                   	nop
  40c237:	90                   	nop

0040c238 <_InitializeCriticalSection@4>:
  40c238:	ff 25 78 21 41 00    	jmp    *0x412178
  40c23e:	90                   	nop
  40c23f:	90                   	nop

0040c240 <_FindNextFileA@8>:
  40c240:	ff 25 64 21 41 00    	jmp    *0x412164
  40c246:	90                   	nop
  40c247:	90                   	nop

0040c248 <_FindFirstFileA@8>:
  40c248:	ff 25 60 21 41 00    	jmp    *0x412160
  40c24e:	90                   	nop
  40c24f:	90                   	nop

0040c250 <_FindClose@4>:
  40c250:	ff 25 5c 21 41 00    	jmp    *0x41215c
  40c256:	90                   	nop
  40c257:	90                   	nop

0040c258 <_WideCharToMultiByte@32>:
  40c258:	ff 25 a0 21 41 00    	jmp    *0x4121a0
  40c25e:	90                   	nop
  40c25f:	90                   	nop

0040c260 <_IsDBCSLeadByteEx@8>:
  40c260:	ff 25 80 21 41 00    	jmp    *0x412180
  40c266:	90                   	nop
  40c267:	90                   	nop

0040c268 <_MultiByteToWideChar@24>:
  40c268:	ff 25 88 21 41 00    	jmp    *0x412188
  40c26e:	90                   	nop
  40c26f:	90                   	nop

0040c270 <_Sleep@4>:
  40c270:	ff 25 90 21 41 00    	jmp    *0x412190
  40c276:	90                   	nop
  40c277:	90                   	nop

0040c278 <_InterlockedExchange@8>:
  40c278:	ff 25 7c 21 41 00    	jmp    *0x41217c
  40c27e:	90                   	nop
  40c27f:	90                   	nop

0040c280 <___umoddi3>:
  40c280:	55                   	push   %ebp
  40c281:	57                   	push   %edi
  40c282:	56                   	push   %esi
  40c283:	53                   	push   %ebx
  40c284:	83 ec 1c             	sub    $0x1c,%esp
  40c287:	8b 44 24 3c          	mov    0x3c(%esp),%eax
  40c28b:	8b 4c 24 30          	mov    0x30(%esp),%ecx
  40c28f:	8b 6c 24 34          	mov    0x34(%esp),%ebp
  40c293:	8b 5c 24 38          	mov    0x38(%esp),%ebx
  40c297:	85 c0                	test   %eax,%eax
  40c299:	89 c2                	mov    %eax,%edx
  40c29b:	89 4c 24 0c          	mov    %ecx,0xc(%esp)
  40c29f:	89 ee                	mov    %ebp,%esi
  40c2a1:	89 1c 24             	mov    %ebx,(%esp)
  40c2a4:	89 4c 24 04          	mov    %ecx,0x4(%esp)
  40c2a8:	89 6c 24 08          	mov    %ebp,0x8(%esp)
  40c2ac:	75 16                	jne    40c2c4 <___umoddi3+0x44>
  40c2ae:	39 eb                	cmp    %ebp,%ebx
  40c2b0:	76 4e                	jbe    40c300 <___umoddi3+0x80>
  40c2b2:	89 c8                	mov    %ecx,%eax
  40c2b4:	89 ea                	mov    %ebp,%edx
  40c2b6:	f7 f3                	div    %ebx
  40c2b8:	89 d0                	mov    %edx,%eax
  40c2ba:	31 d2                	xor    %edx,%edx
  40c2bc:	83 c4 1c             	add    $0x1c,%esp
  40c2bf:	5b                   	pop    %ebx
  40c2c0:	5e                   	pop    %esi
  40c2c1:	5f                   	pop    %edi
  40c2c2:	5d                   	pop    %ebp
  40c2c3:	c3                   	ret    
  40c2c4:	39 e8                	cmp    %ebp,%eax
  40c2c6:	77 58                	ja     40c320 <___umoddi3+0xa0>
  40c2c8:	0f bd f8             	bsr    %eax,%edi
  40c2cb:	83 f7 1f             	xor    $0x1f,%edi
  40c2ce:	75 60                	jne    40c330 <___umoddi3+0xb0>
  40c2d0:	8b 7c 24 04          	mov    0x4(%esp),%edi
  40c2d4:	39 3c 24             	cmp    %edi,(%esp)
  40c2d7:	0f 87 e4 00 00 00    	ja     40c3c1 <___umoddi3+0x141>
  40c2dd:	89 ef                	mov    %ebp,%edi
  40c2df:	89 ce                	mov    %ecx,%esi
  40c2e1:	29 de                	sub    %ebx,%esi
  40c2e3:	19 c7                	sbb    %eax,%edi
  40c2e5:	89 74 24 04          	mov    %esi,0x4(%esp)
  40c2e9:	89 7c 24 08          	mov    %edi,0x8(%esp)
  40c2ed:	8b 44 24 04          	mov    0x4(%esp),%eax
  40c2f1:	8b 54 24 08          	mov    0x8(%esp),%edx
  40c2f5:	83 c4 1c             	add    $0x1c,%esp
  40c2f8:	5b                   	pop    %ebx
  40c2f9:	5e                   	pop    %esi
  40c2fa:	5f                   	pop    %edi
  40c2fb:	5d                   	pop    %ebp
  40c2fc:	c3                   	ret    
  40c2fd:	8d 76 00             	lea    0x0(%esi),%esi
  40c300:	85 db                	test   %ebx,%ebx
  40c302:	89 df                	mov    %ebx,%edi
  40c304:	75 0b                	jne    40c311 <___umoddi3+0x91>
  40c306:	b8 01 00 00 00       	mov    $0x1,%eax
  40c30b:	31 d2                	xor    %edx,%edx
  40c30d:	f7 f3                	div    %ebx
  40c30f:	89 c7                	mov    %eax,%edi
  40c311:	89 e8                	mov    %ebp,%eax
  40c313:	31 d2                	xor    %edx,%edx
  40c315:	f7 f7                	div    %edi
  40c317:	89 c8                	mov    %ecx,%eax
  40c319:	f7 f7                	div    %edi
  40c31b:	eb 9b                	jmp    40c2b8 <___umoddi3+0x38>
  40c31d:	8d 76 00             	lea    0x0(%esi),%esi
  40c320:	89 c8                	mov    %ecx,%eax
  40c322:	89 ea                	mov    %ebp,%edx
  40c324:	83 c4 1c             	add    $0x1c,%esp
  40c327:	5b                   	pop    %ebx
  40c328:	5e                   	pop    %esi
  40c329:	5f                   	pop    %edi
  40c32a:	5d                   	pop    %ebp
  40c32b:	c3                   	ret    
  40c32c:	8d 74 26 00          	lea    0x0(%esi,%eiz,1),%esi
  40c330:	8b 2c 24             	mov    (%esp),%ebp
  40c333:	bb 20 00 00 00       	mov    $0x20,%ebx
  40c338:	89 f9                	mov    %edi,%ecx
  40c33a:	29 fb                	sub    %edi,%ebx
  40c33c:	d3 e2                	shl    %cl,%edx
  40c33e:	89 d9                	mov    %ebx,%ecx
  40c340:	89 e8                	mov    %ebp,%eax
  40c342:	d3 e8                	shr    %cl,%eax
  40c344:	89 f9                	mov    %edi,%ecx
  40c346:	89 04 24             	mov    %eax,(%esp)
  40c349:	89 e8                	mov    %ebp,%eax
  40c34b:	d3 e0                	shl    %cl,%eax
  40c34d:	89 d9                	mov    %ebx,%ecx
  40c34f:	89 c5                	mov    %eax,%ebp
  40c351:	89 44 24 08          	mov    %eax,0x8(%esp)
  40c355:	8b 44 24 0c          	mov    0xc(%esp),%eax
  40c359:	09 14 24             	or     %edx,(%esp)
  40c35c:	89 f2                	mov    %esi,%edx
  40c35e:	d3 ea                	shr    %cl,%edx
  40c360:	89 f9                	mov    %edi,%ecx
  40c362:	d3 e6                	shl    %cl,%esi
  40c364:	89 d9                	mov    %ebx,%ecx
  40c366:	d3 e8                	shr    %cl,%eax
  40c368:	89 f9                	mov    %edi,%ecx
  40c36a:	09 f0                	or     %esi,%eax
  40c36c:	8b 74 24 0c          	mov    0xc(%esp),%esi
  40c370:	f7 34 24             	divl   (%esp)
  40c373:	d3 e6                	shl    %cl,%esi
  40c375:	89 74 24 04          	mov    %esi,0x4(%esp)
  40c379:	89 d6                	mov    %edx,%esi
  40c37b:	f7 e5                	mul    %ebp
  40c37d:	39 d6                	cmp    %edx,%esi
  40c37f:	89 c1                	mov    %eax,%ecx
  40c381:	89 d5                	mov    %edx,%ebp
  40c383:	72 2f                	jb     40c3b4 <___umoddi3+0x134>
  40c385:	39 44 24 04          	cmp    %eax,0x4(%esp)
  40c389:	72 25                	jb     40c3b0 <___umoddi3+0x130>
  40c38b:	8b 44 24 04          	mov    0x4(%esp),%eax
  40c38f:	29 c8                	sub    %ecx,%eax
  40c391:	19 ee                	sbb    %ebp,%esi
  40c393:	89 f9                	mov    %edi,%ecx
  40c395:	89 f2                	mov    %esi,%edx
  40c397:	d3 e8                	shr    %cl,%eax
  40c399:	89 d9                	mov    %ebx,%ecx
  40c39b:	d3 e2                	shl    %cl,%edx
  40c39d:	89 f9                	mov    %edi,%ecx
  40c39f:	d3 ee                	shr    %cl,%esi
  40c3a1:	09 d0                	or     %edx,%eax
  40c3a3:	89 f2                	mov    %esi,%edx
  40c3a5:	83 c4 1c             	add    $0x1c,%esp
  40c3a8:	5b                   	pop    %ebx
  40c3a9:	5e                   	pop    %esi
  40c3aa:	5f                   	pop    %edi
  40c3ab:	5d                   	pop    %ebp
  40c3ac:	c3                   	ret    
  40c3ad:	8d 76 00             	lea    0x0(%esi),%esi
  40c3b0:	39 d6                	cmp    %edx,%esi
  40c3b2:	75 d7                	jne    40c38b <___umoddi3+0x10b>
  40c3b4:	89 d5                	mov    %edx,%ebp
  40c3b6:	89 c1                	mov    %eax,%ecx
  40c3b8:	2b 4c 24 08          	sub    0x8(%esp),%ecx
  40c3bc:	1b 2c 24             	sbb    (%esp),%ebp
  40c3bf:	eb ca                	jmp    40c38b <___umoddi3+0x10b>
  40c3c1:	3b 44 24 08          	cmp    0x8(%esp),%eax
  40c3c5:	0f 82 12 ff ff ff    	jb     40c2dd <___umoddi3+0x5d>
  40c3cb:	e9 1d ff ff ff       	jmp    40c2ed <___umoddi3+0x6d>

0040c3d0 <___udivdi3>:
  40c3d0:	55                   	push   %ebp
  40c3d1:	57                   	push   %edi
  40c3d2:	56                   	push   %esi
  40c3d3:	53                   	push   %ebx
  40c3d4:	83 ec 14             	sub    $0x14,%esp
  40c3d7:	8b 74 24 34          	mov    0x34(%esp),%esi
  40c3db:	8b 7c 24 28          	mov    0x28(%esp),%edi
  40c3df:	8b 6c 24 2c          	mov    0x2c(%esp),%ebp
  40c3e3:	8b 4c 24 30          	mov    0x30(%esp),%ecx
  40c3e7:	85 f6                	test   %esi,%esi
  40c3e9:	89 3c 24             	mov    %edi,(%esp)
  40c3ec:	89 e8                	mov    %ebp,%eax
  40c3ee:	89 ca                	mov    %ecx,%edx
  40c3f0:	75 2e                	jne    40c420 <___udivdi3+0x50>
  40c3f2:	39 e9                	cmp    %ebp,%ecx
  40c3f4:	77 5c                	ja     40c452 <___udivdi3+0x82>
  40c3f6:	85 c9                	test   %ecx,%ecx
  40c3f8:	89 cb                	mov    %ecx,%ebx
  40c3fa:	75 0b                	jne    40c407 <___udivdi3+0x37>
  40c3fc:	b8 01 00 00 00       	mov    $0x1,%eax
  40c401:	31 d2                	xor    %edx,%edx
  40c403:	f7 f1                	div    %ecx
  40c405:	89 c3                	mov    %eax,%ebx
  40c407:	89 e8                	mov    %ebp,%eax
  40c409:	31 d2                	xor    %edx,%edx
  40c40b:	f7 f3                	div    %ebx
  40c40d:	89 c5                	mov    %eax,%ebp
  40c40f:	89 f8                	mov    %edi,%eax
  40c411:	f7 f3                	div    %ebx
  40c413:	89 ea                	mov    %ebp,%edx
  40c415:	83 c4 14             	add    $0x14,%esp
  40c418:	5b                   	pop    %ebx
  40c419:	5e                   	pop    %esi
  40c41a:	5f                   	pop    %edi
  40c41b:	5d                   	pop    %ebp
  40c41c:	c3                   	ret    
  40c41d:	8d 76 00             	lea    0x0(%esi),%esi
  40c420:	39 ee                	cmp    %ebp,%esi
  40c422:	77 22                	ja     40c446 <___udivdi3+0x76>
  40c424:	0f bd de             	bsr    %esi,%ebx
  40c427:	83 f3 1f             	xor    $0x1f,%ebx
  40c42a:	75 36                	jne    40c462 <___udivdi3+0x92>
  40c42c:	3b 0c 24             	cmp    (%esp),%ecx
  40c42f:	ba 00 00 00 00       	mov    $0x0,%edx
  40c434:	0f 86 86 00 00 00    	jbe    40c4c0 <___udivdi3+0xf0>
  40c43a:	39 ee                	cmp    %ebp,%esi
  40c43c:	0f 82 7e 00 00 00    	jb     40c4c0 <___udivdi3+0xf0>
  40c442:	31 c0                	xor    %eax,%eax
  40c444:	eb cf                	jmp    40c415 <___udivdi3+0x45>
  40c446:	31 d2                	xor    %edx,%edx
  40c448:	31 c0                	xor    %eax,%eax
  40c44a:	83 c4 14             	add    $0x14,%esp
  40c44d:	5b                   	pop    %ebx
  40c44e:	5e                   	pop    %esi
  40c44f:	5f                   	pop    %edi
  40c450:	5d                   	pop    %ebp
  40c451:	c3                   	ret    
  40c452:	89 f8                	mov    %edi,%eax
  40c454:	89 ea                	mov    %ebp,%edx
  40c456:	f7 f1                	div    %ecx
  40c458:	31 d2                	xor    %edx,%edx
  40c45a:	83 c4 14             	add    $0x14,%esp
  40c45d:	5b                   	pop    %ebx
  40c45e:	5e                   	pop    %esi
  40c45f:	5f                   	pop    %edi
  40c460:	5d                   	pop    %ebp
  40c461:	c3                   	ret    
  40c462:	bf 20 00 00 00       	mov    $0x20,%edi
  40c467:	89 d9                	mov    %ebx,%ecx
  40c469:	29 df                	sub    %ebx,%edi
  40c46b:	89 d5                	mov    %edx,%ebp
  40c46d:	d3 e6                	shl    %cl,%esi
  40c46f:	89 f9                	mov    %edi,%ecx
  40c471:	d3 ed                	shr    %cl,%ebp
  40c473:	89 d9                	mov    %ebx,%ecx
  40c475:	d3 e2                	shl    %cl,%edx
  40c477:	09 f5                	or     %esi,%ebp
  40c479:	89 54 24 04          	mov    %edx,0x4(%esp)
  40c47d:	8b 14 24             	mov    (%esp),%edx
  40c480:	89 f9                	mov    %edi,%ecx
  40c482:	89 c6                	mov    %eax,%esi
  40c484:	d3 ee                	shr    %cl,%esi
  40c486:	89 d9                	mov    %ebx,%ecx
  40c488:	d3 e0                	shl    %cl,%eax
  40c48a:	89 f9                	mov    %edi,%ecx
  40c48c:	d3 ea                	shr    %cl,%edx
  40c48e:	89 d7                	mov    %edx,%edi
  40c490:	89 f2                	mov    %esi,%edx
  40c492:	09 c7                	or     %eax,%edi
  40c494:	89 f8                	mov    %edi,%eax
  40c496:	f7 f5                	div    %ebp
  40c498:	89 d6                	mov    %edx,%esi
  40c49a:	89 c7                	mov    %eax,%edi
  40c49c:	f7 64 24 04          	mull   0x4(%esp)
  40c4a0:	39 d6                	cmp    %edx,%esi
  40c4a2:	72 2c                	jb     40c4d0 <___udivdi3+0x100>
  40c4a4:	8b 2c 24             	mov    (%esp),%ebp
  40c4a7:	89 d9                	mov    %ebx,%ecx
  40c4a9:	d3 e5                	shl    %cl,%ebp
  40c4ab:	39 c5                	cmp    %eax,%ebp
  40c4ad:	73 04                	jae    40c4b3 <___udivdi3+0xe3>
  40c4af:	39 d6                	cmp    %edx,%esi
  40c4b1:	74 1d                	je     40c4d0 <___udivdi3+0x100>
  40c4b3:	89 f8                	mov    %edi,%eax
  40c4b5:	31 d2                	xor    %edx,%edx
  40c4b7:	e9 59 ff ff ff       	jmp    40c415 <___udivdi3+0x45>
  40c4bc:	8d 74 26 00          	lea    0x0(%esi,%eiz,1),%esi
  40c4c0:	b8 01 00 00 00       	mov    $0x1,%eax
  40c4c5:	e9 4b ff ff ff       	jmp    40c415 <___udivdi3+0x45>
  40c4ca:	8d b6 00 00 00 00    	lea    0x0(%esi),%esi
  40c4d0:	8d 47 ff             	lea    -0x1(%edi),%eax
  40c4d3:	31 d2                	xor    %edx,%edx
  40c4d5:	83 c4 14             	add    $0x14,%esp
  40c4d8:	5b                   	pop    %ebx
  40c4d9:	5e                   	pop    %esi
  40c4da:	5f                   	pop    %edi
  40c4db:	5d                   	pop    %ebp
  40c4dc:	c3                   	ret    
  40c4dd:	90                   	nop
  40c4de:	90                   	nop
  40c4df:	90                   	nop

0040c4e0 <_strdup>:
  40c4e0:	ff 25 a8 21 41 00    	jmp    *0x4121a8
  40c4e6:	90                   	nop
  40c4e7:	90                   	nop

0040c4e8 <_stricoll>:
  40c4e8:	ff 25 ac 21 41 00    	jmp    *0x4121ac
  40c4ee:	90                   	nop
  40c4ef:	90                   	nop

0040c4f0 <_register_frame_ctor>:
  40c4f0:	55                   	push   %ebp
  40c4f1:	89 e5                	mov    %esp,%ebp
  40c4f3:	83 ec 18             	sub    $0x18,%esp
  40c4f6:	e8 05 4e ff ff       	call   401300 <___gcc_register_frame>
  40c4fb:	c7 04 24 90 13 40 00 	movl   $0x401390,(%esp)
  40c502:	e8 d9 4d ff ff       	call   4012e0 <_atexit>
  40c507:	c9                   	leave  
  40c508:	c3                   	ret    
  40c509:	90                   	nop
  40c50a:	90                   	nop
  40c50b:	90                   	nop
  40c50c:	90                   	nop
  40c50d:	90                   	nop
  40c50e:	90                   	nop
  40c50f:	90                   	nop

0040c510 <__CTOR_LIST__>:
  40c510:	ff                   	(bad)  
  40c511:	ff                   	(bad)  
  40c512:	ff                   	(bad)  
  40c513:	ff f0                	push   %eax

0040c514 <.ctors.65535>:
  40c514:	f0 c4 40 00          	lock les 0x0(%eax),%eax
  40c518:	00 00                	add    %al,(%eax)
	...

0040c51c <__DTOR_LIST__>:
  40c51c:	ff                   	(bad)  
  40c51d:	ff                   	(bad)  
  40c51e:	ff                   	(bad)  
  40c51f:	ff 00                	incl   (%eax)
  40c521:	00 00                	add    %al,(%eax)
	...
